 CoreClient

 Timestamp is 6912700e (Mon Nov 10 18:06:54 2025)

 Preferred load address is 10000000

 Start         Length     Name                   Class
 0001:00000000 000769ceH .text                   CODE
 0001:000769d0 000011b3H .text$x                 CODE
 0002:00000000 000002c0H .idata$5                DATA
 0002:000002c0 0000ac1cH .rdata                  DATA
 0002:0000aee0 000014f8H .xdata$x                DATA
 0002:0000c3d8 00000078H .idata$2                DATA
 0002:0000c450 00000014H .idata$3                DATA
 0002:0000c464 000002c0H .idata$4                DATA
 0002:0000c724 00001338H .idata$6                DATA
 0002:0000da60 00001accH .edata                  DATA
 0003:00000000 00000004H .CRT$XCA                DATA
 0003:00000004 000000e4H .CRT$XCU                DATA
 0003:000000e8 00000004H .CRT$XCZ                DATA
 0003:000000ec 00000004H .CRT$XIA                DATA
 0003:000000f0 00000004H .CRT$XIZ                DATA
 0003:00000100 00005930H .data                   DATA
 0003:00005a30 01d6063cH .bss                    DATA

  Address         Publics by Value              Rva+Base     Lib:Object

 0001:00000000       ?GetMoney@KInventory@@QAEHXZ 10001000 f i KThiefSkill.obj
 0001:00000010       ?SetMoney@KInventory@@QAEHH@Z 10001010 f i KThiefSkill.obj
 0001:00000030       ??4KInventory@@QAEAAV0@ABV0@@Z 10001030 f i KThiefSkill.obj
 0001:00000060       ?GetBuildItem@KItemList@@QAEHH@Z 10001060 f i KThiefSkill.obj
 0001:00000070       ?GetEquipment@KItemList@@QBEHH@Z 10001070 f i KThiefSkill.obj
 0001:00000080       ?GetMoney@KItemList@@QAEHH@Z 10001080 f i KThiefSkill.obj
 0001:000000a0       ?Hand@KItemList@@QAEHXZ    100010a0 f i KThiefSkill.obj
 0001:000000b0       ?GetMaskLock@KItemList@@QAEHXZ 100010b0 f i KThiefSkill.obj
 0001:000000c0       ?IsLockOperation@KItemList@@QAEHXZ 100010c0 f i KThiefSkill.obj
 0001:000000d0       ?IsActiveSet@KItemList@@QBEHXZ 100010d0 f i KThiefSkill.obj
 0001:000000e0       ??4KItemList@@QAEAAV0@ABV0@@Z 100010e0 f i KThiefSkill.obj
 0001:00000100       ??0KThiefSkill@@QAE@XZ     10001100 f   KThiefSkill.obj
 0001:00000140       ?GetSkillCostType@KThiefSkill@@UBE?AW4NPCATTRIB@@XZ 10001140 f i KThiefSkill.obj
 0001:00000150       ?GetAttackRadius@KThiefSkill@@UBEHXZ 10001150 f i KThiefSkill.obj
 0001:00000160       ?IsTargetOnly@KThiefSkill@@UBEHXZ 10001160 f i KThiefSkill.obj
 0001:00000170       ?IsTargetSelf@KThiefSkill@@UBEHXZ 10001170 f i KThiefSkill.obj
 0001:00000180       ?IsTargetEnemy@KThiefSkill@@UBEHXZ 10001180 f i KThiefSkill.obj
 0001:00000190       ?IsTargetAlly@KThiefSkill@@UBEHXZ 10001190 f i KThiefSkill.obj
 0001:000001a0       ?IsTargetObj@KThiefSkill@@UBEHXZ 100011a0 f i KThiefSkill.obj
 0001:000001b0       ??_EKThiefSkill@@UAEPAXI@Z 100011b0 f i KThiefSkill.obj
 0001:000001b0       ??_GKThiefSkill@@UAEPAXI@Z 100011b0 f i KThiefSkill.obj
 0001:000001d0       ??1KThiefSkill@@UAE@XZ     100011d0 f   KThiefSkill.obj
 0001:000001e0       ?GetSkillId@KThiefSkill@@UAEHXZ 100011e0 f   KThiefSkill.obj
 0001:000001f0       ?GetSkillName@KThiefSkill@@UAEPBDXZ 100011f0 f   KThiefSkill.obj
 0001:00000200       ?GetSkillStyle@KThiefSkill@@UAEHXZ 10001200 f   KThiefSkill.obj
 0001:00000210       ?LoadSkillLevelData@KThiefSkill@@UAEXKH@Z 10001210 f   KThiefSkill.obj
 0001:00000220       ?DoSkill@KThiefSkill@@QAEHPAVKNpc@@HH@Z 10001220 f   KThiefSkill.obj
 0001:000002e0       ?Cast@KThiefSkill@@QAEHPAVKPlayer@@0@Z 100012e0 f   KThiefSkill.obj
 0001:000002f0       ?OnSkill@KThiefSkill@@QAEHPAVKNpc@@@Z 100012f0 f   KThiefSkill.obj
 0001:00000420       ?CanCastSkill@KThiefSkill@@UBEHHAAH0@Z 10001420 f   KThiefSkill.obj
 0001:000004d0       ?GetDesc@KThiefSkill@@QAEXKKPADH_N@Z 100014d0 f   KThiefSkill.obj
 0001:00000500       ?LoadSetting@KThiefSkill@@QAEHPAD@Z 10001500 f   KThiefSkill.obj
 0001:000007c0       ?GetSkillCost@KThiefSkill@@UBEHPAX@Z 100017c0 f   KThiefSkill.obj
 0001:000007e0       ?DrawSkillIcon@KThiefSkill@@UAEXHHHHH@Z 100017e0 f   KThiefSkill.obj
 0001:00000a30       ?IsAura@ISkill@@UBEHXZ     10001a30 f i KThiefSkill.obj
 0001:00000a40       ?IsPhysical@ISkill@@UBEHXZ 10001a40 f i KThiefSkill.obj
 0001:00000a50       ?GetSkillAttrib@ISkill@@UBEFXZ 10001a50 f i KThiefSkill.obj
 0001:00000a60       ?IsExpSkill@ISkill@@UBEHXZ 10001a60 f i KThiefSkill.obj
 0001:00000a70       ?GetSkillLevelUpScriptId@ISkill@@UBEKXZ 10001a70 f i KThiefSkill.obj
 0001:00000a80       ??_EISkill@@UAEPAXI@Z      10001a80 f i KThiefSkill.obj
 0001:00000a80       ??_GISkill@@UAEPAXI@Z      10001a80 f i KThiefSkill.obj
 0001:00000aa0       ??4KMapMusic@@QAEAAV0@ABV0@@Z 10001aa0 f i KMissle.obj
 0001:00000ac0       ?GetGameTime@KSubWorldSet@@QAEHXZ 10001ac0 f i KMissle.obj
 0001:00000ad0       ?GetGameVersion@KSubWorldSet@@QAEHXZ 10001ad0 f i KMissle.obj
 0001:00000ae0       ?SetPing@KSubWorldSet@@QAEXK@Z 10001ae0 f i KMissle.obj
 0001:00000af0       ?GetPing@KSubWorldSet@@QAEKXZ 10001af0 f i KMissle.obj
 0001:00000b00       ??4KSubWorldSet@@QAEAAV0@ABV0@@Z 10001b00 f i KMissle.obj
 0001:00000b20       ??1KSubWorldSet@@QAE@XZ    10001b20 f i KMissle.obj
 0001:00000b30       ??0KMissleSet@@QAE@XZ      10001b30 f i KMissle.obj
 0001:00000b40       ??4KMissleSet@@QAEAAV0@ABV0@@Z 10001b40 f i KMissle.obj
 0001:00000b70       ??1KMissleSet@@QAE@XZ      10001b70 f i KMissle.obj
 0001:00000c80       ??0KMissle@@QAE@XZ         10001c80 f   KMissle.obj
 0001:00000d50       ??_GKMissle@@UAEPAXI@Z     10001d50 f i KMissle.obj
 0001:00000d50       ??_EKMissle@@UAEPAXI@Z     10001d50 f i KMissle.obj
 0001:00000d70       ?Release@KMissle@@AAEXXZ   10001d70 f   KMissle.obj
 0001:00000dc0       ??1KMissle@@UAE@XZ         10001dc0 f   KMissle.obj
 0001:00000e10       ??_EKNode@@UAEPAXI@Z       10001e10 f i KMissle.obj
 0001:00000e10       ??_GKNode@@UAEPAXI@Z       10001e10 f i KMissle.obj
 0001:00000e30       ?GetInfoFromTabFile@KMissle@@QAEHH@Z 10001e30 f   KMissle.obj
 0001:00000e50       ?GetInfoFromTabFile@KMissle@@QAEHPAVKITabFile@@H@Z 10001e50 f   KMissle.obj
 0001:00001370       ??_EKIndexNode@@UAEPAXI@Z  10002370 f i KMissle.obj
 0001:00001370       ??_GKIndexNode@@UAEPAXI@Z  10002370 f i KMissle.obj
 0001:00001390       ??1KIndexNode@@UAE@XZ      10002390 f i KMissle.obj
 0001:000013a0       ?Init@KMissle@@AAEHHHHHH@Z 100023a0 f   KMissle.obj
 0001:000013c0       ?Activate@KMissle@@QAEHXZ  100023c0 f   KMissle.obj
 0001:00001730       ?OnWait@KMissle@@AAEXXZ    10002730 f   KMissle.obj
 0001:00001740       ?OnCollision@KMissle@@AAEXXZ 10002740 f   KMissle.obj
 0001:00001750       ?CheckCollision@KMissle@@AAEHXZ 10002750 f   KMissle.obj
 0001:00001910       ?OnFly@KMissle@@AAEXXZ     10002910 f   KMissle.obj
 0001:00002330       ?Send@KWorldMsg@@QAEHKHHH@Z 10003330 f i KMissle.obj
 0001:000023a0       ??_GKWorldMsgNode@@UAEPAXI@Z 100033a0 f i KMissle.obj
 0001:000023a0       ??_EKWorldMsgNode@@UAEPAXI@Z 100033a0 f i KMissle.obj
 0001:000023c0       ??1KWorldMsgNode@@UAE@XZ   100033c0 f i KMissle.obj
 0001:000023d0       ?OnVanish@KMissle@@AAEXXZ  100033d0 f   KMissle.obj
 0001:000023e0       ?Paint@KMissle@@QAEXXZ     100033e0 f   KMissle.obj
 0001:000025d0       ?CheckBeyondRegion@KMissle@@AAEHHH@Z 100035d0 f   KMissle.obj
 0001:00002840       ??4KMissle@@AAEAAV0@AAV0@@Z 10003840 f   KMissle.obj
 0001:00002b00       ?ProcessDamage@KMissle@@AAEHH@Z 10003b00 f   KMissle.obj
 0001:00002b10       ?DoVanish@KMissle@@AAEXXZ  10003b10 f   KMissle.obj
 0001:00002bb0       ?DoCollision@KMissle@@AAEXXZ 10003bb0 f   KMissle.obj
 0001:00002d10       ?DoFly@KMissle@@AAEXXZ     10003d10 f   KMissle.obj
 0001:00002d30       ?GetOffsetAxis@KMissle@@SAHHHHHHHAAH00@Z 10003d30 f   KMissle.obj
 0001:00002e40       ?ProcessCollision@KMissle@@AAEHHHHHHH@Z 10003e40 f   KMissle.obj
 0001:00002ff0       ?ProcessCollision@KMissle@@AAEHXZ 10003ff0 f   KMissle.obj
 0001:00003030       ?CreateSpecialEffect@KMissle@@QAEHW4eMissleStatus@@HHHH@Z 10004030 f   KMissle.obj
 0001:000031f0       ??_EKSkillSpecialNode@@UAEPAXI@Z 100041f0 f i KMissle.obj
 0001:000031f0       ??_GKSkillSpecialNode@@UAEPAXI@Z 100041f0 f i KMissle.obj
 0001:00003210       ??1KSkillSpecialNode@@UAE@XZ 10004210 f i KMissle.obj
 0001:00003230       ?CreateMissleForShow@KMissle@@SAHPAD00PAUTMissleForShow@@@Z 10004230 f   KMissle.obj
 0001:00003440       ?GetLightInfo@KMissle@@QAEXPAUKLightInfo@@@Z 10004440 f   KMissle.obj
 0001:000034b0       ?DoWait@KMissle@@AAEXXZ    100044b0 f   KMissle.obj
 0001:00003530       ?PrePareFly@KMissle@@AAEHXZ 10004530 f   KMissle.obj
 0001:00003790       ?CheckNearestCollision@KMissle@@AAEHXZ 10004790 f   KMissle.obj
 0001:00003950       ?FindNearestCollision@KMissle@@AAEHHH@Z 10004950 f   KMissle.obj
 0001:00003a20       ?GetMpsPos@KMissle@@QAEXPAH0@Z 10004a20 f   KMissle.obj
 0001:00003a70       ??0KMissleRes@@QAE@XZ      10004a70 f   KMissleRes.obj
 0001:00003b10       ??1KMissleRes@@QAE@XZ      10004b10 f   KMissleRes.obj
 0001:00003bb0       ??1KList@@QAE@XZ           10004bb0 f i KMissleRes.obj
 0001:00003bc0       ?LoadResource@KMissleRes@@QAEXHPAD0@Z 10004bc0 f   KMissleRes.obj
 0001:00003c30       ?Init@KMissleRes@@QAEHXZ   10004c30 f   KMissleRes.obj
 0001:00003c40       ?Remove@KMissleRes@@QAEXXZ 10004c40 f   KMissleRes.obj
 0001:00003c50       ?Clear@KMissleRes@@QAEXXZ  10004c50 f   KMissleRes.obj
 0001:00003cf0       ?Draw@KMissleRes@@QAEHHHHHHHH@Z 10004cf0 f   KMissleRes.obj
 0001:00003f90       ?PlaySoundA@KMissleRes@@QAEXHHHH@Z 10004f90 f   KMissleRes.obj
 0001:00004060       ?GetSndVolume@KMissleRes@@QAEHH@Z 10005060 f   KMissleRes.obj
 0001:00004090       ?StopSound@KMissleRes@@QAEXXZ 10005090 f   KMissleRes.obj
 0001:00004120       ?Init@KMissleSet@@QAEXXZ   10005120 f   KMissleSet.obj
 0001:00004170       ?FindFree@KMissleSet@@QAEHXZ 10005170 f   KMissleSet.obj
 0001:00004180       ?Add@KMissleSet@@QAEHHHHHHH@Z 10005180 f   KMissleSet.obj
 0001:00004220       ?Add@KMissleSet@@QAEHHHH@Z 10005220 f   KMissleSet.obj
 0001:00004370       ?CreateMissile@KMissleSet@@QAEHHHHHHHHH@Z 10005370 f   KMissleSet.obj
 0001:000043a0       ?Activate@KMissleSet@@QAEHXZ 100053a0 f   KMissleSet.obj
 0001:000043d0       ?Remove@KMissleSet@@QAEXH@Z 100053d0 f   KMissleSet.obj
 0001:00004420       ?Draw@KMissleSet@@QAEXXZ   10005420 f   KMissleSet.obj
 0001:00004440       ?GetCount@KMissleSet@@QAEHXZ 10005440 f   KMissleSet.obj
 0001:00004460       ?ClearMissles@KMissleSet@@QAEXXZ 10005460 f   KMissleSet.obj
 0001:00004490       ??0KSkillList@@QAE@XZ      10005490 f   KSkillList.obj
 0001:000044b0       ??1KSkillList@@QAE@XZ      100054b0 f   KSkillList.obj
 0001:000044c0       ?FindSame@KSkillList@@QAEHH@Z 100054c0 f   KSkillList.obj
 0001:000044f0       ?FindFree@KSkillList@@QAEHXZ 100054f0 f   KSkillList.obj
 0001:00004510       ?GetCount@KSkillList@@QAEHXZ 10005510 f   KSkillList.obj
 0001:00004530       ?SetSkillLevel@KSkillList@@QAEXHH@Z 10005530 f   KSkillList.obj
 0001:00004570       ?SetLevel@KSkillList@@QAEHHH@Z 10005570 f   KSkillList.obj
 0001:000045b0       ?IncreaseLevel@KSkillList@@QAEHHHH@Z 100055b0 f   KSkillList.obj
 0001:000046b0       ?Add@KSkillList@@QAEHHH_N@Z 100056b0 f   KSkillList.obj
 0001:00004800       ?Remove@KSkillList@@QAEXH@Z 10005800 f   KSkillList.obj
 0001:00004890       ?GetLevel@KSkillList@@QAEHH@Z 10005890 f   KSkillList.obj
 0001:000048c0       ?GetCurrentLevel@KSkillList@@QAEHH@Z 100058c0 f   KSkillList.obj
 0001:000048f0       ?GetPointAdd@KSkillList@@QAEDH@Z 100058f0 f   KSkillList.obj
 0001:00004920       ?CanCast@KSkillList@@QAEHHK@Z 10005920 f   KSkillList.obj
 0001:00004970       ?SetNextCastTime@KSkillList@@QAEXHK@Z 10005970 f   KSkillList.obj
 0001:000049a0       ?SetMaxCastTime@KSkillList@@QAEXHK@Z 100059a0 f   KSkillList.obj
 0001:000049d0       ?GetEnhanceSkills@KSkillList@@QAEHH@Z 100059d0 f   KSkillList.obj
 0001:00004a60       ?GetSkillSortList@KSkillList@@QAEHPAUKUiSkillData@@@Z 10005a60 f   KSkillList.obj
 0001:00004b70       ?GetLeftSkillSortList@KSkillList@@QAEHPAUKUiSkillData@@@Z 10005b70 f   KSkillList.obj
 0001:00004cb0       ?GetRightSkillSortList@KSkillList@@QAEHPAUKUiSkillData@@@Z 10005cb0 f   KSkillList.obj
 0001:00004df0       ?GetSkillPosition@KSkillList@@QAEHH@Z 10005df0 f   KSkillList.obj
 0001:00004ec0       ?GetNextCastTime@KSkillList@@QAEKH@Z 10005ec0 f   KSkillList.obj
 0001:00004ef0       ?GetMaxCastTime@KSkillList@@QAEKH@Z 10005ef0 f   KSkillList.obj
 0001:00004f20       ?GetSkillInfoList@KSkillList@@QAEHHPAUKUiSkillItem@@H@Z 10005f20 f   KSkillList.obj
 0001:000050f0       ?GetSkillState@KSkillList@@QAEHH@Z 100060f0 f   KSkillList.obj
 0001:00005280       ?GetSkillFight@KSkillList@@QAEHH@Z 10006280 f   KSkillList.obj
 0001:000053e0       ?FindSkillAura@KSkillList@@QAEHH@Z 100063e0 f   KSkillList.obj
 0001:00005510       ?FindSkillRight@KSkillList@@QAEHH@Z 10006510 f   KSkillList.obj
 0001:00005690       ?FindSkillLifeReplenish@KSkillList@@QAEHXZ 10006690 f   KSkillList.obj
 0001:00005760       ??0KSkillManager@@QAE@XZ   10006760 f   KSkillManager.obj
 0001:00005770       ??1KSkillManager@@QAE@XZ   10006770 f   KSkillManager.obj
 0001:000057b0       ?Init@KSkillManager@@QAEHXZ 100067b0 f   KSkillManager.obj
 0001:00005970       ?InstanceSkill@KSkillManager@@AAEPAVISkill@@KK@Z 10006970 f   KSkillManager.obj
 0001:00005ae0       ??4KSkill@@QAEAAV0@ABV0@@Z 10006ae0 f i KSkillManager.obj
 0001:00006000       ??0KSkill@@QAE@XZ          10007000 f   KSkills.obj
 0001:00006140       ??_GKSkill@@UAEPAXI@Z      10007140 f i KSkills.obj
 0001:00006140       ??_EKSkill@@UAEPAXI@Z      10007140 f i KSkills.obj
 0001:00006160       ??1KSkill@@UAE@XZ          10007160 f   KSkills.obj
 0001:00006170       ?CanCastSkill@KSkill@@UBEHHAAH0@Z 10007170 f   KSkills.obj
 0001:00006350       ?Cast@KSkill@@QBEHHHHHW4eSkillLauncherType@@H@Z 10007350 f   KSkills.obj
 0001:00006580       ??_H@YGXPAXIHP6EX0@Z@Z     10007580 f i KSkills.obj
 0001:000065b0       ?Vanish@KSkill@@ABEXPAVKMissle@@@Z 100075b0 f   KSkills.obj
 0001:000065c0       ?OnMissleEvent@KSkill@@QBEHGPAVKMissle@@@Z 100075c0 f   KSkills.obj
 0001:000067e0       ?FlyEvent@KSkill@@ABEXPAVKMissle@@@Z 100077e0 f   KSkills.obj
 0001:000067f0       ?Collidsion@KSkill@@ABEXPAVKMissle@@@Z 100077f0 f   KSkills.obj
 0001:00006800       ?CastMissles@KSkill@@ABEHHHHHW4eSkillLauncherType@@@Z 10007800 f   KSkills.obj
 0001:00008160       ?qsqrt@@YAMM@Z             10009160 f i KSkills.obj
 0001:00008190       ?g_GetDistance@@YAHHHHH@Z  10009190 f i KSkills.obj
 0001:00008200       ?IsTargetOnly@KSkill@@UBEHXZ 10009200 f i KSkills.obj
 0001:00008210       ?IsTargetSelf@KSkill@@UBEHXZ 10009210 f i KSkills.obj
 0001:00008220       ?IsTargetEnemy@KSkill@@UBEHXZ 10009220 f i KSkills.obj
 0001:00008230       ?IsTargetAlly@KSkill@@UBEHXZ 10009230 f i KSkills.obj
 0001:00008240       ?IsTargetObj@KSkill@@UBEHXZ 10009240 f i KSkills.obj
 0001:00008250       ?GetSkillName@KSkill@@UAEPBDXZ 10009250 f i KSkills.obj
 0001:00008260       ?GetSkillStyle@KSkill@@UAEHXZ 10009260 f i KSkills.obj
 0001:00008270       ?GetAttackRadius@KSkill@@UBEHXZ 10009270 f i KSkills.obj
 0001:00008280       ?GetSkillCost@KSkill@@UBEHPAX@Z 10009280 f i KSkills.obj
 0001:00008290       ?GetSkillCostType@KSkill@@UBE?AW4NPCATTRIB@@XZ 10009290 f i KSkills.obj
 0001:000082a0       ?GetSkillId@KSkill@@UAEHXZ 100092a0 f i KSkills.obj
 0001:000082b0       ?IsAura@KSkill@@UBEHXZ     100092b0 f i KSkills.obj
 0001:000082c0       ?IsPhysical@KSkill@@UBEHXZ 100092c0 f i KSkills.obj
 0001:000082d0       ?GetSkillAttrib@KSkill@@UBEFXZ 100092d0 f i KSkills.obj
 0001:000082e0       ?IsExpSkill@KSkill@@UBEHXZ 100092e0 f i KSkills.obj
 0001:000082f0       ?CastZone@KSkill@@ABEHPAUTOrdinSkillParam@@HHHHH@Z 100092f0 f   KSkills.obj
 0001:00008850       ?CastLine@KSkill@@ABEHPAUTOrdinSkillParam@@HHHHH@Z 10009850 f   KSkills.obj
 0001:00008c80       ?CastExtractiveLineMissle@KSkill@@ABEHPAUTOrdinSkillParam@@HHHHHHH@Z 10009c80 f   KSkills.obj
 0001:00009050       ?CastWall@KSkill@@ABEHPAUTOrdinSkillParam@@HHHHH@Z 1000a050 f   KSkills.obj
 0001:00009510       ?CastCircle@KSkill@@ABEHPAUTOrdinSkillParam@@HHH@Z 1000a510 f   KSkills.obj
 0001:00009860       ?CastSpread@KSkill@@ABEHPAUTOrdinSkillParam@@HHH@Z 1000a860 f   KSkills.obj
 0001:00009d80       ?GetChildSkillNum@KSkill@@QBEHH@Z 1000ad80 f   KSkills.obj
 0001:00009d90       ?CreateMissle@KSkill@@ABEXHHH@Z 1000ad90 f   KSkills.obj
 0001:00009fc0       ?GetInfoFromTabFile@KSkill@@QAEHH@Z 1000afc0 f   KSkills.obj
 0001:00009fe0       ?GetInfoFromTabFile@KSkill@@QAEHPAVKITabFile@@H@Z 1000afe0 f   KSkills.obj
 0001:0000a6b0       ?LoadSkillLevelData@KSkill@@UAEXKH@Z 1000b6b0 f   KSkills.obj
 0001:0000a9f0       ?GetMissleGenerateTime@KSkill@@QBEIH@Z 1000b9f0 f   KSkills.obj
 0001:0000ab10       ?GetSkillIdFromName@KSkill@@SAHPAD@Z 1000bb10 f   KSkills.obj
 0001:0000abb0       ?CastInitiativeSkill@KSkill@@ABEHHHHH@Z 1000bbb0 f   KSkills.obj
 0001:0000abc0       ?CastPassivitySkill@KSkill@@ABEHHHHHH@Z 1000bbc0 f   KSkills.obj
 0001:0000abd0       ?ParseString2MagicAttrib@KSkill@@AAEHKPAD0@Z 1000bbd0 f   KSkills.obj
 0001:0000b3b0       ?DrawSkillIcon@KSkill@@UAEXHHHHH@Z 1000c3b0 f   KSkills.obj
 0001:0000b610       ?GetDesc@KSkill@@SAXKKPADH_N@Z 1000c610 f   KSkills.obj
 0001:0000c690       ?GetDescAboutLevel@KSkill@@QAEXPADHH@Z 1000d690 f   KSkills.obj
 0001:0000cc40       ?GetDescAboutEventSkillLevel@KSkill@@QAEXPADH@Z 1000dc40 f   KSkills.obj
 0001:0000ce50       ?PlayPreCastSound@KSkill@@QBEXHHH@Z 1000de50 f   KSkills.obj
 0001:0000cf40       ??0KSkillSpecial@@QAE@XZ   1000df40 f   KSkillSpecial.obj
 0001:0000cf80       ?Init@KSkillSpecial@@QAEHXZ 1000df80 f   KSkillSpecial.obj
 0001:0000cfa0       ?Draw@KSkillSpecial@@QAEXH@Z 1000dfa0 f   KSkillSpecial.obj
 0001:0000d120       ?SetAnimation@KSkillSpecial@@QAEXPADI@Z 1000e120 f   KSkillSpecial.obj
 0001:0000d170       ?Remove@KSkillSpecial@@QAEXXZ 1000e170 f   KSkillSpecial.obj
 0001:0000d180       ??0KList@@QAE@XZ           1000e180 f i KSkillSpecial.obj
 0001:0000d1b0       ?Init@KFaction@@QAEHXZ     1000e1b0 f   KFaction.obj
 0001:0000d660       ?GetID@KFaction@@QAEHHH@Z  1000e660 f   KFaction.obj
 0001:0000d690       ?GetID@KFaction@@QAEHHPAD@Z 1000e690 f   KFaction.obj
 0001:0000d720       ?GetCamp@KFaction@@QAEHH@Z 1000e720 f   KFaction.obj
 0001:0000d7a0       ??1KNpc@@QAE@XZ            1000e7a0 f i KNpc.obj
 0001:0000d830       ??0KNpc@@QAE@XZ            1000e830 f   KNpc.obj
 0001:0000dae0       ??1KNode@@UAE@XZ           1000eae0 f i KNpc.obj
 0001:0000daf0       ??0KNode@@QAE@XZ           1000eaf0 f i KNpc.obj
 0001:0000db10       ??0KMagicAttrib@@QAE@XZ    1000eb10 f i KNpc.obj
 0001:0000db30       ?Init@KNpc@@QAEXXZ         1000eb30 f   KNpc.obj
 0001:0000dfc0       ?GetActiveSkill@KNpc@@QAEPAVISkill@@XZ 1000efc0 f   KNpc.obj
 0001:0000e050       ?SetCurrentCamp@KNpc@@QAEXH@Z 1000f050 f   KNpc.obj
 0001:0000e060       ?SetCamp@KNpc@@QAEXH@Z     1000f060 f   KNpc.obj
 0001:0000e070       ?RestoreCurrentCamp@KNpc@@QAEXXZ 1000f070 f   KNpc.obj
 0001:0000e080       ?Activate@KNpc@@QAEXXZ     1000f080 f   KNpc.obj
 0001:0000e3b0       ?AutoFixXY@KNpc@@AAEXXZ    1000f3b0 f   KNpc.obj
 0001:0000e590       ?ProcStatus@KNpc@@QAEXXZ   1000f590 f   KNpc.obj
 0001:0000e670       ?ProcCommand@KNpc@@QAEXH@Z 1000f670 f   KNpc.obj
 0001:0000e8c0       ?ProcessState@KNpc@@QAEHXZ 1000f8c0 f   KNpc.obj
 0001:0000ed70       ?DoDeath@KNpc@@AAEXHH@Z    1000fd70 f   KNpc.obj
 0001:0000ee40       ?OnDeath@KNpc@@AAEXXZ      1000fe40 f   KNpc.obj
 0001:0000efa0       ?DoDefense@KNpc@@AAEXXZ    1000ffa0 f   KNpc.obj
 0001:0000efb0       ?OnDefense@KNpc@@AAEXXZ    1000ffb0 f   KNpc.obj
 0001:0000efc0       ?DoIdle@KNpc@@AAEXXZ       1000ffc0 f   KNpc.obj
 0001:0000efe0       ?OnIdle@KNpc@@AAEXXZ       1000ffe0 f   KNpc.obj
 0001:0000eff0       ?DoHurt@KNpc@@AAEXHHH@Z    1000fff0 f   KNpc.obj
 0001:0000f0e0       ?OnHurt@KNpc@@AAEXXZ       100100e0 f   KNpc.obj
 0001:0000f330       ?DoSpecial1@KNpc@@AAEXXZ   10010330 f   KNpc.obj
 0001:0000f340       ?OnSpecial1@KNpc@@AAEXXZ   10010340 f   KNpc.obj
 0001:0000f420       ?DoSpecial2@KNpc@@AAEXXZ   10010420 f   KNpc.obj
 0001:0000f430       ?OnSpecial2@KNpc@@AAEXXZ   10010430 f   KNpc.obj
 0001:0000f4d0       ?DoSpecial3@KNpc@@AAEXXZ   100104d0 f   KNpc.obj
 0001:0000f4e0       ?OnSpecial3@KNpc@@AAEXXZ   100104e0 f   KNpc.obj
 0001:0000f4f0       ?DoSpecial4@KNpc@@AAEXXZ   100104f0 f   KNpc.obj
 0001:0000f500       ?OnSpecial4@KNpc@@AAEXXZ   10010500 f   KNpc.obj
 0001:0000f510       ?DoGlide@KNpc@@AAEHF@Z     10010510 f   KNpc.obj
 0001:0000fa00       ?OnGlide@KNpc@@AAEXXZ      10010a00 f   KNpc.obj
 0001:0000fa10       ?GlideTo@KNpc@@AAEXHHF@Z   10010a10 f   KNpc.obj
 0001:0000fa50       ?DoStand@KNpc@@AAEXXZ      10010a50 f   KNpc.obj
 0001:0000fb00       ?OnStand@KNpc@@AAEXXZ      10010b00 f   KNpc.obj
 0001:0000fb50       ?DoRevive@KNpc@@AAEXXZ     10010b50 f   KNpc.obj
 0001:0000fbd0       ?OnRevive@KNpc@@AAEXXZ     10010bd0 f   KNpc.obj
 0001:0000fbe0       ?DoRun@KNpc@@AAEXXZ        10010be0 f   KNpc.obj
 0001:0000fcd0       ?OnRun@KNpc@@AAEXH@Z       10010cd0 f   KNpc.obj
 0001:0000fd70       ?DoSit@KNpc@@AAEXXZ        10010d70 f   KNpc.obj
 0001:0000fdb0       ?OnSit@KNpc@@AAEXXZ        10010db0 f   KNpc.obj
 0001:0000fdd0       ?DoSkill@KNpc@@AAEXHH@Z    10010dd0 f   KNpc.obj
 0001:0000ff00       ?UnDoSkill@KNpc@@AAEXXZ    10010f00 f   KNpc.obj
 0001:0000ff40       ?DoOrdinSkill@KNpc@@AAEHPAVKSkill@@HH@Z 10010f40 f   KNpc.obj
 0001:000102f0       ?DoAttack@KNpc@@AAEXXZ     100112f0 f   KNpc.obj
 0001:00010360       ?CastMeleeSkill@KNpc@@AAEHPAVKSkill@@@Z 10011360 f   KNpc.obj
 0001:000105b0       ?DoBlurAttack@KNpc@@AAEHXZ 100115b0 f   KNpc.obj
 0001:00010630       ?DoMagic@KNpc@@AAEXXZ      10011630 f   KNpc.obj
 0001:00010690       ?OnSkill@KNpc@@AAEXXZ      10011690 f   KNpc.obj
 0001:000107c0       ?JumpTo@KNpc@@AAEXHH@Z     100117c0 f   KNpc.obj
 0001:00010800       ?RunTo@KNpc@@AAEXHH@Z      10011800 f   KNpc.obj
 0001:00010830       ?Goto@KNpc@@AAEXHH@Z       10011830 f   KNpc.obj
 0001:00010860       ?DoWalk@KNpc@@AAEXXZ       10011860 f   KNpc.obj
 0001:00010900       ?DoPlayerTalk@KNpc@@QAEXPAD@Z 10011900 f   KNpc.obj
 0001:00010910       ?OnPlayerTalk@KNpc@@AAEXXZ 10011910 f   KNpc.obj
 0001:00010920       ?OnWalk@KNpc@@AAEXXZ       10011920 f   KNpc.obj
 0001:00010940       ?GetSkillLevel@KNpc@@QAEHH@Z 10011940 f   KNpc.obj
 0001:00010970       ?ModifyAttrib@KNpc@@QAEXHPAX@Z 10011970 f   KNpc.obj
 0001:00010990       ?SetImmediatelySkillEffect@KNpc@@QAEXHPAXH@Z 10011990 f   KNpc.obj
 0001:000109d0       ?AppendSkillEffect@KNpc@@QAEXKHHPAX0@Z 100119d0 f   KNpc.obj
 0001:00011310       ?ProcMove@KNpc@@AAEXH@Z    10012310 f   KNpc.obj
 0001:00011820       ?ProcJump@KNpc@@AAEXH@Z    10012820 f   KNpc.obj
 0001:00011b10       ?SendCommand@KNpc@@QAEXW4NPCCMD@@HHH@Z 10012b10 f   KNpc.obj
 0001:00011bd0       ?SendCommandRandMove@KNpc@@QAEXHHH@Z 10012bd0 f   KNpc.obj
 0001:00011c70       ?NewPath@KNpc@@AAEHHH@Z    10012c70 f   KNpc.obj
 0001:00011c90       ?NewJump@KNpc@@AAEHHH@Z    10012c90 f   KNpc.obj
 0001:00012020       ?NewGlide@KNpc@@AAEHHHH@Z  10013020 f   KNpc.obj
 0001:000123b0       ?SelfDamage@KNpc@@QAEXH@Z  100133b0 f   KNpc.obj
 0001:000123e0       ?Cost@KNpc@@QAEHW4NPCATTRIB@@HH@Z 100133e0 f   KNpc.obj
 0001:000124f0       ?DoJump@KNpc@@AAEXXZ       100134f0 f   KNpc.obj
 0001:00012560       ?OnJump@KNpc@@AAEHXZ       10013560 f   KNpc.obj
 0001:000125b0       ?WaitForFrame@KNpc@@AAEHXZ 100135b0 f   KNpc.obj
 0001:000125e0       ?IsReachFrame@KNpc@@AAEHH@Z 100135e0 f   KNpc.obj
 0001:00012610       ?Load@KNpc@@QAEXHHH@Z      10013610 f   KNpc.obj
 0001:00012920       ?GetMpsPos@KNpc@@QAEXPAH0@Z 10013920 f   KNpc.obj
 0001:00012970       ?SetActiveSkill@KNpc@@QAEHH@Z 10013970 f   KNpc.obj
 0001:00012a30       ?SetAuraSkill@KNpc@@QAEXH@Z 10013a30 f   KNpc.obj
 0001:00012b00       ?SetPlayerIdx@KNpc@@QAEHH@Z 10013b00 f   KNpc.obj
 0001:00012b30       ?SetPos@KNpc@@QAE_NHH@Z    10013b30 f   KNpc.obj
 0001:00012ca0       ?MoveNpc@KNpc@@QAEXHHHHH_N@Z 10013ca0 f   KNpc.obj
 0001:00012e60       ?PaintInfo@KNpc@@QAEHH_NHK@Z 10013e60 f   KNpc.obj
 0001:000132e0       ?PaintNpcAuto@KNpc@@QAEXH_NHK@Z 100142e0 f   KNpc.obj
 0001:00013480       ?PaintSeriesNpc@KNpc@@QAEXHH@Z 10014480 f   KNpc.obj
 0001:00013570       ?PaintHorseState@KNpc@@QAEXHH@Z 10014570 f   KNpc.obj
 0001:000136d0       ?PaintRankInfo@KNpc@@QAEXHHK@Z 100146d0 f   KNpc.obj
 0001:000139c0       ?PaintTransLifeInfo@KNpc@@QAEXHH@Z 100149c0 f   KNpc.obj
 0001:00013b70       ?PaintShopInfo@KNpc@@QAEXHH@Z 10014b70 f   KNpc.obj
 0001:00013e60       ?PaintChat@KNpc@@QAEHH@Z   10014e60 f   KNpc.obj
 0001:00013fd0       ?SetChatInfo@KNpc@@QAEHPBD0G@Z 10014fd0 f   KNpc.obj
 0001:000141b0       ?SetWarning@KNpc@@QAEHH@Z  100151b0 f   KNpc.obj
 0001:000141c0       ?PaintWarning@KNpc@@QAEHH_N@Z 100151c0 f   KNpc.obj
 0001:00014330       ?PaintLife@KNpc@@QAEHH_N@Z 10015330 f   KNpc.obj
 0001:00014550       ?PaintMana@KNpc@@QAEHH@Z   10015550 f   KNpc.obj
 0001:000146b0       ?Paint@KNpc@@QAEXXZ        100156b0 f   KNpc.obj
 0001:00014870       ?AddBaseLifeMax@KNpc@@QAEXH@Z 10015870 f   KNpc.obj
 0001:00014890       ?AddCurLifeMax@KNpc@@QAEXH@Z 10015890 f   KNpc.obj
 0001:000148b0       ?AddBaseStaminaMax@KNpc@@QAEXH@Z 100158b0 f   KNpc.obj
 0001:000148d0       ?AddCurStaminaMax@KNpc@@QAEXH@Z 100158d0 f   KNpc.obj
 0001:000148f0       ?AddBaseManaMax@KNpc@@QAEXH@Z 100158f0 f   KNpc.obj
 0001:00014910       ?AddCurManaMax@KNpc@@QAEXH@Z 10015910 f   KNpc.obj
 0001:00014930       ?CalcCurLifeReplenish@KNpc@@QAEXXZ 10015930 f   KNpc.obj
 0001:00014940       ?Remove@KNpc@@QAEXXZ       10015940 f   KNpc.obj
 0001:00014960       ?RemoveRes@KNpc@@QAEXXZ    10015960 f   KNpc.obj
 0001:00014970       ?SetSeries@KNpc@@QAEXH@Z   10015970 f   KNpc.obj
 0001:00014990       ?SetStateSkillEffect@KNpc@@QAEXHHHPAXHHH@Z 10015990 f   KNpc.obj
 0001:00014c50       ??_EKStateNode@@UAEPAXI@Z  10015c50 f i KNpc.obj
 0001:00014c50       ??_GKStateNode@@UAEPAXI@Z  10015c50 f i KNpc.obj
 0001:00014c70       ??1KStateNode@@UAE@XZ      10015c70 f i KNpc.obj
 0001:00014c80       ?ModifyMissleCollsion@KNpc@@QAEHH@Z 10015c80 f   KNpc.obj
 0001:00014cb0       ?ModifyMissleLifeTime@KNpc@@QAEHH@Z 10015cb0 f   KNpc.obj
 0001:00014cc0       ?ModifyMissleSpeed@KNpc@@QAEHH@Z 10015cc0 f   KNpc.obj
 0001:00014ce0       ?DoManyAttack@KNpc@@AAEHXZ 10015ce0 f   KNpc.obj
 0001:00014e30       ?OnManyAttack@KNpc@@AAEXXZ 10015e30 f   KNpc.obj
 0001:00014ee0       ?DoRunAttack@KNpc@@AAEHXZ  10015ee0 f   KNpc.obj
 0001:00015200       ?OnRunAttack@KNpc@@AAEXXZ  10016200 f   KNpc.obj
 0001:000153f0       ?DoJumpAttack@KNpc@@AAEHXZ 100163f0 f   KNpc.obj
 0001:00015670       ?OnJumpAttack@KNpc@@AAEHXZ 10016670 f   KNpc.obj
 0001:000157c0       ?CheckHitTarget@KNpc@@AAEHHHH@Z 100167c0 f   KNpc.obj
 0001:00015830       ?AddStateInfo@KNpc@@AAEXH@Z 10016830 f   KNpc.obj
 0001:00015880       ?AddStateSkillList@KNpc@@AAEXPAVKStateNode@@@Z 10016880 f   KNpc.obj
 0001:000158e0       ?AddStateSkillListClient@KNpc@@AAEXPAVKStateNode@@@Z 100168e0 f   KNpc.obj
 0001:00015950       ?RemoveStateSkillList@KNpc@@AAEXPAE@Z 10016950 f   KNpc.obj
 0001:000159f0       ?GetNpcCopyFromTemplate@KNpc@@QAEXHHH@Z 100169f0 f   KNpc.obj
 0001:00015bf0       ?LoadDataFromTemplate@KNpc@@QAEXHHH@Z 10016bf0 f   KNpc.obj
 0001:00015d80       ?SetPhysicsDamage@KNpc@@QAEXHH@Z 10016d80 f   KNpc.obj
 0001:00015da0       ?SetBaseAttackRating@KNpc@@QAEXH@Z 10016da0 f   KNpc.obj
 0001:00015dc0       ?SetBaseDefence@KNpc@@QAEXH@Z 10016dc0 f   KNpc.obj
 0001:00015de0       ?SetMenuState@KNpc@@QAEXHPADH@Z 10016de0 f   KNpc.obj
 0001:00015e00       ?GetMenuState@KNpc@@QAEHXZ 10016e00 f   KNpc.obj
 0001:00015e10       ?SearchAroundID@KNpc@@QAEKK@Z 10016e10 f   KNpc.obj
 0001:00015e90       ?SetSpecialSpr@KNpc@@QAEXPAD@Z 10016e90 f   KNpc.obj
 0001:00015eb0       ?SetInstantSpr@KNpc@@QAEXH@Z 10016eb0 f   KNpc.obj
 0001:00015ef0       ?GetNormalNpcStandDir@KNpc@@QAEHH@Z 10016ef0 f   KNpc.obj
 0001:00015f10       ?SetNpcState@KNpc@@QAEXPAE@Z 10016f10 f   KNpc.obj
 0001:00015fa0       ?ClearNpcState@KNpc@@QAEXXZ 10016fa0 f   KNpc.obj
 0001:00016000       ?RestoreNpcBaseInfo@KNpc@@QAEXXZ 10017000 f   KNpc.obj
 0001:00016440       ?DrawBorder@KNpc@@QAEXXZ   10017440 f   KNpc.obj
 0001:00016460       ?DrawMenuState@KNpc@@QAEHH@Z 10017460 f   KNpc.obj
 0001:00016480       ?IsPlayer@KNpc@@QAEHXZ     10017480 f   KNpc.obj
 0001:000164a0       ?IsAlive@KNpc@@QAEHXZ      100174a0 f   KNpc.obj
 0001:000164c0       ?ClearStateSkillEffect@KNpc@@QAEXXZ 100174c0 f   KNpc.obj
 0001:00016580       ?ClearNormalState@KNpc@@QAEXXZ 10017580 f   KNpc.obj
 0001:00016650       ?CheckTrap@KNpc@@QAEXXZ    10017650 f   KNpc.obj
 0001:000166f0       ?SetFightMode@KNpc@@QAEXH@Z 100176f0 f   KNpc.obj
 0001:00016710       ?TurnTo@KNpc@@QAEXH@Z      10017710 f   KNpc.obj
 0001:00016880       ?ReCalcStateEffect@KNpc@@QAEXXZ 10017880 f   KNpc.obj
 0001:00016910       ?GetCurActiveWeaponSkill@KNpc@@QAEHXZ 10017910 f   KNpc.obj
 0001:000169e0       ?HurtAutoMove@KNpc@@AAEXXZ 100179e0 f   KNpc.obj
 0001:00016d80       ?ProcNetCommand@KNpc@@QAEXW4NPCCMD@@HHH@Z 10017d80 f   KNpc.obj
 0001:00016e40       ?ClearBlood@KNpc@@QAEXH@Z  10017e40 f   KNpc.obj
 0001:00016e70       ?SetBlood@KNpc@@QAEXH@Z    10017e70 f   KNpc.obj
 0001:00016ed0       ?PaintBlood@KNpc@@QAEHH@Z  10017ed0 f   KNpc.obj
 0001:00016fe0       ?EditPos@KNpc@@QAEX_N@Z    10017fe0 f   KNpc.obj
 0001:00017010       ?SendClientPos2Server@KNpc@@QAEXXZ 10018010 f   KNpc.obj
 0001:000170b0       ?GetNpcPate@KNpc@@QAEHXZ   100180b0 f   KNpc.obj
 0001:00017140       ?GetNpcPatePeopleInfo@KNpc@@QAEHXZ 10018140 f   KNpc.obj
 0001:000171d0       ?FindStateSkill@KNpc@@QAEHH@Z 100181d0 f   KNpc.obj
 0001:00017210       ?GetFrameCopyFromTemplate@KNpc@@QAEXHHH@Z 10018210 f   KNpc.obj
 0001:000173f0       ?LoadFrameFromTemplate@KNpc@@QAEXHHH@Z 100183f0 f   KNpc.obj
 0001:00017480       ?ReSetRes@KNpc@@QAEXH@Z    10018480 f   KNpc.obj
 0001:00017650       ?AutoDoSkill@KNpc@@QAEXHHHH@Z 10018650 f   KNpc.obj
 0001:00017bf0       ?RandMove@KNpc@@QAEXHHH@Z  10018bf0 f   KNpc.obj
 0001:00017c50       ?ExecuteStand@KNpc@@QAEXXZ 10018c50 f   KNpc.obj
 0001:00017c70       ?SetTitleEffect@KNpc@@QAEXH@Z 10018c70 f   KNpc.obj
 0001:00017d60       ?ClientGotoPos@KNpc@@QAEXHHH@Z 10018d60 f   KNpc.obj
 0001:00017e40       ?ExecuteScript@KNpc@@QAEHPAD0H@Z 10018e40 f   KNpc.obj
 0001:00017e80       ?ExecuteScript@KNpc@@QAEHKPADH@Z 10018e80 f   KNpc.obj
 0001:00017ff0       ?ExecuteScript@KNpc@@QAEHKPAD0@Z 10018ff0 f   KNpc.obj
 0001:00018180       ?ExecuteScript@KNpc@@QAEHPAD00@Z 10019180 f   KNpc.obj
 0001:000181d0       ?ExecuteScript2@KNpc@@QAEHKPAD00@Z 100191d0 f   KNpc.obj
 0001:00018380       ?ExecuteScript2@KNpc@@QAEHKPADHH@Z 10019380 f   KNpc.obj
 0001:000184f0       ?ExecuteScript2@KNpc@@QAEHPAD0HH@Z 100194f0 f   KNpc.obj
 0001:00018540       ?ExecuteScript2@KNpc@@QAEHPAD000@Z 10019540 f   KNpc.obj
 0001:00018590       ??0?$vector@UFindPathNode@@V?$allocator@UFindPathNode@@@std@@@std@@QAE@ABV?$allocator@UFindPathNode@@@1@@Z 10019590 f i KNpc.obj
 0001:000185b0       ??1?$vector@UFindPathNode@@V?$allocator@UFindPathNode@@@std@@@std@@QAE@XZ 100195b0 f i KNpc.obj
 0001:00018600       ??0KNpcAI@@QAE@XZ          10019600 f   KNpcAI.obj
 0001:00018610       ?Activate@KNpcAI@@QAEXH@Z  10019610 f   KNpcAI.obj
 0001:00018710       ?ProcessShowNpc@KNpcAI@@AAEHXZ 10019710 f   KNpcAI.obj
 0001:000187d0       ?ShowNpcType11@KNpcAI@@AAEHXZ 100197d0 f   KNpcAI.obj
 0001:00018930       ?ShowNpcType12@KNpcAI@@AAEHXZ 10019930 f   KNpcAI.obj
 0001:00018aa0       ?ShowNpcType13@KNpcAI@@AAEHXZ 10019aa0 f   KNpcAI.obj
 0001:00018be0       ?ShowNpcType14@KNpcAI@@AAEHXZ 10019be0 f   KNpcAI.obj
 0001:00018d60       ?ShowNpcType15@KNpcAI@@AAEHXZ 10019d60 f   KNpcAI.obj
 0001:00018ea0       ?ShowNpcType16@KNpcAI@@AAEHXZ 10019ea0 f   KNpcAI.obj
 0001:00019010       ?ShowNpcType17@KNpcAI@@AAEHXZ 1001a010 f   KNpcAI.obj
 0001:000191a0       ?ProcessPlayer@KNpcAI@@AAEXXZ 1001a1a0 f   KNpcAI.obj
 0001:00019200       ?FollowObject@KNpcAI@@AAEXH@Z 1001a200 f   KNpcAI.obj
 0001:00019290       ?FollowPeople@KNpcAI@@AAEXH@Z 1001a290 f   KNpcAI.obj
 0001:00019710       ?TriggerMapTrap@KNpcAI@@AAEXXZ 1001a710 f   KNpcAI.obj
 0001:00019740       ?TriggerObjectTrap@KNpcAI@@AAEXXZ 1001a740 f   KNpcAI.obj
 0001:00019750       ?GetNearestNpc@KNpcAI@@AAEHH@Z 1001a750 f   KNpcAI.obj
 0001:00019c30       ?IsPlayerCome@KNpcAI@@AAEHXZ 1001ac30 f   KNpcAI.obj
 0001:00019c90       ?GetNpcNumber@KNpcAI@@AAEHH@Z 1001ac90 f   KNpcAI.obj
 0001:00019e80       ?KeepAttackRange@KNpcAI@@AAEXHH@Z 1001ae80 f   KNpcAI.obj
 0001:0001a030       ?FollowAttack@KNpcAI@@AAEXH@Z 1001b030 f   KNpcAI.obj
 0001:0001a140       ?InEyeshot@KNpcAI@@AAEHH@Z 1001b140 f   KNpcAI.obj
 0001:0001a180       ?CommonAction@KNpcAI@@AAEXXZ 1001b180 f   KNpcAI.obj
 0001:0001a280       ?KeepActiveRange@KNpcAI@@AAEHXZ 1001b280 f   KNpcAI.obj
 0001:0001a3b0       ?DoShowFlee@KNpcAI@@AAEHH@Z 1001b3b0 f   KNpcAI.obj
 0001:0001a500       ?Flee@KNpcAI@@AAEXH@Z      1001b500 f   KNpcAI.obj
 0001:0001a5b0       ?ProcessAIType01@KNpcAI@@AAEXXZ 1001b5b0 f   KNpcAI.obj
 0001:0001a760       ?GetRandomNumber@@YAHHH@Z  1001b760 f i KNpcAI.obj
 0001:0001a780       ?ProcessAIType02@KNpcAI@@AAEXXZ 1001b780 f   KNpcAI.obj
 0001:0001aa30       ?ProcessAIType03@KNpcAI@@AAEXXZ 1001ba30 f   KNpcAI.obj
 0001:0001ac50       ?ProcessAIType04@KNpcAI@@AAEXXZ 1001bc50 f   KNpcAI.obj
 0001:0001adf0       ?ProcessAIType05@KNpcAI@@AAEXXZ 1001bdf0 f   KNpcAI.obj
 0001:0001b030       ?ProcessAIType06@KNpcAI@@AAEXXZ 1001c030 f   KNpcAI.obj
 0001:0001b200       ?ProcessAIType07@KNpcAI@@AAEXXZ 1001c200 f   KNpcAI.obj
 0001:0001b3a0       ??0KNpcAttribModify@@QAE@XZ 1001c3a0 f   KNpcAttribModify.obj
 0001:0001b860       ??1KNpcAttribModify@@QAE@XZ 1001c860 f   KNpcAttribModify.obj
 0001:0001b870       ?ModifyAttrib@KNpcAttribModify@@QAEXPAVKNpc@@PAX@Z 1001c870 f   KNpcAttribModify.obj
 0001:0001b8a0       ?AddColdDamageV@KNpcAttribModify@@AAEXPAVKNpc@@PAX@Z 1001c8a0 f   KNpcAttribModify.obj
 0001:0001b930       ?AddFireDamageV@KNpcAttribModify@@AAEXPAVKNpc@@PAX@Z 1001c930 f   KNpcAttribModify.obj
 0001:0001b960       ?AddLightingDamageV@KNpcAttribModify@@AAEXPAVKNpc@@PAX@Z 1001c960 f   KNpcAttribModify.obj
 0001:0001b990       ?AddPhysicsDamageP@KNpcAttribModify@@AAEXPAVKNpc@@PAX@Z 1001c990 f   KNpcAttribModify.obj
 0001:0001ba50       ?AddPoisonDamageV@KNpcAttribModify@@AAEXPAVKNpc@@PAX@Z 1001ca50 f   KNpcAttribModify.obj
 0001:0001baa0       ?AddPhysicsDamageV@KNpcAttribModify@@AAEXPAVKNpc@@PAX@Z 1001caa0 f   KNpcAttribModify.obj
 0001:0001bac0       ?AllresP@KNpcAttribModify@@AAEXPAVKNpc@@PAX@Z 1001cac0 f   KNpcAttribModify.obj
 0001:0001bb10       ?AllSkillV@KNpcAttribModify@@AAEXPAVKNpc@@PAX@Z 1001cb10 f   KNpcAttribModify.obj
 0001:0001bb90       ?AttackRatingP@KNpcAttribModify@@AAEXPAVKNpc@@PAX@Z 1001cb90 f   KNpcAttribModify.obj
 0001:0001bbc0       ?AttackRatingV@KNpcAttribModify@@AAEXPAVKNpc@@PAX@Z 1001cbc0 f   KNpcAttribModify.obj
 0001:0001bbe0       ?AttackSpeedV@KNpcAttribModify@@AAEXPAVKNpc@@PAX@Z 1001cbe0 f   KNpcAttribModify.obj
 0001:0001bc00       ?BadStatusTimeReduceV@KNpcAttribModify@@AAEXPAVKNpc@@PAX@Z 1001cc00 f   KNpcAttribModify.obj
 0001:0001bc10       ?BurnTimeReduceP@KNpcAttribModify@@AAEXPAVKNpc@@PAX@Z 1001cc10 f   KNpcAttribModify.obj
 0001:0001bc20       ?CastSpeedV@KNpcAttribModify@@AAEXPAVKNpc@@PAX@Z 1001cc20 f   KNpcAttribModify.obj
 0001:0001bc40       ?ChangeCampV@KNpcAttribModify@@AAEXPAVKNpc@@PAX@Z 1001cc40 f   KNpcAttribModify.obj
 0001:0001bc80       ?ColdArmorV@KNpcAttribModify@@AAEXPAVKNpc@@PAX@Z 1001cc80 f   KNpcAttribModify.obj
 0001:0001bc90       ?ColdresP@KNpcAttribModify@@AAEXPAVKNpc@@PAX@Z 1001cc90 f   KNpcAttribModify.obj
 0001:0001bcb0       ?DeadlyStrikeP@KNpcAttribModify@@AAEXPAVKNpc@@PAX@Z 1001ccb0 f   KNpcAttribModify.obj
 0001:0001bcd0       ?DexterityV@KNpcAttribModify@@AAEXPAVKNpc@@PAX@Z 1001ccd0 f   KNpcAttribModify.obj
 0001:0001bd10       ?EarthSkillV@KNpcAttribModify@@AAEXPAVKNpc@@PAX@Z 1001cd10 f   KNpcAttribModify.obj
 0001:0001bd20       ?EnergyV@KNpcAttribModify@@AAEXPAVKNpc@@PAX@Z 1001cd20 f   KNpcAttribModify.obj
 0001:0001bd60       ?FastHitRecoverV@KNpcAttribModify@@AAEXPAVKNpc@@PAX@Z 1001cd60 f   KNpcAttribModify.obj
 0001:0001bd80       ?FastWalkRunP@KNpcAttribModify@@AAEXPAVKNpc@@PAX@Z 1001cd80 f   KNpcAttribModify.obj
 0001:0001bdf0       ?FireArmorV@KNpcAttribModify@@AAEXPAVKNpc@@PAX@Z 1001cdf0 f   KNpcAttribModify.obj
 0001:0001be00       ?FireSkillV@KNpcAttribModify@@AAEXPAVKNpc@@PAX@Z 1001ce00 f   KNpcAttribModify.obj
 0001:0001be10       ?FreezeTimeReduceP@KNpcAttribModify@@AAEXPAVKNpc@@PAX@Z 1001ce10 f   KNpcAttribModify.obj
 0001:0001be30       ?KnockBackP@KNpcAttribModify@@AAEXPAVKNpc@@PAX@Z 1001ce30 f   KNpcAttribModify.obj
 0001:0001be50       ?LifeMaxP@KNpcAttribModify@@AAEXPAVKNpc@@PAX@Z 1001ce50 f   KNpcAttribModify.obj
 0001:0001bea0       ?LifeMaxV@KNpcAttribModify@@AAEXPAVKNpc@@PAX@Z 1001cea0 f   KNpcAttribModify.obj
 0001:0001bec0       ?LifeReplenishV@KNpcAttribModify@@AAEXPAVKNpc@@PAX@Z 1001cec0 f   KNpcAttribModify.obj
 0001:0001bee0       ?LifeV@KNpcAttribModify@@AAEXPAVKNpc@@PAX@Z 1001cee0 f   KNpcAttribModify.obj
 0001:0001bf00       ?LightingArmorV@KNpcAttribModify@@AAEXPAVKNpc@@PAX@Z 1001cf00 f   KNpcAttribModify.obj
 0001:0001bf10       ?LightingresP@KNpcAttribModify@@AAEXPAVKNpc@@PAX@Z 1001cf10 f   KNpcAttribModify.obj
 0001:0001bf30       ?LuckyV@KNpcAttribModify@@AAEXPAVKNpc@@PAX@Z 1001cf30 f   KNpcAttribModify.obj
 0001:0001bf80       ?ManaMaxP@KNpcAttribModify@@AAEXPAVKNpc@@PAX@Z 1001cf80 f   KNpcAttribModify.obj
 0001:0001bfc0       ?ManaMaxV@KNpcAttribModify@@AAEXPAVKNpc@@PAX@Z 1001cfc0 f   KNpcAttribModify.obj
 0001:0001bfe0       ?ManaReplenishV@KNpcAttribModify@@AAEXPAVKNpc@@PAX@Z 1001cfe0 f   KNpcAttribModify.obj
 0001:0001c000       ?ManaV@KNpcAttribModify@@AAEXPAVKNpc@@PAX@Z 1001d000 f   KNpcAttribModify.obj
 0001:0001c020       ?ManaShieldP@KNpcAttribModify@@AAEXPAVKNpc@@PAX@Z 1001d020 f   KNpcAttribModify.obj
 0001:0001c040       ?MeleeDamageReturnP@KNpcAttribModify@@AAEXPAVKNpc@@PAX@Z 1001d040 f   KNpcAttribModify.obj
 0001:0001c060       ?MeleeDamageReturnV@KNpcAttribModify@@AAEXPAVKNpc@@PAX@Z 1001d060 f   KNpcAttribModify.obj
 0001:0001c080       ?MetalSkillV@KNpcAttribModify@@AAEXPAVKNpc@@PAX@Z 1001d080 f   KNpcAttribModify.obj
 0001:0001c090       ?PhysicsArmorV@KNpcAttribModify@@AAEXPAVKNpc@@PAX@Z 1001d090 f   KNpcAttribModify.obj
 0001:0001c0a0       ?PhysicsresP@KNpcAttribModify@@AAEXPAVKNpc@@PAX@Z 1001d0a0 f   KNpcAttribModify.obj
 0001:0001c0c0       ?Damage2ManaP@KNpcAttribModify@@AAEXPAVKNpc@@PAX@Z 1001d0c0 f   KNpcAttribModify.obj
 0001:0001c0e0       ?PoisonArmorV@KNpcAttribModify@@AAEXPAVKNpc@@PAX@Z 1001d0e0 f   KNpcAttribModify.obj
 0001:0001c0f0       ?PoisonDamageReduceV@KNpcAttribModify@@AAEXPAVKNpc@@PAX@Z 1001d0f0 f   KNpcAttribModify.obj
 0001:0001c120       ?PoisonresP@KNpcAttribModify@@AAEXPAVKNpc@@PAX@Z 1001d120 f   KNpcAttribModify.obj
 0001:0001c140       ?PoisonTimeReduceP@KNpcAttribModify@@AAEXPAVKNpc@@PAX@Z 1001d140 f   KNpcAttribModify.obj
 0001:0001c160       ?RangeDamageReturnV@KNpcAttribModify@@AAEXPAVKNpc@@PAX@Z 1001d160 f   KNpcAttribModify.obj
 0001:0001c180       ?RangeDamageReturnP@KNpcAttribModify@@AAEXPAVKNpc@@PAX@Z 1001d180 f   KNpcAttribModify.obj
 0001:0001c1a0       ?SlowMissleB@KNpcAttribModify@@AAEXPAVKNpc@@PAX@Z 1001d1a0 f   KNpcAttribModify.obj
 0001:0001c1d0       ?StaminaMaxP@KNpcAttribModify@@AAEXPAVKNpc@@PAX@Z 1001d1d0 f   KNpcAttribModify.obj
 0001:0001c210       ?StaminaMaxV@KNpcAttribModify@@AAEXPAVKNpc@@PAX@Z 1001d210 f   KNpcAttribModify.obj
 0001:0001c230       ?StaminaReplenishV@KNpcAttribModify@@AAEXPAVKNpc@@PAX@Z 1001d230 f   KNpcAttribModify.obj
 0001:0001c250       ?StaminaV@KNpcAttribModify@@AAEXPAVKNpc@@PAX@Z 1001d250 f   KNpcAttribModify.obj
 0001:0001c270       ?StealLifeP@KNpcAttribModify@@AAEXPAVKNpc@@PAX@Z 1001d270 f   KNpcAttribModify.obj
 0001:0001c290       ?StealManaP@KNpcAttribModify@@AAEXPAVKNpc@@PAX@Z 1001d290 f   KNpcAttribModify.obj
 0001:0001c2b0       ?StealStaminaP@KNpcAttribModify@@AAEXPAVKNpc@@PAX@Z 1001d2b0 f   KNpcAttribModify.obj
 0001:0001c2d0       ?StrengthV@KNpcAttribModify@@AAEXPAVKNpc@@PAX@Z 1001d2d0 f   KNpcAttribModify.obj
 0001:0001c310       ?StunTimeReduceP@KNpcAttribModify@@AAEXPAVKNpc@@PAX@Z 1001d310 f   KNpcAttribModify.obj
 0001:0001c330       ?VisionRadiusP@KNpcAttribModify@@AAEXPAVKNpc@@PAX@Z 1001d330 f   KNpcAttribModify.obj
 0001:0001c350       ?VitalityV@KNpcAttribModify@@AAEXPAVKNpc@@PAX@Z 1001d350 f   KNpcAttribModify.obj
 0001:0001c390       ?WaterSkillV@KNpcAttribModify@@AAEXPAVKNpc@@PAX@Z 1001d390 f   KNpcAttribModify.obj
 0001:0001c3a0       ?WoodSkillV@KNpcAttribModify@@AAEXPAVKNpc@@PAX@Z 1001d3a0 f   KNpcAttribModify.obj
 0001:0001c3b0       ?FireresP@KNpcAttribModify@@AAEXPAVKNpc@@PAX@Z 1001d3b0 f   KNpcAttribModify.obj
 0001:0001c3d0       ?ArmorDefenseV@KNpcAttribModify@@AAEXPAVKNpc@@PAX@Z 1001d3d0 f   KNpcAttribModify.obj
 0001:0001c3f0       ?ColdEnhanceP@KNpcAttribModify@@AAEXPAVKNpc@@PAX@Z 1001d3f0 f   KNpcAttribModify.obj
 0001:0001c410       ?FireEnhanceP@KNpcAttribModify@@AAEXPAVKNpc@@PAX@Z 1001d410 f   KNpcAttribModify.obj
 0001:0001c430       ?LightingEnhanceP@KNpcAttribModify@@AAEXPAVKNpc@@PAX@Z 1001d430 f   KNpcAttribModify.obj
 0001:0001c450       ?PoisonEnhanceP@KNpcAttribModify@@AAEXPAVKNpc@@PAX@Z 1001d450 f   KNpcAttribModify.obj
 0001:0001c470       ?LifePotionV@KNpcAttribModify@@AAEXPAVKNpc@@PAX@Z 1001d470 f   KNpcAttribModify.obj
 0001:0001c4c0       ?ManaPotionV@KNpcAttribModify@@AAEXPAVKNpc@@PAX@Z 1001d4c0 f   KNpcAttribModify.obj
 0001:0001c510       ?PhysicsResMaxP@KNpcAttribModify@@AAEXPAVKNpc@@PAX@Z 1001d510 f   KNpcAttribModify.obj
 0001:0001c530       ?ColdResMaxP@KNpcAttribModify@@AAEXPAVKNpc@@PAX@Z 1001d530 f   KNpcAttribModify.obj
 0001:0001c550       ?FireResMaxP@KNpcAttribModify@@AAEXPAVKNpc@@PAX@Z 1001d550 f   KNpcAttribModify.obj
 0001:0001c570       ?LightingResMaxP@KNpcAttribModify@@AAEXPAVKNpc@@PAX@Z 1001d570 f   KNpcAttribModify.obj
 0001:0001c590       ?PoisonResMaxP@KNpcAttribModify@@AAEXPAVKNpc@@PAX@Z 1001d590 f   KNpcAttribModify.obj
 0001:0001c5b0       ?AllResMaxP@KNpcAttribModify@@AAEXPAVKNpc@@PAX@Z 1001d5b0 f   KNpcAttribModify.obj
 0001:0001c600       ?FatallyStrikeP@KNpcAttribModify@@AAEXPAVKNpc@@PAX@Z 1001d600 f   KNpcAttribModify.obj
 0001:0001c610       ?MixPoisonDamage@KNpcAttribModify@@QAEXPAUKMagicAttrib@@0@Z 1001d610 f   KNpcAttribModify.obj
 0001:0001c6c0       ?AddPhysicsMagicV@KNpcAttribModify@@AAEXPAVKNpc@@PAX@Z 1001d6c0 f   KNpcAttribModify.obj
 0001:0001c6f0       ?AddColdMagicV@KNpcAttribModify@@AAEXPAVKNpc@@PAX@Z 1001d6f0 f   KNpcAttribModify.obj
 0001:0001c780       ?AddFireMagicV@KNpcAttribModify@@AAEXPAVKNpc@@PAX@Z 1001d780 f   KNpcAttribModify.obj
 0001:0001c7b0       ?AddLightingMagicV@KNpcAttribModify@@AAEXPAVKNpc@@PAX@Z 1001d7b0 f   KNpcAttribModify.obj
 0001:0001c7e0       ?AddPoisonMagicV@KNpcAttribModify@@AAEXPAVKNpc@@PAX@Z 1001d7e0 f   KNpcAttribModify.obj
 0001:0001c830       ?DynamicMagicShieldV@KNpcAttribModify@@AAEXPAVKNpc@@PAX@Z 1001d830 f   KNpcAttribModify.obj
 0001:0001c850       ?ReturnResP@KNpcAttribModify@@AAEXPAVKNpc@@PAX@Z 1001d850 f   KNpcAttribModify.obj
 0001:0001c870       ?ExpEnhanceP@KNpcAttribModify@@AAEXPAVKNpc@@PAX@Z 1001d870 f   KNpcAttribModify.obj
 0001:0001c890       ?PoisonDamageReturnP@KNpcAttribModify@@AAEXPAVKNpc@@PAX@Z 1001d890 f   KNpcAttribModify.obj
 0001:0001c8b0       ?ReturnSkillP@KNpcAttribModify@@AAEXPAVKNpc@@PAX@Z 1001d8b0 f   KNpcAttribModify.obj
 0001:0001c8d0       ?AutoReplySkill@KNpcAttribModify@@AAEXPAVKNpc@@PAX@Z 1001d8d0 f   KNpcAttribModify.obj
 0001:0001c920       ?LifeReplenishP@KNpcAttribModify@@AAEXPAVKNpc@@PAX@Z 1001d920 f   KNpcAttribModify.obj
 0001:0001c940       ?IgnoreSkillP@KNpcAttribModify@@AAEXPAVKNpc@@PAX@Z 1001d940 f   KNpcAttribModify.obj
 0001:0001c960       ?AutoAttackSkill@KNpcAttribModify@@AAEXPAVKNpc@@PAX@Z 1001d960 f   KNpcAttribModify.obj
 0001:0001c990       ?Poison2DecManaP@KNpcAttribModify@@AAEXPAVKNpc@@PAX@Z 1001d990 f   KNpcAttribModify.obj
 0001:0001c9e0       ?SkillAppendSkill@KNpcAttribModify@@AAEXPAVKNpc@@PAX@Z 1001d9e0 f   KNpcAttribModify.obj
 0001:0001caf0       ?HideNpc@KNpcAttribModify@@AAEXPAVKNpc@@PAX@Z 1001daf0 f   KNpcAttribModify.obj
 0001:0001cb10       ?AutoDeathSkill@KNpcAttribModify@@AAEXPAVKNpc@@PAX@Z 1001db10 f   KNpcAttribModify.obj
 0001:0001cb40       ?RandMove@KNpcAttribModify@@AAEXPAVKNpc@@PAX@Z 1001db40 f   KNpcAttribModify.obj
 0001:0001cb70       ?IgnoreNegativeStateP@KNpcAttribModify@@AAEXPAVKNpc@@PAX@Z 1001db70 f   KNpcAttribModify.obj
 0001:0001cbb0       ?AutoRescueSkill@KNpcAttribModify@@AAEXPAVKNpc@@PAX@Z 1001dbb0 f   KNpcAttribModify.obj
 0001:0001cbe0       ?StaticMagicShieldP@KNpcAttribModify@@AAEXPAVKNpc@@PAX@Z 1001dbe0 f   KNpcAttribModify.obj
 0001:0001cc00       ??0KNpcFindPath@@QAE@XZ    1001dc00 f   KNpcFindPath.obj
 0001:0001cc20       ?Init@KNpcFindPath@@QAEXH@Z 1001dc20 f   KNpcFindPath.obj
 0001:0001cc50       ?GetDir@KNpcFindPath@@QAEHHHHHHHPAH0@Z 1001dc50 f   KNpcFindPath.obj
 0001:0001d220       ?Dir64To8@KNpcFindPath@@QAEHH@Z 1001e220 f   KNpcFindPath.obj
 0001:0001d230       ?Dir8To64@KNpcFindPath@@QAEHH@Z 1001e230 f   KNpcFindPath.obj
 0001:0001d240       ?CheckDistance@KNpcFindPath@@QAEHHHHHH@Z 1001e240 f   KNpcFindPath.obj
 0001:0001d280       ?CheckBarrier@KNpcFindPath@@QAEHHH@Z 1001e280 f   KNpcFindPath.obj
 0001:0001d2f0       ?Init@KNpcGold@@QAEXH@Z    1001e2f0 f   KNpcGold.obj
 0001:0001d300       ?Release@KNpcGold@@QAEXXZ  1001e300 f   KNpcGold.obj
 0001:0001d350       ?SetGoldType@KNpcGold@@QAEXH@Z 1001e350 f   KNpcGold.obj
 0001:0001d360       ?SetGoldTypeAndBackData@KNpcGold@@QAEXXZ 1001e360 f   KNpcGold.obj
 0001:0001d410       ?RecoverBackData@KNpcGold@@QAEXXZ 1001e410 f   KNpcGold.obj
 0001:0001d440       ?UpdateNpcData@KNpcGold@@AAEXH@Z 1001e440 f   KNpcGold.obj
 0001:0001e100       ?GetGoldType@KNpcGold@@QAEHXZ 1001f100 f   KNpcGold.obj
 0001:0001e110       ?SetGoldCurrentType@KNpcGold@@QAEXH@Z 1001f110 f   KNpcGold.obj
 0001:0001e150       ??0KNpcGoldTemplate@@QAE@XZ 1001f150 f   KNpcGold.obj
 0001:0001e170       ?Init@KNpcGoldTemplate@@QAEHXZ 1001f170 f   KNpcGold.obj
 0001:0001e570       ??0KNpcRes@@QAE@XZ         1001f570 f   KNpcRes.obj
 0001:0001e640       ?Init@KNpcRes@@QAEHPADPAVKNpcResList@@@Z 1001f640 f   KNpcRes.obj
 0001:0001e870       ?Remove@KNpcRes@@QAEXH@Z   1001f870 f   KNpcRes.obj
 0001:0001e8b0       ?Draw@KNpcRes@@QAEXHHHHH@Z 1001f8b0 f   KNpcRes.obj
 0001:0001f290       ?GetShadowName@KNpcRes@@SAXPAD0@Z 10020290 f   KNpcRes.obj
 0001:0001f2b0       ??1KNpcRes@@QAE@XZ         100202b0 f   KNpcRes.obj
 0001:0001f2c0       ?SetHelm@KNpcRes@@QAEHH@Z  100202c0 f   KNpcRes.obj
 0001:0001f3b0       ?SetArmor@KNpcRes@@QAEHH@Z 100203b0 f   KNpcRes.obj
 0001:0001f4c0       ?SetWeapon@KNpcRes@@QAEHH@Z 100204c0 f   KNpcRes.obj
 0001:0001f8f0       ?SetHorse@KNpcRes@@QAEHH@Z 100208f0 f   KNpcRes.obj
 0001:0001f9f0       ?SetMantle@KNpcRes@@QAEHF@Z 100209f0 f   KNpcRes.obj
 0001:0001fb10       ?SetAction@KNpcRes@@QAEHH@Z 10020b10 f   KNpcRes.obj
 0001:0001ff40       ?SetRideHorse@KNpcRes@@QAEHH@Z 10020f40 f   KNpcRes.obj
 0001:00020360       ?SetPos@KNpcRes@@QAEXHHHHHH@Z 10021360 f   KNpcRes.obj
 0001:000203c0       ?SetState@KNpcRes@@QAEXPAVKList@@PAVKNpcResList@@@Z 100213c0 f   KNpcRes.obj
 0001:000205f0       ?SetSpecialSpr@KNpcRes@@QAEXPAD@Z 100215f0 f   KNpcRes.obj
 0001:000206a0       ?SetMenuStateSpr@KNpcRes@@AAEXH@Z 100216a0 f   KNpcRes.obj
 0001:00020790       ?SetBlur@KNpcRes@@QAEXH@Z  10021790 f   KNpcRes.obj
 0001:000207c0       ?GetSoundName@KNpcRes@@AAEXXZ 100217c0 f   KNpcRes.obj
 0001:000207e0       ?PlaySoundA@KNpcRes@@AAEXHH@Z 100217e0 f   KNpcRes.obj
 0001:000208b0       ?GetSndVolume@KNpcRes@@QAEHH@Z 100218b0 f   KNpcRes.obj
 0001:000208e0       ?StopSound@KNpcRes@@QAEXXZ 100218e0 f   KNpcRes.obj
 0001:00020920       ?SetMenuState@KNpcRes@@QAEXHPADH@Z 10021920 f   KNpcRes.obj
 0001:00020960       ?GetMenuState@KNpcRes@@QAEHXZ 10021960 f   KNpcRes.obj
 0001:00020980       ?SetSleepState@KNpcRes@@QAEXH@Z 10021980 f   KNpcRes.obj
 0001:000209d0       ?GetSleepState@KNpcRes@@QAEHXZ 100219d0 f   KNpcRes.obj
 0001:000209e0       ?DrawBorder@KNpcRes@@QAEXXZ 100219e0 f   KNpcRes.obj
 0001:00020af0       ?DrawMenuState@KNpcRes@@QAEHH@Z 10021af0 f   KNpcRes.obj
 0001:00020be0       ?GetNormalNpcStandDir@KNpcRes@@QAEHH@Z 10021be0 f   KNpcRes.obj
 0001:00020c20       ?GetSprNumFrames@KNpcRes@@QAEHPBDH@Z 10021c20 f   KNpcRes.obj
 0001:00020c50       ?SetBlurSecMove@KNpcRes@@QAEXHHHH@Z 10021c50 f   KNpcRes.obj
 0001:00020d20       ?RemoveBlurSecMove@KNpcRes@@QAEXH@Z 10021d20 f   KNpcRes.obj
 0001:00020d40       ??0KStateSpr@@QAE@XZ       10021d40 f   KNpcRes.obj
 0001:00020d60       ?Release@KStateSpr@@QAEXXZ 10021d60 f   KNpcRes.obj
 0001:00020d80       ??0KNpcBlur@@QAE@XZ        10021d80 f   KNpcRes.obj
 0001:00020da0       ??1KNpcBlur@@QAE@XZ        10021da0 f   KNpcRes.obj
 0001:00020db0       ?SetNextNo@KNpcBlur@@QAEXXZ 10021db0 f   KNpcRes.obj
 0001:00020dd0       ?SetMapPos@KNpcBlur@@QAEXHHHH@Z 10021dd0 f   KNpcRes.obj
 0001:00020e30       ?ChangeAlpha@KNpcBlur@@QAEXXZ 10021e30 f   KNpcRes.obj
 0001:00020ee0       ?ClearCurNo@KNpcBlur@@QAEXXZ 10021ee0 f   KNpcRes.obj
 0001:00020f10       ?SetFile@KNpcBlur@@QAEXHPADHHHHH@Z 10021f10 f   KNpcRes.obj
 0001:00021040       ?Draw@KNpcBlur@@QAEXH@Z    10022040 f   KNpcRes.obj
 0001:00021080       ?NowGetBlur@KNpcBlur@@QAEHXZ 10022080 f   KNpcRes.obj
 0001:00021090       ?Init@KNpcBlur@@QAEHXZ     10022090 f   KNpcRes.obj
 0001:000210d0       ?Remove@KNpcBlur@@QAEXXZ   100220d0 f   KNpcRes.obj
 0001:00021110       ?Remove@KNpcBlur@@QAEXH@Z  10022110 f   KNpcRes.obj
 0001:00021160       ?AddObj@KNpcBlur@@QAEXXZ   10022160 f   KNpcRes.obj
 0001:00021170       ?RemoveObj@KNpcBlur@@QAEXXZ 10022170 f   KNpcRes.obj
 0001:000211c0       ??0KNpcResList@@QAE@XZ     100221c0 f   KNpcResList.obj
 0001:00021240       ??1KNpcResList@@QAE@XZ     10022240 f   KNpcResList.obj
 0001:000212d0       ?Init@KNpcResList@@QAEHXZ  100222d0 f   KNpcResList.obj
 0001:00021320       ?FindNpcRes@KNpcResList@@AAEPAVKNpcResNode@@PAD@Z 10022320 f   KNpcResList.obj
 0001:000213f0       ?AddNpcRes@KNpcResList@@QAEPAVKNpcResNode@@PAD@Z 100223f0 f   KNpcResList.obj
 0001:000214c0       ??0KNpcResNode@@QAE@XZ     100224c0 f   KNpcResNode.obj
 0001:000215b0       ??_GKNpcResNode@@UAEPAXI@Z 100225b0 f i KNpcResNode.obj
 0001:000215b0       ??_EKNpcResNode@@UAEPAXI@Z 100225b0 f i KNpcResNode.obj
 0001:000215d0       ??1KNpcResNode@@UAE@XZ     100225d0 f   KNpcResNode.obj
 0001:00021670       ?Init@KNpcResNode@@QAEHPADPAVCActionName@@1@Z 10022670 f   KNpcResNode.obj
 0001:000224d0       ?ComposePathAndName@KNpcResNode@@QAEXPAD00@Z 100234d0 f   KNpcResNode.obj
 0001:000225d0       ?CheckPartExist@KNpcResNode@@QAEHH@Z 100235d0 f   KNpcResNode.obj
 0001:00022600       ?GetFileName@KNpcResNode@@QAEHHHHPAD0H@Z 10023600 f   KNpcResNode.obj
 0001:00022640       ?GetInterval@KNpcResNode@@QAEHHHHH@Z 10023640 f   KNpcResNode.obj
 0001:00022680       ?GetTotalFrames@KNpcResNode@@QAEHHHHH@Z 10023680 f   KNpcResNode.obj
 0001:000226c0       ?GetTotalDirs@KNpcResNode@@QAEHHHHH@Z 100236c0 f   KNpcResNode.obj
 0001:00022700       ?GetActNo@KNpcResNode@@QAEHHHH@Z 10023700 f   KNpcResNode.obj
 0001:00022740       ?GetSort@KNpcResNode@@QAEHHHHPAHH@Z 10023740 f   KNpcResNode.obj
 0001:000227a0       ?GetActionSoundName@KNpcResNode@@QAEXHPAD@Z 100237a0 f   KNpcResNode.obj
 0001:000227e0       ?GetShadowName@KNpcResNode@@SAXPAD0@Z 100237e0 f   KNpcResNode.obj
 0001:00022870       ??0CActionName@@QAE@XZ     10023870 f   KNpcResNode.obj
 0001:000228a0       ?Init@CActionName@@QAEHPAD@Z 100238a0 f   KNpcResNode.obj
 0001:000229c0       ?GetActionNo@CActionName@@QAEHPAD@Z 100239c0 f   KNpcResNode.obj
 0001:00022a40       ?GetActionCount@CActionName@@QAEHXZ 10023a40 f   KNpcResNode.obj
 0001:00022a50       ?GetActionName@CActionName@@QAEHHPADH@Z 10023a50 f   KNpcResNode.obj
 0001:00022ac0       ??0CShadowFileName@@QAE@XZ 10023ac0 f   KNpcResNode.obj
 0001:00022ad0       ??1CShadowFileName@@QAE@XZ 10023ad0 f   KNpcResNode.obj
 0001:00022b00       ?Init@CShadowFileName@@QAEXH@Z 10023b00 f   KNpcResNode.obj
 0001:00022b60       ?GetFile@CShadowFileName@@QAEHHPAH0000PAD@Z 10023b60 f   KNpcResNode.obj
 0001:00022bf0       ??0CStateMagicTable@@QAE@XZ 10023bf0 f   KNpcResNode.obj
 0001:00022c50       ?Init@CStateMagicTable@@QAEHXZ 10023c50 f   KNpcResNode.obj
 0001:00022eb0       ?GetInfo@CStateMagicTable@@QAEXHPADPAH111111@Z 10023eb0 f   KNpcResNode.obj
 0001:00022fc0       ??0CRESINFO@@QAE@XZ        10023fc0 f   KNpcResNode.obj
 0001:00022fd0       ??1CRESINFO@@QAE@XZ        10023fd0 f   KNpcResNode.obj
 0001:00022fe0       ?AutoDelete@CRESINFO@@QAEXXZ 10023fe0 f   KNpcResNode.obj
 0001:00023010       ?AutoNew@CRESINFO@@QAEHHH@Z 10024010 f   KNpcResNode.obj
 0001:000230c0       ?GetName@CRESINFO@@QAEHHHPAD0H@Z 100240c0 f   KNpcResNode.obj
 0001:00023150       ?GetInterval@CRESINFO@@QAEHHHH@Z 10024150 f   KNpcResNode.obj
 0001:00023190       ?GetTotalFrames@CRESINFO@@QAEHHHH@Z 10024190 f   KNpcResNode.obj
 0001:000231d0       ?GetTotalDirs@CRESINFO@@QAEHHHH@Z 100241d0 f   KNpcResNode.obj
 0001:00023210       ??0CEquipStyleTable@@QAE@XZ 10024210 f   KNpcResNode.obj
 0001:00023220       ??1CEquipStyleTable@@QAE@XZ 10024220 f   KNpcResNode.obj
 0001:00023230       ?AutoDelete@CEquipStyleTable@@QAEXXZ 10024230 f   KNpcResNode.obj
 0001:00023260       ?AutoNew@CEquipStyleTable@@QAEHHH@Z 10024260 f   KNpcResNode.obj
 0001:000232c0       ?SetValue@CEquipStyleTable@@QAEXHHH@Z 100242c0 f   KNpcResNode.obj
 0001:00023300       ?GetValue@CEquipStyleTable@@QAEHHH@Z 10024300 f   KNpcResNode.obj
 0001:00023340       ??0CSortTable@@QAE@XZ      10024340 f   KNpcResNode.obj
 0001:000233b0       ??1CSortTable@@QAE@XZ      100243b0 f   KNpcResNode.obj
 0001:000233c0       ?Release@CSortTable@@AAEXXZ 100243c0 f   KNpcResNode.obj
 0001:00023410       ?SortStrToNum@CSortTable@@AAEXPADPAHH@Z 10024410 f   KNpcResNode.obj
 0001:000234c0       ?GetTable@CSortTable@@QAEHPADPAVCActionName@@H@Z 100244c0 f   KNpcResNode.obj
 0001:000235a0       ?GetTable@CSortTable@@QAEHPAVKIniFile@@PAVCActionName@@H@Z 100245a0 f   KNpcResNode.obj
 0001:00023a10       ?GetSort@CSortTable@@QAEHHHHPAHH@Z 10024a10 f   KNpcResNode.obj
 0001:00023d30       ??1KNpcSet@@QAE@XZ         10024d30 f i KNpcSet.obj
 0001:00023da0       ??0KNpcSet@@QAE@XZ         10024da0 f   KNpcSet.obj
 0001:00023e00       ?Init@KNpcSet@@QAEXXZ      10024e00 f   KNpcSet.obj
 0001:00023ec0       ?LoadPlayerBaseValue@KNpcSet@@QAEXPAD@Z 10024ec0 f   KNpcSet.obj
 0001:00024030       ?IsNpcExist@KNpcSet@@QAEHHK@Z 10025030 f   KNpcSet.obj
 0001:00024060       ?GenOneRelation@KNpcSet@@AAE?AW4NPC_RELATION@@W4NPCKIND@@0W4NPCCAMP@@1W4NPCFIGHT@@2@Z 10025060 f   KNpcSet.obj
 0001:00024170       ?GenRelationTable@KNpcSet@@AAEHXZ 10025170 f   KNpcSet.obj
 0001:00024210       ?SearchID@KNpcSet@@QAEHK@Z 10025210 f   KNpcSet.obj
 0001:00024250       ?SearchClientID@KNpcSet@@QAEHUKClientNpcID@@@Z 10025250 f   KNpcSet.obj
 0001:000242a0       ?SearchName@KNpcSet@@QAEHPAD@Z 100252a0 f   KNpcSet.obj
 0001:00024300       ?SearchNameID@KNpcSet@@QAEHK@Z 10025300 f   KNpcSet.obj
 0001:00024360       ?SearchNpcById@KNpcSet@@QAEPAVKNpc@@K@Z 10025360 f   KNpcSet.obj
 0001:000243e0       ?FindFree@KNpcSet@@AAEHXZ  100253e0 f   KNpcSet.obj
 0001:00024400       ?AddClientNpc@KNpcSet@@QAEHHHHHHH@Z 10025400 f   KNpcSet.obj
 0001:00024520       ?Add@KNpcSet@@QAEHHHPAX@Z  10025520 f   KNpcSet.obj
 0001:000245f0       ?Add@KNpcSet@@QAEHHHHHH@Z  100255f0 f   KNpcSet.obj
 0001:00024680       ?Add@KNpcSet@@QAEHHHHHHHHH@Z 10025680 f   KNpcSet.obj
 0001:00024820       ?Remove@KNpcSet@@QAEXH@Z   10025820 f   KNpcSet.obj
 0001:00024890       ?RemoveAll@KNpcSet@@QAEXXZ 10025890 f   KNpcSet.obj
 0001:00024930       ?InsertNpcToRegion@KNpcSet@@QAEXH@Z 10025930 f   KNpcSet.obj
 0001:000249f0       ?GetDistance@KNpcSet@@SAHHH@Z 100259f0 f   KNpcSet.obj
 0001:00024b80       ?GetDistanceSquare@KNpcSet@@SAHHH@Z 10025b80 f   KNpcSet.obj
 0001:00024cf0       ?GetNextIdx@KNpcSet@@QAEHH@Z 10025cf0 f   KNpcSet.obj
 0001:00024d20       ?CheckBalance@KNpcSet@@QAEXXZ 10025d20 f   KNpcSet.obj
 0001:00024ea0       ?GetAroundPlayerForTeamInvite@KNpcSet@@QAEHPAUKUiPlayerItem@@H@Z 10025ea0 f   KNpcSet.obj
 0001:00025070       ?GetAroundPlayer@KNpcSet@@QAEHPAUKUiPlayerItem@@H@Z 10026070 f   KNpcSet.obj
 0001:000251c0       ?SetShowNameFlag@KNpcSet@@QAEXH@Z 100261c0 f   KNpcSet.obj
 0001:000251f0       ?CheckShowName@KNpcSet@@QAEHXZ 100261f0 f   KNpcSet.obj
 0001:00025200       ?SetShowLifeFlag@KNpcSet@@QAEXH@Z 10026200 f   KNpcSet.obj
 0001:00025230       ?CheckShowLife@KNpcSet@@QAEHXZ 10026230 f   KNpcSet.obj
 0001:00025240       ?SetShowChatFlag@KNpcSet@@QAEXH@Z 10026240 f   KNpcSet.obj
 0001:00025270       ?CheckShowChat@KNpcSet@@QAEHXZ 10026270 f   KNpcSet.obj
 0001:00025280       ?SetShowManaFlag@KNpcSet@@QAEXH@Z 10026280 f   KNpcSet.obj
 0001:000252b0       ?CheckShowMana@KNpcSet@@QAEHXZ 100262b0 f   KNpcSet.obj
 0001:000252c0       ?AutoGetNpcNear@KNpcSet@@QAEHHHHHQAHHHH@Z 100262c0 f   KNpcSet.obj
 0001:00025410       ?GetDistanceMps@KNpcSet@@QAEHHHHH@Z 10026410 f   KNpcSet.obj
 0001:00025450       ?AutoGetPlayerPk@KNpcSet@@QAEHHHHH@Z 10026450 f   KNpcSet.obj
 0001:00025560       ?ClearActivateFlagOfAllNpc@KNpcSet@@QAEXXZ 10026560 f   KNpcSet.obj
 0001:000255a0       ?GetAroundOpenCaptain@KNpcSet@@QAEXH@Z 100265a0 f   KNpcSet.obj
 0001:00025720       ?SearchNpcAt@KNpcSet@@QAEHHHHH@Z 10026720 f   KNpcSet.obj
 0001:00025890       ?IsNpcRequestExist@KNpcSet@@QAEHK@Z 10026890 f   KNpcSet.obj
 0001:000258b0       ?InsertNpcRequest@KNpcSet@@QAEXK@Z 100268b0 f   KNpcSet.obj
 0001:00025910       ?RemoveNpcRequest@KNpcSet@@QAEXK@Z 10026910 f   KNpcSet.obj
 0001:00025960       ?GetRequestIndex@KNpcSet@@QAEHK@Z 10026960 f   KNpcSet.obj
 0001:000259a0       ?GetRelation@KNpcSet@@QAE?AW4NPC_RELATION@@HH@Z 100269a0 f   KNpcSet.obj
 0001:00025c10       ??0KInstantSpecial@@QAE@XZ 10026c10 f   KNpcSet.obj
 0001:00025c60       ?LoadSprName@KInstantSpecial@@AAEXXZ 10026c60 f   KNpcSet.obj
 0001:00025d20       ?LoadSoundName@KInstantSpecial@@AAEXXZ 10026d20 f   KNpcSet.obj
 0001:00025e10       ?GetSprName@KInstantSpecial@@QAEXHPADH@Z 10026e10 f   KNpcSet.obj
 0001:00025ea0       ?PlaySoundA@KInstantSpecial@@QAEXH@Z 10026ea0 f   KNpcSet.obj
 0001:00025f40       ?InitNpcBaseData@KNpcTemplate@@QAEXH@Z 10026f40 f   KNpcTemplate.obj
 0001:00026190       ?InitNpcLevelData@KNpcTemplate@@QAEXPAVKTabFile@@HPAVKLuaScript@@HH@Z 10027190 f   KNpcTemplate.obj
 0001:000262d0       ?GetNpcLevelDataFromScript@KNpcTemplate@@SAHPAVKLuaScript@@PADHH1@Z 100272d0 f   KNpcTemplate.obj
 0001:00026360       ?GetNpcLevelDataFromScript@KNpcTemplate@@SAHPAVKLuaScript@@PADHHNNN@Z 10027360 f   KNpcTemplate.obj
 0001:00026400       ?SkillString2Id@KNpcTemplate@@SAHPAD@Z 10027400 f   KNpcTemplate.obj
 0001:00026510       ??0KPlayer@@QAE@XZ         10027510 f   KPlayer.obj
 0001:00026650       ??1KPlayerAI@@QAE@XZ       10027650 f i KPlayer.obj
 0001:00026660       ??1KEquipmentArray@@QAE@XZ 10027660 f i KPlayer.obj
 0001:00026670       ??1KPlayerChat@@QAE@XZ     10027670 f i KPlayer.obj
 0001:000266e0       ??1CChatFriendTeam@@QAE@XZ 100276e0 f i KPlayer.obj
 0001:000266f0       ??1KPlayer@@QAE@XZ         100276f0 f   KPlayer.obj
 0001:000267a0       ?Release@KPlayer@@QAEXXZ   100277a0 f   KPlayer.obj
 0001:00026920       ?SetPlayerIndex@KPlayer@@QAEXH@Z 10027920 f   KPlayer.obj
 0001:00026940       ?GetPlayerIndex@KPlayer@@QAEHXZ 10027940 f   KPlayer.obj
 0001:00026950       ?Active@KPlayer@@QAEXXZ    10027950 f   KPlayer.obj
 0001:00026a70       ?ProcessMsg@KPlayer@@QAEXPAVKWorldMsgNode@@@Z 10027a70 f   KPlayer.obj
 0001:00026a80       ?ProcessInputMsg@KPlayer@@QAEXIIJ@Z 10027a80 f   KPlayer.obj
 0001:00026bf0       ?OnButtonDown@KPlayer@@AAEXHHHW4MOUSE_BUTTON@@@Z 10027bf0 f   KPlayer.obj
 0001:00026c40       ?OnButtonMove@KPlayer@@AAEXHHHW4MOUSE_BUTTON@@@Z 10027c40 f   KPlayer.obj
 0001:00026c70       ?OnButtonUp@KPlayer@@AAEXHHW4MOUSE_BUTTON@@@Z 10027c70 f   KPlayer.obj
 0001:00026c80       ?OnMouseMove@KPlayer@@AAEXHH@Z 10027c80 f   KPlayer.obj
 0001:00026de0       ?ProcessMouse@KPlayer@@AAEXHHHW4MOUSE_BUTTON@@@Z 10027de0 f   KPlayer.obj
 0001:00027380       ?Walk@KPlayer@@QAEXHH@Z    10028380 f   KPlayer.obj
 0001:00027520       ?TurnLeft@KPlayer@@QAEXXZ  10028520 f   KPlayer.obj
 0001:00027570       ?TurnRight@KPlayer@@QAEXXZ 10028570 f   KPlayer.obj
 0001:000275c0       ?TurnBack@KPlayer@@QAEXXZ  100285c0 f   KPlayer.obj
 0001:00027610       ?FindSelectNpc@KPlayer@@QAEXHHH@Z 10028610 f   KPlayer.obj
 0001:00027690       ?FindSelectObject@KPlayer@@QAEXHH@Z 10028690 f   KPlayer.obj
 0001:000276c0       ?NetCommandPlayerTalk@KPlayer@@AAEHPAE@Z 100286c0 f   KPlayer.obj
 0001:000276d0       ?ConformIdx@KPlayer@@QAEHH@Z 100286d0 f   KPlayer.obj
 0001:000276f0       ?ResetBaseAttribute@KPlayer@@QAEXD@Z 100286f0 f   KPlayer.obj
 0001:000279d0       ?CalcCurLucky@KPlayer@@AAEXXZ 100289d0 f   KPlayer.obj
 0001:000279e0       ?ChangeCurStrength@KPlayer@@QAEXH@Z 100289e0 f   KPlayer.obj
 0001:00027a00       ?ChangeCurDexterity@KPlayer@@QAEXH@Z 10028a00 f   KPlayer.obj
 0001:00027a80       ?ChangeCurVitality@KPlayer@@QAEXH@Z 10028a80 f   KPlayer.obj
 0001:00027b50       ?ChangeCurEngergy@KPlayer@@QAEXH@Z 10028b50 f   KPlayer.obj
 0001:00027bd0       ?AddBaseLucky@KPlayer@@QAEXH@Z 10028bd0 f   KPlayer.obj
 0001:00027bf0       ?SetNpcPhysicsDamage@KPlayer@@AAEXXZ 10028bf0 f   KPlayer.obj
 0001:00027d10       ?SetNpcAttackRating@KPlayer@@AAEXXZ 10028d10 f   KPlayer.obj
 0001:00027d50       ?SetNpcDefence@KPlayer@@AAEXXZ 10028d50 f   KPlayer.obj
 0001:00027d90       ?AddExp@KPlayer@@QAEXMHH@Z 10028d90 f   KPlayer.obj
 0001:00027db0       ?AddSelfExp@KPlayer@@QAEXHH@Z 10028db0 f   KPlayer.obj
 0001:00027eb0       ?DirectAddExp@KPlayer@@QAEXH@Z 10028eb0 f   KPlayer.obj
 0001:00027f10       ?LevelUp@KPlayer@@QAEXXZ   10028f10 f   KPlayer.obj
 0001:00028460       ?UpdataCurData@KPlayer@@QAEXXZ 10029460 f   KPlayer.obj
 0001:00028fd0       ?ReCalcEquip@KPlayer@@QAEXXZ 10029fd0 f   KPlayer.obj
 0001:00029070       ?ReCalcState@KPlayer@@QAEXXZ 1002a070 f   KPlayer.obj
 0001:000290a0       ?AddLeadExp@KPlayer@@QAEXH@Z 1002a0a0 f   KPlayer.obj
 0001:00029130       ?LevelAddBaseLifeMax@KPlayer@@AAEXXZ 1002a130 f   KPlayer.obj
 0001:000291b0       ?LevelAddBaseStaminaMax@KPlayer@@AAEXXZ 1002a1b0 f   KPlayer.obj
 0001:00029240       ?LevelAddBaseManaMax@KPlayer@@AAEXXZ 1002a240 f   KPlayer.obj
 0001:000292c0       ?ChangePlayerCamp@KPlayer@@QAEXH@Z 1002a2c0 f   KPlayer.obj
 0001:000292f0       ?ApplyTeamInfo@KPlayer@@QAEXK@Z 1002a2f0 f   KPlayer.obj
 0001:00029340       ?ApplySelfTeamInfo@KPlayer@@QAEXXZ 1002a340 f   KPlayer.obj
 0001:00029370       ?ApplyCreateTeam@KPlayer@@QAEHXZ 1002a370 f   KPlayer.obj
 0001:00029380       ?ApplyTeamOpenClose@KPlayer@@QAEHH@Z 1002a380 f   KPlayer.obj
 0001:00029470       ?ApplyAddTeam@KPlayer@@QAEXH@Z 1002a470 f   KPlayer.obj
 0001:000295d0       ?AcceptTeamMember@KPlayer@@QAEXK@Z 1002a5d0 f   KPlayer.obj
 0001:00029680       ?TeamDropApplyOne@KPlayer@@QAEXK@Z 1002a680 f   KPlayer.obj
 0001:000296d0       ?LeaveTeam@KPlayer@@QAEXXZ 1002a6d0 f   KPlayer.obj
 0001:00029710       ?TeamKickMember@KPlayer@@QAEXK@Z 1002a710 f   KPlayer.obj
 0001:00029770       ?ApplyTeamChangeCaptain@KPlayer@@QAEXK@Z 1002a770 f   KPlayer.obj
 0001:000297d0       ?ApplyTeamDismiss@KPlayer@@QAEXXZ 1002a7d0 f   KPlayer.obj
 0001:00029830       ?ApplySetPK@KPlayer@@QAEXH@Z 1002a830 f   KPlayer.obj
 0001:00029880       ?ApplyFactionData@KPlayer@@QAEXXZ 1002a880 f   KPlayer.obj
 0001:000298c0       ?SendChat@KPlayer@@QAEXPAUKUiMsgParam@@PAD@Z 1002a8c0 f   KPlayer.obj
 0001:00029950       ?ApplyAddBaseAttribute@KPlayer@@QAEXHH@Z 1002a950 f   KPlayer.obj
 0001:000299c0       ?ApplyAddSkillLevel@KPlayer@@QAEHHH@Z 1002a9c0 f   KPlayer.obj
 0001:00029a90       ?ApplyUseItem@KPlayer@@QAEHHUItemPos@@@Z 1002aa90 f   KPlayer.obj
 0001:00029da0       ?PickUpObj@KPlayer@@QAEXH@Z 1002ada0 f   KPlayer.obj
 0001:00029f30       ?ObjMouseClick@KPlayer@@QAEXH@Z 1002af30 f   KPlayer.obj
 0001:00029fc0       ?MoveItem@KPlayer@@QAEXUItemPos@@0@Z 1002afc0 f   KPlayer.obj
 0001:0002a280       ?ThrowAwayItem@KPlayer@@QAEHXZ 1002b280 f   KPlayer.obj
 0001:0002a4f0       ?AutoThrowAwayItem@KPlayer@@QAEHH@Z 1002b4f0 f   KPlayer.obj
 0001:0002a660       ?ChatAddFriend@KPlayer@@QAEXH@Z 1002b660 f   KPlayer.obj
 0001:0002a6b0       ?ChatRefuseFriend@KPlayer@@QAEXH@Z 1002b6b0 f   KPlayer.obj
 0001:0002a700       ?TradeApplyOpen@KPlayer@@QAEXPADH@Z 1002b700 f   KPlayer.obj
 0001:0002a790       ?TradeApplyClose@KPlayer@@QAEXXZ 1002b790 f   KPlayer.obj
 0001:0002a7e0       ?TradeApplyStart@KPlayer@@QAEXH@Z 1002b7e0 f   KPlayer.obj
 0001:0002a8e0       ?TradeMoveMoney@KPlayer@@QAEHH@Z 1002b8e0 f   KPlayer.obj
 0001:0002a980       ?TradeDecision@KPlayer@@QAEXH@Z 1002b980 f   KPlayer.obj
 0001:0002aa20       ?TradeApplyLock@KPlayer@@QAEXH@Z 1002ba20 f   KPlayer.obj
 0001:0002aaa0       ?s2cApplyAddTeam@KPlayer@@QAEXPAE@Z 1002baa0 f   KPlayer.obj
 0001:0002acf0       ?TaskGetSaveVal@KPlayer@@QAEHH@Z 1002bcf0 f   KPlayer.obj
 0001:0002ad10       ?TaskSetSaveVal@KPlayer@@QAEXHH@Z 1002bd10 f   KPlayer.obj
 0001:0002add0       ?TaskGetClearVal@KPlayer@@QAEHH@Z 1002bdd0 f   KPlayer.obj
 0001:0002adf0       ?TaskSetClearVal@KPlayer@@QAEXHH@Z 1002bdf0 f   KPlayer.obj
 0001:0002ae10       ?CheckRideHorse@KPlayer@@QAEXH@Z 1002be10 f   KPlayer.obj
 0001:0002aef0       ?SetLevel@KPlayer@@QAEXE@Z 1002bef0 f   KPlayer.obj
 0001:0002b6e0       ?RefeshPlayer@KPlayer@@QAEX_N@Z 1002c6e0 f   KPlayer.obj
 0001:0002b750       ?AddAllSkillPoint@KPlayer@@QAEXH@Z 1002c750 f   KPlayer.obj
 0001:0002b7b0       ?AddSkillPoint@KPlayer@@QAEXHH@Z 1002c7b0 f   KPlayer.obj
 0001:0002b910       ?UpdateSkillPointAdd@KPlayer@@QAEXXZ 1002c910 f   KPlayer.obj
 0001:0002b960       ?SetDefaultImmedSkill@KPlayer@@QAEXXZ 1002c960 f   KPlayer.obj
 0001:0002ba00       ?SetLeftSkill@KPlayer@@QAEXH@Z 1002ca00 f   KPlayer.obj
 0001:0002ba60       ?SetRightSkill@KPlayer@@QAEXH@Z 1002ca60 f   KPlayer.obj
 0001:0002bb50       ?UpdateWeaponSkill@KPlayer@@QAEXXZ 1002cb50 f   KPlayer.obj
 0001:0002bc50       ?SetChatCurChannel@KPlayer@@QAEXH@Z 1002cc50 f   KPlayer.obj
 0001:0002bc70       ?TeamInviteAdd@KPlayer@@QAEXK@Z 1002cc70 f   KPlayer.obj
 0001:0002bc90       ?ExecuteScript@KPlayer@@QAEHPAD0H@Z 1002cc90 f   KPlayer.obj
 0001:0002bcd0       ?ExecuteScript@KPlayer@@QAEHKPADH@Z 1002ccd0 f   KPlayer.obj
 0001:0002beb0       ?ExecuteScript@KPlayer@@QAEHKPAD0@Z 1002ceb0 f   KPlayer.obj
 0001:0002c080       ?ExecuteScript@KPlayer@@QAEHPAD00@Z 1002d080 f   KPlayer.obj
 0001:0002c0d0       ?ExecuteScript2@KPlayer@@QAEHPAD0HHH@Z 1002d0d0 f   KPlayer.obj
 0001:0002c120       ?ExecuteScript2@KPlayer@@QAEHKPADHHH@Z 1002d120 f   KPlayer.obj
 0001:0002c320       ?ExecuteScript2@KPlayer@@QAEHPAD0H0H@Z 1002d320 f   KPlayer.obj
 0001:0002c370       ?ExecuteScript2@KPlayer@@QAEHKPADH0H@Z 1002d370 f   KPlayer.obj
 0001:0002c570       ?DoScriptAction@KPlayer@@QAEXPAUPLAYER_SCRIPTACTION_SYNC@@@Z 1002d570 f   KPlayer.obj
 0001:0002c590       ?ProcessPlayerSelectFromUI@KPlayer@@QAEXPAE@Z 1002d590 f   KPlayer.obj
 0001:0002c6e0       ?OnSelectFromUI@KPlayer@@QAEXPAUPLAYER_SELECTUI_COMMAND@@W4UIInfo@@@Z 1002d6e0 f   KPlayer.obj
 0001:0002c880       ?ChatFriendOnLine@KPlayer@@QAEXKH@Z 1002d880 f   KPlayer.obj
 0001:0002c990       ?GetFactionName@KPlayer@@QAEXPADH@Z 1002d990 f   KPlayer.obj
 0001:0002c9b0       ?OnScriptAction@KPlayer@@QAEXPAUPLAYER_SCRIPTACTION_SYNC@@@Z 1002d9b0 f   KPlayer.obj
 0001:0002d820       ??_EKLuaScript@@UAEPAXI@Z  1002e820 f i KPlayer.obj
 0001:0002d820       ??_GKLuaScript@@UAEPAXI@Z  1002e820 f i KPlayer.obj
 0001:0002d840       ?s2cTradeChangeState@KPlayer@@QAEXPAE@Z 1002e840 f   KPlayer.obj
 0001:0002db50       ?s2cLevelUp@KPlayer@@QAEXPAE@Z 1002eb50 f   KPlayer.obj
 0001:0002e390       ?s2cGetCurAttribute@KPlayer@@QAEXPAE@Z 1002f390 f   KPlayer.obj
 0001:0002e860       ?s2cSetExp@KPlayer@@QAEXH@Z 1002f860 f   KPlayer.obj
 0001:0002e920       ?s2cSyncMoney@KPlayer@@QAEXPAE@Z 1002f920 f   KPlayer.obj
 0001:0002ea10       ?s2cTradeApplyStart@KPlayer@@QAEXPAE@Z 1002fa10 f   KPlayer.obj
 0001:0002eaf0       ?s2cTradeMoneySync@KPlayer@@QAEXPAE@Z 1002faf0 f   KPlayer.obj
 0001:0002eb30       ?s2cTradeDecision@KPlayer@@QAEXPAE@Z 1002fb30 f   KPlayer.obj
 0001:0002ecc0       ?GetRightSkillID@KPlayer@@QBEHXZ 1002fcc0 f   KPlayer.obj
 0001:0002ecd0       ?GetRightSkillLevel@KPlayer@@QBEHXZ 1002fcd0 f   KPlayer.obj
 0001:0002ece0       ?ForceReapplyRightAura@KPlayer@@QAEXXZ 1002fce0 f   KPlayer.obj
 0001:0002ed50       ?SyncCurPlayer@KPlayer@@QAEXPAE@Z 1002fd50 f   KPlayer.obj
 0001:0002f2f0       ?CheckTrading@KPlayer@@QAEHXZ 100302f0 f   KPlayer.obj
 0001:0002f300       ?SetFirstDamage@KPlayer@@QAEXXZ 10030300 f   KPlayer.obj
 0001:0002f860       ?SetBaseAttackRating@KPlayer@@QAEXXZ 10030860 f   KPlayer.obj
 0001:0002f890       ?SetBaseDefence@KPlayer@@QAEXXZ 10030890 f   KPlayer.obj
 0001:0002f8c0       ?SetBaseResistData@KPlayer@@QAEXXZ 100308c0 f   KPlayer.obj
 0001:0002fb20       ?SetBaseSpeedAndRadius@KPlayer@@QAEXXZ 10030b20 f   KPlayer.obj
 0001:0002fc00       ?DialogNpc@KPlayer@@QAEXH@Z 10030c00 f   KPlayer.obj
 0001:0002fca0       ?CheckObject@KPlayer@@QAEXH@Z 10030ca0 f   KPlayer.obj
 0001:0002fd50       ?ShopApplyOpen@KPlayer@@QAEHXZ 10030d50 f   KPlayer.obj
 0001:0002fee0       ?ShopApplyClose@KPlayer@@QAEHXZ 10030ee0 f   KPlayer.obj
 0001:0002ff80       ?DrawSelectInfo@KPlayer@@QAEXXZ 10030f80 f   KPlayer.obj
 0001:00030100       ?GetEchoDamage@KPlayer@@QAEXPAH00H@Z 10031100 f   KPlayer.obj
 0001:00030a40       ?SetNpcDamageAttrib@KPlayer@@QAEXXZ 10031a40 f   KPlayer.obj
 0001:00030a50       ?SetBronzeCoin@KPlayer@@QAEXH@Z 10031a50 f   KPlayer.obj
 0001:00030a60       ?GetBronzeCoin@KPlayer@@QAEHXZ 10031a60 f   KPlayer.obj
 0001:00030a70       ?SetLockBronzeCoin@KPlayer@@QAEXH@Z 10031a70 f   KPlayer.obj
 0001:00030a80       ?GetLockBronzeCoin@KPlayer@@QAEHXZ 10031a80 f   KPlayer.obj
 0001:00030a90       ?HideMask@KPlayer@@QAEXH@Z 10031a90 f   KPlayer.obj
 0001:00030b50       ?SetExpAddNo@KPlayer@@AAEXH@Z 10031b50 f   KPlayer.obj
 0001:00030b90       ?ClientSystemMsg@KPlayer@@QAEXPBD0@Z 10031b90 f   KPlayer.obj
 0001:00030bd0       ?SetAutoFlag@KPlayer@@QAEXH@Z 10031bd0 f   KPlayer.obj
 0001:00030be0       ?SetStoreBoxNum@KPlayer@@QAEXE@Z 10031be0 f   KPlayer.obj
 0001:00030c00       ?SetExpandBoxNum@KPlayer@@QAEXE@Z 10031c00 f   KPlayer.obj
 0001:00030c20       ?FindSame@KEquipmentArray@@QAEHH@Z 10031c20 f   KPlayerAI.obj
 0001:00030c40       ?Init@KPlayerAI@@QAEXXZ    10031c40 f   KPlayerAI.obj
 0001:00030c50       ?Release@KPlayerAI@@QAEXXZ 10031c50 f   KPlayerAI.obj
 0001:00030f70       ?ResetAuto@KPlayerAI@@QAEXXZ 10031f70 f   KPlayerAI.obj
 0001:00031020       ?SendAroundAuto@KPlayerAI@@QAEXH@Z 10032020 f   KPlayerAI.obj
 0001:00031110       ?Active@KPlayerAI@@QAEXXZ  10032110 f   KPlayerAI.obj
 0001:00031970       ?FindNearNpc2Array@KPlayerAI@@QAEHH@Z 10032970 f   KPlayerAI.obj
 0001:00031a60       ?AutoAddNpc2Array@KPlayerAI@@QAEHH@Z 10032a60 f   KPlayerAI.obj
 0001:000323d0       ?PlayerFollowActack@KPlayerAI@@QAEXH@Z 100333d0 f   KPlayerAI.obj
 0001:00032ca0       ?AutoReturn@KPlayerAI@@QAEHXZ 10033ca0 f   KPlayerAI.obj
 0001:00032df0       ?PlayerMoveMps@KPlayerAI@@QAEHXZ 10033df0 f   KPlayerAI.obj
 0001:00033000       ?MoveTo@KPlayerAI@@QAEXHH@Z 10034000 f   KPlayerAI.obj
 0001:00033140       ?IsNotValidNpc@KPlayerAI@@QAEHH@Z 10034140 f   KPlayerAI.obj
 0001:000332d0       ?DefensePlayer@KPlayerAI@@QAEHH@Z 100342d0 f   KPlayerAI.obj
 0001:000333f0       ?CheckPlayerRider@KPlayerAI@@QAEXXZ 100343f0 f   KPlayerAI.obj
 0001:00033490       ?AutoBuffSkillState@KPlayerAI@@QAEHXZ 10034490 f   KPlayerAI.obj
 0001:00033640       ?AutoBuffEmi@KPlayerAI@@QAEHXZ 10034640 f   KPlayerAI.obj
 0001:00033a00       ?PlayerSwitchAura@KPlayerAI@@QAEXXZ 10034a00 f   KPlayerAI.obj
 0001:00033a80       ?PlayerBuffWhenManaSmall@KPlayerAI@@QAEXXZ 10034a80 f   KPlayerAI.obj
 0001:00033b40       ?PlayerActiveFightHand@KPlayerAI@@QAEXXZ 10034b40 f   KPlayerAI.obj
 0001:00033c10       ?InviteParty@KPlayerAI@@QAEXXZ 10034c10 f   KPlayerAI.obj
 0001:00033d30       ?CheckPTList@KPlayerAI@@QAEHPBD@Z 10034d30 f   KPlayerAI.obj
 0001:00033da0       ?IsRAPEquip@KPlayerAI@@QAEHH@Z 10034da0 f   KPlayerAI.obj
 0001:00033dc0       ?IsEquipSatisfyCondition@KPlayerAI@@QAEHH@Z 10034dc0 f   KPlayerAI.obj
 0001:00033e30       ?PlayerFilterEquip@KPlayerAI@@QAEXXZ 10034e30 f   KPlayerAI.obj
 0001:00034180       ?FindObjectNearPlayer@KPlayerAI@@QAEHXZ 10035180 f   KPlayerAI.obj
 0001:000346a0       ?FindNearObject2Array@KPlayerAI@@QAEHXZ 100356a0 f   KPlayerAI.obj
 0001:000348b0       ?IsNotValidObject@KPlayerAI@@QAEHH@Z 100358b0 f   KPlayerAI.obj
 0001:000349b0       ?PlayerFollowObject@KPlayerAI@@QAEHH@Z 100359b0 f   KPlayerAI.obj
 0001:00034b90       ?PlayerEatAItem@KPlayerAI@@QAEHXZ 10035b90 f   KPlayerAI.obj
 0001:00035110       ?PlayerUseItem@KPlayerAI@@QAEHH@Z 10036110 f   KPlayerAI.obj
 0001:00035570       ?EatFullBox@KPlayerAI@@QAEXXZ 10036570 f   KPlayerAI.obj
 0001:00035670       ?RepairEquip@KPlayerAI@@QAEHXZ 10036670 f   KPlayerAI.obj
 0001:00035810       ?SaveMoney@KPlayerAI@@QAEHXZ 10036810 f   KPlayerAI.obj
 0001:00035880       ?BackToMap@KPlayerAI@@QAEXXZ 10036880 f   KPlayerAI.obj
 0001:00035ab0       ?BackMapTrain@KPlayerAI@@QAEXXZ 10036ab0 f   KPlayerAI.obj
 0001:00035d40       ?MoveItemToBox@KPlayerAI@@QAEXXZ 10036d40 f   KPlayerAI.obj
 0001:00036190       ?PaintActionAuto@KPlayerAI@@QAEXHHHH@Z 10037190 f   KPlayerAI.obj
 0001:000361d0       ?Release@KPlayerChat@@QAEXXZ 100371d0 f   KPlayerChat.obj
 0001:000362a0       ?CheckExist@KPlayerChat@@QAEHK@Z 100372a0 f   KPlayerChat.obj
 0001:00036300       ?CheckExist@KPlayerChat@@QAEHPAD@Z 10037300 f   KPlayerChat.obj
 0001:000363a0       ?GetFriendNode@KPlayerChat@@QAEPAVCChatFriend@@K@Z 100373a0 f   KPlayerChat.obj
 0001:000363f0       ?GetTeamNo@KPlayerChat@@QAEHK@Z 100373f0 f   KPlayerChat.obj
 0001:00036450       ?GetName@KPlayerChat@@QAEHKPAD@Z 10037450 f   KPlayerChat.obj
 0001:000364c0       ?SetCurChannel@KPlayerChat@@QAEXHKH@Z 100374c0 f   KPlayerChat.obj
 0001:00036540       ?AddChannel@KPlayerChat@@QAEXH@Z 10037540 f   KPlayerChat.obj
 0001:000365c0       ?SubChannel@KPlayerChat@@QAEXH@Z 100375c0 f   KPlayerChat.obj
 0001:00036630       ?SendTakeChannel@KPlayerChat@@QAEXXZ 10037630 f   KPlayerChat.obj
 0001:00036680       ?SendSentence@KPlayerChat@@QAEXPAUKUiMsgParam@@PAD@Z 10037680 f   KPlayerChat.obj
 0001:00036840       ?QQSendSentence@KPlayerChat@@QAEXKHPAUKUiMsgParam@@PAD@Z 10037840 f   KPlayerChat.obj
 0001:000369b0       ?SetTakeChannel@KPlayerChat@@QAEXK@Z 100379b0 f   KPlayerChat.obj
 0001:000369e0       ?GetChat@KPlayerChat@@QAEXPAUPLAYER_SEND_CHAT_DATA_SYNC@@@Z 100379e0 f   KPlayerChat.obj
 0001:00036f20       ?ApplyAddFriend@KPlayerChat@@QAEXKPAD@Z 10037f20 f   KPlayerChat.obj
 0001:00037080       ?GetApplyOneInfo@KPlayerChat@@QAEHPAHPAD1@Z 10038080 f   KPlayerChat.obj
 0001:00037130       ?SaveTeamInfo@KPlayerChat@@QAEXPAD@Z 10038130 f   KPlayerChat.obj
 0001:00037300       ?SaveTakeChannelInfo@KPlayerChat@@QAEXPAD@Z 10038300 f   KPlayerChat.obj
 0001:00037400       ?LoadTakeChannelInfo@KPlayerChat@@QAEXPAD@Z 10038400 f   KPlayerChat.obj
 0001:00037560       ?CheckTeamNo@KPlayerChat@@QAEHPAD0@Z 10038560 f   KPlayerChat.obj
 0001:00037850       ?LoadTeamName@KPlayerChat@@QAEXPAD@Z 10038850 f   KPlayerChat.obj
 0001:00037a20       ?AddOne@KPlayerChat@@QAEXKHPADH@Z 10038a20 f   KPlayerChat.obj
 0001:00037b00       ??_GCChatFriend@@UAEPAXI@Z 10038b00 f i KPlayerChat.obj
 0001:00037b00       ??_ECChatFriend@@UAEPAXI@Z 10038b00 f i KPlayerChat.obj
 0001:00037b20       ??1CChatFriend@@UAE@XZ     10038b20 f i KPlayerChat.obj
 0001:00037b30       ?CheckIsFriend@KPlayerChat@@QAEHH@Z 10038b30 f   KPlayerChat.obj
 0001:00037b90       ?AddTeam@KPlayerChat@@QAEHPAD0@Z 10038b90 f   KPlayerChat.obj
 0001:00037d40       ?RenameTeam@KPlayerChat@@QAEHHPAD0@Z 10038d40 f   KPlayerChat.obj
 0001:00037ec0       ?DeleteTeam@KPlayerChat@@QAEHHPAD@Z 10038ec0 f   KPlayerChat.obj
 0001:00038020       ?OneFriendChangeTeam@KPlayerChat@@QAEHKHH@Z 10039020 f   KPlayerChat.obj
 0001:00038120       ?GetMsgOffLine@KPlayerChat@@QAEXK@Z 10039120 f   KPlayerChat.obj
 0001:00038210       ?CheckTakeChannel@KPlayerChat@@QAEHH@Z 10039210 f   KPlayerChat.obj
 0001:00038240       ?ApplyDeleteFriend@KPlayerChat@@QAEXKHPAD@Z 10039240 f   KPlayerChat.obj
 0001:00038360       ?CheckTalkChannel@KPlayerChat@@QAEHH@Z 10039360 f   KPlayerChat.obj
 0001:00038390       ?SendSelectChannelList@KPlayerChat@@QAEHPAUKUiChatChannel@@H@Z 10039390 f   KPlayerChat.obj
 0001:00038560       ?SendTakeChannelList@KPlayerChat@@QAEHPAUKUiChatChannel@@H@Z 10039560 f   KPlayerChat.obj
 0001:000386e0       ?GetCurChannel@KPlayerChat@@QAEHPAUKUiChatChannel@@@Z 100396e0 f   KPlayerChat.obj
 0001:000387f0       ?IGetTeamInfo@KPlayerChat@@QAEHHPAUKUiChatGroupInfo@@@Z 100397f0 f   KPlayerChat.obj
 0001:00038870       ?IGetTeamFriendInfo@KPlayerChat@@QAEHHPAUKUiPlayerItem@@@Z 10039870 f   KPlayerChat.obj
 0001:00038940       ??0CChatFriendTeam@@QAE@XZ 10039940 f   KPlayerChat.obj
 0001:00038990       ?Release@CChatFriendTeam@@QAEXXZ 10039990 f   KPlayerChat.obj
 0001:00038a00       ?SetTime@KCHAT_RECORDER@@AAEXXZ 10039a00 f   KPlayerChat.obj
 0001:00038a80       ?SaveSentenceSingle@KCHAT_RECORDER@@QAEXPAD000@Z 10039a80 f   KPlayerChat.obj
 0001:00038a90       ?SaveSentenceChannel@KCHAT_RECORDER@@QAEXPAD00@Z 10039a90 f   KPlayerChat.obj
 0001:00038aa0       ??0KPlayerFaction@@QAE@XZ  10039aa0 f   KPlayerFaction.obj
 0001:00038ab0       ?Release@KPlayerFaction@@QAEXXZ 10039ab0 f   KPlayerFaction.obj
 0001:00038ad0       ?SetSeries@KPlayerFaction@@QAEXH@Z 10039ad0 f   KPlayerFaction.obj
 0001:00038ae0       ?AddFaction@KPlayerFaction@@QAEHHPAD@Z 10039ae0 f   KPlayerFaction.obj
 0001:00038b20       ?AddFaction@KPlayerFaction@@QAEHHH@Z 10039b20 f   KPlayerFaction.obj
 0001:00038b80       ?LeaveFaction@KPlayerFaction@@QAEXXZ 10039b80 f   KPlayerFaction.obj
 0001:00038b90       ?OpenCurSkillLevel@KPlayerFaction@@QAEHHPAVKSkillList@@@Z 10039b90 f   KPlayerFaction.obj
 0001:00038ba0       ?GetGurFactionCamp@KPlayerFaction@@QAEHXZ 10039ba0 f   KPlayerFaction.obj
 0001:00038be0       ?GetCurFactionNo@KPlayerFaction@@QAEHXZ 10039be0 f   KPlayerFaction.obj
 0001:00038bf0       ?GetCurFactionName@KPlayerFaction@@QAEXPAD@Z 10039bf0 f   KPlayerFaction.obj
 0001:00038c50       ??0KPlayerMenuState@@QAE@XZ 10039c50 f   KPlayerMenuState.obj
 0001:00038c60       ?Release@KPlayerMenuState@@QAEXXZ 10039c60 f   KPlayerMenuState.obj
 0001:00038c90       ?SetState@KPlayerMenuState@@QAEXH@Z 10039c90 f   KPlayerMenuState.obj
 0001:00038cb0       ?Init@KPlayerMenuStateGraph@@QAEHXZ 10039cb0 f   KPlayerMenuState.obj
 0001:00038d70       ?GetStateSpr@KPlayerMenuStateGraph@@QAEXHPAD@Z 10039d70 f   KPlayerMenuState.obj
 0001:00038db0       ?Init@KPlayerPK@@QAEXXZ    10039db0 f   KPlayerPK.obj
 0001:00038dd0       ?Active@KPlayerPK@@QAEXXZ  10039dd0 f   KPlayerPK.obj
 0001:00038de0       ?SetNormalPKState@KPlayerPK@@QAEXEH@Z 10039de0 f   KPlayerPK.obj
 0001:00038ea0       ?ApplySetNormalPKState@KPlayerPK@@QAEXE@Z 10039ea0 f   KPlayerPK.obj
 0001:00038ef0       ?GetNormalPKState@KPlayerPK@@QAEEXZ 10039ef0 f   KPlayerPK.obj
 0001:00038f00       ?ApplyEnmityPK@KPlayerPK@@QAEXPAD@Z 10039f00 f   KPlayerPK.obj
 0001:00038f50       ?ApplyEnmityPK@KPlayerPK@@QAEXH@Z 10039f50 f   KPlayerPK.obj
 0001:00039160       ?SetEnmityPKState@KPlayerPK@@QAEXHHPAD@Z 1003a160 f   KPlayerPK.obj
 0001:00039310       ?EnmityPKCountDown@KPlayerPK@@QAEXXZ 1003a310 f   KPlayerPK.obj
 0001:00039330       ?SetExercisePKState@KPlayerPK@@QAEXHHPAD@Z 1003a330 f   KPlayerPK.obj
 0001:000393a0       ?SetPKValue@KPlayerPK@@QAEXD@Z 1003a3a0 f   KPlayerPK.obj
 0001:00039420       ?ChangePKState@KPlayerPK@@QAEXE@Z 1003a420 f   KPlayerPK.obj
 0001:00039720       ??0KPlayerSet@@QAE@XZ      1003a720 f   KPlayerSet.obj
 0001:00039790       ??1KPlayerSet@@QAE@XZ      1003a790 f   KPlayerSet.obj
 0001:000397e0       ?Init@KPlayerSet@@QAEHXZ   1003a7e0 f   KPlayerSet.obj
 0001:00039a20       ?FindFree@KPlayerSet@@AAEHXZ 1003aa20 f   KPlayerSet.obj
 0001:00039a30       ?FindSame@KPlayerSet@@QAEHK@Z 1003aa30 f   KPlayerSet.obj
 0001:00039a80       ?GetFirstPlayer@KPlayerSet@@QAEHXZ 1003aa80 f   KPlayerSet.obj
 0001:00039aa0       ?GetNextPlayer@KPlayerSet@@QAEHXZ 1003aaa0 f   KPlayerSet.obj
 0001:00039ac0       ??0KLevelAdd@@QAE@XZ       1003aac0 f   KPlayerSet.obj
 0001:00039b80       ?Init@KLevelAdd@@QAEHXZ    1003ab80 f   KPlayerSet.obj
 0001:00039d90       ?GetLevelExp@KLevelAdd@@QAEHE@Z 1003ad90 f   KPlayerSet.obj
 0001:00039db0       ?GetLifePerLevel@KLevelAdd@@QAEHH@Z 1003adb0 f   KPlayerSet.obj
 0001:00039dd0       ?GetStaminaPerLevel@KLevelAdd@@QAEHHH@Z 1003add0 f   KPlayerSet.obj
 0001:00039e00       ?GetManaPerLevel@KLevelAdd@@QAEHH@Z 1003ae00 f   KPlayerSet.obj
 0001:00039e20       ?GetLifePerVitality@KLevelAdd@@QAEHH@Z 1003ae20 f   KPlayerSet.obj
 0001:00039e40       ?GetStaminaPerVitality@KLevelAdd@@QAEHH@Z 1003ae40 f   KPlayerSet.obj
 0001:00039e60       ?GetManaPerEnergy@KLevelAdd@@QAEHH@Z 1003ae60 f   KPlayerSet.obj
 0001:00039e80       ?GetLeadExpShare@KLevelAdd@@QAEHH@Z 1003ae80 f   KPlayerSet.obj
 0001:00039ea0       ?GetFireResist@KLevelAdd@@QAEHHH@Z 1003aea0 f   KPlayerSet.obj
 0001:00039ef0       ?GetColdResist@KLevelAdd@@QAEHHH@Z 1003aef0 f   KPlayerSet.obj
 0001:00039f40       ?GetPoisonResist@KLevelAdd@@QAEHHH@Z 1003af40 f   KPlayerSet.obj
 0001:00039f90       ?GetLightResist@KLevelAdd@@QAEHHH@Z 1003af90 f   KPlayerSet.obj
 0001:00039fe0       ?GetPhysicsResist@KLevelAdd@@QAEHHH@Z 1003afe0 f   KPlayerSet.obj
 0001:0003a030       ??0KTeamLeadExp@@QAE@XZ    1003b030 f   KPlayerSet.obj
 0001:0003a050       ?Init@KTeamLeadExp@@QAEHXZ 1003b050 f   KPlayerSet.obj
 0001:0003a120       ?GetLevel@KTeamLeadExp@@QAEHKH@Z 1003b120 f   KPlayerSet.obj
 0001:0003a170       ?GetMemNumFromExp@KTeamLeadExp@@QAEHK@Z 1003b170 f   KPlayerSet.obj
 0001:0003a190       ?GetMemNumFromLevel@KTeamLeadExp@@QAEHH@Z 1003b190 f   KPlayerSet.obj
 0001:0003a1b0       ?GetLevelExp@KTeamLeadExp@@QAEHH@Z 1003b1b0 f   KPlayerSet.obj
 0001:0003a1d0       ??0KNewPlayerAttribute@@QAE@XZ 1003b1d0 f   KPlayerSet.obj
 0001:0003a230       ?Init@KNewPlayerAttribute@@QAEHXZ 1003b230 f   KPlayerSet.obj
 0001:0003a400       ??0KShop@@QAE@XZ           1003b400 f   KPlayerShop.obj
 0001:0003a410       ?Release@KShop@@QAEXXZ     1003b410 f   KPlayerShop.obj
 0001:0003a460       ?ApplyViewShop@KShop@@QAEXKH@Z 1003b460 f   KPlayerShop.obj
 0001:0003a4c0       ?DeleteAll@KShop@@QAEXXZ   1003b4c0 f   KPlayerShop.obj
 0001:0003a540       ?GetData@KShop@@QAEXPAE@Z  1003b540 f   KPlayerShop.obj
 0001:0003a770       ?FindID@KShop@@QAEKH@Z     1003b770 f   KPlayerShop.obj
 0001:0003a7e0       ?UpdateData@KShop@@QAEXXZ  1003b7e0 f   KPlayerShop.obj
 0001:0003a7f0       ??0KPlayerTask@@QAE@XZ     1003b7f0 f   KPlayerTask.obj
 0001:0003a800       ?Release@KPlayerTask@@QAEXXZ 1003b800 f   KPlayerTask.obj
 0001:0003a820       ?ClearTempVar@KPlayerTask@@QAEXXZ 1003b820 f   KPlayerTask.obj
 0001:0003a840       ?GetSaveVal@KPlayerTask@@QAEHH@Z 1003b840 f   KPlayerTask.obj
 0001:0003a860       ?SetSaveVal@KPlayerTask@@QAEXHH@Z 1003b860 f   KPlayerTask.obj
 0001:0003a880       ?GetClearVal@KPlayerTask@@QAEHH@Z 1003b880 f   KPlayerTask.obj
 0001:0003a8a0       ?SetClearVal@KPlayerTask@@QAEXHH@Z 1003b8a0 f   KPlayerTask.obj
 0001:0003a8f0       ??0KPlayerTeam@@QAE@XZ     1003b8f0 f   KPlayerTeam.obj
 0001:0003a920       ?Release@KPlayerTeam@@QAEXXZ 1003b920 f   KPlayerTeam.obj
 0001:0003a940       ?ReleaseList@KPlayerTeam@@QAEXXZ 1003b940 f   KPlayerTeam.obj
 0001:0003a960       ?ApplyCreate@KPlayerTeam@@QAEHXZ 1003b960 f   KPlayerTeam.obj
 0001:0003a9c0       ?InviteAdd@KPlayerTeam@@QAEXK@Z 1003b9c0 f   KPlayerTeam.obj
 0001:0003aa10       ?ReceiveInvite@KPlayerTeam@@QAEXPAUTEAM_INVITE_ADD_SYNC@@@Z 1003ba10 f   KPlayerTeam.obj
 0001:0003ab70       ?ReplyInvite@KPlayerTeam@@QAEXHH@Z 1003bb70 f   KPlayerTeam.obj
 0001:0003abe0       ?SetAutoRefuseInvite@KPlayerTeam@@QAEXH@Z 1003bbe0 f   KPlayerTeam.obj
 0001:0003ac60       ?GetAutoRefuseState@KPlayerTeam@@QAEHXZ 1003bc60 f   KPlayerTeam.obj
 0001:0003ac70       ?GetInfo@KPlayerTeam@@QAEHPAUKUiPlayerTeam@@@Z 1003bc70 f   KPlayerTeam.obj
 0001:0003ad00       ?UpdateInterface@KPlayerTeam@@QAEXXZ 1003bd00 f   KPlayerTeam.obj
 0001:0003ad40       ?DeleteOneFromApplyList@KPlayerTeam@@QAEXK@Z 1003bd40 f   KPlayerTeam.obj
 0001:0003ad90       ??0KTeam@@QAE@XZ           1003bd90 f   KPlayerTeam.obj
 0001:0003ada0       ?Release@KTeam@@QAEXXZ     1003bda0 f   KPlayerTeam.obj
 0001:0003ae00       ?SetIndex@KTeam@@QAEXH@Z   1003be00 f   KPlayerTeam.obj
 0001:0003ae10       ?FindFree@KTeam@@QAEHXZ    1003be10 f   KPlayerTeam.obj
 0001:0003ae30       ?FindMemberID@KTeam@@QAEHK@Z 1003be30 f   KPlayerTeam.obj
 0001:0003ae60       ?SetTeamOpen@KTeam@@QAEHXZ 1003be60 f   KPlayerTeam.obj
 0001:0003ae80       ?SetTeamClose@KTeam@@QAEHXZ 1003be80 f   KPlayerTeam.obj
 0001:0003aea0       ?CalcCaptainPower@KTeam@@QAEHXZ 1003bea0 f   KPlayerTeam.obj
 0001:0003aec0       ?CreateTeam@KTeam@@QAEXHPADHKHHHH@Z 1003bec0 f   KPlayerTeam.obj
 0001:0003af40       ?AddMember@KTeam@@QAEHKHPADHHHH@Z 1003bf40 f   KPlayerTeam.obj
 0001:0003aff0       ?DeleteMember@KTeam@@QAEXK@Z 1003bff0 f   KPlayerTeam.obj
 0001:0003b050       ?GetMemberInfo@KTeam@@QAEHPAUKUiPlayerItem@@H@Z 1003c050 f   KPlayerTeam.obj
 0001:0003b1a0       ?CheckIn@KTeam@@QAEHH@Z    1003c1a0 f   KPlayerTeam.obj
 0001:0003b1e0       ?Init@KPlayerTong@@QAEXH@Z 1003c1e0 f   KPlayerTong.obj
 0001:0003b1f0       ?Clear@KPlayerTong@@QAEXXZ 1003c1f0 f   KPlayerTong.obj
 0001:0003b210       ?SendSystemMsg@KPlayerTong@@QAEXPBD@Z 1003c210 f   KPlayerTong.obj
 0001:0003b240       ?ApplyCreateTong@KPlayerTong@@QAEHHPBD@Z 1003c240 f   KPlayerTong.obj
 0001:0003b520       ?ApplyAddTong@KPlayerTong@@QAEHK@Z 1003c520 f   KPlayerTong.obj
 0001:0003b600       ?Create@KPlayerTong@@QAEXPAUTONG_CREATE_SYNC@@@Z 1003c600 f   KPlayerTong.obj
 0001:0003b6f0       ?AcceptMember@KPlayerTong@@QAEXHKH@Z 1003c6f0 f   KPlayerTong.obj
 0001:0003b750       ?GetTongName@KPlayerTong@@QAEXPAD@Z 1003c750 f   KPlayerTong.obj
 0001:0003b790       ?GetTongTitle@KPlayerTong@@QAEXPAD@Z 1003c790 f   KPlayerTong.obj
 0001:0003b7d0       ?AddTong@KPlayerTong@@QAEHHPAD00@Z 1003c7d0 f   KPlayerTong.obj
 0001:0003b900       ?ApplyInstate@KPlayerTong@@QAEHHHHHPAD@Z 1003c900 f   KPlayerTong.obj
 0001:0003ba90       ?ApplyKick@KPlayerTong@@QAEHHHPAD@Z 1003ca90 f   KPlayerTong.obj
 0001:0003bb70       ?ApplyChangeMaster@KPlayerTong@@QAEHHHPAD@Z 1003cb70 f   KPlayerTong.obj
 0001:0003bc50       ?ApplyLeave@KPlayerTong@@QAEHXZ 1003cc50 f   KPlayerTong.obj
 0001:0003bd50       ?ApplyInfo@KPlayerTong@@QAEHHHHHPAD@Z 1003cd50 f   KPlayerTong.obj
 0001:0003bfd0       ?GetTongNameID@KPlayerTong@@QAEKXZ 1003cfd0 f   KPlayerTong.obj
 0001:0003bfe0       ?CanGetManagerInfo@KPlayerTong@@QAEHK@Z 1003cfe0 f   KPlayerTong.obj
 0001:0003c030       ?CanGetMemberInfo@KPlayerTong@@QAEHK@Z 1003d030 f   KPlayerTong.obj
 0001:0003c080       ?SetSelfInfo@KPlayerTong@@QAEXPAUTONG_SELF_INFO_SYNC@@@Z 1003d080 f   KPlayerTong.obj
 0001:0003c210       ?OpenCreateInterface@KPlayerTong@@QAEXXZ 1003d210 f   KPlayerTong.obj
 0001:0003c220       ?ApplyChangeCamp@KPlayerTong@@QAEHH@Z 1003d220 f   KPlayerTong.obj
 0001:0003c2a0       ?ApplyChangeMemberTitle@KPlayerTong@@QAEHPBDH@Z 1003d2a0 f   KPlayerTong.obj
 0001:0003c370       ?ApplyChangeOneTitle@KPlayerTong@@QAEHPBDE0@Z 1003d370 f   KPlayerTong.obj
 0001:0003c4a0       ?ApplySaveMoney@KPlayerTong@@QAEHH@Z 1003d4a0 f   KPlayerTong.obj
 0001:0003c5b0       ?ApplyGetMoney@KPlayerTong@@QAEHH@Z 1003d5b0 f   KPlayerTong.obj
 0001:0003c6b0       ??0KTrade@@QAE@XZ          1003d6b0 f   KPlayerTrade.obj
 0001:0003c6c0       ?Release@KTrade@@QAEXXZ    1003d6c0 f   KPlayerTrade.obj
 0001:0003c6f0       ?StartTrade@KTrade@@QAEHHHH@Z 1003d6f0 f   KPlayerTrade.obj
 0001:0003c7a0       ?Lock@KTrade@@QAEXH@Z      1003d7a0 f   KPlayerTrade.obj
 0001:0003c7c0       ?SetTradeState@KTrade@@QAEXHHHH@Z 1003d7c0 f   KPlayerTrade.obj
 0001:0003c930       ?ReplyInvite@KTrade@@SAXIH@Z 1003d930 f   KPlayerTrade.obj
 0001:0003c9f0       ??0KSprControl@@QAE@XZ     1003d9f0 f   KSprControl.obj
 0001:0003ca00       ?Release@KSprControl@@QAEXXZ 1003da00 f   KSprControl.obj
 0001:0003ca30       ?SetSprFile@KSprControl@@QAEXPADHHH@Z 1003da30 f   KSprControl.obj
 0001:0003cb00       ?SetCurFrame@KSprControl@@QAEXH@Z 1003db00 f   KSprControl.obj
 0001:0003cb50       ?SetDirFrame@KSprControl@@QAEXHH@Z 1003db50 f   KSprControl.obj
 0001:0003cbb0       ?Set64DirFrame@KSprControl@@QAEXHH@Z 1003dbb0 f   KSprControl.obj
 0001:0003cc30       ?SetCurDir@KSprControl@@QAEHH@Z 1003dc30 f   KSprControl.obj
 0001:0003cc70       ?SetCurDir64@KSprControl@@QAEHH@Z 1003dc70 f   KSprControl.obj
 0001:0003cce0       ?SetCenterPos@KSprControl@@QAEXHH@Z 1003dce0 f   KSprControl.obj
 0001:0003cd00       ?GetOneDirFrames@KSprControl@@QAEHXZ 1003dd00 f   KSprControl.obj
 0001:0003cd10       ?SetPos@KSprControl@@QAEXHH@Z 1003dd10 f   KSprControl.obj
 0001:0003cd30       ?CheckEnd@KSprControl@@QAEHXZ 1003dd30 f   KSprControl.obj
 0001:0003cd50       ?SetDirStart@KSprControl@@QAEXXZ 1003dd50 f   KSprControl.obj
 0001:0003cd70       ?SetDirEnd@KSprControl@@QAEXXZ 1003dd70 f   KSprControl.obj
 0001:0003cd90       ?GetCurDirFrameNo@KSprControl@@QAEHXZ 1003dd90 f   KSprControl.obj
 0001:0003cdb0       ?GetNextFrame@KSprControl@@QAEHH@Z 1003ddb0 f   KSprControl.obj
 0001:0003ce50       ?GetPrevFrame@KSprControl@@QAEHH@Z 1003de50 f   KSprControl.obj
 0001:0003cec0       ?SetFileName@KSprControl@@QAEXPAD@Z 1003dec0 f   KSprControl.obj
 0001:0003cf10       ?SetTotalFrame@KSprControl@@QAEXH@Z 1003df10 f   KSprControl.obj
 0001:0003cf20       ?SetTotalDir@KSprControl@@QAEXH@Z 1003df20 f   KSprControl.obj
 0001:0003cf30       ?SetInterVal@KSprControl@@QAEXK@Z 1003df30 f   KSprControl.obj
 0001:0003cf40       ?LoadRecord@@YAHPAVKTabFile@@HPBUtagPROPINFO@@H@Z 1003df40 f   KBasPropTbl.obj
 0001:0003cfc0       ??0KLibOfBPT@@QAE@XZ       1003dfc0 f   KBasPropTbl.obj
 0001:0003d170       ??1KLibOfBPT@@QAE@XZ       1003e170 f   KBasPropTbl.obj
 0001:0003d320       ?Init@KLibOfBPT@@QAEHXZ    1003e320 f   KBasPropTbl.obj
 0001:0003d440       ?InitMAIT@KLibOfBPT@@IAEHXZ 1003e440 f   KBasPropTbl.obj
 0001:0003d570       ?InitMALib@KLibOfBPT@@IAEHXZ 1003e570 f   KBasPropTbl.obj
 0001:0003d650       ?GetCMAT@KLibOfBPT@@QBEPBVKBPT_ClassifiedMAT@@HH@Z 1003e650 f   KBasPropTbl.obj
 0001:0003d690       ?GetCMIT@KLibOfBPT@@QBEPBVKBPT_ClassMAIT@@HHHH@Z 1003e690 f   KBasPropTbl.obj
 0001:0003d700       ?FindMARecord@KLibOfBPT@@QBEPBUKMAGICATTRIB_TABFILE@@HHPAH@Z 1003e700 f   KBasPropTbl.obj
 0001:0003d720       ?GetMARecord@KLibOfBPT@@QBEPBUKMAGICATTRIB_TABFILE@@H@Z 1003e720 f   KBasPropTbl.obj
 0001:0003d740       ?GetMARecordNumber@KLibOfBPT@@QBE?BHXZ 1003e740 f   KBasPropTbl.obj
 0001:0003d750       ?GetMeleeWeaponRecord@KLibOfBPT@@QBEPBUKBASICPROP_EQUIPMENT@@H@Z 1003e750 f   KBasPropTbl.obj
 0001:0003d760       ?GetMeleeWeaponRecordNumber@KLibOfBPT@@QBE?BHXZ 1003e760 f   KBasPropTbl.obj
 0001:0003d770       ?GetRangeWeaponRecord@KLibOfBPT@@QBEPBUKBASICPROP_EQUIPMENT@@H@Z 1003e770 f   KBasPropTbl.obj
 0001:0003d790       ?GetRangeWeaponRecordNumber@KLibOfBPT@@QBE?BHXZ 1003e790 f   KBasPropTbl.obj
 0001:0003d7a0       ?GetArmorRecord@KLibOfBPT@@QBEPBUKBASICPROP_EQUIPMENT@@H@Z 1003e7a0 f   KBasPropTbl.obj
 0001:0003d7c0       ?GetArmorRecordNumber@KLibOfBPT@@QBE?BHXZ 1003e7c0 f   KBasPropTbl.obj
 0001:0003d7d0       ?GetHelmRecord@KLibOfBPT@@QBEPBUKBASICPROP_EQUIPMENT@@H@Z 1003e7d0 f   KBasPropTbl.obj
 0001:0003d7f0       ?GetHelmRecordNumber@KLibOfBPT@@QBE?BHXZ 1003e7f0 f   KBasPropTbl.obj
 0001:0003d800       ?GetBootRecord@KLibOfBPT@@QBEPBUKBASICPROP_EQUIPMENT@@H@Z 1003e800 f   KBasPropTbl.obj
 0001:0003d820       ?GetBootRecordNumber@KLibOfBPT@@QBE?BHXZ 1003e820 f   KBasPropTbl.obj
 0001:0003d830       ?GetBeltRecord@KLibOfBPT@@QBEPBUKBASICPROP_EQUIPMENT@@H@Z 1003e830 f   KBasPropTbl.obj
 0001:0003d850       ?GetBeltRecordNumber@KLibOfBPT@@QBE?BHXZ 1003e850 f   KBasPropTbl.obj
 0001:0003d860       ?GetAmuletRecord@KLibOfBPT@@QBEPBUKBASICPROP_EQUIPMENT@@H@Z 1003e860 f   KBasPropTbl.obj
 0001:0003d880       ?GetAmuletRecordNumber@KLibOfBPT@@QBE?BHXZ 1003e880 f   KBasPropTbl.obj
 0001:0003d890       ?GetRingRecord@KLibOfBPT@@QBEPBUKBASICPROP_EQUIPMENT@@H@Z 1003e890 f   KBasPropTbl.obj
 0001:0003d8b0       ?GetRingRecordNumber@KLibOfBPT@@QBE?BHXZ 1003e8b0 f   KBasPropTbl.obj
 0001:0003d8c0       ?GetCuffRecord@KLibOfBPT@@QBEPBUKBASICPROP_EQUIPMENT@@H@Z 1003e8c0 f   KBasPropTbl.obj
 0001:0003d8e0       ?GetCuffRecordNumber@KLibOfBPT@@QBE?BHXZ 1003e8e0 f   KBasPropTbl.obj
 0001:0003d8f0       ?GetPendantRecord@KLibOfBPT@@QBEPBUKBASICPROP_EQUIPMENT@@H@Z 1003e8f0 f   KBasPropTbl.obj
 0001:0003d910       ?GetPendantRecordNumber@KLibOfBPT@@QBE?BHXZ 1003e910 f   KBasPropTbl.obj
 0001:0003d920       ?GetHorseRecord@KLibOfBPT@@QBEPBUKBASICPROP_EQUIPMENT@@H@Z 1003e920 f   KBasPropTbl.obj
 0001:0003d940       ?GetHorseRecordNumber@KLibOfBPT@@QBE?BHXZ 1003e940 f   KBasPropTbl.obj
 0001:0003d950       ?GetMaskRecord@KLibOfBPT@@QBEPBUKBASICPROP_EQUIPMENT@@H@Z 1003e950 f   KBasPropTbl.obj
 0001:0003d970       ?GetMaskRecordNumber@KLibOfBPT@@QBE?BHXZ 1003e970 f   KBasPropTbl.obj
 0001:0003d980       ?GetMantleRecord@KLibOfBPT@@QBEPBUKBASICPROP_EQUIPMENT@@H@Z 1003e980 f   KBasPropTbl.obj
 0001:0003d9a0       ?GetMantleRecordNumber@KLibOfBPT@@QBE?BHXZ 1003e9a0 f   KBasPropTbl.obj
 0001:0003d9b0       ?GetGoldEquipRecord@KLibOfBPT@@QBEPBUKBASICPROP_GOLD_EQUIPMENT@@H@Z 1003e9b0 f   KBasPropTbl.obj
 0001:0003d9d0       ?GetGoldEquipRecordNumber@KLibOfBPT@@QBE?BHXZ 1003e9d0 f   KBasPropTbl.obj
 0001:0003d9e0       ?GetBrokenEquipRecord@KLibOfBPT@@QBEPBUKBASICPROP_BROKEN_EQUIPMENT@@H@Z 1003e9e0 f   KBasPropTbl.obj
 0001:0003da00       ?GetBrokenEquipRecordNumber@KLibOfBPT@@QBE?BHXZ 1003ea00 f   KBasPropTbl.obj
 0001:0003da10       ?GetMedicineRecord@KLibOfBPT@@QBEPBUKBASICPROP_MEDICINE@@H@Z 1003ea10 f   KBasPropTbl.obj
 0001:0003da30       ?GetMedicineRecordNumber@KLibOfBPT@@QBE?BHXZ 1003ea30 f   KBasPropTbl.obj
 0001:0003da40       ?FindQuestRecord@KLibOfBPT@@QBEPBUKBASICPROP_QUEST@@HPAH@Z 1003ea40 f   KBasPropTbl.obj
 0001:0003da60       ?GetQuestRecord@KLibOfBPT@@QBEPBUKBASICPROP_QUEST@@H@Z 1003ea60 f   KBasPropTbl.obj
 0001:0003da80       ?GetQuestRecordNumber@KLibOfBPT@@QBE?BHXZ 1003ea80 f   KBasPropTbl.obj
 0001:0003da90       ?FindScriptRecord@KLibOfBPT@@QBEPBUKBASICPROP_SCRIPT@@HPAH@Z 1003ea90 f   KBasPropTbl.obj
 0001:0003dab0       ?GetScriptRecord@KLibOfBPT@@QBEPBUKBASICPROP_SCRIPT@@H@Z 1003eab0 f   KBasPropTbl.obj
 0001:0003dad0       ?GetScriptRecordNumber@KLibOfBPT@@QBE?BHXZ 1003ead0 f   KBasPropTbl.obj
 0001:0003dae0       ?FindMineRecord@KLibOfBPT@@QBEPBUKBASICPROP_MINE@@HPAH@Z 1003eae0 f   KBasPropTbl.obj
 0001:0003db00       ?GetMineRecord@KLibOfBPT@@QBEPBUKBASICPROP_MINE@@H@Z 1003eb00 f   KBasPropTbl.obj
 0001:0003db20       ?GetMineRecordNumber@KLibOfBPT@@QBE?BHXZ 1003eb20 f   KBasPropTbl.obj
 0001:0003db30       ??0KBasicPropertyTable@@QAE@XZ 1003eb30 f   KBasPropTbl.obj
 0001:0003db50       ??1KBasicPropertyTable@@QAE@XZ 1003eb50 f   KBasPropTbl.obj
 0001:0003db60       ?SetCount@KBasicPropertyTable@@IAEXH@Z 1003eb60 f   KBasPropTbl.obj
 0001:0003db70       ?GetMemory@KBasicPropertyTable@@IAEHXZ 1003eb70 f   KBasPropTbl.obj
 0001:0003dba0       ?ReleaseMemory@KBasicPropertyTable@@IAEXXZ 1003eba0 f   KBasPropTbl.obj
 0001:0003dbd0       ?Load@KBasicPropertyTable@@UAEHXZ 1003ebd0 f   KBasPropTbl.obj
 0001:0003dcc0       ??0KBPT_MagicAttrib_TF@@QAE@XZ 1003ecc0 f   KBasPropTbl.obj
 0001:0003dd20       ??1KBPT_MagicAttrib_TF@@QAE@XZ 1003ed20 f   KBasPropTbl.obj
 0001:0003dd30       ?LoadRecord@KBPT_MagicAttrib_TF@@MAEHHPAVKTabFile@@@Z 1003ed30 f   KBasPropTbl.obj
 0001:0003dfe0       ?GetRecord@KBPT_MagicAttrib_TF@@QBEPBUKMAGICATTRIB_TABFILE@@H@Z 1003efe0 f   KBasPropTbl.obj
 0001:0003e010       ?FindRecord@KBPT_MagicAttrib_TF@@QBEPBUKMAGICATTRIB_TABFILE@@HHPAH@Z 1003f010 f   KBasPropTbl.obj
 0001:0003e070       ?GetMACount@KBPT_MagicAttrib_TF@@QBEXPAH@Z 1003f070 f   KBasPropTbl.obj
 0001:0003e090       ??0KBPT_ClassMAIT@@QAE@XZ  1003f090 f   KBasPropTbl.obj
 0001:0003e0a0       ??1KBPT_ClassMAIT@@QAE@XZ  1003f0a0 f   KBasPropTbl.obj
 0001:0003e0d0       ?Clear@KBPT_ClassMAIT@@QAEHXZ 1003f0d0 f   KBasPropTbl.obj
 0001:0003e0e0       ?Get@KBPT_ClassMAIT@@QBEHH@Z 1003f0e0 f   KBasPropTbl.obj
 0001:0003e0f0       ?Insert@KBPT_ClassMAIT@@QAEHH@Z 1003f0f0 f   KBasPropTbl.obj
 0001:0003e190       ??0KBPT_ClassifiedMAT@@QAE@XZ 1003f190 f   KBasPropTbl.obj
 0001:0003e1a0       ??1KBPT_ClassifiedMAT@@QAE@XZ 1003f1a0 f   KBasPropTbl.obj
 0001:0003e1b0       ?GetMemory@KBPT_ClassifiedMAT@@QAEHH@Z 1003f1b0 f   KBasPropTbl.obj
 0001:0003e1f0       ?ReleaseMemory@KBPT_ClassifiedMAT@@IAEXXZ 1003f1f0 f   KBasPropTbl.obj
 0001:0003e220       ?Set@KBPT_ClassifiedMAT@@QAEHH@Z 1003f220 f   KBasPropTbl.obj
 0001:0003e240       ?Get@KBPT_ClassifiedMAT@@QBEHH@Z 1003f240 f   KBasPropTbl.obj
 0001:0003e260       ?GetAll@KBPT_ClassifiedMAT@@QBEHPAH0@Z 1003f260 f   KBasPropTbl.obj
 0001:0003e2a0       ??0KBPT_Equipment@@QAE@XZ  1003f2a0 f   KBasPropTbl.obj
 0001:0003e2c0       ??1KBPT_Equipment@@QAE@XZ  1003f2c0 f   KBasPropTbl.obj
 0001:0003e2d0       ?Init@KBPT_Equipment@@QAEXH@Z 1003f2d0 f   KBasPropTbl.obj
 0001:0003e310       ?LoadRecord@KBPT_Equipment@@MAEHHPAVKTabFile@@@Z 1003f310 f   KBasPropTbl.obj
 0001:0003e7b0       ?GetRecord@KBPT_Equipment@@QBEPBUKBASICPROP_EQUIPMENT@@H@Z 1003f7b0 f   KBasPropTbl.obj
 0001:0003e7e0       ?FindRecord@KBPT_Equipment@@QBEPBUKBASICPROP_EQUIPMENT@@HHH@Z 1003f7e0 f   KBasPropTbl.obj
 0001:0003e830       ??0KBPT_Gold_Equipment@@QAE@XZ 1003f830 f   KBasPropTbl.obj
 0001:0003e880       ??1KBPT_Gold_Equipment@@QAE@XZ 1003f880 f   KBasPropTbl.obj
 0001:0003e890       ?LoadRecord@KBPT_Gold_Equipment@@MAEHHPAVKTabFile@@@Z 1003f890 f   KBasPropTbl.obj
 0001:0003ee30       ?GetRecord@KBPT_Gold_Equipment@@QBEPBUKBASICPROP_GOLD_EQUIPMENT@@H@Z 1003fe30 f   KBasPropTbl.obj
 0001:0003ee60       ?FindRecord@KBPT_Gold_Equipment@@QBEPBUKBASICPROP_GOLD_EQUIPMENT@@HHH@Z 1003fe60 f   KBasPropTbl.obj
 0001:0003eeb0       ??0KBPT_Broken_Equipment@@QAE@XZ 1003feb0 f   KBasPropTbl.obj
 0001:0003ef00       ??1KBPT_Broken_Equipment@@QAE@XZ 1003ff00 f   KBasPropTbl.obj
 0001:0003ef10       ?LoadRecord@KBPT_Broken_Equipment@@MAEHHPAVKTabFile@@@Z 1003ff10 f   KBasPropTbl.obj
 0001:0003efc0       ?GetRecord@KBPT_Broken_Equipment@@QBEPBUKBASICPROP_BROKEN_EQUIPMENT@@H@Z 1003ffc0 f   KBasPropTbl.obj
 0001:0003eff0       ??0KBPT_Medicine@@QAE@XZ   1003fff0 f   KBasPropTbl.obj
 0001:0003f040       ??1KBPT_Medicine@@QAE@XZ   10040040 f   KBasPropTbl.obj
 0001:0003f050       ?LoadRecord@KBPT_Medicine@@MAEHHPAVKTabFile@@@Z 10040050 f   KBasPropTbl.obj
 0001:0003f260       ?GetRecord@KBPT_Medicine@@QBEPBUKBASICPROP_MEDICINE@@H@Z 10040260 f   KBasPropTbl.obj
 0001:0003f290       ?FindRecord@KBPT_Medicine@@QBEPBUKBASICPROP_MEDICINE@@HH@Z 10040290 f   KBasPropTbl.obj
 0001:0003f2d0       ??0KBPT_Quest@@QAE@XZ      100402d0 f   KBasPropTbl.obj
 0001:0003f320       ??1KBPT_Quest@@QAE@XZ      10040320 f   KBasPropTbl.obj
 0001:0003f330       ?LoadRecord@KBPT_Quest@@MAEHHPAVKTabFile@@@Z 10040330 f   KBasPropTbl.obj
 0001:0003f430       ?GetRecord@KBPT_Quest@@QBEPBUKBASICPROP_QUEST@@H@Z 10040430 f   KBasPropTbl.obj
 0001:0003f460       ?FindRecord@KBPT_Quest@@QBEPBUKBASICPROP_QUEST@@HPAH@Z 10040460 f   KBasPropTbl.obj
 0001:0003f4a0       ??0KBPT_Script@@QAE@XZ     100404a0 f   KBasPropTbl.obj
 0001:0003f4f0       ??1KBPT_Script@@QAE@XZ     100404f0 f   KBasPropTbl.obj
 0001:0003f500       ?LoadRecord@KBPT_Script@@MAEHHPAVKTabFile@@@Z 10040500 f   KBasPropTbl.obj
 0001:0003f650       ?GetRecord@KBPT_Script@@QBEPBUKBASICPROP_SCRIPT@@H@Z 10040650 f   KBasPropTbl.obj
 0001:0003f680       ?FindRecord@KBPT_Script@@QBEPBUKBASICPROP_SCRIPT@@HPAH@Z 10040680 f   KBasPropTbl.obj
 0001:0003f6c0       ??0KBPT_Mine@@QAE@XZ       100406c0 f   KBasPropTbl.obj
 0001:0003f710       ??1KBPT_Mine@@QAE@XZ       10040710 f   KBasPropTbl.obj
 0001:0003f720       ?LoadRecord@KBPT_Mine@@MAEHHPAVKTabFile@@@Z 10040720 f   KBasPropTbl.obj
 0001:0003f820       ?GetRecord@KBPT_Mine@@QBEPBUKBASICPROP_MINE@@H@Z 10040820 f   KBasPropTbl.obj
 0001:0003f850       ?FindRecord@KBPT_Mine@@QBEPBUKBASICPROP_MINE@@HPAH@Z 10040850 f   KBasPropTbl.obj
 0001:0003f8d0       ??0KBuySell@@QAE@XZ        100408d0 f   KBuySell.obj
 0001:0003f8f0       ??1KBuySell@@QAE@XZ        100408f0 f   KBuySell.obj
 0001:0003f9e0       ??_EKItem@@QAEPAXI@Z       100409e0 f i KBuySell.obj
 0001:0003fa40       ?Init@KBuySell@@QAEHXZ     10040a40 f   KBuySell.obj
 0001:0003fff0       ?GetItem@KBuySell@@QAEPAVKItem@@H@Z 10040ff0 f   KBuySell.obj
 0001:00040020       ?GetItemIndex@KBuySell@@QAEHHH@Z 10041020 f   KBuySell.obj
 0001:00040060       ?PaintItem@KBuySell@@QAEXHHH@Z 10041060 f   KBuySell.obj
 0001:000400b0       ?OpenSale@KBuySell@@QAEXH@Z 100410b0 f   KBuySell.obj
 0001:00040120       ??0KInventory@@QAE@XZ      10041120 f   KInventory.obj
 0001:00040130       ??1KInventory@@QAE@XZ      10041130 f   KInventory.obj
 0001:00040140       ?Init@KInventory@@QAEHHH@Z 10041140 f   KInventory.obj
 0001:000401b0       ?Release@KInventory@@QAEXXZ 100411b0 f   KInventory.obj
 0001:000401e0       ?Clear@KInventory@@QAEXXZ  100411e0 f   KInventory.obj
 0001:00040220       ?PlaceItem@KInventory@@QAEHHHHHH@Z 10041220 f   KInventory.obj
 0001:00040320       ?HoldItem@KInventory@@QAEHHHH@Z 10041320 f   KInventory.obj
 0001:00040390       ?GetIndex@KInventory@@QAEHHH@Z 10041390 f   KInventory.obj
 0001:000403d0       ?PickUpItem@KInventory@@QAEHHHHHH@Z 100413d0 f   KInventory.obj
 0001:000404c0       ?FindItem@KInventory@@QAEHHH@Z 100414c0 f   KInventory.obj
 0001:00040530       ?FindRoom@KInventory@@QAEHHHPAUtagPOINT@@@Z 10041530 f   KInventory.obj
 0001:000405d0       ?FindFreeCell@KInventory@@QAEHHH@Z 100415d0 f   KInventory.obj
 0001:00040670       ?CheckRoom@KInventory@@QAEHHHHH@Z 10041670 f   KInventory.obj
 0001:00040720       ?AddMoney@KInventory@@QAEHH@Z 10041720 f   KInventory.obj
 0001:00040740       ?GetNextItem@KInventory@@QAEHHHHPAH0@Z 10041740 f   KInventory.obj
 0001:000407f0       ?CalcSameDetailType@KInventory@@QAEHHH@Z 100417f0 f   KInventory.obj
 0001:000408a0       ?FindSameDetailType@KInventory@@QAEHHHPAH00@Z 100418a0 f   KInventory.obj
 0001:00040940       ?CheckSameDetailType@KInventory@@QAEHHH@Z 10041940 f   KInventory.obj
 0001:000409b0       ?GetEmptyCellNum@KInventory@@QAEHXZ 100419b0 f   KInventory.obj
 0001:00040a20       ?GetSameItemNum@KInventory@@QAEHHHHHH@Z 10041a20 f   KInventory.obj
 0001:00040c30       ??0KItem@@QAE@XZ           10041c30 f   KItem.obj
 0001:00040d70       ??1KItem@@QAE@XZ           10041d70 f   KItem.obj
 0001:00040e20       ?Remove@KItem@@QAEXXZ      10041e20 f   KItem.obj
 0001:00040ed0       ?SetGeneratorLevel@KItem@@QAEXPBH@Z 10041ed0 f   KItem.obj
 0001:00040f10       ?GetRequirement@KItem@@QAEPAXH@Z 10041f10 f   KItem.obj
 0001:00040f30       ?ApplyMagicAttribToNPC@KItem@@QBEXPAVKNpc@@H@Z 10041f30 f   KItem.obj
 0001:00040fd0       ?RemoveMagicAttribFromNPC@KItem@@QBEXPAVKNpc@@H@Z 10041fd0 f   KItem.obj
 0001:00041150       ?ApplyHiddenMagicAttribToNPC@KItem@@QBEXPAVKNpc@@H@Z 10042150 f   KItem.obj
 0001:00041180       ?RemoveHiddenMagicAttribFromNPC@KItem@@QBEXPAVKNpc@@H@Z 10042180 f   KItem.obj
 0001:000411e0       ?SetAttrib_CBR@KItem@@AAEHPBUKBASICPROP_EQUIPMENT@@@Z 100421e0 f   KItem.obj
 0001:00041220       ?SetAttrib_CBR@KItem@@AAEHPBUKBASICPROP_GOLD_EQUIPMENT@@@Z 10042220 f   KItem.obj
 0001:00041260       ?SetAttrib_Base@KItem@@AAEHPBUKEQCP_BASIC@@@Z 10042260 f   KItem.obj
 0001:00041300       ?SetAttrib_Req@KItem@@AAEHPBUKEQCP_REQ@@@Z 10042300 f   KItem.obj
 0001:00041340       ?SetAttrib_MA@KItem@@AAEHPBUKMagicAttrib@@@Z 10042340 f   KItem.obj
 0001:00041390       ?SetAttrib_ExtraMA@KItem@@AAEHPBUKMagicAttrib@@@Z 10042390 f   KItem.obj
 0001:000413e0       ?SetAttrib_MA@KItem@@AAEHPBUKMACP@@@Z 100423e0 f   KItem.obj
 0001:00041460       ??4KItem@@AAEXABUKBASICPROP_EQUIPMENT@@@Z 10042460 f   KItem.obj
 0001:00041580       ??4KItem@@AAEXABUKBASICPROP_GOLD_EQUIPMENT@@@Z 10042580 f   KItem.obj
 0001:000416e0       ??4KItem@@AAEXABUKBASICPROP_BROKEN_EQUIPMENT@@@Z 100426e0 f   KItem.obj
 0001:000417c0       ??4KItem@@AAEXABUKBASICPROP_MEDICINE@@@Z 100427c0 f   KItem.obj
 0001:00041940       ??4KItem@@AAEXABUKBASICPROP_QUEST@@@Z 10042940 f   KItem.obj
 0001:00041aa0       ??4KItem@@AAEXABUKBASICPROP_SCRIPT@@@Z 10042aa0 f   KItem.obj
 0001:00041c20       ??4KItem@@AAEXABUKBASICPROP_MINE@@@Z 10042c20 f   KItem.obj
 0001:00041d80       ?SetBaseAttrib@KItem@@QAEHPBUKMagicAttrib@@@Z 10042d80 f   KItem.obj
 0001:00041dc0       ?SetRequireAttrib@KItem@@QAEHPBUKMagicAttrib@@@Z 10042dc0 f   KItem.obj
 0001:00041e00       ?SetMagicAttrib@KItem@@QAEHPBUKMagicAttrib@@@Z 10042e00 f   KItem.obj
 0001:00041e10       ?Abrade@KItem@@QAEHH@Z     10042e10 f   KItem.obj
 0001:00041e60       ?Paint@KItem@@QAEXHHH@Z    10042e60 f   KItem.obj
 0001:00041f40       ?GetDesc@KItem@@QAEXPAD_NHH@Z 10042f40 f   KItem.obj
 0001:00043580       ?GetMaxDurability@KItem@@QAEHXZ 10044580 f   KItem.obj
 0001:000435b0       ?GetTotalMagicLevel@KItem@@QAEHXZ 100445b0 f   KItem.obj
 0001:000435d0       ?GetRepairPrice@KItem@@QAEHXZ 100445d0 f   KItem.obj
 0001:00043680       ?CanBeRepaired@KItem@@QAEHXZ 10044680 f   KItem.obj
 0001:000436e0       ?GetRequireSeries@KItem@@QBEPADD@Z 100446e0 f   KItem.obj
 0001:00043740       ?SetPrice@KItem@@QAEXHE@Z  10044740 f   KItem.obj
 0001:00043760       ?GetPrice@KItem@@QBEHHPBDH@Z 10044760 f   KItem.obj
 0001:000437a0       ?GetPriceDesc@KItem@@QBEXDHPBD0PAD@Z 100447a0 f   KItem.obj
 0001:00043930       ?SetPlayerShopPrice@KItem@@QAEXH@Z 10044930 f   KItem.obj
 0001:00043940       ?GetMagicAttrib@KItem@@QBEHEE@Z 10044940 f   KItem.obj
 0001:000439d0       ?SetBrokenEquip@KItem@@QAEXPBUKBASICPROP_BROKEN_EQUIPMENT@@@Z 100449d0 f   KItem.obj
 0001:00043a70       ?CanStack@KItem@@QAEHXZ    10044a70 f   KItem.obj
 0001:00043a90       ?SetBindState@KItem@@QAEXKH@Z 10044a90 f   KItem.obj
 0001:00043ac0       ?SetTime@KItem@@QAEXKH@Z   10044ac0 f   KItem.obj
 0001:00043af0       ?GetTime@KItem@@QBEKH@Z    10044af0 f   KItem.obj
 0001:00043b00       ?DecodeTime@KItem@@QAEHPAH0000H@Z 10044b00 f   KItem.obj
 0001:00043be0       ?GetTimeDesc@KItem@@QAEXPADH@Z 10044be0 f   KItem.obj
 0001:00043c90       ?GetSuiteNo@KItem@@QBEHXZ  10044c90 f   KItem.obj
 0001:00043cc0       ?GetSuiteId@KItem@@QBEHXZ  10044cc0 f   KItem.obj
 0001:00043d00       ?GetSuiteCount@KItem@@QBEHXZ 10044d00 f   KItem.obj
 0001:00043d30       ?GetSuiteDesc@KItem@@QAEXPAD@Z 10044d30 f   KItem.obj
 0001:00043ea0       ??1KItemChangeRes@@QAE@XZ  10044ea0 f i KItemChangeRes.obj
 0001:00043f20       ??0KItemChangeRes@@QAE@XZ  10044f20 f i KItemChangeRes.obj
 0001:00043fa0       ?Init@KItemChangeRes@@QAEHXZ 10044fa0 f   KItemChangeRes.obj
 0001:00044030       ?GetWeaponRes@KItemChangeRes@@QAEHHH@Z 10045030 f   KItemChangeRes.obj
 0001:000440c0       ?GetArmorRes@KItemChangeRes@@QAEHH@Z 100450c0 f   KItemChangeRes.obj
 0001:00044120       ?GetHelmRes@KItemChangeRes@@QAEHH@Z 10045120 f   KItemChangeRes.obj
 0001:00044180       ?GetHorseRes@KItemChangeRes@@QAEHH@Z 10045180 f   KItemChangeRes.obj
 0001:000441e0       ?GetGoldEquipRes@KItemChangeRes@@QAEHH@Z 100451e0 f   KItemChangeRes.obj
 0001:000442f0       ??0KItemGenerator@@QAE@XZ  100452f0 f   KItemGenerator.obj
 0001:00044300       ??1KItemGenerator@@QAE@XZ  10045300 f   KItemGenerator.obj
 0001:00044310       ?Init@KItemGenerator@@QAEHXZ 10045310 f   KItemGenerator.obj
 0001:00044490       ?Gen_Equipment@KItemGenerator@@QAEHHHHHPBHHHPAVKItem@@@Z 10045490 f   KItemGenerator.obj
 0001:00044670       ?Gen_ExistEquipment@KItemGenerator@@QAEHHHHPBHHHPAVKItem@@@Z 10045670 f   KItemGenerator.obj
 0001:00044840       ?Gen_PurpleEquipment@KItemGenerator@@QAEHHHHHPBHHHPAVKItem@@@Z 10045840 f   KItemGenerator.obj
 0001:00044a80       ?Gen_ExistPurpleEquipment@KItemGenerator@@QAEHHHHPBHHHPAVKItem@@@Z 10045a80 f   KItemGenerator.obj
 0001:00044ca0       ?Gen_GoldEquipment@KItemGenerator@@QAEHHHPAVKItem@@@Z 10045ca0 f   KItemGenerator.obj
 0001:00044f10       ?Gen_BrokenEquipment@KItemGenerator@@QAEHHHHHHPBHHHHPAVKItem@@@Z 10045f10 f   KItemGenerator.obj
 0001:00045010       ?Gen_Medicine@KItemGenerator@@QAEHHHPAVKItem@@@Z 10046010 f   KItemGenerator.obj
 0001:00045060       ?Gen_ExistMedicine@KItemGenerator@@QAEHHPAVKItem@@@Z 10046060 f   KItemGenerator.obj
 0001:000450b0       ?Gen_Quest@KItemGenerator@@QAEHHPAVKItem@@@Z 100460b0 f   KItemGenerator.obj
 0001:00045110       ?Gen_ExistQuest@KItemGenerator@@QAEHHPAVKItem@@@Z 10046110 f   KItemGenerator.obj
 0001:00045160       ?Gen_Script@KItemGenerator@@QAEHHPAVKItem@@@Z 10046160 f   KItemGenerator.obj
 0001:000451c0       ?Gen_ExistScript@KItemGenerator@@QAEHHPAVKItem@@@Z 100461c0 f   KItemGenerator.obj
 0001:00045210       ?Gen_Mine@KItemGenerator@@QAEHHHHPAVKItem@@@Z 10046210 f   KItemGenerator.obj
 0001:00045300       ?Gen_ExistMine@KItemGenerator@@QAEHHHHPAVKItem@@@Z 10046300 f   KItemGenerator.obj
 0001:000453e0       ?getRandomLevel@KItemGenerator@@AAEHQBNH@Z 100463e0 f   KItemGenerator.obj
 0001:00045460       ?IsMagicAttribLuckyLevel@KItemGenerator@@AAEHPBUKMAGICATTRIB_TABFILE@@H@Z 10046460 f   KItemGenerator.obj
 0001:000455b0       ?Gen_MagicAttrib@KItemGenerator@@AAEHHPBHHHPAUKMagicAttrib@@HH@Z 100465b0 f   KItemGenerator.obj
 0001:000458a0       ?Gen_PurpleMagicAttrib@KItemGenerator@@AAEHHPBH0HHPAUKMagicAttrib@@H@Z 100468a0 f   KItemGenerator.obj
 0001:000459a0       ?GMA_GetAvaliableMA@KItemGenerator@@AAEHH@Z 100469a0 f   KItemGenerator.obj
 0001:00045a00       ?GMA_GetLevelAndDropRate@KItemGenerator@@AAEHH@Z 10046a00 f   KItemGenerator.obj
 0001:00045ab0       ?GMA_ChooseMA@KItemGenerator@@AAEXHHHPAUKMagicAttrib@@@Z 10046ab0 f   KItemGenerator.obj
 0001:00045ba0       ?GetMARecord@KItemGenerator@@ABEPBUKMAGICATTRIB_TABFILE@@H@Z 10046ba0 f   KItemGenerator.obj
 0001:00045bb0       ?GMA_GetCandidateMA@KItemGenerator@@AAEHHHH@Z 10046bb0 f   KItemGenerator.obj
 0001:00045c50       ?DecodePurple@KItemGenerator@@AAEHHPAHKK@Z 10046c50 f   KItemGenerator.obj
 0001:00045d40       ??0KItemList@@QAE@XZ       10046d40 f   KItemList.obj
 0001:00045dc0       ??1KItemList@@QAE@XZ       10046dc0 f   KItemList.obj
 0001:00045e70       ?GetWeaponType@KItemList@@QAEHXZ 10046e70 f   KItemList.obj
 0001:00045ea0       ?GetWeaponDamage@KItemList@@QAEXPAH0@Z 10046ea0 f   KItemList.obj
 0001:00045fc0       ?Add@KItemList@@QAEHHHHH@Z 10046fc0 f   KItemList.obj
 0001:000468e0       ?Remove@KItemList@@QAEHH@Z 100478e0 f   KItemList.obj
 0001:00046fb0       ?FindFree@KItemList@@AAEHXZ 10047fb0 f   KItemList.obj
 0001:00046fd0       ?FindSame@KItemList@@AAEHH@Z 10047fd0 f   KItemList.obj
 0001:00047010       ?Init@KItemList@@QAEHH@Z   10048010 f   KItemList.obj
 0001:000471e0       ?Release@KItemList@@QAEXXZ 100481e0 f   KItemList.obj
 0001:000472e0       ?CanEquip@KItemList@@QAEHHH@Z 100482e0 f   KItemList.obj
 0001:00047370       ?CanEquip@KItemList@@QAEHPAVKItem@@H@Z 10048370 f   KItemList.obj
 0001:000473e0       ?EnoughAttrib@KItemList@@QAEHPAX@Z 100483e0 f   KItemList.obj
 0001:00047630       ?HaveDamageItem@KItemList@@QAEHH@Z 10048630 f   KItemList.obj
 0001:00047690       ?Equip@KItemList@@QAEHHH@Z 10048690 f   KItemList.obj
 0001:00047ae0       ?InfectionNextEquip@KItemList@@AAEXHH@Z 10048ae0 f   KItemList.obj
 0001:00047c40       ?UnEquip@KItemList@@QAEHHH@Z 10048c40 f   KItemList.obj
 0001:00047eb0       ?GetEquipPlace@KItemList@@AAEHH@Z 10048eb0 f   KItemList.obj
 0001:00047f70       ?Fit@KItemList@@AAEHHH@Z   10048f70 f   KItemList.obj
 0001:000480d0       ?Fit@KItemList@@AAEHPAVKItem@@H@Z 100490d0 f   KItemList.obj
 0001:00048220       ?GetEquipEnhance@KItemList@@AAEHH@Z 10049220 f   KItemList.obj
 0001:00048340       ?EatMecidine@KItemList@@QAEHH@Z 10049340 f   KItemList.obj
 0001:00048430       ?UseItem@KItemList@@QAEHHE@Z 10049430 f   KItemList.obj
 0001:00048500       ?SearchPlaceEquip@KItemList@@QAEHHE@Z 10049500 f   KItemList.obj
 0001:00048640       ?SearchPosition@KItemList@@QAEHHHPAUItemPos@@@Z 10049640 f   KItemList.obj
 0001:000486d0       ?SearchID@KItemList@@QAEHH@Z 100496d0 f   KItemList.obj
 0001:00048730       ?ExchangeMoney@KItemList@@QAEXHHH@Z 10049730 f   KItemList.obj
 0001:00048810       ?GetMoneyAmount@KItemList@@QAEHXZ 10049810 f   KItemList.obj
 0001:00048820       ?GetEquipmentMoney@KItemList@@QAEHXZ 10049820 f   KItemList.obj
 0001:00048830       ?GetTradeMoney@KItemList@@QAEHXZ 10049830 f   KItemList.obj
 0001:00048840       ?GetRepositoryMoney@KItemList@@QAEHXZ 10049840 f   KItemList.obj
 0001:00048850       ?AddMoney@KItemList@@QAEHHH@Z 10049850 f   KItemList.obj
 0001:00048880       ?CostMoney@KItemList@@QAEHH@Z 10049880 f   KItemList.obj
 0001:000488b0       ?DecMoney@KItemList@@QAEHH@Z 100498b0 f   KItemList.obj
 0001:00048930       ?SetMoney@KItemList@@QAEXHHH@Z 10049930 f   KItemList.obj
 0001:00048990       ?SetRoomMoney@KItemList@@QAEXHH@Z 10049990 f   KItemList.obj
 0001:000489c0       ?ExchangeItem@KItemList@@QAEXPAUItemPos@@0@Z 100499c0 f   KItemList.obj
 0001:0004a550       ?AutoMoveItem@KItemList@@QAEHUItemPos@@0@Z 1004b550 f   KItemList.obj
 0001:0004a760       ?MenuSetMouseItem@KItemList@@QAEXXZ 1004b760 f   KItemList.obj
 0001:0004a7e0       ?GetFirstItem@KItemList@@QAEPAUPlayerItem@@XZ 1004b7e0 f   KItemList.obj
 0001:0004a810       ?GetNextItem@KItemList@@QAEPAUPlayerItem@@XZ 1004b810 f   KItemList.obj
 0001:0004a840       ?ClearRoom@KItemList@@QAEXH@Z 1004b840 f   KItemList.obj
 0001:0004a860       ?BackupTrade@KItemList@@QAEXXZ 1004b860 f   KItemList.obj
 0001:0004a8d0       ?RecoverTrade@KItemList@@QAEXXZ 1004b8d0 f   KItemList.obj
 0001:0004a950       ?StartTrade@KItemList@@QAEXXZ 1004b950 f   KItemList.obj
 0001:0004a970       ?RemoveAll@KItemList@@QAEXXZ 1004b970 f   KItemList.obj
 0001:0004a9c0       ?GetWeaponParticular@KItemList@@QAEHXZ 1004b9c0 f   KItemList.obj
 0001:0004a9f0       ?GetEmptyCellNumInEquipment@KItemList@@QAEHXZ 1004b9f0 f   KItemList.obj
 0001:0004aa00       ?GetSameItemNumInEquipment@KItemList@@QAEHHHHHH@Z 1004ba00 f   KItemList.obj
 0001:0004aa30       ?CountSameItem@KItemList@@QAEHW4INVENTORY_ROOM@@HHHHH@Z 1004ba30 f   KItemList.obj
 0001:0004ab10       ?CheckSameDetailType@KItemList@@AAEHW4INVENTORY_ROOM@@HH@Z 1004bb10 f   KItemList.obj
 0001:0004abb0       ?FindSameDetailType@KItemList@@AAEHW4INVENTORY_ROOM@@HHPAH11@Z 1004bbb0 f   KItemList.obj
 0001:0004ac70       ?RemoveAllInOneRoom@KItemList@@QAEXH@Z 1004bc70 f   KItemList.obj
 0001:0004acd0       ?CalcFreeItemCellCount@KItemList@@QAEHHHH@Z 1004bcd0 f   KItemList.obj
 0001:0004acf0       ?LockOperation@KItemList@@QAEXXZ 1004bcf0 f   KItemList.obj
 0001:0004ad10       ?UnlockOperation@KItemList@@QAEXXZ 1004bd10 f   KItemList.obj
 0001:0004ad30       ?GetActiveAttribNum@KItemList@@QAEHH@Z 1004bd30 f   KItemList.obj
 0001:0004ad60       ?GetSameDetailItemNum@KItemList@@QAEHH@Z 1004bd60 f   KItemList.obj
 0001:0004adc0       ?GetIfActive@KItemList@@QAEHXZ 1004bdc0 f   KItemList.obj
 0001:0004ae80       ?SetMaskLock@KItemList@@QAEXH@Z 1004be80 f   KItemList.obj
 0001:0004ae90       ?IsMyItem@KItemList@@QAEHH@Z 1004be90 f   KItemList.obj
 0001:0004aeb0       ?FindSameInEquipment@KItemList@@QAEHHHPAH00@Z 1004beb0 f   KItemList.obj
 0001:0004aee0       ?GetNextItemEquipmentRoom@KItemList@@QAEHHHHPAH0@Z 1004bee0 f   KItemList.obj
 0001:0004af10       ?FindSameInImmediacy@KItemList@@QAEHHHPAH00@Z 1004bf10 f   KItemList.obj
 0001:0004af40       ?GetSuiteDescColor@KItemList@@QAEHHH@Z 1004bf40 f   KItemList.obj
 0001:0004afb0       ?UpdateGoldInfo@KItemList@@AAEXHHHH@Z 1004bfb0 f   KItemList.obj
 0001:0004aff0       ?MapPlaceToUIContainer@KItemList@@QAEHH@Z 1004bff0 f   KItemList.obj
 0001:0004b080       ?FindItemInRoom@KItemList@@QAEHW4INVENTORY_ROOM@@HH@Z 1004c080 f   KItemList.obj
 0001:0004b0b0       ?CountCommonItem@KItemList@@QAEHHHH@Z 1004c0b0 f   KItemList.obj
 0001:0004b120       ?SearchEquipment@KItemList@@QAEHHH@Z 1004c120 f   KItemList.obj
 0001:0004b160       ?BuildItem@KItemList@@QAEHHH@Z 1004c160 f   KItemList.obj
 0001:0004b1b0       ?UnBuildItem@KItemList@@QAEXHH@Z 1004c1b0 f   KItemList.obj
 0001:0004b210       ?PositionToRoom@KItemList@@QAEHH@Z 1004c210 f   KItemList.obj
 0001:0004b250       ?HandleAutoMoveFromServer@KItemList@@QAEHUItemPos@@0H@Z 1004c250 f   KItemList.obj
 0001:0004b4c0       ??0KItemSet@@QAE@XZ        1004c4c0 f   KItemSet.obj
 0001:0004b4f0       ??1KItemSet@@QAE@XZ        1004c4f0 f   KItemSet.obj
 0001:0004b540       ?Init@KItemSet@@QAEXXZ     1004c540 f   KItemSet.obj
 0001:0004b930       ?SearchID@KItemSet@@QAEHK@Z 1004c930 f   KItemSet.obj
 0001:0004b970       ?Add@KItemSet@@QAEHPAVKItem@@@Z 1004c970 f   KItemSet.obj
 0001:0004b9e0       ?Add@KItemSet@@QAEHHHHGHHHPAHHKEK@Z 1004c9e0 f   KItemSet.obj
 0001:0004bb90       ?AddExist@KItemSet@@QAEHHHHGHHPAHHK@Z 1004cb90 f   KItemSet.obj
 0001:0004bd50       ?FindFree@KItemSet@@AAEHXZ 1004cd50 f   KItemSet.obj
 0001:0004bd60       ?Remove@KItemSet@@QAEXH@Z  1004cd60 f   KItemSet.obj
 0001:0004bda0       ?GetAbradeRange@KItemSet@@QAEHHH@Z 1004cda0 f   KItemSet.obj
 0001:0004be00       ??0KObj@@QAE@XZ            1004ce00 f   KObj.obj
 0001:0004be80       ?Release@KObj@@QAEXXZ      1004ce80 f   KObj.obj
 0001:0004bfe0       ?SetIndex@KObj@@QAEXH@Z    1004cfe0 f   KObj.obj
 0001:0004c000       ?SetWorldID@KObj@@QAEXH@Z  1004d000 f   KObj.obj
 0001:0004c020       ?SetLifeTime@KObj@@QAEXH@Z 1004d020 f   KObj.obj
 0001:0004c030       ?SetState@KObj@@QAEXHH@Z   1004d030 f   KObj.obj
 0001:0004c0b0       ?BoxOpen@KObj@@AAEXXZ      1004d0b0 f   KObj.obj
 0001:0004c0d0       ?BoxClose@KObj@@AAEXXZ     1004d0d0 f   KObj.obj
 0001:0004c0f0       ?DoorOpen@KObj@@AAEXXZ     1004d0f0 f   KObj.obj
 0001:0004c110       ?DoorClose@KObj@@AAEXXZ    1004d110 f   KObj.obj
 0001:0004c130       ?SetDir@KObj@@QAEHH@Z      1004d130 f   KObj.obj
 0001:0004c170       ?SetScriptFile@KObj@@QAEXPAD@Z 1004d170 f   KObj.obj
 0001:0004c1e0       ?SetImageDir@KObj@@QAEXH@Z 1004d1e0 f   KObj.obj
 0001:0004c210       ?DrawInfo@KObj@@QAEXXZ     1004d210 f   KObj.obj
 0001:0004c380       ?Draw@KObj@@QAEXXZ         1004d380 f   KObj.obj
 0001:0004c510       ?Activate@KObj@@QAEXXZ     1004d510 f   KObj.obj
 0001:0004c760       ?PlayLoopSound@KObj@@AAEXXZ 1004d760 f   KObj.obj
 0001:0004c7f0       ?PlayRandSound@KObj@@AAEXXZ 1004d7f0 f   KObj.obj
 0001:0004c870       ?GetSoundPan@KObj@@AAEHXZ  1004d870 f   KObj.obj
 0001:0004c920       ?GetSoundVolume@KObj@@AAEHXZ 1004d920 f   KObj.obj
 0001:0004ca10       ?PlaySoundA@KObj@@AAEXXZ   1004da10 f   KObj.obj
 0001:0004ca80       ?ExecScript@KObj@@QAEXH@Z  1004da80 f   KObj.obj
 0001:0004cc10       ?CastSkill@KObj@@QAEXH@Z   1004dc10 f   KObj.obj
 0001:0004cc20       ?CastSkill@KObj@@QAEXHH@Z  1004dc20 f   KObj.obj
 0001:0004cc30       ?Remove@KObj@@QAEXH@Z      1004dc30 f   KObj.obj
 0001:0004cc90       ?GetKind@KObj@@QAEHXZ      1004dc90 f   KObj.obj
 0001:0004cca0       ?PolygonChangeToBar@KObj@@QAEXVKPolygon@@HHHHPAE@Z 1004dca0 f   KObj.obj
 0001:0004cea0       ?GetMpsPos@KObj@@QAEXPAH0@Z 1004dea0 f   KObj.obj
 0001:0004cee0       ?DrawBorder@KObj@@QAEXXZ   1004dee0 f   KObj.obj
 0001:0004cf30       ?GetDistanceSquare@KObj@@QAEHH@Z 1004df30 f   KObj.obj
 0001:0004d050       ??0KObjSet@@QAE@XZ         1004e050 f   KObjSet.obj
 0001:0004d0c0       ??1KObjSet@@QAE@XZ         1004e0c0 f   KObjSet.obj
 0001:0004d140       ?Init@KObjSet@@QAEHXZ      1004e140 f   KObjSet.obj
 0001:0004d340       ?ClientAdd@KObjSet@@QAEHHHHHHHHUKObjItemInfo@@@Z 1004e340 f   KObjSet.obj
 0001:0004d530       ?ClientLoadRegionObj@KObjSet@@QAEHPADHHHH@Z 1004e530 f   KObjSet.obj
 0001:0004d770       ?ClientLoadRegionObj@KObjSet@@QAEHPAVKPakFile@@K@Z 1004e770 f   KObjSet.obj
 0001:0004d930       ?AddData@KObjSet@@QAEHHHHHHHH@Z 1004e930 f   KObjSet.obj
 0001:0004ddd0       ?FindFree@KObjSet@@AAEHXZ  1004edd0 f   KObjSet.obj
 0001:0004ddf0       ?CheckClientKind@KObjSet@@AAEHH@Z 1004edf0 f   KObjSet.obj
 0001:0004de30       ?FindID@KObjSet@@QAEHH@Z   1004ee30 f   KObjSet.obj
 0001:0004de90       ?FindName@KObjSet@@QAEHPAD@Z 1004ee90 f   KObjSet.obj
 0001:0004df20       ?GetID@KObjSet@@QAEHXZ     1004ef20 f   KObjSet.obj
 0001:0004df30       ?Remove@KObjSet@@QAEXH@Z   1004ef30 f   KObjSet.obj
 0001:0004df70       ?RemoveIfClientOnly@KObjSet@@QAEXH@Z 1004ef70 f   KObjSet.obj
 0001:0004dfd0       ?GetDataIDKind@KObjSet@@AAEHH@Z 1004efd0 f   KObjSet.obj
 0001:0004e070       ?SearchObjAt@KObjSet@@QAEHHHH@Z 1004f070 f   KObjSet.obj
 0001:0004e1d0       ?GetNameColor@KObjSet@@QAEKH@Z 1004f1d0 f   KObjSet.obj
 0001:0004e1f0       ?SetShowNameFlag@KObjSet@@QAEXH@Z 1004f1f0 f   KObjSet.obj
 0001:0004e200       ?CheckShowName@KObjSet@@QAEHXZ 1004f200 f   KObjSet.obj
 0001:0004e210       ?GetDistanceMpx@KObjSet@@QAEHHHHH@Z 1004f210 f   KObjSet.obj
 0001:0004e250       ?AutoGetObjNear@KObjSet@@QAEHHHHHHHHH@Z 1004f250 f   KObjSet.obj
 0001:0004e420       ??0KViewItem@@QAE@XZ       1004f420 f   KViewItem.obj
 0001:0004e430       ?Init@KViewItem@@QAEXXZ    1004f430 f   KViewItem.obj
 0001:0004e460       ?ApplyViewEquip@KViewItem@@QAEXK@Z 1004f460 f   KViewItem.obj
 0001:0004e4b0       ?DeleteAll@KViewItem@@QAEXXZ 1004f4b0 f   KViewItem.obj
 0001:0004e4f0       ?GetData@KViewItem@@QAEXPAE@Z 1004f4f0 f   KViewItem.obj
 0001:0004ead0       ?g_InitCore@@YAXXZ         1004fad0 f   KCore.obj
 0001:0004ede0       ?InitGameSetting@@YAHXZ    1004fde0 f   KCore.obj
 0001:0004ee00       ?InitTaskSetting@@YAHXZ    1004fe00 f   KCore.obj
 0001:0004ee90       ?InitNpcSetting@@YAHXZ     1004fe90 f   KCore.obj
 0001:0004ef60       ?InitMissleSetting@@YAHXZ  1004ff60 f   KCore.obj
 0001:0004eff0       ?InitSkillSetting@@YAHXZ   1004fff0 f   KCore.obj
 0001:0004f010       ?g_ReleaseCore@@YAXXZ      10050010 f   KCore.obj
 0001:0004f0d0       ?g_SetClient@@YAXPAX@Z     100500d0 f   KCore.obj
 0001:0004f0e0       ?InitAdjustColorTab@@YAIXZ 100500e0 f   KCore.obj
 0001:0004f280       ?PositionToRoom@@YAHH@Z    10050280 f   KCore.obj
 0001:0004f380       ??0KSubWorld@@QAE@XZ       10050380 f   KSubWorld.obj
 0001:0004f460       ??1KSubWorld@@QAE@XZ       10050460 f   KSubWorld.obj
 0001:0004f4f0       ??1KWorldMsg@@QAE@XZ       100504f0 f i KSubWorld.obj
 0001:0004f500       ??_EKRegion@@QAEPAXI@Z     10050500 f i KSubWorld.obj
 0001:0004f560       ?FindRegion@KSubWorld@@QAEHH@Z 10050560 f   KSubWorld.obj
 0001:0004f590       ?FindFreeRegion@KSubWorld@@QAEHHH@Z 10050590 f   KSubWorld.obj
 0001:0004f630       ?Activate@KSubWorld@@QAEXXZ 10050630 f   KSubWorld.obj
 0001:0004f6a0       ?GetDistance@KSubWorld@@QAEHHHHH@Z 100506a0 f   KSubWorld.obj
 0001:0004f6e0       ?Map2Mps@KSubWorld@@QAEXHHHHHPAH0@Z 100506e0 f   KSubWorld.obj
 0001:0004f760       ?Map2Mps@KSubWorld@@SAXHHHHHHPAH0@Z 10050760 f   KSubWorld.obj
 0001:0004f7a0       ?Mps2Map@KSubWorld@@QAEXHHPAH0000@Z 100507a0 f   KSubWorld.obj
 0001:0004f8d0       ?TestBarrier@KSubWorld@@QAEEHH@Z 100508d0 f   KSubWorld.obj
 0001:0004f9f0       ?TestBarrier@KSubWorld@@QAEEHHHHHHH@Z 100509f0 f   KSubWorld.obj
 0001:0004fb90       ?TestBarrierMin@KSubWorld@@QAEEHHHHHHH@Z 10050b90 f   KSubWorld.obj
 0001:0004fd50       ?GetTrap@KSubWorld@@QAEKHH@Z 10050d50 f   KSubWorld.obj
 0001:0004fdc0       ?GetBarrier@KSubWorld@@QAEEHH@Z 10050dc0 f   KSubWorld.obj
 0001:0004fde0       ?LoadMap@KSubWorld@@QAEHHH@Z 10050de0 f   KSubWorld.obj
 0001:000507c0       ?LoadTrap@KSubWorld@@AAEXXZ 100517c0 f   KSubWorld.obj
 0001:000507d0       ?MessageLoop@KSubWorld@@QAEXXZ 100517d0 f   KSubWorld.obj
 0001:00050850       ?ProcessMsg@KSubWorld@@AAEXPAVKWorldMsgNode@@@Z 10051850 f   KSubWorld.obj
 0001:00050a20       ?NpcChangeRegion@KSubWorld@@QAEXHHH@Z 10051a20 f   KSubWorld.obj
 0001:00050b80       ?ObjChangeRegion@KSubWorld@@QAEXHHH@Z 10051b80 f   KSubWorld.obj
 0001:00050c60       ?MissleChangeRegion@KSubWorld@@QAEXHHH@Z 10051c60 f   KSubWorld.obj
 0001:00050cf0       ?GetMps@KSubWorld@@QAEXPAH0HHH@Z 10051cf0 f   KSubWorld.obj
 0001:00050d50       ?LoadCell@KSubWorld@@AAEXXZ 10051d50 f   KSubWorld.obj
 0001:00050d60       ?Paint@KSubWorld@@QAEXXZ   10051d60 f   KSubWorld.obj
 0001:00050df0       ?Mps2Screen@KSubWorld@@QAEXPAH0@Z 10051df0 f   KSubWorld.obj
 0001:00050e00       ?Screen2Mps@KSubWorld@@QAEXPAH0@Z 10051e00 f   KSubWorld.obj
 0001:00050e10       ?Close@KSubWorld@@QAEXXZ   10051e10 f   KSubWorld.obj
 0001:00050e60       ?AddPlayer@KSubWorld@@QAEXHH@Z 10051e60 f   KSubWorld.obj
 0001:00050f00       ?RemovePlayer@KSubWorld@@QAEXHH@Z 10051f00 f   KSubWorld.obj
 0001:00050fd0       ?GetFreeObjPos@KSubWorld@@QAEXAAUtagPOINT@@@Z 10051fd0 f   KSubWorld.obj
 0001:00051140       ?CanPutObj@KSubWorld@@QAEHUtagPOINT@@@Z 10052140 f   KSubWorld.obj
 0001:00051220       ??0KSubWorldSet@@QAE@XZ    10052220 f   KSubWorldSet.obj
 0001:00051250       ?SearchWorld@KSubWorldSet@@QAEHK@Z 10052250 f   KSubWorldSet.obj
 0001:00051280       ?MainLoop@KSubWorldSet@@QAEXXZ 10052280 f   KSubWorldSet.obj
 0001:000512e0       ?MessageLoop@KSubWorldSet@@QAEXXZ 100522e0 f   KSubWorldSet.obj
 0001:000512f0       ?SendMessageA@KSubWorldSet@@QAEHHKHHH@Z 100522f0 f   KSubWorldSet.obj
 0001:00051370       ?Close@KSubWorldSet@@QAEXXZ 10052370 f   KSubWorldSet.obj
 0001:000513e0       ?Paint@KSubWorldSet@@QAEXXZ 100523e0 f   KSubWorldSet.obj
 0001:000513f0       ??0KRegion@@QAE@XZ         100523f0 f   KRegion.obj
 0001:000514e0       ??1KRegion@@QAE@XZ         100524e0 f   KRegion.obj
 0001:00051540       ?Init@KRegion@@QAEHHH@Z    10052540 f   KRegion.obj
 0001:00051630       ?Load@KRegion@@QAEHHH@Z    10052630 f   KRegion.obj
 0001:00051700       ?LoadObject@KRegion@@QAEHHHHPAD@Z 10052700 f   KRegion.obj
 0001:00051ab0       ?LoadClientNpc@KRegion@@QAEHPAVKPakFile@@K@Z 10052ab0 f   KRegion.obj
 0001:00051c10       ?LoadClientObj@KRegion@@QAEHPAVKPakFile@@K@Z 10052c10 f   KRegion.obj
 0001:00051c30       ?LoadLittleMapData@KRegion@@SAHHHPADPAE@Z 10052c30 f   KRegion.obj
 0001:00051e80       ?Activate@KRegion@@QAEXXZ  10052e80 f   KRegion.obj
 0001:00051ff0       ?AddNpc@KRegion@@QAEXH@Z   10052ff0 f   KRegion.obj
 0001:00052050       ?RemoveNpc@KRegion@@QAEXH@Z 10053050 f   KRegion.obj
 0001:000520d0       ?AddMissle@KRegion@@QAEXH@Z 100530d0 f   KRegion.obj
 0001:00052120       ?RemoveMissle@KRegion@@QAEXH@Z 10053120 f   KRegion.obj
 0001:00052190       ?AddObj@KRegion@@QAEXH@Z   10053190 f   KRegion.obj
 0001:00052210       ?RemoveObj@KRegion@@QAEXH@Z 10053210 f   KRegion.obj
 0001:000522a0       ?GetTrap@KRegion@@QAEKHH@Z 100532a0 f   KRegion.obj
 0001:000522b0       ?GetBarrier@KRegion@@QAEEHHHH@Z 100532b0 f   KRegion.obj
 0001:000522e0       ?GetBarrierMin@KRegion@@QAEEHHHHH@Z 100532e0 f   KRegion.obj
 0001:00052320       ?GetRef@KRegion@@QAEHHHW4MOVE_OBJ_KIND@@@Z 10053320 f   KRegion.obj
 0001:000523a0       ?AddRef@KRegion@@QAEHHHW4MOVE_OBJ_KIND@@@Z 100533a0 f   KRegion.obj
 0001:00052430       ?DecRef@KRegion@@QAEHHHW4MOVE_OBJ_KIND@@@Z 10053430 f   KRegion.obj
 0001:000524c0       ?AddPlayer@KRegion@@QAEHH@Z 100534c0 f   KRegion.obj
 0001:00052530       ?RemovePlayer@KRegion@@QAEHH@Z 10053530 f   KRegion.obj
 0001:000525b0       ?SearchNpc@KRegion@@QAEHK@Z 100535b0 f   KRegion.obj
 0001:00052600       ?FindObject@KRegion@@QAEHHH_N@Z 10053600 f   KRegion.obj
 0001:00052670       ?FindNpc@KRegion@@QAEHHHHH@Z 10053670 f   KRegion.obj
 0001:00052710       ?FindObject@KRegion@@QAEHH@Z 10053710 f   KRegion.obj
 0001:00052760       ?FindEquip@KRegion@@QAEHHH@Z 10053760 f   KRegion.obj
 0001:000527d0       ?SearchNpcName@KRegion@@QAEHPBD@Z 100537d0 f   KRegion.obj
 0001:00052860       ?Paint@KRegion@@QAEXXZ     10053860 f   KRegion.obj
 0001:00052900       ?GetObjNode@KRegion@@QAEPAXH@Z 10053900 f   KRegion.obj
 0001:00052930       ?Close@KRegion@@QAEXXZ     10053930 f   KRegion.obj
 0001:00052b90       ?g_InitMath@@YAHXZ         10053b90 f   KMath.obj
 0001:00052ba0       ?g_UnInitMath@@YAHXZ       10053ba0 f   KMath.obj
 0001:00052bb0       ?g_InitSeries@@YAXXZ       10053bb0 f   KMath.obj
 0001:00052c10       ?g_InitProtocol@@YAXXZ     10053c10 f   KProtocol.obj
 0001:00052c30       ?SendClientCmdRun@@YAXHH@Z 10053c30 f   KProtocol.obj
 0001:00052c80       ?SendClientCmdWalk@@YAXHH@Z 10053c80 f   KProtocol.obj
 0001:00052cd0       ?SendClientCmdSkill@@YAXHHH@Z 10053cd0 f   KProtocol.obj
 0001:00052d20       ?SendClientCmdRequestNpc@@YAXH@Z 10053d20 f   KProtocol.obj
 0001:00052d70       ?SendClientCmdSell@@YAXH@Z 10053d70 f   KProtocol.obj
 0001:00052dd0       ?SendClientCmdBuy@@YAXHHHH@Z 10053dd0 f   KProtocol.obj
 0001:00052e50       ?SendClientCmdSit@@YAXH@Z  10053e50 f   KProtocol.obj
 0001:00052ea0       ?SendClientCmdJump@@YAXHH@Z 10053ea0 f   KProtocol.obj
 0001:00052ef0       ?SendObjMouseClick@@YAXHK@Z 10053ef0 f   KProtocol.obj
 0001:00052f40       ?SendClientCmdStoreMoney@@YAXHH@Z 10053f40 f   KProtocol.obj
 0001:00052f90       ?SendClientCmdRevive@@YAXXZ 10053f90 f   KProtocol.obj
 0001:00052fd0       ?SendClientCmdMoveItem@@YAXPAX0@Z 10053fd0 f   KProtocol.obj
 0001:00053060       ?SendClientCmdQueryLadder@@YAXK@Z 10054060 f   KProtocol.obj
 0001:000530c0       ?SendClientCmdRepair@@YAXK@Z 100540c0 f   KProtocol.obj
 0001:00053110       ?SendClientCmdRide@@YAXH@Z 10054110 f   KProtocol.obj
 0001:00053160       ?SendClientCmdExeScript@@YAXHPBD@Z 10054160 f   KProtocol.obj
 0001:000531d0       ?SendClientCmdBreakItem@@YAXKH@Z 100541d0 f   KProtocol.obj
 0001:00053240       ?SendClientCmdMarkPriceItem@@YAXKH@Z 10054240 f   KProtocol.obj
 0001:000532b0       ?SendClientCmdMakeAdvText@@YAXPBD@Z 100542b0 f   KProtocol.obj
 0001:00053310       ?SendClientCmdBuyPlayerShop@@YAXK@Z 10054310 f   KProtocol.obj
 0001:00053380       ?SendClientCmdAutoPlay@@YAXHH@Z 10054380 f   KProtocol.obj
 0001:000533d0       ?SendClientCreatPWCmd@@YAXH@Z 100543d0 f   KProtocol.obj
 0001:00053420       ?SendClientLoginPWCmd@@YAXH@Z 10054420 f   KProtocol.obj
 0001:00053470       ?SendClientChaPWCmd@@YAXHH@Z 10054470 f   KProtocol.obj
 0001:000534c0       ?SendClientLockPWCmd@@YAXH@Z 100544c0 f   KProtocol.obj
 0001:00053510       ?SendClientGiveBoxScript@@YAXPAD@Z 10054510 f   KProtocol.obj
 0001:00053580       ?SendClientGiveBoxCmd@@YAXKHH@Z 10054580 f   KProtocol.obj
 0001:000535e0       ?SendClientReWardScript@@YAXPAD@Z 100545e0 f   KProtocol.obj
 0001:00053650       ?SendClientCmdTimeBox@@YAXPADH@Z 10054650 f   KProtocol.obj
 0001:000536d0       ?SendClientCmdOpenTopTKNew@@YAXXZ 100546d0 f   KProtocol.obj
 0001:00053710       ?SendClientCPSetImageCmd@@YAXH@Z 10054710 f   KProtocol.obj
 0001:00053760       ?SendClientRecoveryBox@@YAXKHH@Z 10054760 f   KProtocol.obj
 0001:00053800       ??0KProtocolProcess@@QAE@XZ 10054800 f   KProtocolProcess.obj
 0001:00053d10       ??1KProtocolProcess@@QAE@XZ 10054d10 f   KProtocolProcess.obj
 0001:00053d20       ?ProcessNetMsg@KProtocolProcess@@QAEXPAE@Z 10054d20 f   KProtocolProcess.obj
 0001:00053d50       ?NpcSleepSync@KProtocolProcess@@AAEXPAE@Z 10054d50 f   KProtocolProcess.obj
 0001:00053db0       ?s2cPing@KProtocolProcess@@AAEXPAE@Z 10054db0 f   KProtocolProcess.obj
 0001:00053df0       ?ServerReplyClientPing@KProtocolProcess@@AAEXPAE@Z 10054df0 f   KProtocolProcess.obj
 0001:00053e10       ?s2cPlayerExp@KProtocolProcess@@AAEXPAE@Z 10054e10 f   KProtocolProcess.obj
 0001:00053e30       ?s2cChatScreenSingleError@KProtocolProcess@@AAEXPAE@Z 10054e30 f   KProtocolProcess.obj
 0001:00053ec0       ?NetCommandChgCamp@KProtocolProcess@@AAEXPAE@Z 10054ec0 f   KProtocolProcess.obj
 0001:00053f10       ?NetCommandChgCurCamp@KProtocolProcess@@AAEXPAE@Z 10054f10 f   KProtocolProcess.obj
 0001:00053f60       ?NetCommandDeath@KProtocolProcess@@AAEXPAE@Z 10054f60 f   KProtocolProcess.obj
 0001:00053fc0       ?NetCommandJump@KProtocolProcess@@AAEXPAE@Z 10054fc0 f   KProtocolProcess.obj
 0001:00054030       ?NetCommandGlide@KProtocolProcess@@AAEXPAE@Z 10055030 f   KProtocolProcess.obj
 0001:000540a0       ?NetCommandHurt@KProtocolProcess@@AAEXPAE@Z 100550a0 f   KProtocolProcess.obj
 0001:00054100       ?NetCommandRemoveNpc@KProtocolProcess@@AAEXPAE@Z 10055100 f   KProtocolProcess.obj
 0001:000541a0       ?NetCommandRun@KProtocolProcess@@AAEXPAE@Z 100551a0 f   KProtocolProcess.obj
 0001:00054210       ?NetCommandSit@KProtocolProcess@@AAEXPAE@Z 10055210 f   KProtocolProcess.obj
 0001:00054270       ?OpenSaleBox@KProtocolProcess@@AAEXPAE@Z 10055270 f   KProtocolProcess.obj
 0001:00054290       ?OpenStoreBox@KProtocolProcess@@AAEXPAE@Z 10055290 f   KProtocolProcess.obj
 0001:000542b0       ?PlayerRevive@KProtocolProcess@@AAEXPAE@Z 100552b0 f   KProtocolProcess.obj
 0001:00054330       ?RequestNpcFail@KProtocolProcess@@AAEXPAE@Z 10055330 f   KProtocolProcess.obj
 0001:00054360       ?NetCommandSkill@KProtocolProcess@@AAEXPAE@Z 10055360 f   KProtocolProcess.obj
 0001:00054480       ?NetCommandWalk@KProtocolProcess@@AAEXPAE@Z 10055480 f   KProtocolProcess.obj
 0001:00054520       ?s2cApplyCreateTeamFalse@KProtocolProcess@@AAEXPAE@Z 10055520 f   KProtocolProcess.obj
 0001:000545e0       ?s2cApplyTeamInfoFalse@KProtocolProcess@@AAEXPAE@Z 100555e0 f   KProtocolProcess.obj
 0001:000545f0       ?s2cChatAddFriend@KProtocolProcess@@AAEXPAE@Z 100555f0 f   KProtocolProcess.obj
 0001:000546e0       ?s2cChatAddFriendFail@KProtocolProcess@@AAEXPAE@Z 100556e0 f   KProtocolProcess.obj
 0001:00054780       ?s2cChatAddOneFriend@KProtocolProcess@@AAEXPAE@Z 10055780 f   KProtocolProcess.obj
 0001:00054800       ?s2cChatBeRefusedAddFriend@KProtocolProcess@@AAEXPAE@Z 10055800 f   KProtocolProcess.obj
 0001:00054890       ?s2cChatFriendOnline@KProtocolProcess@@AAEXPAE@Z 10055890 f   KProtocolProcess.obj
 0001:000548b0       ?s2cChatGetApplyAddFriend@KProtocolProcess@@AAEXPAE@Z 100558b0 f   KProtocolProcess.obj
 0001:00054a00       ??_ECChatApplyListNode@@UAEPAXI@Z 10055a00 f i KProtocolProcess.obj
 0001:00054a00       ??_GCChatApplyListNode@@UAEPAXI@Z 10055a00 f i KProtocolProcess.obj
 0001:00054a20       ??1CChatApplyListNode@@UAE@XZ 10055a20 f i KProtocolProcess.obj
 0001:00054a30       ?s2cChatLoginFriendName@KProtocolProcess@@AAEXPAE@Z 10055a30 f   KProtocolProcess.obj
 0001:00054ac0       ?s2cChatLoginFriendNoName@KProtocolProcess@@AAEXPAE@Z 10055ac0 f   KProtocolProcess.obj
 0001:00054c00       ?s2cCreateTeam@KProtocolProcess@@AAEXPAE@Z 10055c00 f   KProtocolProcess.obj
 0001:00054d60       ?s2cFactionSkillOpen@KProtocolProcess@@AAEXPAE@Z 10055d60 f   KProtocolProcess.obj
 0001:00054d90       ?s2cGetChat@KProtocolProcess@@AAEXPAE@Z 10055d90 f   KProtocolProcess.obj
 0001:00054db0       ?s2cGetCurAttribute@KProtocolProcess@@AAEXPAE@Z 10055db0 f   KProtocolProcess.obj
 0001:00054dd0       ?s2cGetLeadExp@KProtocolProcess@@AAEXPAE@Z 10055dd0 f   KProtocolProcess.obj
 0001:00054e70       ?s2cGetSkillLevel@KProtocolProcess@@AAEXPAE@Z 10055e70 f   KProtocolProcess.obj
 0001:00054fc0       ?s2cGetSkillRemove@KProtocolProcess@@AAEXPAE@Z 10055fc0 f   KProtocolProcess.obj
 0001:00055020       ?s2cGetTeammateLevel@KProtocolProcess@@AAEXPAE@Z 10056020 f   KProtocolProcess.obj
 0001:00055080       ?s2cLeaveFaction@KProtocolProcess@@AAEXPAE@Z 10056080 f   KProtocolProcess.obj
 0001:000550d0       ?s2cLeaveTeam@KProtocolProcess@@AAEXPAE@Z 100560d0 f   KProtocolProcess.obj
 0001:000551b0       ?s2cLevelUp@KProtocolProcess@@AAEXPAE@Z 100561b0 f   KProtocolProcess.obj
 0001:000551d0       ?s2cMoveItem@KProtocolProcess@@AAEXPAE@Z 100561d0 f   KProtocolProcess.obj
 0001:00055230       ?GetPlaceName@KProtocolProcess@@AAEXHPADI@Z 10056230 f   KProtocolProcess.obj
 0001:00055320       ?s2cRightItemAutoMove@KProtocolProcess@@AAEXPAE@Z 10056320 f   KProtocolProcess.obj
 0001:000554d0       ?s2cRemoveItem@KProtocolProcess@@AAEXPAE@Z 100564d0 f   KProtocolProcess.obj
 0001:00055500       ?s2cSetFactionData@KProtocolProcess@@AAEXPAE@Z 10056500 f   KProtocolProcess.obj
 0001:00055560       ?s2cSetTeamState@KProtocolProcess@@AAEXPAE@Z 10056560 f   KProtocolProcess.obj
 0001:00055650       ?s2cApplyAddTeam@KProtocolProcess@@AAEXPAE@Z 10056650 f   KProtocolProcess.obj
 0001:00055670       ?s2cShowTeamInfo@KProtocolProcess@@AAEXPAE@Z 10056670 f   KProtocolProcess.obj
 0001:00055680       ?s2cSyncItem@KProtocolProcess@@AAEXPAE@Z 10056680 f   KProtocolProcess.obj
 0001:00055790       ?s2cSyncMoney@KProtocolProcess@@AAEXPAE@Z 10056790 f   KProtocolProcess.obj
 0001:000557b0       ?s2cSyncRoleList@KProtocolProcess@@AAEXPAE@Z 100567b0 f   KProtocolProcess.obj
 0001:000557c0       ?s2cTeamAddMember@KProtocolProcess@@AAEXPAE@Z 100567c0 f   KProtocolProcess.obj
 0001:000558e0       ?s2cTeamChangeCaptain@KProtocolProcess@@AAEXPAE@Z 100568e0 f   KProtocolProcess.obj
 0001:00055ba0       ?s2cUpdataSelfTeamInfo@KProtocolProcess@@AAEXPAE@Z 10056ba0 f   KProtocolProcess.obj
 0001:00055e30       ?SyncCurNormalData@KProtocolProcess@@AAEXPAE@Z 10056e30 f   KProtocolProcess.obj
 0001:00055f60       ?SyncCurPlayer@KProtocolProcess@@AAEXPAE@Z 10056f60 f   KProtocolProcess.obj
 0001:00055f80       ?SyncNpc@KProtocolProcess@@AAEXPAE@Z 10056f80 f   KProtocolProcess.obj
 0001:00056250       ?SyncNpcMin@KProtocolProcess@@AAEXPAE@Z 10057250 f   KProtocolProcess.obj
 0001:00056590       ?SyncNpcMinPlayer@KProtocolProcess@@AAEXPAE@Z 10057590 f   KProtocolProcess.obj
 0001:00056830       ?SyncObjectAdd@KProtocolProcess@@AAEXPAE@Z 10057830 f   KProtocolProcess.obj
 0001:00056930       ?SyncObjectDir@KProtocolProcess@@AAEXPAE@Z 10057930 f   KProtocolProcess.obj
 0001:000569c0       ?SyncObjectRemove@KProtocolProcess@@AAEXPAE@Z 100579c0 f   KProtocolProcess.obj
 0001:00056a00       ?SyncObjectState@KProtocolProcess@@AAEXPAE@Z 10057a00 f   KProtocolProcess.obj
 0001:00056ad0       ?SyncObjectTrap@KProtocolProcess@@AAEXPAE@Z 10057ad0 f   KProtocolProcess.obj
 0001:00056b70       ?SyncPlayer@KProtocolProcess@@AAEXPAE@Z 10057b70 f   KProtocolProcess.obj
 0001:00056d60       ?SyncPlayerMin@KProtocolProcess@@AAEXPAE@Z 10057d60 f   KProtocolProcess.obj
 0001:00056f50       ?SyncScriptAction@KProtocolProcess@@AAEXPAE@Z 10057f50 f   KProtocolProcess.obj
 0001:00056f70       ?SyncWorld@KProtocolProcess@@AAEXPAE@Z 10057f70 f   KProtocolProcess.obj
 0001:00057010       ?s2cChatDeleteFriend@KProtocolProcess@@AAEXPAE@Z 10058010 f   KProtocolProcess.obj
 0001:00057100       ?s2cChatFriendOffLine@KProtocolProcess@@AAEXPAE@Z 10058100 f   KProtocolProcess.obj
 0001:00057120       ?s2cSyncAllSkill@KProtocolProcess@@AAEXPAE@Z 10058120 f   KProtocolProcess.obj
 0001:000571e0       ?SyncEnd@KProtocolProcess@@AAEXPAE@Z 100581e0 f   KProtocolProcess.obj
 0001:00057290       ?s2cTradeChangeState@KProtocolProcess@@AAEXPAE@Z 10058290 f   KProtocolProcess.obj
 0001:000572b0       ?s2cNpcSetMenuState@KProtocolProcess@@AAEXPAE@Z 100582b0 f   KProtocolProcess.obj
 0001:00057410       ?s2cTradeMoneySync@KProtocolProcess@@AAEXPAE@Z 10058410 f   KProtocolProcess.obj
 0001:00057430       ?s2cTradeDecision@KProtocolProcess@@AAEXPAE@Z 10058430 f   KProtocolProcess.obj
 0001:00057450       ?s2cUpdateNpcState@KProtocolProcess@@AAEXPAE@Z 10058450 f   KProtocolProcess.obj
 0001:000574b0       ?s2cTeamInviteAdd@KProtocolProcess@@AAEXPAE@Z 100584b0 f   KProtocolProcess.obj
 0001:000574d0       ?s2cTradePressOkSync@KProtocolProcess@@AAEXPAE@Z 100584d0 f   KProtocolProcess.obj
 0001:00057500       ?s2cDirectlyCastSkill@KProtocolProcess@@AAEXPAE@Z 10058500 f   KProtocolProcess.obj
 0001:000575f0       ?s2cShowMsg@KProtocolProcess@@AAEXPAE@Z 100585f0 f   KProtocolProcess.obj
 0001:00058540       ?SyncStateEffect@KProtocolProcess@@AAEXPAE@Z 10059540 f   KProtocolProcess.obj
 0001:000585d0       ?s2cTradeApplyStart@KProtocolProcess@@AAEXPAE@Z 100595d0 f   KProtocolProcess.obj
 0001:000585f0       ?s2cItemAutoMove@KProtocolProcess@@AAEXPAE@Z 100595f0 f   KProtocolProcess.obj
 0001:00058650       ?FinishedItemExchange@KProtocolProcess@@AAEXPAE@Z 10059650 f   KProtocolProcess.obj
 0001:00058660       ?s2cExtend@KProtocolProcess@@AAEXPAE@Z 10059660 f   KProtocolProcess.obj
 0001:00058690       ?s2cExtendChat@KProtocolProcess@@AAEXPAE@Z 10059690 f   KProtocolProcess.obj
 0001:000587b0       ?s2cExtendFriend@KProtocolProcess@@AAEXPAE@Z 100597b0 f   KProtocolProcess.obj
 0001:00058d60       ?s2cExtendTong@KProtocolProcess@@AAEXPAE@Z 10059d60 f   KProtocolProcess.obj
 0001:00059750       ?s2cChangeWeather@KProtocolProcess@@AAEXPAE@Z 1005a750 f   KProtocolProcess.obj
 0001:00059770       ?s2cPKSyncNormalFlag@KProtocolProcess@@AAEXPAE@Z 1005a770 f   KProtocolProcess.obj
 0001:00059790       ?s2cPKSyncEnmityState@KProtocolProcess@@AAEXPAE@Z 1005a790 f   KProtocolProcess.obj
 0001:000597f0       ?s2cPKSyncExerciseState@KProtocolProcess@@AAEXPAE@Z 1005a7f0 f   KProtocolProcess.obj
 0001:00059850       ?s2cPKValueSync@KProtocolProcess@@AAEXPAE@Z 1005a850 f   KProtocolProcess.obj
 0001:00059870       ?s2cViewEquip@KProtocolProcess@@AAEXPAE@Z 1005a870 f   KProtocolProcess.obj
 0001:00059890       ?s2cTongCreate@KProtocolProcess@@AAEXPAE@Z 1005a890 f   KProtocolProcess.obj
 0001:000598b0       ?s2cNpcGoldChange@KProtocolProcess@@AAEXPAE@Z 1005a8b0 f   KProtocolProcess.obj
 0001:00059900       ?TaskValueSync@KProtocolProcess@@AAEXPAE@Z 1005a900 f   KProtocolProcess.obj
 0001:00059940       ?s2cFindPathSync@KProtocolProcess@@AAEXPAE@Z 1005a940 f   KProtocolProcess.obj
 0001:000599b0       ?PlayerStopMove@KProtocolProcess@@AAEXPAE@Z 1005a9b0 f   KProtocolProcess.obj
 0001:00059a10       ?s2cPlayerPos@KProtocolProcess@@AAEXPAE@Z 1005aa10 f   KProtocolProcess.obj
 0001:00059a80       ?SyncPlayerRide@KProtocolProcess@@AAEXPAE@Z 1005aa80 f   KProtocolProcess.obj
 0001:00059b00       ?NetCommandBloodNo@KProtocolProcess@@AAEXPAE@Z 1005ab00 f   KProtocolProcess.obj
 0001:00059b50       ?s2cPlayerRefesh@KProtocolProcess@@AAEXPAE@Z 1005ab50 f   KProtocolProcess.obj
 0001:00059b70       ?ItemChangeInfo@KProtocolProcess@@AAEXPAE@Z 1005ab70 f   KProtocolProcess.obj
 0001:00059d10       ?s2cMaskLock@KProtocolProcess@@AAEXPAE@Z 1005ad10 f   KProtocolProcess.obj
 0001:00059d30       ?s2cViewShop@KProtocolProcess@@AAEXPAE@Z 1005ad30 f   KProtocolProcess.obj
 0001:00059d50       ?s2cPlayerAutoDoSkill@KProtocolProcess@@AAEXPAE@Z 1005ad50 f   KProtocolProcess.obj
 0001:00059dd0       ?NetCommandRandMove@KProtocolProcess@@AAEXPAE@Z 1005add0 f   KProtocolProcess.obj
 0001:00059e10       ?s2cAutoPlaySync@KProtocolProcess@@AAEXPAE@Z 1005ae10 f   KProtocolProcess.obj
 0001:00059ed0       ?s2cLockPlayerSync@KProtocolProcess@@AAEXPAE@Z 1005aed0 f   KProtocolProcess.obj
 0001:00059f00       ?s2cReposiPlayer@KProtocolProcess@@AAEXPAE@Z 1005af00 f   KProtocolProcess.obj
 0001:00059f20       ?s2cExpandboxPlayer@KProtocolProcess@@AAEXPAE@Z 1005af20 f   KProtocolProcess.obj
 0001:00059f40       ?s2cGiveBox@KProtocolProcess@@AAEXPAE@Z 1005af40 f   KProtocolProcess.obj
 0001:0005a010       ?s2cReWardBox@KProtocolProcess@@AAEXPAE@Z 1005b010 f   KProtocolProcess.obj
 0001:0005a0d0       ?s2cTimeBox@KProtocolProcess@@AAEXPAE@Z 1005b0d0 f   KProtocolProcess.obj
 0001:0005a150       ?s2cPlayerPointSync@KProtocolProcess@@AAEXPAE@Z 1005b150 f   KProtocolProcess.obj
 0001:0005a190       ?PlayerSendTopTKNew@KProtocolProcess@@AAEXPAE@Z 1005b190 f   KProtocolProcess.obj
 0001:0005a6c0       ?s2cNotification@KProtocolProcess@@AAEXPAE@Z 1005b6c0 f   KProtocolProcess.obj
 0001:0005a740       ?LadderList@KProtocolProcess@@AAEXPAE@Z 1005b740 f   KProtocolProcess.obj
 0001:0005a7b0       ?LadderResult@KProtocolProcess@@AAEXPAE@Z 1005b7b0 f   KProtocolProcess.obj
 0001:0005a8c0       ?LuaGetBit@@YAHPAUlua_State@@@Z 1005b8c0 f   ScriptFuns.obj
 0001:0005a930       ?LuaSetBit@@YAHPAUlua_State@@@Z 1005b930 f   ScriptFuns.obj
 0001:0005a9a0       ?LuaGetByte@@YAHPAUlua_State@@@Z 1005b9a0 f   ScriptFuns.obj
 0001:0005aa10       ?LuaSetByte@@YAHPAUlua_State@@@Z 1005ba10 f   ScriptFuns.obj
 0001:0005aa80       ?GetSubWorldIndex@@YAHPAUlua_State@@@Z 1005ba80 f   ScriptFuns.obj
 0001:0005aaf0       ?LuaSubWorldIDToIndex@@YAHPAUlua_State@@@Z 1005baf0 f   ScriptFuns.obj
 0001:0005ab50       ?LuaSubWorldIndexToID@@YAHPAUlua_State@@@Z 1005bb50 f   ScriptFuns.obj
 0001:0005abb0       ?LuaSelectUI@@YAHPAUlua_State@@@Z 1005bbb0 f   ScriptFuns.obj
 0001:0005af10       ?LuaSelectUI2@@YAHPAUlua_State@@@Z 1005bf10 f   ScriptFuns.obj
 0001:0005b2b0       ?LuaSendMessageInfo@@YAHPAUlua_State@@@Z 1005c2b0 f   ScriptFuns.obj
 0001:0005b3a0       ?LuaAddGlobalNews@@YAHPAUlua_State@@@Z 1005c3a0 f   ScriptFuns.obj
 0001:0005b480       ?LuaAddGlobalNewsEx@@YAHPAUlua_State@@@Z 1005c480 f   ScriptFuns.obj
 0001:0005b560       ?LuaAddLocalNews@@YAHPAUlua_State@@@Z 1005c560 f   ScriptFuns.obj
 0001:0005b640       ?LuaAddGlobalCountNews@@YAHPAUlua_State@@@Z 1005c640 f   ScriptFuns.obj
 0001:0005b750       ?LuaAddLocalCountNews@@YAHPAUlua_State@@@Z 1005c750 f   ScriptFuns.obj
 0001:0005b860       ?LuaAddGlobalTimeNews@@YAHPAUlua_State@@@Z 1005c860 f   ScriptFuns.obj
 0001:0005ba00       ?LuaAddLocalTimeNews@@YAHPAUlua_State@@@Z 1005ca00 f   ScriptFuns.obj
 0001:0005bba0       ?LuaAddNote@@YAHPAUlua_State@@@Z 1005cba0 f   ScriptFuns.obj
 0001:0005bcf0       ?LuaTalkUI@@YAHPAUlua_State@@@Z 1005ccf0 f   ScriptFuns.obj
 0001:0005bf20       ?LuaIncludeFile@@YAHPAUlua_State@@@Z 1005cf20 f   ScriptFuns.obj
 0001:0005c040       ?LuaGetTaskValue@@YAHPAUlua_State@@@Z 1005d040 f   ScriptFuns.obj
 0001:0005c0d0       ?LuaGetTempTaskValue@@YAHPAUlua_State@@@Z 1005d0d0 f   ScriptFuns.obj
 0001:0005c130       ?LuaSetTempTaskValue@@YAHPAUlua_State@@@Z 1005d130 f   ScriptFuns.obj
 0001:0005c170       ?GetPlayerIndex@@YAHPAUlua_State@@@Z 1005d170 f   ScriptFuns.obj
 0001:0005c1f0       ?GetObjIndex@@YAHPAUlua_State@@@Z 1005d1f0 f   ScriptFuns.obj
 0001:0005c250       ?LuaMessage@@YAHPAUlua_State@@@Z 1005d250 f   ScriptFuns.obj
 0001:0005c270       ?LuaPlayMusic@@YAHPAUlua_State@@@Z 1005d270 f   ScriptFuns.obj
 0001:0005c320       ?LuaFadeInMusic@@YAHPAUlua_State@@@Z 1005d320 f   ScriptFuns.obj
 0001:0005c330       ?LuaFadeOutMusic@@YAHPAUlua_State@@@Z 1005d330 f   ScriptFuns.obj
 0001:0005c340       ?LuaPlaySound@@YAHPAUlua_State@@@Z 1005d340 f   ScriptFuns.obj
 0001:0005c350       ?LuaPlaySprMovie@@YAHPAUlua_State@@@Z 1005d350 f   ScriptFuns.obj
 0001:0005c360       ?LuaExitGame@@YAHPAUlua_State@@@Z 1005d360 f   ScriptFuns.obj
 0001:0005c380       ?g_GetGameScriptFunNum@@YAHXZ 1005d380 f   ScriptFuns.obj
 0001:0005c390       ?g_GetWorldScriptFunNum@@YAHXZ 1005d390 f   ScriptFuns.obj
 0001:0005c3e0       ??0KScriptValueSet@@QAE@XZ 1005d3e0 f   KScriptValueSet.obj
 0001:0005c440       ??_EKScriptValueSet@@UAEPAXI@Z 1005d440 f i KScriptValueSet.obj
 0001:0005c440       ??_GKScriptValueSet@@UAEPAXI@Z 1005d440 f i KScriptValueSet.obj
 0001:0005c460       ??1KScriptValueSet@@UAE@XZ 1005d460 f   KScriptValueSet.obj
 0001:0005c480       ?Load@KScriptValueSet@@QAEHPAD@Z 1005d480 f   KScriptValueSet.obj
 0001:0005c730       ??_GTStringValueNode@@UAEPAXI@Z 1005d730 f i KScriptValueSet.obj
 0001:0005c730       ??_ETStringValueNode@@UAEPAXI@Z 1005d730 f i KScriptValueSet.obj
 0001:0005c750       ??1TStringValueNode@@UAE@XZ 1005d750 f i KScriptValueSet.obj
 0001:0005c760       ??_GTIntegerValueNode@@UAEPAXI@Z 1005d760 f i KScriptValueSet.obj
 0001:0005c760       ??_ETIntegerValueNode@@UAEPAXI@Z 1005d760 f i KScriptValueSet.obj
 0001:0005c780       ??1TIntegerValueNode@@UAE@XZ 1005d780 f i KScriptValueSet.obj
 0001:0005c790       ?Save@KScriptValueSet@@QAEHPAD@Z 1005d790 f   KScriptValueSet.obj
 0001:0005c880       ?SetValue@KScriptValueSet@@QAEHPAD0@Z 1005d880 f   KScriptValueSet.obj
 0001:0005c8e0       ?SetValue@KScriptValueSet@@QAEHPADH@Z 1005d8e0 f   KScriptValueSet.obj
 0001:0005c920       ?GetValue@KScriptValueSet@@QAEHPAD0@Z 1005d920 f   KScriptValueSet.obj
 0001:0005c990       ?GetValue@KScriptValueSet@@QAEHPADPAH@Z 1005d990 f   KScriptValueSet.obj
 0001:0005c9c0       ?AddValue@KScriptValueSet@@AAEXPAD0@Z 1005d9c0 f   KScriptValueSet.obj
 0001:0005ca70       ?AddValue@KScriptValueSet@@AAEXPADH@Z 1005da70 f   KScriptValueSet.obj
 0001:0005cb00       ?SearchValue@KScriptValueSet@@AAEPAVKNode@@PADH@Z 1005db00 f   KScriptValueSet.obj
 0001:0005cce0       ??M@YAHVKSortScriptNode@@0@Z 1005dce0 f   KSortScript.obj
 0001:0005ccf0       ??8@YAHVKSortScriptNode@@0@Z 1005dcf0 f   KSortScript.obj
 0001:0005cd00       ?g_IniScriptEngine@@YAKXZ  1005dd00 f   KSortScript.obj
 0001:0005cdc0       ?g_GetScript@@YAPBVKScript@@K@Z 1005ddc0 f   KSortScript.obj
 0001:0005ce50       ?g_GetScript@@YAPBVKScript@@PBD@Z 1005de50 f   KSortScript.obj
 0001:0005ce70       ?LoadScriptInDirectory@@YAXPAD0@Z 1005de70 f   KSortScript.obj
 0001:0005d2a0       ?UnLoadScript@@YAXK@Z      1005e2a0 f   KSortScript.obj
 0001:0005d390       ?ReLoadScript@@YAHPBD@Z    1005e390 f   KSortScript.obj
 0001:0005d410       ?ReLoadAllScript@@YAKXZ    1005e410 f   KSortScript.obj
 0001:0005d470       ?Insert@?$BinSTree@VKSortScriptNode@@@@QAEXABVKSortScriptNode@@@Z 1005e470 f i KSortScript.obj
 0001:0005d570       ?DeleteTree@?$BinSTree@VKSortScriptNode@@@@AAEXPAV?$TreeNode@VKSortScriptNode@@@@@Z 1005e570 f i KSortScript.obj
 0001:0005d5c0       _CoreGetShell              1005e5c0 f   CoreShell.obj
 0001:0005d5d0       ?CoreDataChanged@@YAXIIH@Z 1005e5d0 f   CoreShell.obj
 0001:0005d5f0       ?Release@KCoreShell@@UAEXXZ 1005e5f0 f   CoreShell.obj
 0001:0005d600       ?NetMsgCallbackFunc@KCoreShell@@UAEXPAX@Z 1005e600 f   CoreShell.obj
 0001:0005d620       ?SetCallDataChangedNofify@KCoreShell@@UAEHPAUIClientCallback@@@Z 1005e620 f   CoreShell.obj
 0001:0005d640       ?GetGameData@KCoreShell@@UAEHIIH@Z 1005e640 f   CoreShell.obj
 0001:00060790       ?OperationRequest@KCoreShell@@UAEHIIH@Z 10061790 f   CoreShell.obj
 0001:00062da0       ?ProcessInput@KCoreShell@@UAEXIIH@Z 10063da0 f   CoreShell.obj
 0001:00062dc0       ?FindSelectNPC@KCoreShell@@UAEHHHH_NPAXAAH@Z 10063dc0 f   CoreShell.obj
 0001:00062e70       ?FindSelectObject@KCoreShell@@UAEHHH_NAAH1@Z 10063e70 f   CoreShell.obj
 0001:00062ed0       ?FindSpecialNPC@KCoreShell@@UAEHPADPAXAAH@Z 10063ed0 f   CoreShell.obj
 0001:00062fb0       ?ChatSpecialPlayer@KCoreShell@@UAEHPAXPBDG@Z 10063fb0 f   CoreShell.obj
 0001:00063020       ?ApplyAddTeam@KCoreShell@@UAEXPAX@Z 10064020 f   CoreShell.obj
 0001:00063060       ?TradeApplyStart@KCoreShell@@UAEXPAX@Z 10064060 f   CoreShell.obj
 0001:00063090       ?UseSkill@KCoreShell@@UAEHHHHH@Z 10064090 f   CoreShell.obj
 0001:00063410       ?LockSomeoneUseSkill@KCoreShell@@UAEHHH@Z 10064410 f   CoreShell.obj
 0001:000634b0       ?LockSomeoneAction@KCoreShell@@UAEHH@Z 100644b0 f   CoreShell.obj
 0001:00063550       ?LockObjectAction@KCoreShell@@UAEHH@Z 10064550 f   CoreShell.obj
 0001:000635c0       ?GotoWhere@KCoreShell@@UAEXHHH@Z 100645c0 f   CoreShell.obj
 0001:000636d0       ?GotoWhereDirect@KCoreShell@@UAEXHHH@Z 100646d0 f   CoreShell.obj
 0001:000637c0       ?CloseToTarget@@YA_NABUFindPathNode@@0H@Z 100647c0 f   CoreShell.obj
 0001:00063820       ?AutoMove@KCoreShell@@UAEHXZ 10064820 f   CoreShell.obj
 0001:00063b60       ?Goto@KCoreShell@@UAEXHH@Z 10064b60 f   CoreShell.obj
 0001:00063c00       ?Turn@KCoreShell@@UAEXH@Z  10064c00 f   CoreShell.obj
 0001:00063c40       ?ThrowAwayItem@KCoreShell@@UAEHXZ 10064c40 f   CoreShell.obj
 0001:00063c50       ?CheckMouse@KCoreShell@@UAEHXZ 10064c50 f   CoreShell.obj
 0001:00063c60       ?GetNPCRelation@KCoreShell@@UAEHH@Z 10064c60 f   CoreShell.obj
 0001:00063c80       ?GetNPCShopState@KCoreShell@@UAEHH@Z 10064c80 f   CoreShell.obj
 0001:00063cb0       ?DrawGameObj@KCoreShell@@UAEXIIHHHHH@Z 10064cb0 f   CoreShell.obj
 0001:00063cf0       ?DrawGameSpace@KCoreShell@@UAEXXZ 10064cf0 f   CoreShell.obj
 0001:00063d10       ?SetRepresentShell@KCoreShell@@UAEXPAUiRepresentShell@@@Z 10064d10 f   CoreShell.obj
 0001:00063d50       ?SetMusicInterface@KCoreShell@@UAEXPAX@Z 10064d50 f   CoreShell.obj
 0001:00063d70       ?Breathe@KCoreShell@@UAEHXZ 10064d70 f   CoreShell.obj
 0001:00063da0       ?GetProtocolSize@KCoreShell@@UAEHE@Z 10064da0 f   CoreShell.obj
 0001:00063dd0       ?Debug@KCoreShell@@UAEHIIH@Z 10064dd0 f   CoreShell.obj
 0001:00063de0       ?GetPing@KCoreShell@@UAEKXZ 10064de0 f   CoreShell.obj
 0001:00063df0       ?SetRepresentAreaSize@KCoreShell@@UAEXHH@Z 10064df0 f   CoreShell.obj
 0001:00063e10       ?SetClient@KCoreShell@@UAEXPAX@Z 10064e10 f   CoreShell.obj
 0001:00063e20       ?SendNewDataToServer@KCoreShell@@UAEXPAXH@Z 10064e20 f   CoreShell.obj
 0001:00063e50       ?SystemMessages@KCoreShell@@UAEHIIH@Z 10064e50 f   CoreShell.obj
 0001:00063f40       ?SceneMapOperation@KCoreShell@@UAEHIIH@Z 10064f40 f   CoreShell.obj
 0001:00064060       ?TongOperation@KCoreShell@@UAEHIIH@Z 10065060 f   CoreShell.obj
 0001:00064480       ?TeamOperation@KCoreShell@@UAEHIIH@Z 10065480 f   CoreShell.obj
 0001:00064740       ?CanGetSkill@KCoreShell@@UAEHH@Z 10065740 f   CoreShell.obj
 0001:000647b0       ?PAIOperation@KCoreShell@@UAEHIIHH@Z 100657b0 f   CoreShell.obj
 0001:00064fe0       ?GetAutoFlag@KCoreShell@@UAEHXZ 10065fe0 f   CoreShell.obj
 0001:00064ff0       ?GetSpaceFlag@KCoreShell@@UAEHXZ 10065ff0 f   CoreShell.obj
 0001:00065000       ?FindSkillInfo@KCoreShell@@UAEHHH@Z 10066000 f   CoreShell.obj
 0001:000650d0       ?GetSkillName@KCoreShell@@UAEXHPAD@Z 100660d0 f   CoreShell.obj
 0001:00065140       ?SetMoveMap@KCoreShell@@UAEXHHH@Z 10066140 f   CoreShell.obj
 0001:000651c0       ?SetSortItem@KCoreShell@@UAEXHHH@Z 100661c0 f   CoreShell.obj
 0001:00065210       ?GetGenreItem@KCoreShell@@UAEHII@Z 10066210 f   CoreShell.obj
 0001:00065280       ?GetStatusLockPlayer@KCoreShell@@UAE?AUtagPOINT@@XZ 10066280 f   CoreShell.obj
 0001:000652a0       ?GetLixian@KCoreShell@@UAEHXZ 100662a0 f   CoreShell.obj
 0001:00065370       ?GetPaintFindPos@KCoreShell@@UAEHXZ 10066370 f   CoreShell.obj
 0001:00065380       ?SetPaintFindPos@KCoreShell@@UAEXH@Z 10066380 f   CoreShell.obj
 0001:000653a0       ?SceneMapFindPosOperation@KCoreShell@@UAEHIIH_N0@Z 100663a0 f   CoreShell.obj
 0001:000653d0       ?GetGenreItem@KCoreShell@@QAEHI@Z 100663d0 f   CoreShell.obj
 0001:000653f0       ?GetDetailItem@KCoreShell@@UAEHI@Z 100663f0 f   CoreShell.obj
 0001:00065410       ?GetParticularItem@KCoreShell@@UAEHI@Z 10066410 f   CoreShell.obj
 0001:00065430       ?GetLevelItem@KCoreShell@@UAEHI@Z 10066430 f   CoreShell.obj
 0001:00065450       ?GetSeriesItem@KCoreShell@@UAEHI@Z 10066450 f   CoreShell.obj
 0001:00065470       ?GetNumStack@KCoreShell@@UAEHI@Z 10066470 f   CoreShell.obj
 0001:00065490       ??0KIpotBranch@@QAE@XZ     10066490 f   KIpotBranch.obj
 0001:000654c0       ??1KIpotBranch@@QAE@XZ     100664c0 f   KIpotBranch.obj
 0001:000654d0       ?EnumerateObjects@KIpotBranch@@QAEXPAXP6AX0PAUKIpotLeaf@@@Z@Z 100664d0 f   KIpotBranch.obj
 0001:00065560       ?PaintObjectLayer@KIpotBranch@@QAEXPAUtagRECT@@@Z 10066560 f   KIpotBranch.obj
 0001:000655e0       ?PaintABranchObject@KIpotBranch@@ABEXPAUKIpotBuildinObj@@PAUtagRECT@@@Z 100665e0 f   KIpotBranch.obj
 0001:000658d0       ?PaintNoneObjectLayer@KIpotBranch@@QAEXPAUtagRECT@@H@Z 100668d0 f   KIpotBranch.obj
 0001:00065930       ?RemoveAllRtoLeafs@KIpotBranch@@QAEXPAUKIpotLeaf@@@Z 10066930 f   KIpotBranch.obj
 0001:00065980       ?AddAObject@KIpotBranch@@QAEXPAUKIpotBuildinObj@@@Z 10066980 f   KIpotBranch.obj
 0001:00065a40       ?AddBranch@KIpotBranch@@QAEXPAUKIpotBuildinObj@@@Z 10066a40 f   KIpotBranch.obj
 0001:00065b60       ?AddSubBranch@KIpotBranch@@AAEXHPAUKIpotBuildinObj@@@Z 10066b60 f   KIpotBranch.obj
 0001:00065be0       ?Clear@KIpotBranch@@QAEXXZ 10066be0 f   KIpotBranch.obj
 0001:00065cb0       ?SetLine@KIpotBranch@@QAEXPAUtagPOINT@@0@Z 10066cb0 f   KIpotBranch.obj
 0001:00065ce0       ?AddLeafLine@KIpotBranch@@QAEXPAUKIpotBuildinObj@@@Z 10066ce0 f   KIpotBranch.obj
 0001:00065d60       ?AddLeafPoint@KIpotBranch@@QAEXPAUKIpotLeaf@@@Z 10066d60 f   KIpotBranch.obj
 0001:00065dd0       ?AddPointLeafToList@KIpotBranch@@AAEXAAPAUKIpotLeaf@@PAU2@1@Z 10066dd0 f   KIpotBranch.obj
 0001:00065fe0       ?AddLineLeafToList@KIpotBranch@@AAEXAAPAUKIpotLeaf@@PAUKIpotBuildinObj@@@Z 10066fe0 f   KIpotBranch.obj
 0001:00066180       ?Pluck@KIpotRuntimeObj@@QAEXXZ 10067180 f   KIpotLeaf.obj
 0001:000661f0       ?KIpotLeaf_EnumerateObjects@@YAXPAUKIpotLeaf@@PAXP6AX10@Z@Z 100671f0 f   KIpotLeaf.obj
 0001:00066240       ?KIpotLeaf_PaintObjectLayer@@YAXPAUKIpotLeaf@@PAUtagRECT@@@Z 10067240 f   KIpotLeaf.obj
 0001:000662d0       ?KIpotLeaf_PaintNoneObjectLayer@@YAXPAUKIpotLeaf@@PAUtagRECT@@H@Z 100672d0 f   KIpotLeaf.obj
 0001:00066360       ?PaintABuildinObject@KIpotBuildinObj@@QAEXPAUtagRECT@@@Z 10067360 f   KIpotLeaf.obj
 0001:00066580       ?KIpotLeaf_RemoveAllRtoLeafs@@YAXPAUKIpotLeaf@@0@Z 10067580 f   KIpotLeaf.obj
 0001:000665e0       ?KIpotLeaf_Clear@@YAXPAUKIpotLeaf@@@Z 100675e0 f   KIpotLeaf.obj
 0001:00066630       ?Clone@KIpotBuildinObj@@QAEPAU1@PAUtagPOINT@@@Z 10067630 f   KIpotLeaf.obj
 0001:000666c0       ?BuildinObjNextFrame@@YAXPAUKBuildinObj@@@Z 100676c0 f   KIpotLeaf.obj
 0001:00066790       ??0KSelfBreathLight@@QAE@XZ 10067790 f   KIpoTree.obj
 0001:000667b0       ?Breath@KSelfBreathLight@@UAEXXZ 100677b0 f   KIpoTree.obj
 0001:00066870       ??0KIpoTree@@QAE@XZ        10067870 f   KIpoTree.obj
 0001:00066960       ??1KIpoTree@@QAE@XZ        10067960 f   KIpoTree.obj
 0001:00066a50       ?Paint@KIpoTree@@QAEXPAUtagRECT@@W4IPOT_RENDER_LAYER@@@Z 10067a50 f   KIpoTree.obj
 0001:00066ae0       ?Breathe@KIpoTree@@QAEXXZ  10067ae0 f   KIpoTree.obj
 0001:00066b10       ?Clear@KIpoTree@@QAEXXZ    10067b10 f   KIpoTree.obj
 0001:00066bb0       ?RemoveRtoGroupWithPermanentLeaf@KIpoTree@@AAEXXZ 10067bb0 f   KIpoTree.obj
 0001:00066bd0       ?AddBranch@KIpoTree@@QAEXPAUKIpotBuildinObj@@@Z 10067bd0 f   KIpoTree.obj
 0001:00066c60       ?Fell@KIpoTree@@QAEXXZ     10067c60 f   KIpoTree.obj
 0001:00066d00       ?AddLeafLine@KIpoTree@@QAEXPAUKIpotBuildinObj@@@Z 10067d00 f   KIpoTree.obj
 0001:00066d30       ?AddLeafPoint@KIpoTree@@QAEXPAUKIpotLeaf@@@Z 10067d30 f   KIpoTree.obj
 0001:00066f10       ?Breath@KLightBase@@UAEXXZ 10067f10 f i KIpoTree.obj
 0001:00066f20       ?PluckRto@KIpoTree@@QAEXPAUKIpotRuntimeObj@@@Z 10067f20 f   KIpoTree.obj
 0001:00066f90       ?SetPermanentBranchPos@KIpoTree@@QAEXHHH@Z 10067f90 f   KIpoTree.obj
 0001:00066ff0       ?StrewRtoLeafs@KIpoTree@@QAEXAAUtagRECT@@@Z 10067ff0 f   KIpoTree.obj
 0001:00067080       ?ObjectsCallback@KIpoTree@@CAXPAXPAUKIpotLeaf@@@Z 10068080 f   KIpoTree.obj
 0001:00067150       ?FillLineObstacle@KIpoTree@@AAEXHHHHH@Z 10068150 f   KIpoTree.obj
 0001:00067530       ?RenderLightMap@KIpoTree@@QAEXXZ 10068530 f   KIpoTree.obj
 0001:00067d10       ?CanLighting@KIpoTree@@AAE_NHHHH@Z 10068d10 f   KIpoTree.obj
 0001:00067f80       ?AddBuildinLight@KIpoTree@@QAEXPAUKBuildInLightInfo@@H@Z 10068f80 f   KIpoTree.obj
 0001:000680c0       ?EnableBioLights@KIpoTree@@QAEX_N@Z 100690c0 f   KIpoTree.obj
 0001:00068130       ?EnableDynamicLights@KIpoTree@@QAEX_N@Z 10069130 f   KIpoTree.obj
 0001:00068140       ??1?$list@PAVKLightBase@@V?$allocator@PAVKLightBase@@@std@@@std@@QAE@XZ 10069140 f i KIpoTree.obj
 0001:000681d0       ?ChaZhiColor@@YAKAAUKLColor@@0M@Z 100691d0 f   KScenePlaceC.obj
 0001:000682b0       ??0EnvironmentLight@@QAE@XZ 100692b0 f   KScenePlaceC.obj
 0001:00068350       ?SetLight@EnvironmentLight@@QAEXABUKLColor@@H@Z 10069350 f   KScenePlaceC.obj
 0001:00068370       ?SetLight@EnvironmentLight@@QAEXEEEH@Z 10069370 f   KScenePlaceC.obj
 0001:000683a0       ?SetLight@EnvironmentLight@@QAEXPAUKLColor@@@Z 100693a0 f   KScenePlaceC.obj
 0001:000683d0       ?GetEnvironmentLight@EnvironmentLight@@QAEKH@Z 100693d0 f   KScenePlaceC.obj
 0001:00068610       ??0KScenePlaceC@@QAE@XZ    10069610 f   KScenePlaceC.obj
 0001:000687c0       ??1KScenePlaceC@@QAE@XZ    100697c0 f   KScenePlaceC.obj
 0001:00068840       ?ClosePlace@KScenePlaceC@@QAEXXZ 10069840 f   KScenePlaceC.obj
 0001:00068960       ?Initialize@KScenePlaceC@@QAE_NXZ 10069960 f   KScenePlaceC.obj
 0001:00068a20       ?CalcFlagPos@KScenePlaceC@@QAEXHH_N0@Z 10069a20 f   KScenePlaceC.obj
 0001:00068a50       ?OpenPlace@KScenePlaceC@@QAE_NH@Z 10069a50 f   KScenePlaceC.obj
 0001:00069180       ?SetFocusPosition@KScenePlaceC@@QAEXHHH@Z 1006a180 f   KScenePlaceC.obj
 0001:00069460       ?SetRepresentAreaSize@KScenePlaceC@@QAEXHH@Z 1006a460 f   KScenePlaceC.obj
 0001:000694c0       ?GetFocusPosition@KScenePlaceC@@QAEXAAH00@Z 1006a4c0 f   KScenePlaceC.obj
 0001:000694e0       ?Terminate@KScenePlaceC@@QAEXXZ 1006a4e0 f   KScenePlaceC.obj
 0001:000695e0       ?PreLoadProcess@KScenePlaceC@@AAEXXZ 1006a5e0 f   KScenePlaceC.obj
 0001:000697a0       ?LoadProcess@KScenePlaceC@@AAEXXZ 1006a7a0 f   KScenePlaceC.obj
 0001:00069850       ?LoadThreadEntrance@KScenePlaceC@@CGKPAX@Z 1006a850 f   KScenePlaceC.obj
 0001:00069870       ?SetRegionsToLoad@KScenePlaceC@@AAEXXZ 1006a870 f   KScenePlaceC.obj
 0001:00069ba0       ?AddObject@KScenePlaceC@@QAEIIHHHHH@Z 1006aba0 f   KScenePlaceC.obj
 0001:00069c70       ?MoveObject@KScenePlaceC@@QAEIIHHHHAAIH@Z 1006ac70 f   KScenePlaceC.obj
 0001:00069db0       ?RemoveObject@KScenePlaceC@@QAEXIHAAI@Z 1006adb0 f   KScenePlaceC.obj
 0001:00069e00       ?Breathe@KScenePlaceC@@QAEXXZ 1006ae00 f   KScenePlaceC.obj
 0001:00069ec0       ?Paint@KScenePlaceC@@QAEXXZ 1006aec0 f   KScenePlaceC.obj
 0001:0006a030       ?ChangeLoadArea@KScenePlaceC@@AAEXXZ 1006b030 f   KScenePlaceC.obj
 0001:0006a040       ?ChangeProcessArea@KScenePlaceC@@AAEXXZ 1006b040 f   KScenePlaceC.obj
 0001:0006a180       ?PrerenderGround@KScenePlaceC@@AAEX_N@Z 1006b180 f   KScenePlaceC.obj
 0001:0006a1d0       ?Preprocess@KScenePlaceC@@AAEXXZ 1006b1d0 f   KScenePlaceC.obj
 0001:0006a8f0       ??_ETreeObjSet@?BH@??Preprocess@KScenePlaceC@@AAEXXZ@UAEPAXI@Z 1006b8f0 f i KScenePlaceC.obj
 0001:0006a950       ??1TreeObjSet@?BH@??Preprocess@KScenePlaceC@@AAEXXZ@UAE@XZ 1006b950 f i KScenePlaceC.obj
 0001:0006a960       ?ClearPreprocess@KScenePlaceC@@AAEXH@Z 1006b960 f   KScenePlaceC.obj
 0001:0006a9d0       ?ProjectDistToSpaceDist@KScenePlaceC@@QAEXAAH0@Z 1006b9d0 f   KScenePlaceC.obj
 0001:0006a9e0       ?ViewPortCoordToSpaceCoord@KScenePlaceC@@QAEXAAH0H@Z 1006b9e0 f   KScenePlaceC.obj
 0001:0006aa50       ?GetRegionLeftTopPos@KScenePlaceC@@QAEXHHAAH0@Z 1006ba50 f   KScenePlaceC.obj
 0001:0006aa70       ?ARegionLoaded@KScenePlaceC@@AAEXPAVKScenePlaceRegionC@@@Z 1006ba70 f   KScenePlaceC.obj
 0001:0006ac50       ?GetFreeGroundImage@KScenePlaceC@@AAEPAUKRUImage@@XZ 1006bc50 f   KScenePlaceC.obj
 0001:0006ac90       ?GetObstacleInfo@KScenePlaceC@@QAEJHH@Z 1006bc90 f   KScenePlaceC.obj
 0001:0006ad10       ?GetObstacleInfoMin@KScenePlaceC@@QAEJHHHH@Z 1006bd10 f   KScenePlaceC.obj
 0001:0006ad90       ?RepresentShellReset@KScenePlaceC@@QAEXXZ 1006bd90 f   KScenePlaceC.obj
 0001:0006add0       ?SetRegionLoadedCallback@KScenePlaceC@@QAEXP6AXHH@Z@Z 1006bdd0 f   KScenePlaceC.obj
 0001:0006ade0       ?SetHightLightSpecialObject@KScenePlaceC@@QAEXHHH@Z 1006bde0 f   KScenePlaceC.obj
 0001:0006aea0       ?UnsetHightLightSpecialObject@KScenePlaceC@@QAEXXZ 1006bea0 f   KScenePlaceC.obj
 0001:0006af10       ?GetLoadedRegion@KScenePlaceC@@AAEPAVKScenePlaceRegionC@@HH@Z 1006bf10 f   KScenePlaceC.obj
 0001:0006afb0       ?GetSceneNameAndFocus@KScenePlaceC@@QAEXPADAAH11@Z 1006bfb0 f   KScenePlaceC.obj
 0001:0006b010       ?GetSceneCalgFlagPos@KScenePlaceC@@QAEXAAH0@Z 1006c010 f   KScenePlaceC.obj
 0001:0006b040       ?SetAmbient@KScenePlaceC@@QAEXK@Z 1006c040 f   KScenePlaceC.obj
 0001:0006b050       ?SetCurrentTime@KScenePlaceC@@QAEXK@Z 1006c050 f   KScenePlaceC.obj
 0001:0006b080       ?SetEnvironmentLight@KScenePlaceC@@QAEXHEEE@Z 1006c080 f   KScenePlaceC.obj
 0001:0006b0b0       ?EnableBioLights@KScenePlaceC@@QAEX_N@Z 1006c0b0 f   KScenePlaceC.obj
 0001:0006b0d0       ?EnableDynamicLights@KScenePlaceC@@QAEX_N@Z 1006c0d0 f   KScenePlaceC.obj
 0001:0006b0f0       ?ChangeWeather@KScenePlaceC@@QAEXH@Z 1006c0f0 f   KScenePlaceC.obj
 0001:0006b1c0       ?EnableWeather@KScenePlaceC@@QAEXH@Z 1006c1c0 f   KScenePlaceC.obj
 0001:0006b200       ?SetLoadingStatus@KScenePlaceC@@AAEX_N@Z 1006c200 f   KScenePlaceC.obj
 0001:0006b250       ?PaintMap@KScenePlaceC@@QAEXHH@Z 1006c250 f   KScenePlaceC.obj
 0001:0006b270       ?SetMapParam@KScenePlaceC@@QAEXIH@Z 1006c270 f   KScenePlaceC.obj
 0001:0006b2b0       ?SetMapFocusPositionOffset@KScenePlaceC@@QAEXHH@Z 1006c2b0 f   KScenePlaceC.obj
 0001:0006b310       ?GetMapInfo@KScenePlaceC@@QAEHPAUKSceneMapInfo@@@Z 1006c310 f   KScenePlaceC.obj
 0001:0006b3e0       ?FollowMapMove@KScenePlaceC@@QAEXH@Z 1006c3e0 f   KScenePlaceC.obj
 0001:0006b460       ?LoadIni@KScenePlaceC@@QAEXPAVKIniFile@@@Z 1006c460 f   KScenePlaceC.obj
 0001:0006b900       ?PaintOverCloud@KScenePlaceC@@QAEXXZ 1006c900 f   KScenePlaceC.obj
 0001:0006b9b0       ?PaintBackGroundCloud@KScenePlaceC@@QAEXXZ 1006c9b0 f   KScenePlaceC.obj
 0001:0006ba40       ?GetLittleMap@KScenePlaceC@@QAEPAVKLittleMap@@XZ 1006ca40 f   KScenePlaceC.obj
 0001:0006ba50       ?GetKScenePlaceMapC@KScenePlaceC@@QAEPAVKScenePlaceMapC@@XZ 1006ca50 f   KScenePlaceC.obj
 0001:0006ba60       ?JxPathFinderClear@KScenePlaceC@@QAEXXZ 1006ca60 f   KScenePlaceC.obj
 0001:0006ba70       ??0KScenePlaceRegionC@@QAE@XZ 1006ca70 f   KScenePlaceRegionC.obj
 0001:0006bac0       ??1KScenePlaceRegionC@@QAE@XZ 1006cac0 f   KScenePlaceRegionC.obj
 0001:0006bad0       ?GetRegionIndex@KScenePlaceRegionC@@QBEXAAH0@Z 1006cad0 f   KScenePlaceRegionC.obj
 0001:0006baf0       ?ToLoad@KScenePlaceRegionC@@QAE_NHH@Z 1006caf0 f   KScenePlaceRegionC.obj
 0001:0006bb20       ?Load@KScenePlaceRegionC@@QAE_NPBD@Z 1006cb20 f   KScenePlaceRegionC.obj
 0001:0006be40       ?Clear@KScenePlaceRegionC@@QAEXXZ 1006ce40 f   KScenePlaceRegionC.obj
 0001:0006bed0       ?PrerenderGround@KScenePlaceRegionC@@QAE_N_N@Z 1006ced0 f   KScenePlaceRegionC.obj
 0001:0006c170       ?SetNestRegion@KScenePlaceRegionC@@QAEXPAV1@@Z 1006d170 f   KScenePlaceRegionC.obj
 0001:0006c2e0       ?LoadGroundLayer@KScenePlaceRegionC@@AAE_NPAVKPakFile@@I@Z 1006d2e0 f   KScenePlaceRegionC.obj
 0001:0006c3d0       ?AddGrundCoverObj@KScenePlaceRegionC@@AAEXPAUKSPRCoverGroundObj@@@Z 1006d3d0 f   KScenePlaceRegionC.obj
 0001:0006c4f0       ?LoadObstacle@KScenePlaceRegionC@@AAEXPAVKPakFile@@I@Z 1006d4f0 f   KScenePlaceRegionC.obj
 0001:0006c530       ?LoadTrap@KScenePlaceRegionC@@AAEXPAVKPakFile@@I@Z 1006d530 f   KScenePlaceRegionC.obj
 0001:0006c600       ?LoadAboveGroundObjects@KScenePlaceRegionC@@AAE_NPAVKPakFile@@I@Z 1006d600 f   KScenePlaceRegionC.obj
 0001:0006c770       ?PaintGroundDirect@KScenePlaceRegionC@@QAEXXZ 1006d770 f   KScenePlaceRegionC.obj
 0001:0006cb90       ?PaintOverCloud@KScenePlaceRegionC@@QAEXXZ 1006db90 f   KScenePlaceRegionC.obj
 0001:0006cee0       ?PaintOverCloud_up@KScenePlaceRegionC@@QAEXXZ 1006dee0 f   KScenePlaceRegionC.obj
 0001:0006cfd0       ?PaintGround@KScenePlaceRegionC@@QAEX_N@Z 1006dfd0 f   KScenePlaceRegionC.obj
 0001:0006d000       ?PaintAboveHeadObj@KScenePlaceRegionC@@SAXPAUKBuildinObj@@PAUtagRECT@@@Z 1006e000 f   KScenePlaceRegionC.obj
 0001:0006d1b0       ?GetAboveHeadLayer@KScenePlaceRegionC@@QAEIAAPAUKBuildinObj@@@Z 1006e1b0 f   KScenePlaceRegionC.obj
 0001:0006d1f0       ?GetBuildinLights@KScenePlaceRegionC@@QAEIAAPAUKBuildInLightInfo@@@Z 1006e1f0 f   KScenePlaceRegionC.obj
 0001:0006d210       ?GetBuildinObjs@KScenePlaceRegionC@@QAEXAAPAUKIpotBuildinObj@@AAI0101@Z 1006e210 f   KScenePlaceRegionC.obj
 0001:0006d2c0       ?GetBIOSBuildinObjs@KScenePlaceRegionC@@QAEXAAPAUKBuildinObj@@AAI@Z 1006e2c0 f   KScenePlaceRegionC.obj
 0001:0006d2f0       ?LeaveProcessArea@KScenePlaceRegionC@@QAEXXZ 1006e2f0 f   KScenePlaceRegionC.obj
 0001:0006d320       ?EnterProcessArea@KScenePlaceRegionC@@QAEXPAUKRUImage@@@Z 1006e320 f   KScenePlaceRegionC.obj
 0001:0006d4d0       ?GetObstacleInfo@KScenePlaceRegionC@@QAEJHH@Z 1006e4d0 f   KScenePlaceRegionC.obj
 0001:0006d570       ?GetObstacleInfoMin@KScenePlaceRegionC@@QAEJHHHH@Z 1006e570 f   KScenePlaceRegionC.obj
 0001:0006d630       ?SetHightLightSpecialObject@KScenePlaceRegionC@@QAEXI@Z 1006e630 f   KScenePlaceRegionC.obj
 0001:0006d660       ?UnsetHightLightSpecialObject@KScenePlaceRegionC@@QAEXI@Z 1006e660 f   KScenePlaceRegionC.obj
 0001:0006d690       ??0KWeather@@QAE@XZ        1006e690 f   KWeather.obj
 0001:0006d6f0       ?FilterAmbient@KWeather@@UAEXAAK@Z 1006e6f0 f i KWeather.obj
 0001:0006d700       ??_GKWeather@@UAEPAXI@Z    1006e700 f i KWeather.obj
 0001:0006d700       ??_EKWeather@@UAEPAXI@Z    1006e700 f i KWeather.obj
 0001:0006d720       ??1KWeather@@UAE@XZ        1006e720 f   KWeather.obj
 0001:0006d7d0       ?Breath@KWeather@@UAEXXZ   1006e7d0 f   KWeather.obj
 0001:0006d7f0       ??0KWeatherRain@@QAE@XZ    1006e7f0 f   KWeather.obj
 0001:0006d890       ?IsShutDown@KWeatherRain@@UAE_NXZ 1006e890 f i KWeather.obj
 0001:0006d8a0       ??_GKWeatherRain@@UAEPAXI@Z 1006e8a0 f i KWeather.obj
 0001:0006d8a0       ??_EKWeatherRain@@UAEPAXI@Z 1006e8a0 f i KWeather.obj
 0001:0006d8c0       ??1KWeatherRain@@UAE@XZ    1006e8c0 f   KWeather.obj
 0001:0006d930       ?ReadInfoFromIniFile@KWeatherRain@@UAE_NH@Z 1006e930 f   KWeather.obj
 0001:0006dbe0       ?Breath@KWeatherRain@@UAEXXZ 1006ebe0 f   KWeather.obj
 0001:0006e030       ?Render@KWeatherRain@@UAEXPAUiRepresentShell@@@Z 1006f030 f   KWeather.obj
 0001:0006e150       ?FilterAmbient@KWeatherRain@@UAEXAAK@Z 1006f150 f   KWeather.obj
 0001:0006e250       ?ReadInfoFromIniFile@KWeatherSnow@@UAE_NH@Z 1006f250 f   KWeather.obj
 0001:0006e3b0       ?Breath@KWeatherSnow@@UAEXXZ 1006f3b0 f   KWeather.obj
 0001:0006e580       ?Render@KWeatherSnow@@UAEXPAUiRepresentShell@@@Z 1006f580 f   KWeather.obj
 0001:0006e660       ??Eiterator@?$list@UKParticle@@V?$allocator@UKParticle@@@std@@@std@@QAE?AV012@H@Z 1006f660 f i KWeather.obj
 0001:0006e670       ?insert@?$list@UKParticle@@V?$allocator@UKParticle@@@std@@@std@@QAE?AViterator@12@V312@ABUKParticle@@@Z 1006f670 f i KWeather.obj
 0001:0006e6d0       ?SM_IsPointOnLine@@YAHAAUtagPOINT@@0U1@@Z 1006f6d0 f   SceneMath.obj
 0001:0006e740       ?SM_Distance_PointLine@@YAHABUtagPOINT@@00@Z 1006f740 f   SceneMath.obj
 0001:0006e7b0       ?SM_Relation_PointLine@@YA?AW4RELATION_ENUM@@ABUtagPOINT@@00@Z 1006f7b0 f   SceneMath.obj
 0001:0006e850       ?SM_Relation_PointLine_New@@YA?AW4RELATION_ENUM@@ABUtagPOINT@@00@Z 1006f850 f   SceneMath.obj
 0001:0006e920       ?SM_Relation_LineLine_CheckCut@@YA?AW4RELATION_ENUM@@ABUtagPOINT@@000AAU2@@Z 1006f920 f   SceneMath.obj
 0001:0006eaa0       ?SM_GetPointFromFloatSting32@@YAXPADAAM11@Z 1006faa0 f   SceneMath.obj
 0001:0006eb90       ?ChangeFileName@@YAXPAD0@Z 1006fb90 f   SceneMath.obj
 0001:0006ebf0       ??0KScenePlaceMapC@@QAE@XZ 1006fbf0 f   ScenePlaceMapC.obj
 0001:0006ed00       ??1KScenePlaceMapC@@QAE@XZ 1006fd00 f   ScenePlaceMapC.obj
 0001:0006edd0       ?Initialize@KScenePlaceMapC@@AAE_NXZ 1006fdd0 f   ScenePlaceMapC.obj
 0001:0006ef90       ?Terminate@KScenePlaceMapC@@QAEXXZ 1006ff90 f   ScenePlaceMapC.obj
 0001:0006eff0       ?SetShowElemsFlag@KScenePlaceMapC@@QAEXI@Z 1006fff0 f   ScenePlaceMapC.obj
 0001:0006f020       ?Load@KScenePlaceMapC@@QAEHPAVKIniFile@@PBD@Z 10070020 f   ScenePlaceMapC.obj
 0001:0006f210       ?SetFocusPosition@KScenePlaceMapC@@QAEXHH_N@Z 10070210 f   ScenePlaceMapC.obj
 0001:0006f360       ?FillCellsPicInfo@KScenePlaceMapC@@AAEXXZ 10070360 f   ScenePlaceMapC.obj
 0001:0006f720       ?CalcPicLayout@KScenePlaceMapC@@AAEXXZ 10070720 f   ScenePlaceMapC.obj
 0001:0006f7f0       ?Free@KScenePlaceMapC@@QAEXXZ 100707f0 f   ScenePlaceMapC.obj
 0001:0006f820       ?PaintMap@KScenePlaceMapC@@QAEXHH@Z 10070820 f   ScenePlaceMapC.obj
 0001:0006fb40       ?PaintAutoPath@KScenePlaceMapC@@AAEXHH@Z 10070b40 f   ScenePlaceMapC.obj
 0001:0006fc80       ?PaintCharacters@KScenePlaceMapC@@AAEXHH@Z 10070c80 f   ScenePlaceMapC.obj
 0001:00070220       ?PaintMapPic@KScenePlaceMapC@@AAEXHH@Z 10071220 f   ScenePlaceMapC.obj
 0001:00070400       ?SetSize@KScenePlaceMapC@@QAEXHH@Z 10071400 f   ScenePlaceMapC.obj
 0001:000704f0       ?GetMapRect@KScenePlaceMapC@@QAEHPAUtagRECT@@@Z 100714f0 f   ScenePlaceMapC.obj
 0001:00070560       ?PaintFindPos@KScenePlaceMapC@@QAEXHHHH@Z 10071560 f   ScenePlaceMapC.obj
 0001:00070820       ?CalcFlagPos@KScenePlaceMapC@@QAEXHH_N0@Z 10071820 f   ScenePlaceMapC.obj
 0001:000708d0       ?PaintMapPointNpc@KScenePlaceMapC@@AAEXHH@Z 100718d0 f   ScenePlaceMapC.obj
 0001:00070c90       ?AutoRunTo@KScenePlaceMapC@@QAEHHH@Z 10071c90 f   ScenePlaceMapC.obj
 0001:00070e20       ?GetbtBarrier@KScenePlaceMapC@@QAEPAEHH@Z 10071e20 f   ScenePlaceMapC.obj
 0001:00070e40       ?JxPathFinderClear@KScenePlaceMapC@@QAEHXZ 10071e40 f   ScenePlaceMapC.obj
 0001:00070ee0       ?insert@?$vector@UFindPathNode@@V?$allocator@UFindPathNode@@@std@@@std@@QAEXPAUFindPathNode@@IABU3@@Z 10071ee0 f i ScenePlaceMapC.obj
 0001:00071130       ?CoreDrawGameObj@@YAXIIHHHHH@Z 10072130 f   CoreDrawGameObj.obj
 0001:000719b0       ?CoreGetGameObjLightInfo@@YAXIIPAUKLightInfo@@@Z 100729b0 f   CoreDrawGameObj.obj
 0001:00071ac0       ?IR_GetCurrentTime@@YAIXZ  10072ac0 f   ImgRef.obj
 0001:00071ad0       ?IR_UpdateTime@@YAXXZ      10072ad0 f   ImgRef.obj
 0001:00071ae0       ?IR_NextFrame@@YAXAAHHIAAI@Z 10072ae0 f   ImgRef.obj
 0001:00071b80       ??0KMagicDesc@@QAE@XZ      10072b80 f   KMagicDesc.obj
 0001:00071ba0       ??1KMagicDesc@@QAE@XZ      10072ba0 f   KMagicDesc.obj
 0001:00071bb0       ?Init@KMagicDesc@@QAEHXZ   10072bb0 f   KMagicDesc.obj
 0001:00071bc0       ?GetDesc@KMagicDesc@@QAEPBDPAX@Z 10072bc0 f   KMagicDesc.obj
 0001:00072120       ?g_MagicID2String@@YAPBDH@Z 10073120 f   KMagicDesc.obj
 0001:00072150       ?g_String2MagicID@@YAHPAD@Z 10073150 f   KMagicDesc.obj
 0001:000721c0       ?String2MagicID@KMagicDesc@@QAEHPAD@Z 100731c0 f   KMagicDesc.obj
 0001:00072270       ?g_GetStringRes@@YAPADHPADH@Z 10073270 f   KTaskFuns.obj
 0001:000722c0       ?SetGamma@KOption@@QAEXH@Z 100732c0 f   KOption.obj
 0001:000722e0       ?SetSndVolume@KOption@@QAEXH@Z 100732e0 f   KOption.obj
 0001:00072330       ?SetMusicVolume@KOption@@QAEXH@Z 10073330 f   KOption.obj
 0001:000723b0       ??0KMapMusic@@QAE@XZ       100733b0 f   KMapMusic.obj
 0001:00072420       ??1KMapMusic@@QAE@XZ       10073420 f   KMapMusic.obj
 0001:00072430       ?Release@KMapMusic@@AAEXXZ 10073430 f   KMapMusic.obj
 0001:00072480       ?LoadSetFile@KMapMusic@@QAEXXZ 10073480 f   KMapMusic.obj
 0001:00072810       ?Init@KMapMusic@@QAEXXZ    10073810 f   KMapMusic.obj
 0001:00072830       ?Play@KMapMusic@@QAEXHHH@Z 10073830 f   KMapMusic.obj
 0001:00072de0       ?Stop@KMapMusic@@QAEXXZ    10073de0 f   KMapMusic.obj
 0001:00072e00       ?SetGameVolume@KMapMusic@@QAEXH@Z 10073e00 f   KMapMusic.obj
 0001:00072e80       ?SetWeatherVolume@KMapMusic@@QAEXH@Z 10073e80 f   KMapMusic.obj
 0001:00072f00       ?Start@KMapMusic@@QAEXHHH@Z 10073f00 f   KMapMusic.obj
 0001:00072f30       ?ScriptPlay@KMapMusic@@QAEXPAD@Z 10073f30 f   KMapMusic.obj
 0001:00073040       ??0KLadder@@QAE@XZ         10074040 f   KLadder.obj
 0001:00073060       ??1KLadder@@QAE@XZ         10074060 f   KLadder.obj
 0001:00073070       ?Init@KLadder@@QAEHPAXI@Z  10074070 f   KLadder.obj
 0001:000730a0       ?TopTenFacMasterHand@KLadder@@QAEPBUTRoleList@@H@Z 100740a0 f   KLadder.obj
 0001:000730d0       ?TopTenFacRich@KLadder@@QAEPBUTRoleList@@H@Z 100740d0 f   KLadder.obj
 0001:00073100       ?TopTenKiller@KLadder@@QAEPBUTRoleList@@XZ 10074100 f   KLadder.obj
 0001:00073110       ?TopTenMasterHand@KLadder@@QAEPBUTRoleList@@XZ 10074110 f   KLadder.obj
 0001:00073120       ?TopTenRich@KLadder@@QAEPBUTRoleList@@XZ 10074120 f   KLadder.obj
 0001:00073130       ?GetFacMasterHandPercent@KLadder@@QAEHH@Z 10074130 f   KLadder.obj
 0001:00073150       ?GetFacMoneyPercent@KLadder@@QAEHH@Z 10074150 f   KLadder.obj
 0001:00073170       ?GetFacMemberCount@KLadder@@QAEHH@Z 10074170 f   KLadder.obj
 0001:00073190       ?GetTopTen@KLadder@@QAEPBUTRoleList@@K@Z 10074190 f   KLadder.obj
 0001:00073230       ??0ZLoadFile@@QAE@XZ       10074230 f   ZLoadFile.obj
 0001:000732a0       ??1ZLoadFile@@QAE@XZ       100742a0 f   ZLoadFile.obj
 0001:00073310       ?Init@ZLoadFile@@QAEHXZ    10074310 f   ZLoadFile.obj
 0001:00073350       ?FindTabFree@ZLoadFile@@AAEHXZ 10074350 f   ZLoadFile.obj
 0001:00073390       ?SearchTabFile@ZLoadFile@@QAEHK@Z 10074390 f   ZLoadFile.obj
 0001:000733d0       ?ReadTabFile@ZLoadFile@@QAEHPBD@Z 100743d0 f   ZLoadFile.obj
 0001:00073420       ?ClearTabFile@ZLoadFile@@QAEHPBD@Z 10074420 f   ZLoadFile.obj
 0001:00073460       ?GetTabFileRow@ZLoadFile@@QAEHPBD@Z 10074460 f   ZLoadFile.obj
 0001:000734a0       ?GetTabFileColum@ZLoadFile@@QAEHPBD@Z 100744a0 f   ZLoadFile.obj
 0001:000734e0       ?GetTabFileCell@ZLoadFile@@QAEXPBDHHPAD@Z 100744e0 f   ZLoadFile.obj
 0001:00073560       ?FindIniFree@ZLoadFile@@AAEHXZ 10074560 f   ZLoadFile.obj
 0001:000735a0       ?SearchIniFile@ZLoadFile@@QAEHK@Z 100745a0 f   ZLoadFile.obj
 0001:000735e0       ?ReadIniFile@ZLoadFile@@QAEHPBD@Z 100745e0 f   ZLoadFile.obj
 0001:00073640       ?ClearIniFile@ZLoadFile@@QAEHPBD@Z 10074640 f   ZLoadFile.obj
 0001:00073690       ?GetIniFileData@ZLoadFile@@QAEHPBD00PAD@Z 10074690 f   ZLoadFile.obj
 0001:00073710       ?Get@KWorldMsg@@QAEHPAVKWorldMsgNode@@@Z 10074710 f   KWorldMsg.obj
 0001:00073780       ?Peek@KWorldMsg@@QAEHPAVKWorldMsgNode@@K@Z 10074780 f   KWorldMsg.obj
 0001:000737e0       ?Clear@KWorldMsg@@QAEXXZ   100747e0 f   KWorldMsg.obj
 0001:000738d0       ?AutoMove@KAutoMove@@QAEHXZ 100748d0 f   Kautoai.obj
 0001:00073910       ?AutoMoveTo@KAutoMove@@QAEHHH@Z 10074910 f   Kautoai.obj
 0001:00073ae0       ?FindPathAndMove@KAutoMove@@IAEHAAHH@Z 10074ae0 f   Kautoai.obj
 0001:00073e30       ??0KJXPathFinder@@QAE@H@Z  10074e30 f   KJXPathFinder.obj
 0001:00073e60       ??1KJXPathFinder@@QAE@XZ   10074e60 f   KJXPathFinder.obj
 0001:00073ec0       ?CreateMap@KJXPathFinder@@AAEHHH@Z 10074ec0 f   KJXPathFinder.obj
 0001:00073f80       ?ClearMap@KJXPathFinder@@AAEXXZ 10074f80 f   KJXPathFinder.obj
 0001:00074000       ?Init@KJXPathFinder@@QAEHPAUtagRECT@@PAVKScenePlaceMapC@@@Z 10075000 f   KJXPathFinder.obj
 0001:00074040       ?LoadMap@KJXPathFinder@@AAEHPAUtagRECT@@PAVKScenePlaceMapC@@@Z 10075040 f   KJXPathFinder.obj
 0001:000741a0       ?CalcFactors@KJXPathFinder@@AAEXXZ 100751a0 f   KJXPathFinder.obj
 0001:00074450       ?FillNote@KJXPathFinder@@QAEXHHH@Z 10075450 f   KJXPathFinder.obj
 0001:00074490       ?FindPath@KJXPathFinder@@QAEHHHHH@Z 10075490 f   KJXPathFinder.obj
 0001:00074510       ?GetPath@KJXPathFinder@@QAEXHHAAV?$vector@UFindPathNode@@V?$allocator@UFindPathNode@@@std@@@std@@@Z 10075510 f   KJXPathFinder.obj
 0001:00074790       ?FindPath@KJXPathFinder@@QAEHAAUFindPathNode@@0H@Z 10075790 f   KJXPathFinder.obj
 0001:00074870       ?GetNextStep@KJXPathFinder@@QAE?AW4KE_NEXTSTEP_RESULT@@ABUFindPathNode@@AAU3@H@Z 10075870 f   KJXPathFinder.obj
 0001:00074950       ?GetNextStep@KJXPathFinder@@AAE?AW4KE_NEXTSTEP_RESULT@@ABUFindPathNode@@AAU3@@Z 10075950 f   KJXPathFinder.obj
 0001:00074b70       ?ClearOpenTable@KJXPathFinder@@AAEXXZ 10075b70 f   KJXPathFinder.obj
 0001:00074bb0       ?ResetMap@KJXPathFinder@@AAEXXZ 10075bb0 f   KJXPathFinder.obj
 0001:00074c10       ?AddOpenNode@KJXPathFinder@@AAEXHHGGHH@Z 10075c10 f   KJXPathFinder.obj
 0001:00074d30       ?AddCloseNode@KJXPathFinder@@AAEXPAVOpenNode@@HH@Z 10075d30 f   KJXPathFinder.obj
 0001:00075140       ?FixOpenTable@KJXPathFinder@@AAEXABUFindPathNode@@@Z 10076140 f   KJXPathFinder.obj
 0001:00075280       ?GetPath@KJXPathFinder@@QAEHAAUFindPathNode@@AAPAU2@@Z 10076280 f   KJXPathFinder.obj
 0001:00075340       ?_Destroy@?$vector@UFindPathNode@@V?$allocator@UFindPathNode@@@std@@@std@@IAEXPAUFindPathNode@@0@Z 10076340 f i KJXPathFinder.obj
 0001:00075350       ?_Ucopy@?$vector@UFindPathNode@@V?$allocator@UFindPathNode@@@std@@@std@@IAEPAUFindPathNode@@PBU3@0PAU3@@Z 10076350 f i KJXPathFinder.obj
 0001:00075390       ?_Ufill@?$vector@UFindPathNode@@V?$allocator@UFindPathNode@@@std@@@std@@IAEXPAUFindPathNode@@IABU3@@Z 10076390 f i KJXPathFinder.obj
 0001:000753c0       ?_Construct@std@@YAXPAUFindPathNode@@ABU2@@Z 100763c0 f i KJXPathFinder.obj
 0001:000753e0       ??1OpenTable@@QAE@XZ       100763e0 f i KJXPathFinder.obj
 0001:00075410       ?Reset@OpenTable@@QAEXH@Z  10076410 f i KJXPathFinder.obj
 0001:00075480       ??0KLittleMap@@QAE@XZ      10076480 f   KLittleMap.obj
 0001:000754f0       ??1KLittleMap@@QAE@XZ      100764f0 f   KLittleMap.obj
 0001:00075510       ?Release@KLittleMap@@QAEXXZ 10076510 f   KLittleMap.obj
 0001:00075590       ?Init@KLittleMap@@QAEXHHHH@Z 10076590 f   KLittleMap.obj
 0001:00075a20       ?GetBarrierBuf@KLittleMap@@QAEPAEHH@Z 10076a20 f   KLittleMap.obj
 0001:00075aa0       ?GetRect@KLittleMap@@QAEPAUtagRECT@@XZ 10076aa0 f   KLittleMap.obj
 0001:00075ab0       ?SetHaveLoad@KLittleMap@@QAEXHH@Z 10076ab0 f   KLittleMap.obj
 0001:00075af0       ?Draw@KLittleMap@@QAEXHH@Z 10076af0 f   KLittleMap.obj
 0001:000761c0       ?SetTeammateShow@KLittleMap@@QAEXH@Z 100771c0 f   KLittleMap.obj
 0001:000761d0       ?SetPlayerShow@KLittleMap@@QAEXH@Z 100771d0 f   KLittleMap.obj
 0001:000761e0       ?SetFightNpcShow@KLittleMap@@QAEXH@Z 100771e0 f   KLittleMap.obj
 0001:000761f0       ?SetNormalNpcShow@KLittleMap@@QAEXH@Z 100771f0 f   KLittleMap.obj
 0001:00076200       ?SetScreenPos@KLittleMap@@QAEXHH@Z 10077200 f   KLittleMap.obj
 0001:00076220       ?Show@KLittleMap@@QAEXH@Z  10077220 f   KLittleMap.obj
 0001:00076230       ?SetShowSize@KLittleMap@@QAEXHH@Z 10077230 f   KLittleMap.obj
 0001:00076280       _GetTickCount@0            10077280 f   kernel32:KERNEL32.dll
 0001:00076286       _MulDiv@12                 10077286 f   kernel32:KERNEL32.dll
 0001:0007628c       _GetLocalTime@4            1007728c f   kernel32:KERNEL32.dll
 0001:00076292       _FileTimeToSystemTime@8    10077292 f   kernel32:KERNEL32.dll
 0001:00076298       _LocalFileTimeToFileTime@8 10077298 f   kernel32:KERNEL32.dll
 0001:0007629e       _SystemTimeToFileTime@8    1007729e f   kernel32:KERNEL32.dll
 0001:000762a4       _LeaveCriticalSection@4    100772a4 f   kernel32:KERNEL32.dll
 0001:000762aa       _EnterCriticalSection@4    100772aa f   kernel32:KERNEL32.dll
 0001:000762b0       _ResetEvent@4              100772b0 f   kernel32:KERNEL32.dll
 0001:000762b6       _CloseHandle@4             100772b6 f   kernel32:KERNEL32.dll
 0001:000762bc       _DeleteCriticalSection@4   100772bc f   kernel32:KERNEL32.dll
 0001:000762c2       _CreateThread@24           100772c2 f   kernel32:KERNEL32.dll
 0001:000762c8       _InitializeCriticalSection@4 100772c8 f   kernel32:KERNEL32.dll
 0001:000762ce       _CreateEventA@16           100772ce f   kernel32:KERNEL32.dll
 0001:000762d4       _WaitForSingleObject@8     100772d4 f   kernel32:KERNEL32.dll
 0001:000762da       _GetExitCodeThread@8       100772da f   kernel32:KERNEL32.dll
 0001:000762e0       _SetEvent@4                100772e0 f   kernel32:KERNEL32.dll
 0001:000762e6       _lua_tostring              100772e6 f   lualibdll:LuaLibDll.dll
 0001:000762ec       _lua_isstring              100772ec f   lualibdll:LuaLibDll.dll
 0001:000762f2       _lua_tonumber              100772f2 f   lualibdll:LuaLibDll.dll
 0001:000762f8       _lua_isnumber              100772f8 f   lualibdll:LuaLibDll.dll
 0001:000762fe       _lua_typename              100772fe f   lualibdll:LuaLibDll.dll
 0001:00076304       _lua_gettop                10077304 f   lualibdll:LuaLibDll.dll
 0001:0007630a       _lua_pushnumber            1007730a f   lualibdll:LuaLibDll.dll
 0001:00076310       _lua_type                  10077310 f   lualibdll:LuaLibDll.dll
 0001:00076316       _lua_getglobal             10077316 f   lualibdll:LuaLibDll.dll
 0001:0007631c       _lua_rawget                1007731c f   lualibdll:LuaLibDll.dll
 0001:00076322       _lua_dofile                10077322 f   lualibdll:LuaLibDll.dll
 0001:00076328       _lua_pushnil               10077328 f   lualibdll:LuaLibDll.dll
 0001:0007632e       _timeGetTime@0             1007732e f   Winmm:WINMM.dll
 0001:00076334       ?g_FileName2Id@@YAKPAD@Z   10077334 f   engine:Engine.dll
 0001:0007633a       ?GetString@KTabFile@@UAEHHPAD00KH@Z 1007733a f   engine:Engine.dll
 0001:00076340       ?GetInteger@KTabFile@@UAEHHPADHPAHH@Z 10077340 f   engine:Engine.dll
 0001:00076346       ??1KTabFile@@UAE@XZ        10077346 f   engine:Engine.dll
 0001:0007634c       ?Load@KTabFile@@UAEHPAD@Z  1007734c f   engine:Engine.dll
 0001:00076352       ??0KTabFile@@QAE@XZ        10077352 f   engine:Engine.dll
 0001:00076358       ??1KLinkArray@@QAE@XZ      10077358 f   engine:Engine.dll
 0001:0007635e       ?KSG_StringSkipSymbol@@YA_NPAPBDH@Z 1007735e f   engine:Engine.dll
 0001:00076364       ?KSG_StringGetInt@@YAHPAPBDH@Z 10077364 f   engine:Engine.dll
 0001:0007636a       ?g_Random@@YAII@Z          1007736a f   engine:Engine.dll
 0001:00076370       ?g_StrCpy@@YAXPADPBD@Z     10077370 f   engine:Engine.dll
 0001:00076376       ?Play@KWavSound@@QAEXHHH@Z 10077376 f   engine:Engine.dll
 0001:0007637c       ?GetNode@KCache@@UAEPAVKCacheNode@@PADPAV2@@Z 1007737c f   engine:Engine.dll
 0001:00076382       ?Stop@KWavSound@@QAEXXZ    10077382 f   engine:Engine.dll
 0001:00076388       ?Insert@KLinkArray@@QAEXH@Z 10077388 f   engine:Engine.dll
 0001:0007638e       ?Init@KLinkArray@@QAEXH@Z  1007738e f   engine:Engine.dll
 0001:00076394       ?Remove@KLinkArray@@QAEXH@Z 10077394 f   engine:Engine.dll
 0001:0007639a       ?SafeCallEnd@KLuaScript@@QAEXH@Z 1007739a f   engine:Engine.dll
 0001:000763a0       ?SafeCallBegin@KLuaScript@@QAEXPAH@Z 100773a0 f   engine:Engine.dll
 0001:000763a6       ??1KLuaScript@@UAE@XZ      100773a6 f   engine:Engine.dll
 0001:000763ac       ?Load@KLuaScript@@UAEHPAD@Z 100773ac f   engine:Engine.dll
 0001:000763b2       ?RegisterFunctions@KLuaScript@@QAEHQAUTLua_Funcs@@H@Z 100773b2 f   engine:Engine.dll
 0001:000763b8       ?Init@KLuaScript@@UAEHXZ   100773b8 f   engine:Engine.dll
 0001:000763be       ??0KLuaScript@@QAE@XZ      100773be f   engine:Engine.dll
 0001:000763c4       ?g_SetFilePath@@YAXPAD@Z   100773c4 f   engine:Engine.dll
 0001:000763ca       ?GetString@KIniFile@@QAEHPBD00PADK@Z 100773ca f   engine:Engine.dll
 0001:000763d0       ??1KIniFile@@QAE@XZ        100773d0 f   engine:Engine.dll
 0001:000763d6       ?Load@KIniFile@@QAEHPBD@Z  100773d6 f   engine:Engine.dll
 0001:000763dc       ??0KIniFile@@QAE@XZ        100773dc f   engine:Engine.dll
 0001:000763e2       ?g_StrCpyLen@@YAXPADPBDH@Z 100773e2 f   engine:Engine.dll
 0001:000763e8       ?g_StrLen@@YAHPBD@Z        100773e8 f   engine:Engine.dll
 0001:000763ee       ?GetString@KTabFile@@UAEHHHPAD0K@Z 100773ee f   engine:Engine.dll
 0001:000763f4       ?FindRow@KTabFile@@UAEHPADH@Z 100773f4 f   engine:Engine.dll
 0001:000763fa       _TGetEncodedTextLineCount  100773fa f   engine:Engine.dll
 0001:00076400       _TGetLimitLenEncodedString 10077400 f   engine:Engine.dll
 0001:00076406       ?SetGlobalName@KLuaScript@@QAEXPAD@Z 10077406 f   engine:Engine.dll
 0001:0007640c       ?GetInteger@KTabFile@@UAEHHHHPAH@Z 1007740c f   engine:Engine.dll
 0001:00076412       ?IsPlaying@KWavSound@@QAEHXZ 10077412 f   engine:Engine.dll
 0001:00076418       ?FindColumn@KTabFile@@UAEHPAD@Z 10077418 f   engine:Engine.dll
 0001:0007641e       ?g_StrCat@@YAXPADPBD@Z     1007741e f   engine:Engine.dll
 0001:00076424       ?g_UnitePathAndName@@YAXPAD00@Z 10077424 f   engine:Engine.dll
 0001:0007642a       ?IsSectionExist@KIniFile@@QAEHPBD@Z 1007742a f   engine:Engine.dll
 0001:00076430       ?Clear@KIniFile@@QAEXXZ    10077430 f   engine:Engine.dll
 0001:00076436       ?GetInteger@KIniFile@@QAEHPBD0HPAH@Z 10077436 f   engine:Engine.dll
 0001:0007643c       ?g_StrCmp@@YAHPBD0@Z       1007743c f   engine:Engine.dll
 0001:00076442       ?SetScriptName@KLuaScript@@UAEXPAD@Z 10077442 f   engine:Engine.dll
 0001:00076448       ?RegisterFunction@KLuaScript@@UAEHPADPAX@Z 10077448 f   engine:Engine.dll
 0001:0007644e       ?CallFunction@KLuaScript@@UAAHPADH0ZZ 1007744e f   engine:Engine.dll
 0001:00076454       ?Execute@KLuaScript@@UAEHXZ 10077454 f   engine:Engine.dll
 0001:0007645a       ?Compile@KLuaScript@@UAEHPAD@Z 1007745a f   engine:Engine.dll
 0001:00076460       ?Exit@KLuaScript@@UAEXXZ   10077460 f   engine:Engine.dll
 0001:00076466       _TEncodeText               10077466 f   engine:Engine.dll
 0001:0007646c       ?Save@KIniFile@@QAEHPBD@Z  1007746c f   engine:Engine.dll
 0001:00076472       ?WriteInteger@KIniFile@@QAEXPBD0H@Z 10077472 f   engine:Engine.dll
 0001:00076478       ?WriteString@KIniFile@@QAEXPBD00@Z 10077478 f   engine:Engine.dll
 0001:0007647e       ?g_CreatePath@@YAXPAD@Z    1007747e f   engine:Engine.dll
 0001:00076484       ?GetShort@KIniFile@@QAEHPBD0FPAF@Z 10077484 f   engine:Engine.dll
 0001:0007648a       ?g_SetRootPath@@YAXPAD@Z   1007748a f   engine:Engine.dll
 0001:00076490       ?g_RandomSeed@@YAXI@Z      10077490 f   engine:Engine.dll
 0001:00076496       ??0KPolygon@@QAE@XZ        10077496 f   engine:Engine.dll
 0001:0007649c       ?Clear@KPolygon@@QAEXXZ    1007749c f   engine:Engine.dll
 0001:000764a2       ?g_StrLower@@YAXPAD@Z      100774a2 f   engine:Engine.dll
 0001:000764a8       ?SetVolume@KWavSound@@QAEXH@Z 100774a8 f   engine:Engine.dll
 0001:000764ae       ?SetPan@KWavSound@@QAEXH@Z 100774ae f   engine:Engine.dll
 0001:000764b4       ?GetCenterPos@KPolygon@@QAEXPAUtagPOINT@@@Z 100774b4 f   engine:Engine.dll
 0001:000764ba       ?IsPointInPolygon@KPolygon@@QAEHUtagPOINT@@@Z 100774ba f   engine:Engine.dll
 0001:000764c0       ?Read@KPakFile@@QAEKPAXI@Z 100774c0 f   engine:Engine.dll
 0001:000764c6       ??1KPakFile@@QAE@XZ        100774c6 f   engine:Engine.dll
 0001:000764cc       ?Close@KPakFile@@QAEXXZ    100774cc f   engine:Engine.dll
 0001:000764d2       ?Size@KPakFile@@QAEKXZ     100774d2 f   engine:Engine.dll
 0001:000764d8       ?Open@KPakFile@@QAEHPBD@Z  100774d8 f   engine:Engine.dll
 0001:000764de       ??0KPakFile@@QAE@XZ        100774de f   engine:Engine.dll
 0001:000764e4       ?Seek@KPakFile@@QAEKHI@Z   100774e4 f   engine:Engine.dll
 0001:000764ea       ??0KSoundCache@@QAE@XZ     100774ea f   engine:Engine.dll
 0001:000764f0       ??1KSoundCache@@QAE@XZ     100774f0 f   engine:Engine.dll
 0001:000764f6       ?Init@KCache@@UAEXH@Z      100774f6 f   engine:Engine.dll
 0001:000764fc       ?g_FindDebugWindow@@YAPAUHWND__@@PAD0@Z 100774fc f   engine:Engine.dll
 0001:00076502       ??0KScriptList@@QAE@XZ     10077502 f   engine:Engine.dll
 0001:00076508       ??1KScriptList@@QAE@XZ     10077508 f   engine:Engine.dll
 0001:0007650e       ?g_GetRootPath@@YAXPAD@Z   1007750e f   engine:Engine.dll
 0001:00076514       ?GetNextKey@KIniFile@@QAEHPBD0PAD@Z 10077514 f   engine:Engine.dll
 0001:0007651a       ?g_GetFullPath@@YAXPAD0@Z  1007751a f   engine:Engine.dll
 0001:00076520       ?GetString@KTabFile@@UAEHPAD000K@Z 10077520 f   engine:Engine.dll
 0001:00076526       ?GetRect@KIniFile@@QAEXPBD0PAUtagRECT@@@Z 10077526 f   engine:Engine.dll
 0001:0007652c       ?GetInteger2@KIniFile@@QAEXPBD0PAH1@Z 1007752c f   engine:Engine.dll
 0001:00076532       ?Tell@KPakFile@@QAEKXZ     10077532 f   engine:Engine.dll
 0001:00076538       ??0KTimer@@QAE@XZ          10077538 f   engine:Engine.dll
 0001:0007653e       ?g_FileExists@@YAHPAD@Z    1007753e f   engine:Engine.dll
 0001:00076544       ?get_jpg_image@@YAPAUKSGImageContent@@QBDI@Z 10077544 f   engine:Engine.dll
 0001:0007654a       ?release_image@@YAXPAUKSGImageContent@@@Z 1007754a f   engine:Engine.dll
 0001:00076550       ??3@YAXPAX@Z               10077550 f   msvcprt:delop_s.obj
 0001:0007655c       ??0Init@ios_base@std@@QAE@XZ 1007755c f   msvcprt:MSVCP60.dll
 0001:00076562       ??1Init@ios_base@std@@QAE@XZ 10077562 f   msvcprt:MSVCP60.dll
 0001:00076568       ??0_Winit@std@@QAE@XZ      10077568 f   msvcprt:MSVCP60.dll
 0001:0007656e       ??1_Winit@std@@QAE@XZ      1007756e f   msvcprt:MSVCP60.dll
 0001:00076574       ??1?$basic_string@DU?$char_traits@D@std@@V?$allocator@D@2@@std@@QAE@XZ 10077574 f   msvcprt:MSVCP60.dll
 0001:0007657a       ?assign@?$basic_string@DU?$char_traits@D@std@@V?$allocator@D@2@@std@@QAEAAV12@PBDI@Z 1007757a f   msvcprt:MSVCP60.dll
 0001:00076580       ?_Eos@?$basic_string@DU?$char_traits@D@std@@V?$allocator@D@2@@std@@AAEXI@Z 10077580 f   msvcprt:MSVCP60.dll
 0001:00076586       ?_Grow@?$basic_string@DU?$char_traits@D@std@@V?$allocator@D@2@@std@@AAE_NI_N@Z 10077586 f   msvcprt:MSVCP60.dll
 0001:0007658c       ?_Tidy@?$basic_string@DU?$char_traits@D@std@@V?$allocator@D@2@@std@@AAEX_N@Z 1007758c f   msvcprt:MSVCP60.dll
 0001:00076592       ?replace@?$basic_string@DU?$char_traits@D@std@@V?$allocator@D@2@@std@@QAEAAV12@IIID@Z 10077592 f   msvcprt:MSVCP60.dll
 0001:00076598       ?_Freeze@?$basic_string@DU?$char_traits@D@std@@V?$allocator@D@2@@std@@AAEXXZ 10077598 f   msvcprt:MSVCP60.dll
 0001:0007659e       ?assign@?$basic_string@DU?$char_traits@D@std@@V?$allocator@D@2@@std@@QAEAAV12@ABV12@II@Z 1007759e f   msvcprt:MSVCP60.dll
 0001:000765a4       ?erase@?$basic_string@DU?$char_traits@D@std@@V?$allocator@D@2@@std@@QAEAAV12@II@Z 100775a4 f   msvcprt:MSVCP60.dll
 0001:000765aa       ?find@?$basic_string@DU?$char_traits@D@std@@V?$allocator@D@2@@std@@QBEIPBDII@Z 100775aa f   msvcprt:MSVCP60.dll
 0001:000765b0       __purecall                 100775b0 f   MSVCRT:MSVCRT.dll
 0001:000765b6       ___CxxFrameHandler         100775b6 f   MSVCRT:MSVCRT.dll
 0001:000765c0       __ftol                     100775c0 f   MSVCRT:MSVCRT.dll
 0001:000765c6       ??_L@YGXPAXIHP6EX0@Z1@Z    100775c6 f   MSVCRT:ehvecctr.obj
 0001:00076648       __onexit                   10077648 f   MSVCRT:atonexit.obj
 0001:00076674       _atexit                    10077674 f   MSVCRT:atonexit.obj
 0001:00076686       ??_M@YGXPAXIHP6EX0@Z@Z     10077686 f   MSVCRT:ehvecdtr.obj
 0001:00076706       ?__ArrayUnwind@@YGXPAXIHP6EX0@Z@Z 10077706 f   MSVCRT:ehvecdtr.obj
 0001:0007677a       _sprintf                   1007777a f   MSVCRT:MSVCRT.dll
 0001:00076780       ??2@YAPAXI@Z               10077780 f   MSVCRT:MSVCRT.dll
 0001:00076786       _printf                    10077786 f   MSVCRT:MSVCRT.dll
 0001:0007678c       _strncpy                   1007778c f   MSVCRT:MSVCRT.dll
 0001:00076792       _atoi                      10077792 f   MSVCRT:MSVCRT.dll
 0001:00076798       _strstr                    10077798 f   MSVCRT:MSVCRT.dll
 0001:0007679e       _free                      1007779e f   MSVCRT:MSVCRT.dll
 0001:000767a4       _malloc                    100777a4 f   MSVCRT:MSVCRT.dll
 0001:000767aa       _memmove                   100777aa f   MSVCRT:MSVCRT.dll
 0001:000767b0       _rand                      100777b0 f   MSVCRT:MSVCRT.dll
 0001:000767b6       _srand                     100777b6 f   MSVCRT:MSVCRT.dll
 0001:000767bc       _time                      100777bc f   MSVCRT:MSVCRT.dll
 0001:000767c2       __findclose                100777c2 f   MSVCRT:MSVCRT.dll
 0001:000767c8       __findnext                 100777c8 f   MSVCRT:MSVCRT.dll
 0001:000767ce       __strupr                   100777ce f   MSVCRT:MSVCRT.dll
 0001:000767d4       __findfirst                100777d4 f   MSVCRT:MSVCRT.dll
 0001:000767e0       __alloca_probe             100777e0 f   MSVCRT:chkstk.obj
 0001:000767e0       __chkstk                   100777e0 f   MSVCRT:chkstk.obj
 0001:00076810       __CIpow                    10077810 f   MSVCRT:MSVCRT.dll
 0001:00076816       _realloc                   10077816 f   MSVCRT:MSVCRT.dll
 0001:0007681c       _strchr                    1007781c f   MSVCRT:MSVCRT.dll
 0001:00076822       _atof                      10077822 f   MSVCRT:MSVCRT.dll
 0001:00076828       __CRT_INIT@12              10077828 f   MSVCRT:crtdll.obj
 0001:000768d3       __DllMainCRTStartup@12     100778d3 f   MSVCRT:crtdll.obj
 0001:00076970       __except_handler3          10077970 f   MSVCRT:MSVCRT.dll
 0001:00076976       ___dllonexit               10077976 f   MSVCRT:MSVCRT.dll
 0001:0007697c       ?terminate@@YAXXZ          1007797c f   MSVCRT:MSVCRT.dll
 0001:00076982       __initterm                 10077982 f   MSVCRT:MSVCRT.dll
 0001:00076988       _DllMain@12                10077988 f   MSVCRT:dllmain.obj
 0001:000769b0       _DisableThreadLibraryCalls@4 100779b0 f   kernel32:KERNEL32.dll
 0001:000769b6       __strlwr                   100779b6 f   MSVCRT:MSVCRT.dll
 0001:000769bc       __itoa                     100779bc f   MSVCRT:MSVCRT.dll
 0001:000769c2       __getcwd                   100779c2 f   MSVCRT:MSVCRT.dll
 0001:000769c8       __chdir                    100779c8 f   MSVCRT:MSVCRT.dll
 0002:00000000       __imp_?g_CreatePath@@YAXPAD@Z 10079000     engine:Engine.dll
 0002:00000004       __imp_?Init@KCache@@UAEXH@Z 10079004     engine:Engine.dll
 0002:00000008       __imp_??1KSoundCache@@QAE@XZ 10079008     engine:Engine.dll
 0002:0000000c       __imp_??0KSoundCache@@QAE@XZ 1007900c     engine:Engine.dll
 0002:00000010       __imp_?Seek@KPakFile@@QAEKHI@Z 10079010     engine:Engine.dll
 0002:00000014       __imp_??0KPakFile@@QAE@XZ  10079014     engine:Engine.dll
 0002:00000018       __imp_?Open@KPakFile@@QAEHPBD@Z 10079018     engine:Engine.dll
 0002:0000001c       __imp_?Size@KPakFile@@QAEKXZ 1007901c     engine:Engine.dll
 0002:00000020       __imp_?Close@KPakFile@@QAEXXZ 10079020     engine:Engine.dll
 0002:00000024       __imp_??1KPakFile@@QAE@XZ  10079024     engine:Engine.dll
 0002:00000028       __imp_?Read@KPakFile@@QAEKPAXI@Z 10079028     engine:Engine.dll
 0002:0000002c       __imp_?IsPointInPolygon@KPolygon@@QAEHUtagPOINT@@@Z 1007902c     engine:Engine.dll
 0002:00000030       __imp_?GetCenterPos@KPolygon@@QAEXPAUtagPOINT@@@Z 10079030     engine:Engine.dll
 0002:00000034       __imp_?SetPan@KWavSound@@QAEXH@Z 10079034     engine:Engine.dll
 0002:00000038       __imp_?SetVolume@KWavSound@@QAEXH@Z 10079038     engine:Engine.dll
 0002:0000003c       __imp_?g_StrLower@@YAXPAD@Z 1007903c     engine:Engine.dll
 0002:00000040       __imp_?Clear@KPolygon@@QAEXXZ 10079040     engine:Engine.dll
 0002:00000044       __imp_??0KPolygon@@QAE@XZ  10079044     engine:Engine.dll
 0002:00000048       __imp_?g_RandomSeed@@YAXI@Z 10079048     engine:Engine.dll
 0002:0000004c       __imp_?release_image@@YAXPAUKSGImageContent@@@Z 1007904c     engine:Engine.dll
 0002:00000050       __imp_?get_jpg_image@@YAPAUKSGImageContent@@QBDI@Z 10079050     engine:Engine.dll
 0002:00000054       __imp_?g_FileExists@@YAHPAD@Z 10079054     engine:Engine.dll
 0002:00000058       __imp_??0KTimer@@QAE@XZ    10079058     engine:Engine.dll
 0002:0000005c       __imp_?Tell@KPakFile@@QAEKXZ 1007905c     engine:Engine.dll
 0002:00000060       __imp_?GetInteger2@KIniFile@@QAEXPBD0PAH1@Z 10079060     engine:Engine.dll
 0002:00000064       __imp_?GetRect@KIniFile@@QAEXPBD0PAUtagRECT@@@Z 10079064     engine:Engine.dll
 0002:00000068       __imp_?GetString@KTabFile@@UAEHPAD000K@Z 10079068     engine:Engine.dll
 0002:0000006c       __imp_?g_GetFullPath@@YAXPAD0@Z 1007906c     engine:Engine.dll
 0002:00000070       __imp_?GetNextKey@KIniFile@@QAEHPBD0PAD@Z 10079070     engine:Engine.dll
 0002:00000074       __imp_?g_GetRootPath@@YAXPAD@Z 10079074     engine:Engine.dll
 0002:00000078       __imp_??1KScriptList@@QAE@XZ 10079078     engine:Engine.dll
 0002:0000007c       __imp_??0KScriptList@@QAE@XZ 1007907c     engine:Engine.dll
 0002:00000080       __imp_?g_FileName2Id@@YAKPAD@Z 10079080     engine:Engine.dll
 0002:00000084       __imp_?GetString@KTabFile@@UAEHHPAD00KH@Z 10079084     engine:Engine.dll
 0002:00000088       __imp_?GetInteger@KTabFile@@UAEHHPADHPAHH@Z 10079088     engine:Engine.dll
 0002:0000008c       __imp_??1KTabFile@@UAE@XZ  1007908c     engine:Engine.dll
 0002:00000090       __imp_?Load@KTabFile@@UAEHPAD@Z 10079090     engine:Engine.dll
 0002:00000094       __imp_??0KTabFile@@QAE@XZ  10079094     engine:Engine.dll
 0002:00000098       __imp_??1KLinkArray@@QAE@XZ 10079098     engine:Engine.dll
 0002:0000009c       __imp_?KSG_StringSkipSymbol@@YA_NPAPBDH@Z 1007909c     engine:Engine.dll
 0002:000000a0       __imp_?KSG_StringGetInt@@YAHPAPBDH@Z 100790a0     engine:Engine.dll
 0002:000000a4       __imp_?g_Random@@YAII@Z    100790a4     engine:Engine.dll
 0002:000000a8       __imp_?g_StrCpy@@YAXPADPBD@Z 100790a8     engine:Engine.dll
 0002:000000ac       __imp_?Play@KWavSound@@QAEXHHH@Z 100790ac     engine:Engine.dll
 0002:000000b0       __imp_?GetNode@KCache@@UAEPAVKCacheNode@@PADPAV2@@Z 100790b0     engine:Engine.dll
 0002:000000b4       __imp_?Stop@KWavSound@@QAEXXZ 100790b4     engine:Engine.dll
 0002:000000b8       __imp_?Insert@KLinkArray@@QAEXH@Z 100790b8     engine:Engine.dll
 0002:000000bc       __imp_?Init@KLinkArray@@QAEXH@Z 100790bc     engine:Engine.dll
 0002:000000c0       __imp_?Remove@KLinkArray@@QAEXH@Z 100790c0     engine:Engine.dll
 0002:000000c4       __imp_?SafeCallEnd@KLuaScript@@QAEXH@Z 100790c4     engine:Engine.dll
 0002:000000c8       __imp_?SafeCallBegin@KLuaScript@@QAEXPAH@Z 100790c8     engine:Engine.dll
 0002:000000cc       __imp_??1KLuaScript@@UAE@XZ 100790cc     engine:Engine.dll
 0002:000000d0       __imp_?Load@KLuaScript@@UAEHPAD@Z 100790d0     engine:Engine.dll
 0002:000000d4       __imp_?RegisterFunctions@KLuaScript@@QAEHQAUTLua_Funcs@@H@Z 100790d4     engine:Engine.dll
 0002:000000d8       __imp_?Init@KLuaScript@@UAEHXZ 100790d8     engine:Engine.dll
 0002:000000dc       __imp_??0KLuaScript@@QAE@XZ 100790dc     engine:Engine.dll
 0002:000000e0       __imp_?g_SetFilePath@@YAXPAD@Z 100790e0     engine:Engine.dll
 0002:000000e4       __imp_?GetString@KIniFile@@QAEHPBD00PADK@Z 100790e4     engine:Engine.dll
 0002:000000e8       __imp_??1KIniFile@@QAE@XZ  100790e8     engine:Engine.dll
 0002:000000ec       __imp_?Load@KIniFile@@QAEHPBD@Z 100790ec     engine:Engine.dll
 0002:000000f0       __imp_??0KIniFile@@QAE@XZ  100790f0     engine:Engine.dll
 0002:000000f4       __imp_?g_StrCpyLen@@YAXPADPBDH@Z 100790f4     engine:Engine.dll
 0002:000000f8       __imp_?g_StrLen@@YAHPBD@Z  100790f8     engine:Engine.dll
 0002:000000fc       __imp_?GetString@KTabFile@@UAEHHHPAD0K@Z 100790fc     engine:Engine.dll
 0002:00000100       __imp_?FindRow@KTabFile@@UAEHPADH@Z 10079100     engine:Engine.dll
 0002:00000104       __imp__TGetEncodedTextLineCount 10079104     engine:Engine.dll
 0002:00000108       __imp__TGetLimitLenEncodedString 10079108     engine:Engine.dll
 0002:0000010c       __imp_?SetGlobalName@KLuaScript@@QAEXPAD@Z 1007910c     engine:Engine.dll
 0002:00000110       __imp_?GetInteger@KTabFile@@UAEHHHHPAH@Z 10079110     engine:Engine.dll
 0002:00000114       __imp_?IsPlaying@KWavSound@@QAEHXZ 10079114     engine:Engine.dll
 0002:00000118       __imp_?FindColumn@KTabFile@@UAEHPAD@Z 10079118     engine:Engine.dll
 0002:0000011c       __imp_?g_StrCat@@YAXPADPBD@Z 1007911c     engine:Engine.dll
 0002:00000120       __imp_?g_UnitePathAndName@@YAXPAD00@Z 10079120     engine:Engine.dll
 0002:00000124       __imp_?IsSectionExist@KIniFile@@QAEHPBD@Z 10079124     engine:Engine.dll
 0002:00000128       __imp_?Clear@KIniFile@@QAEXXZ 10079128     engine:Engine.dll
 0002:0000012c       __imp_?GetInteger@KIniFile@@QAEHPBD0HPAH@Z 1007912c     engine:Engine.dll
 0002:00000130       __imp_?g_StrCmp@@YAHPBD0@Z 10079130     engine:Engine.dll
 0002:00000134       __imp_?SetScriptName@KLuaScript@@UAEXPAD@Z 10079134     engine:Engine.dll
 0002:00000138       __imp_?RegisterFunction@KLuaScript@@UAEHPADPAX@Z 10079138     engine:Engine.dll
 0002:0000013c       __imp_?CallFunction@KLuaScript@@UAAHPADH0ZZ 1007913c     engine:Engine.dll
 0002:00000140       __imp_?Execute@KLuaScript@@UAEHXZ 10079140     engine:Engine.dll
 0002:00000144       __imp_?Compile@KLuaScript@@UAEHPAD@Z 10079144     engine:Engine.dll
 0002:00000148       __imp_?Exit@KLuaScript@@UAEXXZ 10079148     engine:Engine.dll
 0002:0000014c       __imp__TEncodeText         1007914c     engine:Engine.dll
 0002:00000150       __imp_?Save@KIniFile@@QAEHPBD@Z 10079150     engine:Engine.dll
 0002:00000154       __imp_?WriteInteger@KIniFile@@QAEXPBD0H@Z 10079154     engine:Engine.dll
 0002:00000158       __imp_?WriteString@KIniFile@@QAEXPBD00@Z 10079158     engine:Engine.dll
 0002:0000015c       __imp_?g_SetRootPath@@YAXPAD@Z 1007915c     engine:Engine.dll
 0002:00000160       __imp_?GetShort@KIniFile@@QAEHPBD0FPAF@Z 10079160     engine:Engine.dll
 0002:00000164       __imp_?g_FindDebugWindow@@YAPAUHWND__@@PAD0@Z 10079164     engine:Engine.dll
 0002:00000168       \177Engine_NULL_THUNK_DATA 10079168     engine:Engine.dll
 0002:0000016c       __imp__DisableThreadLibraryCalls@4 1007916c     kernel32:KERNEL32.dll
 0002:00000170       __imp__SetEvent@4          10079170     kernel32:KERNEL32.dll
 0002:00000174       __imp__GetExitCodeThread@8 10079174     kernel32:KERNEL32.dll
 0002:00000178       __imp__WaitForSingleObject@8 10079178     kernel32:KERNEL32.dll
 0002:0000017c       __imp__CreateEventA@16     1007917c     kernel32:KERNEL32.dll
 0002:00000180       __imp__InitializeCriticalSection@4 10079180     kernel32:KERNEL32.dll
 0002:00000184       __imp__CreateThread@24     10079184     kernel32:KERNEL32.dll
 0002:00000188       __imp__DeleteCriticalSection@4 10079188     kernel32:KERNEL32.dll
 0002:0000018c       __imp__CloseHandle@4       1007918c     kernel32:KERNEL32.dll
 0002:00000190       __imp__ResetEvent@4        10079190     kernel32:KERNEL32.dll
 0002:00000194       __imp__EnterCriticalSection@4 10079194     kernel32:KERNEL32.dll
 0002:00000198       __imp__LeaveCriticalSection@4 10079198     kernel32:KERNEL32.dll
 0002:0000019c       __imp__SystemTimeToFileTime@8 1007919c     kernel32:KERNEL32.dll
 0002:000001a0       __imp__LocalFileTimeToFileTime@8 100791a0     kernel32:KERNEL32.dll
 0002:000001a4       __imp__FileTimeToSystemTime@8 100791a4     kernel32:KERNEL32.dll
 0002:000001a8       __imp__GetLocalTime@4      100791a8     kernel32:KERNEL32.dll
 0002:000001ac       __imp__MulDiv@12           100791ac     kernel32:KERNEL32.dll
 0002:000001b0       __imp__GetTickCount@0      100791b0     kernel32:KERNEL32.dll
 0002:000001b4       \177KERNEL32_NULL_THUNK_DATA 100791b4     kernel32:KERNEL32.dll
 0002:000001b8       __imp__lua_tostring        100791b8     lualibdll:LuaLibDll.dll
 0002:000001bc       __imp__lua_tonumber        100791bc     lualibdll:LuaLibDll.dll
 0002:000001c0       __imp__lua_pushnil         100791c0     lualibdll:LuaLibDll.dll
 0002:000001c4       __imp__lua_dofile          100791c4     lualibdll:LuaLibDll.dll
 0002:000001c8       __imp__lua_rawget          100791c8     lualibdll:LuaLibDll.dll
 0002:000001cc       __imp__lua_getglobal       100791cc     lualibdll:LuaLibDll.dll
 0002:000001d0       __imp__lua_type            100791d0     lualibdll:LuaLibDll.dll
 0002:000001d4       __imp__lua_pushnumber      100791d4     lualibdll:LuaLibDll.dll
 0002:000001d8       __imp__lua_gettop          100791d8     lualibdll:LuaLibDll.dll
 0002:000001dc       __imp__lua_typename        100791dc     lualibdll:LuaLibDll.dll
 0002:000001e0       __imp__lua_isnumber        100791e0     lualibdll:LuaLibDll.dll
 0002:000001e4       __imp__lua_isstring        100791e4     lualibdll:LuaLibDll.dll
 0002:000001e8       \177LuaLibDll_NULL_THUNK_DATA 100791e8     lualibdll:LuaLibDll.dll
 0002:000001ec       __imp_?find@?$basic_string@DU?$char_traits@D@std@@V?$allocator@D@2@@std@@QBEIPBDII@Z 100791ec     msvcprt:MSVCP60.dll
 0002:000001f0       __imp_??0Init@ios_base@std@@QAE@XZ 100791f0     msvcprt:MSVCP60.dll
 0002:000001f4       __imp_??1Init@ios_base@std@@QAE@XZ 100791f4     msvcprt:MSVCP60.dll
 0002:000001f8       __imp_??0_Winit@std@@QAE@XZ 100791f8     msvcprt:MSVCP60.dll
 0002:000001fc       __imp_??1_Winit@std@@QAE@XZ 100791fc     msvcprt:MSVCP60.dll
 0002:00000200       __imp_??1?$basic_string@DU?$char_traits@D@std@@V?$allocator@D@2@@std@@QAE@XZ 10079200     msvcprt:MSVCP60.dll
 0002:00000204       __imp_?assign@?$basic_string@DU?$char_traits@D@std@@V?$allocator@D@2@@std@@QAEAAV12@PBDI@Z 10079204     msvcprt:MSVCP60.dll
 0002:00000208       __imp_?_C@?1??_Nullstr@?$basic_string@DU?$char_traits@D@std@@V?$allocator@D@2@@std@@CAPBDXZ@4DB 10079208     msvcprt:MSVCP60.dll
 0002:0000020c       __imp_?_Eos@?$basic_string@DU?$char_traits@D@std@@V?$allocator@D@2@@std@@AAEXI@Z 1007920c     msvcprt:MSVCP60.dll
 0002:00000210       __imp_?_Grow@?$basic_string@DU?$char_traits@D@std@@V?$allocator@D@2@@std@@AAE_NI_N@Z 10079210     msvcprt:MSVCP60.dll
 0002:00000214       __imp_?_Tidy@?$basic_string@DU?$char_traits@D@std@@V?$allocator@D@2@@std@@AAEX_N@Z 10079214     msvcprt:MSVCP60.dll
 0002:00000218       __imp_?replace@?$basic_string@DU?$char_traits@D@std@@V?$allocator@D@2@@std@@QAEAAV12@IIID@Z 10079218     msvcprt:MSVCP60.dll
 0002:0000021c       __imp_?_Freeze@?$basic_string@DU?$char_traits@D@std@@V?$allocator@D@2@@std@@AAEXXZ 1007921c     msvcprt:MSVCP60.dll
 0002:00000220       __imp_?assign@?$basic_string@DU?$char_traits@D@std@@V?$allocator@D@2@@std@@QAEAAV12@ABV12@II@Z 10079220     msvcprt:MSVCP60.dll
 0002:00000224       __imp_?erase@?$basic_string@DU?$char_traits@D@std@@V?$allocator@D@2@@std@@QAEAAV12@II@Z 10079224     msvcprt:MSVCP60.dll
 0002:00000228       __imp_?npos@?$basic_string@DU?$char_traits@D@std@@V?$allocator@D@2@@std@@2IB 10079228     msvcprt:MSVCP60.dll
 0002:0000022c       \177MSVCP60_NULL_THUNK_DATA 1007922c     msvcprt:MSVCP60.dll
 0002:00000230       __imp__getcwd              10079230     MSVCRT:MSVCRT.dll
 0002:00000230       __imp___getcwd             10079230     MSVCRT:MSVCRT.dll
 0002:00000234       __imp___purecall           10079234     MSVCRT:MSVCRT.dll
 0002:00000238       __imp____CxxFrameHandler   10079238     MSVCRT:MSVCRT.dll
 0002:0000023c       __imp__chdir               1007923c     MSVCRT:MSVCRT.dll
 0002:0000023c       __imp___chdir              1007923c     MSVCRT:MSVCRT.dll
 0002:00000240       __imp__sprintf             10079240     MSVCRT:MSVCRT.dll
 0002:00000244       __imp_??2@YAPAXI@Z         10079244     MSVCRT:MSVCRT.dll
 0002:00000248       __imp__printf              10079248     MSVCRT:MSVCRT.dll
 0002:0000024c       __imp__strncpy             1007924c     MSVCRT:MSVCRT.dll
 0002:00000250       __imp__atoi                10079250     MSVCRT:MSVCRT.dll
 0002:00000254       __imp__strstr              10079254     MSVCRT:MSVCRT.dll
 0002:00000258       __imp__free                10079258     MSVCRT:MSVCRT.dll
 0002:0000025c       __imp__malloc              1007925c     MSVCRT:MSVCRT.dll
 0002:00000260       __imp__memmove             10079260     MSVCRT:MSVCRT.dll
 0002:00000264       __imp__rand                10079264     MSVCRT:MSVCRT.dll
 0002:00000268       __imp__srand               10079268     MSVCRT:MSVCRT.dll
 0002:0000026c       __imp__time                1007926c     MSVCRT:MSVCRT.dll
 0002:00000270       __imp___findclose          10079270     MSVCRT:MSVCRT.dll
 0002:00000274       __imp___findnext           10079274     MSVCRT:MSVCRT.dll
 0002:00000278       __imp___strupr             10079278     MSVCRT:MSVCRT.dll
 0002:0000027c       __imp___findfirst          1007927c     MSVCRT:MSVCRT.dll
 0002:00000280       __imp___CIpow              10079280     MSVCRT:MSVCRT.dll
 0002:00000284       __imp__realloc             10079284     MSVCRT:MSVCRT.dll
 0002:00000288       __imp__strchr              10079288     MSVCRT:MSVCRT.dll
 0002:0000028c       __imp__atof                1007928c     MSVCRT:MSVCRT.dll
 0002:00000290       __imp___except_handler3    10079290     MSVCRT:MSVCRT.dll
 0002:00000294       __imp____dllonexit         10079294     MSVCRT:MSVCRT.dll
 0002:00000298       __imp___onexit             10079298     MSVCRT:MSVCRT.dll
 0002:0000029c       __imp_?terminate@@YAXXZ    1007929c     MSVCRT:MSVCRT.dll
 0002:000002a0       __imp___initterm           100792a0     MSVCRT:MSVCRT.dll
 0002:000002a4       __imp___adjust_fdiv        100792a4     MSVCRT:MSVCRT.dll
 0002:000002a8       __imp___ftol               100792a8     MSVCRT:MSVCRT.dll
 0002:000002ac       __imp__strlwr              100792ac     MSVCRT:MSVCRT.dll
 0002:000002ac       __imp___strlwr             100792ac     MSVCRT:MSVCRT.dll
 0002:000002b0       __imp__itoa                100792b0     MSVCRT:MSVCRT.dll
 0002:000002b0       __imp___itoa               100792b0     MSVCRT:MSVCRT.dll
 0002:000002b4       \177MSVCRT_NULL_THUNK_DATA 100792b4     MSVCRT:MSVCRT.dll
 0002:000002b8       __imp__timeGetTime@0       100792b8     Winmm:WINMM.dll
 0002:000002bc       \177WINMM_NULL_THUNK_DATA  100792bc     Winmm:WINMM.dll
 0002:000002dc       ??_7KThiefSkill@@6B@       100792dc     KThiefSkill.obj
 0002:0000032c       ??_7ISkill@@6B@            1007932c     KThiefSkill.obj
 0002:0000037c       __real@4@3ff8a3d70a3d70a3d800 1007937c     KThiefSkill.obj
 0002:00000380       __real@4@4005c800000000000000 10079380     KThiefSkill.obj
 0002:00000790       ??_7KMissle@@6B@           10079790     KMissle.obj
 0002:00000794       ??_7KIndexNode@@6B@        10079794     KMissle.obj
 0002:00000798       ??_7KNode@@6B@             10079798     KMissle.obj
 0002:0000079c       ??_7KWorldMsgNode@@6B@     1007979c     KMissle.obj
 0002:000007a0       ??_7KSkillSpecialNode@@6B@ 100797a0     KMissle.obj
 0002:00000bb0       ??_7KSkill@@6B@            10079bb0     KSkills.obj
 0002:00000c00       __real@8@4005c800000000000000 10079c00     KSkills.obj
 0002:00001010       __real@4@00000000000000000000 1007a010     KNpc.obj
 0002:00001014       __real@4@40058200000000000000 1007a014     KNpc.obj
 0002:00001018       __real@4@3fff8000000000000000 1007a018     KNpc.obj
 0002:00001020       __real@8@4005be00000000000000 1007a020     KNpc.obj
 0002:00001028       ??_7KStateNode@@6B@        1007a028     KNpc.obj
 0002:00001030       __real@8@3ffe8000000000000000 1007a030     KNpc.obj
 0002:00001440       __real@8@3ff8a3d70a3d70a3d800 1007a440     KNpcAttribModify.obj
 0002:00001850       ??_7KNpcResNode@@6B@       1007a850     KNpcResNode.obj
 0002:00001c60       __real@8@3fff8000000000000000 1007ac60     KPlayer.obj
 0002:00001c68       ??_SKLuaScript@@6B@        1007ac68     KPlayer.obj
 0002:00002098       ??_7CChatFriend@@6B@       1007b098     KPlayerChat.obj
 0002:0000209c       ??_7KBasicPropertyTable@@6B@ 1007b09c     KBasPropTbl.obj
 0002:000020a4       ??_7KBPT_MagicAttrib_TF@@6B@ 1007b0a4     KBasPropTbl.obj
 0002:000020ac       ??_7KBPT_Equipment@@6B@    1007b0ac     KBasPropTbl.obj
 0002:000020b4       ??_7KBPT_Gold_Equipment@@6B@ 1007b0b4     KBasPropTbl.obj
 0002:000020bc       ??_7KBPT_Broken_Equipment@@6B@ 1007b0bc     KBasPropTbl.obj
 0002:000020c4       ??_7KBPT_Medicine@@6B@     1007b0c4     KBasPropTbl.obj
 0002:000020cc       ??_7KBPT_Quest@@6B@        1007b0cc     KBasPropTbl.obj
 0002:000020d4       ??_7KBPT_Script@@6B@       1007b0d4     KBasPropTbl.obj
 0002:000020dc       ??_7KBPT_Mine@@6B@         1007b0dc     KBasPropTbl.obj
 0002:000020e8       __real@8@00000000000000000000 1007b0e8     KItemGenerator.obj
 0002:00003924       ??_7CChatApplyListNode@@6B@ 1007c924     KProtocolProcess.obj
 0002:00003928       ??_7KScriptValueSet@@6B@   1007c928     KScriptValueSet.obj
 0002:0000392c       ??_7TIntegerValueNode@@6B@ 1007c92c     KScriptValueSet.obj
 0002:00003930       ??_7TStringValueNode@@6B@  1007c930     KScriptValueSet.obj
 0002:00003d40       ??_7KCoreShell@@6B@        1007cd40     CoreShell.obj
 0002:00003e30       __real@8@40008000000000000000 1007ce30     CoreShell.obj
 0002:00003e38       ??_7KSelfBreathLight@@6B@  1007ce38     KIpoTree.obj
 0002:00003e3c       __real@4@4006ff00000000000000 1007ce3c     KIpoTree.obj
 0002:00003e40       __real@4@3ff6b60b60b60b60b800 1007ce40     KIpoTree.obj
 0002:00003e44       ??_7KLightBase@@6B@        1007ce44     KIpoTree.obj
 0002:00003e48       __real@4@c0048000000000000000 1007ce48     KIpoTree.obj
 0002:00003e4c       __real@4@40048000000000000000 1007ce4c     KIpoTree.obj
 0002:00003e50       __real@8@400f8000000000000000 1007ce50     KIpoTree.obj
 0002:00003e58       __real@4@4005af00000000000000 1007ce58     KIpoTree.obj
 0002:00003e60       ?m_PrevLoadPosOffset@KScenePlaceC@@0QAY02$$CBU_KPrevLoadPosItem@@A 1007ce60     KScenePlaceC.obj
 0002:00003fec       __real@4@3ff88888888888888800 1007cfec     KScenePlaceC.obj
 0002:00003ff0       ??_7TreeObjSet@?BH@??Preprocess@KScenePlaceC@@AAEXXZ@6B@ 1007cff0     KScenePlaceC.obj
 0002:00003ff8       __real@8@40038000000000000000 1007cff8     KScenePlaceC.obj
 0002:00004000       __real@8@3ff8a3d70a0000000000 1007d000     KScenePlaceC.obj
 0002:00004008       ??_7KWeather@@6B@          1007d008     KWeather.obj
 0002:00004020       ??_7KWeatherRain@@6B@      1007d020     KWeather.obj
 0002:00004038       __real@4@4007fa00000000000000 1007d038     KWeather.obj
 0002:0000403c       __real@4@3ffaccccccccccccd000 1007d03c     KWeather.obj
 0002:00004040       __real@4@3ffeb333330000000000 1007d040     KWeather.obj
 0002:00004044       __real@4@3ff7a3d70a0000000000 1007d044     KWeather.obj
 0002:00004048       __real@4@3ffb999999999999a000 1007d048     KWeather.obj
 0002:0000404c       __real@4@3ff9ccccccccccccd000 1007d04c     KWeather.obj
 0002:00004050       __real@8@40048000000000000000 1007d050     SceneMath.obj
 0002:00004058       ?MAGIC_ATTRIB_STRING@@3QAY0GE@$$CBDA 1007d058     KMagicDesc.obj
 0002:0000aea0       __real@4@3ffc8888888888888800 10083ea0     KJXPathFinder.obj
 0002:0000aea4       __real@4@4002f000000000000000 10083ea4     KJXPathFinder.obj
 0002:0000aea8       __real@4@4002a000000000000000 10083ea8     KJXPathFinder.obj
 0002:0000aeac       __real@4@4002e000000000000000 10083eac     KJXPathFinder.obj
 0002:0000c3d8       __IMPORT_DESCRIPTOR_KERNEL32 100853d8     kernel32:KERNEL32.dll
 0002:0000c3ec       __IMPORT_DESCRIPTOR_LuaLibDll 100853ec     lualibdll:LuaLibDll.dll
 0002:0000c400       __IMPORT_DESCRIPTOR_WINMM  10085400     Winmm:WINMM.dll
 0002:0000c414       __IMPORT_DESCRIPTOR_Engine 10085414     engine:Engine.dll
 0002:0000c428       __IMPORT_DESCRIPTOR_MSVCP60 10085428     msvcprt:MSVCP60.dll
 0002:0000c43c       __IMPORT_DESCRIPTOR_MSVCRT 1008543c     MSVCRT:MSVCRT.dll
 0002:0000c450       __NULL_IMPORT_DESCRIPTOR   10085450     kernel32:KERNEL32.dll
 0003:00000000       ___xc_a                    10089000     MSVCRT:cinitexe.obj
 0003:000000e8       ___xc_z                    100890e8     MSVCRT:cinitexe.obj
 0003:000000ec       ___xi_a                    100890ec     MSVCRT:cinitexe.obj
 0003:000000f0       ___xi_z                    100890f0     MSVCRT:cinitexe.obj
 0003:00000100       ??_C@_0L@FDBP@SkillSound?$AA@ 10089100     KThiefSkill.obj
 0003:0000010c       ??_C@_0BA@BJCC@TargetMovieInfo?$AA@ 1008910c     KThiefSkill.obj
 0003:0000011c       ??_C@_05OJEC@1?01?01?$AA@  1008911c     KThiefSkill.obj
 0003:00000124       ??_C@_0M@LPLP@TargetMovie?$AA@ 10089124     KThiefSkill.obj
 0003:00000130       ??_C@_05CHKH@Movie?$AA@    10089130     KThiefSkill.obj
 0003:00000138       ??_C@_09HMBH@SkillIcon?$AA@ 10089138     KThiefSkill.obj
 0003:00000144       ??_C@_0BJ@JACH@?2spr?2skill?2?M?$LM?$LB?j?2?M?$KI?S?C?4spr?$AA@ 10089144     KThiefSkill.obj
 0003:00000160       ??_C@_04DKMG@Desc?$AA@     10089160     KThiefSkill.obj
 0003:00000168       ??_C@_06DMFP@Param1?$AA@   10089168     KThiefSkill.obj
 0003:00000170       ??_C@_0P@EKAE@CostUsePrecent?$AA@ 10089170     KThiefSkill.obj
 0003:00000180       ??_C@_09KENA@SkillName?$AA@ 10089180     KThiefSkill.obj
 0003:0000018c       ??_C@_0L@CJJL@ThiefStyle?$AA@ 1008918c     KThiefSkill.obj
 0003:00000198       ??_C@_09BCLK@TargetObj?$AA@ 10089198     KThiefSkill.obj
 0003:000001a4       ??_C@_0L@EGCM@TargetAlly?$AA@ 100891a4     KThiefSkill.obj
 0003:000001b0       ??_C@_0M@EBKI@TargetEnemy?$AA@ 100891b0     KThiefSkill.obj
 0003:000001bc       ??_C@_0N@PLIG@ThiefPercent?$AA@ 100891bc     KThiefSkill.obj
 0003:000001cc       ??_C@_04IHF@Cost?$AA@      100891cc     KThiefSkill.obj
 0003:000001d4       ??_C@_0O@JJKM@SkillCostType?$AA@ 100891d4     KThiefSkill.obj
 0003:000001e4       ??_C@_0M@FELF@TimePerCast?$AA@ 100891e4     KThiefSkill.obj
 0003:000001f0       ??_C@_0N@LBIN@AttackRadius?$AA@ 100891f0     KThiefSkill.obj
 0003:00000200       ?g_CollisionMatrix@@3PAUTCollisionMatrix@@A 10089200     KMissle.obj
 0003:00000a00       ??_C@_0BA@PAFJ@ColFollowTarget?$AA@ 10089a00     KMissle.obj
 0003:00000a10       ??_C@_07CKM@SubStop?$AA@   10089a10     KMissle.obj
 0003:00000a18       ??_C@_08CAJJ@SubStart?$AA@ 10089a18     KMissle.obj
 0003:00000a24       ??_C@_07MAEH@SubLoop?$AA@  10089a24     KMissle.obj
 0003:00000a2c       ??_C@_08OBCD@LoopPlay?$AA@ 10089a2c     KMissle.obj
 0003:00000a38       ??_C@_0BA@BPCH@AnimFileInfoB?$CFd?$AA@ 10089a38     KMissle.obj
 0003:00000a48       ??_C@_0L@HHEO@SndFileB?$CFd?$AA@ 10089a48     KMissle.obj
 0003:00000a54       ??_C@_0M@LCCH@AnimFileB?$CFd?$AA@ 10089a54     KMissle.obj
 0003:00000a60       ??_C@_0P@EKPH@AnimFileInfo?$CFd?$AA@ 10089a60     KMissle.obj
 0003:00000a70       ??_C@_09CDAF@SndFile?$CFd?$AA@ 10089a70     KMissle.obj
 0003:00000a7c       ??_C@_0L@EKAK@AnimFile?$CFd?$AA@ 10089a7c     KMissle.obj
 0003:00000a88       ??_C@_09PDKK@MultiShow?$AA@ 10089a88     KMissle.obj
 0003:00000a94       ??_C@_0M@HJOL@LightRadius?$AA@ 10089a94     KMissle.obj
 0003:00000aa0       ??_C@_07BJEB@BlueLum?$AA@  10089aa0     KMissle.obj
 0003:00000aa8       ??_C@_08KOFB@GreenLum?$AA@ 10089aa8     KMissle.obj
 0003:00000ab4       ??_C@_06PIMC@RedLum?$AA@   10089ab4     KMissle.obj
 0003:00000abc       ??_C@_0M@MLLA@DmgInterval?$AA@ 10089abc     KMissle.obj
 0003:00000ac8       ??_C@_0M@CDCB@AutoExplode?$AA@ 10089ac8     KMissle.obj
 0003:00000ad4       ??_C@_06GJHB@Param3?$AA@   10089ad4     KMissle.obj
 0003:00000adc       ??_C@_06MDOG@Param2?$AA@   10089adc     KMissle.obj
 0003:00000ae4       ??_C@_06EDNA@Zspeed?$AA@   10089ae4     KMissle.obj
 0003:00000aec       ??_C@_04LIGI@Zacc?$AA@     10089aec     KMissle.obj
 0003:00000af4       ??_C@_0L@ICBE@FollowKind?$AA@ 10089af4     KMissle.obj
 0003:00000b00       ??_C@_08MKEC@MoveKind?$AA@ 10089b00     KMissle.obj
 0003:00000b0c       ??_C@_08EKOK@DmgRange?$AA@ 10089b0c     KMissle.obj
 0003:00000b18       ??_C@_0L@DOMN@IsRangeDmg?$AA@ 10089b18     KMissle.obj
 0003:00000b24       ??_C@_07ICPB@CanSlow?$AA@  10089b24     KMissle.obj
 0003:00000b2c       ??_C@_0N@MOFP@CanColFriend?$AA@ 10089b2c     KMissle.obj
 0003:00000b3c       ??_C@_09LLHA@ColVanish?$AA@ 10089b3c     KMissle.obj
 0003:00000b48       ??_C@_0M@IPHD@CollidRange?$AA@ 10089b48     KMissle.obj
 0003:00000b54       ??_C@_0O@CEMO@ResponseSkill?$AA@ 10089b54     KMissle.obj
 0003:00000b64       ??_C@_05PDDA@Speed?$AA@    10089b64     KMissle.obj
 0003:00000b6c       ??_C@_08CLHE@LifeTime?$AA@ 10089b6c     KMissle.obj
 0003:00000b78       ??_C@_0N@IMPH@MissleHeight?$AA@ 10089b78     KMissle.obj
 0003:00000b88       ??_C@_0L@MDID@MissleName?$AA@ 10089b88     KMissle.obj
 0003:00000b94       ??_C@_05BKP@?$CFd_?$CFd?$AA@ 10089b94     KMissleRes.obj
 0003:00000b9c       ??_C@_0CK@PAOH@MissleSet?5Have?5Full?$CB?$CB?$CB?0?5It?5Maybe@ 10089b9c     KMissleSet.obj
 0003:00000bc8       ??_C@_0BJ@LELB@?2SETTINGS?2THIEFSKILL?4TXT?$AA@ 10089bc8     KSkillManager.obj
 0003:00000be4       ??_C@_08KGGF@MaxLevel?$AA@ 10089be4     KSkillManager.obj
 0003:00000bf0       ??_C@_0L@BMHF@SkillStyle?$AA@ 10089bf0     KSkillManager.obj
 0003:00000bfc       ??_C@_07FGDJ@SkillId?$AA@  10089bfc     KSkillManager.obj
 0003:00000c04       ??_C@_0L@NPNH@BuffEffect?$AA@ 10089c04     KSkills.obj
 0003:00000c10       ??_C@_09MBDE@FMCastSnd?$AA@ 10089c10     KSkills.obj
 0003:00000c1c       ??_C@_0L@CECD@ManCastSnd?$AA@ 10089c1c     KSkills.obj
 0003:00000c28       ??_C@_0L@BDID@PreCastSpr?$AA@ 10089c28     KSkills.obj
 0003:00000c34       ??_C@_07LOAG@LRSkill?$AA@  10089c34     KSkills.obj
 0003:00000c3c       ??_C@_0L@GBMO@NeedShadow?$AA@ 10089c3c     KSkills.obj
 0003:00000c48       ??_C@_09NLMO@SkillDesc?$AA@ 10089c48     KSkills.obj
 0003:00000c54       ??_C@_0L@HLNN@IsExpSkill?$AA@ 10089c54     KSkills.obj
 0003:00000c60       ??_C@_09NCCJ@ShowEvent?$AA@ 10089c60     KSkills.obj
 0003:00000c6c       ??_C@_0O@BKID@StatePriority?$AA@ 10089c6c     KSkills.obj
 0003:00000c7c       ??_C@_0P@PHDN@StateSpecialId?$AA@ 10089c7c     KSkills.obj
 0003:00000c8c       ??_C@_0N@FCJK@HeelAtParent?$AA@ 10089c8c     KSkills.obj
 0003:00000c9c       ??_C@_0N@NHMJ@StopWhenMove?$AA@ 10089c9c     KSkills.obj
 0003:00000cac       ??_C@_0L@DDCH@TargetSelf?$AA@ 10089cac     KSkills.obj
 0003:00000cb8       ??_C@_0L@JEDK@ClientSend?$AA@ 10089cb8     KSkills.obj
 0003:00000cc4       ??_C@_08KDCG@WaitTime?$AA@ 10089cc4     KSkills.obj
 0003:00000cd0       ??_C@_0N@PFI@MaxShadowNum?$AA@ 10089cd0     KSkills.obj
 0003:00000ce0       ??_C@_0BB@DGJJ@MslsGenerateData?$AA@ 10089ce0     KSkills.obj
 0003:00000cf4       ??_C@_0N@KHIC@MslsGenerate?$AA@ 10089cf4     KSkills.obj
 0003:00000d04       ??_C@_0N@PKDF@FlyEventTime?$AA@ 10089d04     KSkills.obj
 0003:00000d14       ??_C@_07HKCA@IsMelee?$AA@  10089d14     KSkills.obj
 0003:00000d1c       ??_C@_0BA@JADL@EventSkillLevel?$AA@ 10089d1c     KSkills.obj
 0003:00000d2c       ??_C@_0BA@GEHB@ChildSkillLevel?$AA@ 10089d2c     KSkills.obj
 0003:00000d3c       ??_C@_09PPMA@CostValue?$AA@ 10089d3c     KSkills.obj
 0003:00000d48       ??_C@_0O@DHIF@CollidSkillId?$AA@ 10089d48     KSkills.obj
 0003:00000d58       ??_C@_0BA@BHEA@VanishedSkillId?$AA@ 10089d58     KSkills.obj
 0003:00000d68       ??_C@_0N@OEOH@StartSkillId?$AA@ 10089d68     KSkills.obj
 0003:00000d78       ??_C@_0L@MDIN@FlySkillId?$AA@ 10089d78     KSkills.obj
 0003:00000d84       ??_C@_0O@HGMF@VanishedEvent?$AA@ 10089d84     KSkills.obj
 0003:00000d94       ??_C@_0N@GKON@CollideEvent?$AA@ 10089d94     KSkills.obj
 0003:00000da4       ??_C@_0L@PGKK@StartEvent?$AA@ 10089da4     KSkills.obj
 0003:00000db0       ??_C@_08HFEG@FlyEvent?$AA@ 10089db0     KSkills.obj
 0003:00000dbc       ??_C@_0N@CLHK@ChildSkillId?$AA@ 10089dbc     KSkills.obj
 0003:00000dcc       ??_C@_08EGED@ByMissle?$AA@ 10089dcc     KSkills.obj
 0003:00000dd8       ??_C@_09GOAJ@BaseSkill?$AA@ 10089dd8     KSkills.obj
 0003:00000de4       ??_C@_0L@BHHN@TargetOnly?$AA@ 10089de4     KSkills.obj
 0003:00000df0       ??_C@_07BALM@IsUseAR?$AA@  10089df0     KSkills.obj
 0003:00000df8       ??_C@_06FHFO@IsAura?$AA@   10089df8     KSkills.obj
 0003:00000e00       ??_C@_0L@MDJJ@IsPhysical?$AA@ 10089e00     KSkills.obj
 0003:00000e0c       ??_C@_0L@PFGJ@CharAnimId?$AA@ 10089e0c     KSkills.obj
 0003:00000e18       ??_C@_09NNND@CharClass?$AA@ 10089e18     KSkills.obj
 0003:00000e24       ??_C@_0M@BDNI@MisslesForm?$AA@ 10089e24     KSkills.obj
 0003:00000e30       ??_C@_0O@NMBK@ChildSkillNum?$AA@ 10089e30     KSkills.obj
 0003:00000e40       ??_C@_06BMOM@DoHurt?$AA@   10089e40     KSkills.obj
 0003:00000e48       ??_C@_0L@PKIM@HorseLimit?$AA@ 10089e48     KSkills.obj
 0003:00000e54       ??_C@_08BPMA@EqtLimit?$AA@ 10089e54     KSkills.obj
 0003:00000e60       ??_C@_08BPMG@ReqLevel?$AA@ 10089e60     KSkills.obj
 0003:00000e6c       ??_C@_06HAAG@Attrib?$AA@   10089e6c     KSkills.obj
 0003:00000e74       ??_C@_02MECO@?$CFd?$AA@    10089e74     KSkills.obj
 0003:00000e78       ??_C@_0BC@MKKH@GetSkillLevelData?$AA@ 10089e78     KSkills.obj
 0003:00000e8c       ??_C@_03GDPD@ssd?$AA@      10089e8c     KSkills.obj
 0003:00000e90       ??_C@_09PAIP@LvlData?$CFd?$AA@ 10089e90     KSkills.obj
 0003:00000e9c       ??_C@_0N@LGNO@LvlSetting?$CFd?$AA@ 10089e9c     KSkills.obj
 0003:00000eac       ??_C@_01PCFE@?2?$AA@       10089eac     KSkills.obj
 0003:00000eb0       ??_C@_0N@BIJN@LvlSetScript?$AA@ 10089eb0     KSkills.obj
 0003:00000ec0       ??_C@_0CA@BEMB@?6?$DMcolor?$DNRed?$DO?$KH?$LMng?5c?Jp?5ti?Up?5theo?6?$AA@ 10089ec0     KSkills.obj
 0003:00000ee0       ??_C@_0M@GJFD@WeaponLimit?$AA@ 10089ee0     KSkills.obj
 0003:00000eec       ??_C@_02IMFN@F1?$AA@       10089eec     KSkills.obj
 0003:00000ef0       ??_C@_02HDOE@F2?$AA@       10089ef0     KSkills.obj
 0003:00000ef4       ??_C@_0BB@NNOC@H?$LJn?5ch?U?5v?r?5kh?$NN?3?5?$AA@ 10089ef4     KSkills.obj
 0003:00000f08       ??_C@_0CJ@BDFP@Kh?$KLng?5th?S?5s?v?5d?tng?5k?$PM?5n?$KIng?5khi?5tr@ 10089f08     KSkills.obj
 0003:00000f34       ??_C@_0BL@EE@K?$PM?5n?$KIng?5s?v?5d?tng?5tr?$KKn?5ng?ya?6?$AA@ 10089f34     KSkills.obj
 0003:00000f50       ??_C@_0FI@FFKO@?$DMcolor?$DNblue?$DOT?Gng?5th?x?5?$CFd?3?$DMcolor?$DO?5@ 10089f50     KSkills.obj
 0003:00000fa8       ??_C@_0CC@PGNP@?5?$CI?$DMcolor?$DNred?$DOC?Jp?5cao?5nh?Jt?$DMcolor?$DO@ 10089fa8     KSkills.obj
 0003:00000fcc       ??_C@_0BG@GBEP@?$KH?$LMng?5c?Jp?5hi?Vn?5t?$LJi?3?5?$CFd?$AA@ 10089fcc     KSkills.obj
 0003:00000fe4       ??_C@_0DC@CFPJ@?$KH?$LMng?5c?Jp?5hi?Vn?5t?$LJi?3?$CFd?5?$CI?$CFd?5?$CL?5?$DMcolo@ 10089fe4     KSkills.obj
 0003:00001018       ??_C@_0M@HPIM@SkillAttrib?$AA@ 1008a018     KSkills.obj
 0003:00001024       ??_C@_02JJJH@?6?6?$AA@     1008a024     KSkills.obj
 0003:00001028       ??_C@_01BJG@?6?$AA@        1008a028     KSkills.obj
 0003:0000102c       ??_C@_07DLDD@?$DMcolor?$DO?$AA@ 1008a02c     KSkills.obj
 0003:00001034       ??_C@_0BF@NFCJ@?$KH?$LMng?5c?Jp?5y?$KKu?5c?Gu?3?5?$CFd?$AA@ 1008a034     KSkills.obj
 0003:0000104c       ??_C@_0M@HPBD@?$DMcolor?$DNred?$DO?$AA@ 1008a04c     KSkills.obj
 0003:00001058       ??_C@_0BF@NBPM@?6?$DMbclr?$DNBlack?$DO?$DMcolor?$DO?$AA@ 1008a058     KSkills.obj
 0003:00001070       ??_C@_0P@KJDM@?$DMcolor?$DNYellow?$DO?$AA@ 1008a070     KSkills.obj
 0003:00001080       ??_C@_0DF@PIAL@Nh?Kn?5h?g?5tr?n?5t?u?5k?$PM?5n?$KIng?5kh?$LIc?3?5?$DMco@ 1008a080     KSkills.obj
 0003:000010b8       ??_C@_0CJ@DCNH@M?xc?5?$KO?i?5luy?Vn?5?$DMcolor?$DNwater?$DO?$CF0?42f?$CF@ 1008a0b8     KSkills.obj
 0003:000010e4       ??_C@_0N@BNMJ@Ph?$LJm?5vi?3?5?$CFd?6?$AA@ 1008a0e4     KSkills.obj
 0003:000010f4       ??_C@_0BG@JFJH@N?ii?5l?yc?5ti?$KKu?5hao?3?5?$CFd?6?$AA@ 1008a0f4     KSkills.obj
 0003:0000110c       ??_C@_0BG@KKFL@Th?S?5l?yc?5ti?$KKu?5hao?3?5?$CFd?6?$AA@ 1008a10c     KSkills.obj
 0003:00001124       ??_C@_0BH@MEGC@Sinh?5l?yc?5ti?$KKu?5hao?3?5?$CFd?6?$AA@ 1008a124     KSkills.obj
 0003:0000113c       ??_C@_04HGOJ@Camp?$AA@     1008a13c     KFaction.obj
 0003:00001144       ??_C@_08OBKL@ShowName?$AA@ 1008a144     KFaction.obj
 0003:00001150       ??_C@_0P@BNPG@Thi?Uu?5L?$KJm?5ph?$LIi?$AA@ 1008a150     KFaction.obj
 0003:00001160       ??_C@_04EFNI@Name?$AA@     1008a160     KFaction.obj
 0003:00001168       ??_C@_07IAHF@shaolin?$AA@  1008a168     KFaction.obj
 0003:00001170       ??_C@_06NHCF@Series?$AA@   1008a170     KFaction.obj
 0003:00001178       ??_C@_0CC@IAHD@?2settings?2faction?2factioninfo?4in@ 1008a178     KFaction.obj
 0003:0000119c       ??_C@_07FFLF@S?y?5ki?Vn?$AA@ 1008a19c     KFaction.obj
 0003:000011a4       ??_C@_08NAAE@Qu?$LIi?5th?s?$AA@ 1008a1a4     KFaction.obj
 0003:000011b0       ??_C@_07FCEO@S?$LIt?5th?q?$AA@ 1008a1b0     KFaction.obj
 0003:000011b8       ??_C@_09NFMN@C_BALANCE?$AA@ 1008a1b8     KFaction.obj
 0003:000011c4       ??_C@_06ECGP@C_EVIL?$AA@   1008a1c4     KFaction.obj
 0003:000011cc       ??_C@_09JFDN@C_JUSTICE?$AA@ 1008a1cc     KFaction.obj
 0003:000011d8       ??_C@_07NHNF@S?$KM?5nh?Kp?$AA@ 1008a1d8     KFaction.obj
 0003:000011e0       ??_C@_07HLOG@S_EARTH?$AA@  1008a1e0     KFaction.obj
 0003:000011e8       ??_C@_06GCAI@S_FIRE?$AA@   1008a1e8     KFaction.obj
 0003:000011f0       ??_C@_07BGL@S_WATER?$AA@   1008a1f0     KFaction.obj
 0003:000011f8       ??_C@_06MHGG@S_WOOD?$AA@   1008a1f8     KFaction.obj
 0003:00001200       ??_C@_06KJLI@S_GOLD?$AA@   1008a200     KFaction.obj
 0003:00001208       ??_C@_0CB@HOLE@?2spr?2skill?2?$LC?$LJ?$LD?d?2mag_spe_?Q?$KD?T?N?4spr@ 1008a208     KNpc.obj
 0003:0000122c       ??_C@_0BC@FKNO@N?ii?5l?yc?5kh?$KLng?5?$KO?q?$CB?$AA@ 1008a22c     KNpc.obj
 0003:00001240       ??_C@_0BC@CPHI@Th?S?5l?yc?5kh?$KLng?5?$KO?q?$CB?$AA@ 1008a240     KNpc.obj
 0003:00001254       ??_C@_0BD@MIOI@Sinh?5l?yc?5kh?$KLng?5?$KO?q?$CB?$AA@ 1008a254     KNpc.obj
 0003:00001268       ??_C@_08KILN@MainLady?$AA@ 1008a268     KNpc.obj
 0003:00001274       ??_C@_07JBAF@MainMan?$AA@  1008a274     KNpc.obj
 0003:0000127c       ??_C@_0L@MIBL@ClientOnly?$AA@ 1008a27c     KNpc.obj
 0003:00001288       ??_C@_0N@OHDC@ActiveRadius?$AA@ 1008a288     KNpc.obj
 0003:00001298       ??_C@_08HPPG@AIParam7?$AA@ 1008a298     KNpc.obj
 0003:000012a4       ??_C@_08NFGB@AIParam6?$AA@ 1008a2a4     KNpc.obj
 0003:000012b0       ??_C@_08CKNI@AIParam5?$AA@ 1008a2b0     KNpc.obj
 0003:000012bc       ??_C@_08IAEP@AIParam4?$AA@ 1008a2bc     KNpc.obj
 0003:000012c8       ??_C@_08NFKK@AIParam3?$AA@ 1008a2c8     KNpc.obj
 0003:000012d4       ??_C@_08HPDN@AIParam2?$AA@ 1008a2d4     KNpc.obj
 0003:000012e0       ??_C@_08IAIE@AIParam1?$AA@ 1008a2e0     KNpc.obj
 0003:000012ec       ??_C@_06KAOA@AIMode?$AA@   1008a2ec     KNpc.obj
 0003:000012f4       ??_C@_0O@NBA@CharacterName?$AA@ 1008a2f4     KNpc.obj
 0003:00001304       ??_C@_0L@DEJK@NpcResType?$AA@ 1008a304     KNpc.obj
 0003:00001310       ??_C@_01KMMP@?$CJ?$AA@     1008a310     KNpc.obj
 0003:00001314       ??_C@_04BHFC@Lo?$LJn?$AA@  1008a314     KNpc.obj
 0003:0000131c       ??_C@_02ELAH@M?$KK?$AA@    1008a31c     KNpc.obj
 0003:00001320       ??_C@_03HGDK@?$KH?ic?$AA@  1008a320     KNpc.obj
 0003:00001324       ??_C@_04NIIN@B?$KIng?$AA@  1008a324     KNpc.obj
 0003:0000132c       ??_C@_01GFI@?$CI?$AA@      1008a32c     KNpc.obj
 0003:00001330       ??_C@_0P@MLDP@?$FLT?da?5?$KO?i?3?$CFd?1?$CFd?$FN?$AA@ 1008a330     KNpc.obj
 0003:00001340       ??_C@_0BA@IDKF@?$FL?$CFs?5?9?5T?$KO?3?$CFd?1?$CFd?$FN?$AA@ 1008a340     KNpc.obj
 0003:00001350       ??_C@_0N@DPIH@?$KHang?5t?y?5?$KO?ing?$AA@ 1008a350     KNpc.obj
 0003:00001360       ??_C@_04GKDJ@?$FL?$CFs?$FN?$AA@ 1008a360     KNpc.obj
 0003:00001368       ??_C@_0BB@GOGG@T?Wm?5?$KO?hi?5t?$KN?nng?4?4?4?$AA@ 1008a368     KNpc.obj
 0003:0000137c       ??_C@_07GCDF@Actions?$AA@  1008a37c     KNpc.obj
 0003:00001384       ??_C@_01FBAH@1?$AA@        1008a384     KNpc.obj
 0003:00001388       ??_C@_01PLJA@0?$AA@        1008a388     KNpc.obj
 0003:0000138c       ??_C@_05BAJN@?$CFs?9?$CFs?$AA@ 1008a38c     KNpc.obj
 0003:00001394       ??_C@_09IEJ@TransLife?$AA@ 1008a394     KNpc.obj
 0003:000013a0       ??_C@_05PNPP@Right?$AA@    1008a3a0     KNpc.obj
 0003:000013a8       ??_C@_03IOCG@Mid?$AA@      1008a3a8     KNpc.obj
 0003:000013ac       ??_C@_0L@NCMM@PlayerShop?$AA@ 1008a3ac     KNpc.obj
 0003:000013b8       ??_C@_04MKGK@Left?$AA@     1008a3b8     KNpc.obj
 0003:000013c0       ??_C@_0CE@BMOE@C?c?5cao?5th?q?5mai?5ph?tc?5h?$LHy?5th?Kn?5tr?d@ 1008a3c0     KNpc.obj
 0003:000013e4       ??_C@_04HBMH@main?$AA@     1008a3e4     KNpc.obj
 0003:000013ec       ??_C@_0DK@NACC@?$FLKNPC?$FN?5Exception?5Have?5Caught?5Whe@ 1008a3ec     KNpc.obj
 0003:00001428       ??_C@_01FNHM@d?$AA@        1008a428     KNpc.obj
 0003:0000142c       ??_C@_08GGGI@SubWorld?$AA@ 1008a42c     KNpc.obj
 0003:00001438       ??_C@_05GCE@NpcId?$AA@     1008a438     KNpc.obj
 0003:00001440       ??_C@_08BDIH@NpcIndex?$AA@ 1008a440     KNpc.obj
 0003:0000144c       ??_C@_02HDNN@sd?$AA@       1008a44c     KNpc.obj
 0003:00001450       ??_C@_0DL@KLIB@?$FLKNPC?$FN?5Exception?5Have?5Caught?5Whe@ 1008a450     KNpc.obj
 0003:0000148c       ??_C@_0M@IFME@PlayerIndex?$AA@ 1008a48c     KNpc.obj
 0003:00001498       ??_C@_02HICB@dd?$AA@       1008a498     KNpc.obj
 0003:0000149c       ??_C@_0CC@JFHM@?2settings?2npc?2npcgoldtemplate?4tx@ 1008a49c     KNpcGold.obj
 0003:000014c0       ??_C@_0BC@KJPD@NpcActionName?4txt?$AA@ 1008a4c0     KNpcResList.obj
 0003:000014d4       ??_C@_0P@NHGB@ActionName?4txt?$AA@ 1008a4d4     KNpcResList.obj
 0003:000014e4       ??_C@_06JKCK@16?08?00?$AA@ 1008a4e4     KNpcResNode.obj
 0003:000014ec       ??_C@_0BO@HENP@?2settings?2npcres?2NpcSound?4txt?$AA@ 1008a4ec     KNpcResNode.obj
 0003:0000150c       ??_C@_0CG@GMCE@?2settings?2npcres?2NpcNormalSprInf@ 1008a50c     KNpcResNode.obj
 0003:00001534       ??_C@_0CC@IBPL@?2settings?2npcres?2NpcNormalRes?4tx@ 1008a534     KNpcResNode.obj
 0003:00001558       ??_C@_05NNFE@sound?$AA@    1008a558     KNpcResNode.obj
 0003:00001560       ??_C@_0CB@JPNO@?2settings?2npcres?2PlayerSound?4txt@ 1008a560     KNpcResNode.obj
 0003:00001584       ??_C@_06DALN@16?08?01?$AA@ 1008a584     KNpcResNode.obj
 0003:0000158c       ??_C@_0CF@GCGE@?2settings?2npcres?2PlayerResShadow@ 1008a58c     KNpcResNode.obj
 0003:000015b4       ??_C@_0BF@FCGL@ActionRenderOrderTab?$AA@ 1008a5b4     KNpcResNode.obj
 0003:000015cc       ??_C@_0BB@NIBD@WeaponActionTab2?$AA@ 1008a5cc     KNpcResNode.obj
 0003:000015e0       ??_C@_0BB@CHKK@WeaponActionTab1?$AA@ 1008a5e0     KNpcResNode.obj
 0003:000015f4       ??_C@_07JHGN@16?016?00?$AA@ 1008a5f4     KNpcResNode.obj
 0003:000015fc       ??_C@_04KFHH@?4txt?$AA@    1008a5fc     KNpcResNode.obj
 0003:00001604       ??_C@_04BOIP@Info?$AA@     1008a604     KNpcResNode.obj
 0003:0000160c       ??_C@_0BB@NKEF@?2settings?2npcres?$AA@ 1008a60c     KNpcResNode.obj
 0003:00001620       ??_C@_0N@HIOH@PartFileName?$AA@ 1008a620     KNpcResNode.obj
 0003:00001630       ??_C@_0M@DLJC@ResFilePath?$AA@ 1008a630     KNpcResNode.obj
 0003:0000163c       ??_C@_0L@ONDK@SpecialNpc?$AA@ 1008a63c     KNpcResNode.obj
 0003:00001648       ??_C@_0O@BKCH@CharacterType?$AA@ 1008a648     KNpcResNode.obj
 0003:00001658       ??_C@_0CA@HGEO@?2settings?2npcres?2NpcResKind?4txt?$AA@ 1008a658     KNpcResNode.obj
 0003:00001678       ??_C@_05BMIE@b?4spr?$AA@   1008a678     KNpcResNode.obj
 0003:00001680       ??_C@_04PHFA@Loop?$AA@     1008a680     KNpcResNode.obj
 0003:00001688       ??_C@_04DNDI@Foot?$AA@     1008a688     KNpcResNode.obj
 0003:00001690       ??_C@_04JHAH@Head?$AA@     1008a690     KNpcResNode.obj
 0003:00001698       ??_C@_0CA@NNLK@?2settings?2npcres?2StateMagic?4txt?$AA@ 1008a698     KNpcResNode.obj
 0003:000016b8       ??_C@_06CNNP@Line?$CFd?$AA@ 1008a6b8     KNpcResNode.obj
 0003:000016c0       ??_C@_07FBHA@DEFAULT?$AA@  1008a6c0     KNpcResNode.obj
 0003:000016c8       ??_C@_05PONC@Dir?$CFd?$AA@ 1008a6c8     KNpcResNode.obj
 0003:000016d0       ??_C@_0CD@GEFG@?2settings?2npc?2player?2basevalue?4i@ 1008a6d0     KNpcSet.obj
 0003:000016f4       ??_C@_0L@IOGM@StandFrame?$AA@ 1008a6f4     KNpcSet.obj
 0003:00001700       ??_C@_08NDHA@RunFrame?$AA@ 1008a700     KNpcSet.obj
 0003:0000170c       ??_C@_06KOEB@Female?$AA@   1008a70c     KNpcSet.obj
 0003:00001714       ??_C@_04DMIE@Male?$AA@     1008a714     KNpcSet.obj
 0003:0000171c       ??_C@_09FAL@WalkFrame?$AA@ 1008a71c     KNpcSet.obj
 0003:00001728       ??_C@_0M@DFBK@AttackFrame?$AA@ 1008a728     KNpcSet.obj
 0003:00001734       ??_C@_09DKND@WalkSpeed?$AA@ 1008a734     KNpcSet.obj
 0003:00001740       ??_C@_08OMKI@RunSpeed?$AA@ 1008a740     KNpcSet.obj
 0003:0000174c       ??_C@_06GEBA@Common?$AA@   1008a74c     KNpcSet.obj
 0003:00001754       ??_C@_09LLIK@HurtFrame?$AA@ 1008a754     KNpcSet.obj
 0003:00001760       ??_C@_0CK@NIMM@?2settings?2npcres?2PlayerInstantSp@ 1008a760     KNpcSet.obj
 0003:0000178c       ??_C@_04EKBK@Game?$AA@     1008a78c     KNpcSet.obj
 0003:00001794       ??_C@_0BI@FDPC@?2settings?2SoundList?4txt?$AA@ 1008a794     KNpcSet.obj
 0003:000017ac       ??_C@_0M@CMOP@LevelScript?$AA@ 1008a7ac     KNpcTemplate.obj
 0003:000017b8       ??_C@_0N@CNFA@ActionScript?$AA@ 1008a7b8     KNpcTemplate.obj
 0003:000017c8       ??_C@_09FKHG@RideHorse?$AA@ 1008a7c8     KNpcTemplate.obj
 0003:000017d4       ??_C@_09LDGD@HorseType?$AA@ 1008a7d4     KNpcTemplate.obj
 0003:000017e0       ??_C@_0L@GMMI@WeaponType?$AA@ 1008a7e0     KNpcTemplate.obj
 0003:000017ec       ??_C@_08PAMJ@HelmType?$AA@ 1008a7ec     KNpcTemplate.obj
 0003:000017f8       ??_C@_09FPFA@ArmorType?$AA@ 1008a7f8     KNpcTemplate.obj
 0003:00001804       ??_C@_07EPMP@Stature?$AA@  1008a804     KNpcTemplate.obj
 0003:0000180c       ??_C@_0M@HKIJ@StandFrame1?$AA@ 1008a80c     KNpcTemplate.obj
 0003:00001818       ??_C@_09FMAN@CastSpeed?$AA@ 1008a818     KNpcTemplate.obj
 0003:00001824       ??_C@_0M@KMC@AttackSpeed?$AA@ 1008a824     KNpcTemplate.obj
 0003:00001830       ??_C@_0L@JA@DeathFrame?$AA@ 1008a830     KNpcTemplate.obj
 0003:0000183c       ??_C@_09OPBO@CorpseIdx?$AA@ 1008a83c     KNpcTemplate.obj
 0003:00001848       ??_C@_09IFFL@HeadImage?$AA@ 1008a848     KNpcTemplate.obj
 0003:00001854       ??_C@_04PEBP@Kind?$AA@     1008a854     KNpcTemplate.obj
 0003:0000185c       ??_C@_04BBGC@Life?$AA@     1008a85c     KNpcTemplate.obj
 0003:00001864       ??_C@_0L@IOHA@LifeParam3?$AA@ 1008a864     KNpcTemplate.obj
 0003:00001870       ??_C@_0L@CEOH@LifeParam2?$AA@ 1008a870     KNpcTemplate.obj
 0003:0000187c       ??_C@_0L@NLFO@LifeParam1?$AA@ 1008a87c     KNpcTemplate.obj
 0003:00001888       ??_C@_09FJGJ@LifeParam?$AA@ 1008a888     KNpcTemplate.obj
 0003:00001894       ??_C@_0BA@HKB@GetNpcLevelData?$AA@ 1008a894     KNpcTemplate.obj
 0003:000018a4       ??_C@_04GLOC@ddss?$AA@     1008a8a4     KNpcTemplate.obj
 0003:000018ac       ??_C@_0O@NCJC@GetNpcKeyData?$AA@ 1008a8ac     KNpcTemplate.obj
 0003:000018bc       ??_C@_06JJPN@ddsnnn?$AA@   1008a8bc     KNpcTemplate.obj
 0003:000018c4       ??_C@_0BP@KFAN@B?$LJn?5xin?5gia?5nh?Kp?5v?$LFo?5t?f?5?$KO?ii?5?$CFs?$AA@ 1008a8c4     KPlayer.obj
 0003:000018e4       ??_C@_0CC@LEJH@H?$LFnh?5trang?5kh?$KLng?5?$KO?q?5kho?$LGng?5tr?hng@ 1008a8e4     KPlayer.obj
 0003:00001908       ??_C@_0CK@HMIG@Thanh?5ph?$NNm?5t?$LOt?5c?c?5c?ong?5m?it?5lo?$LJi?5@ 1008a908     KPlayer.obj
 0003:00001934       ??_C@_0CH@IDJH@V?Kt?5ph?Hm?5nhi?Vm?5v?t?5kh?$KLng?5th?S?5giao@ 1008a934     KPlayer.obj
 0003:0000195c       ??_C@_0CC@MAAJ@Kh?$KLng?5th?S?5giao?5d?$NOch?5v?Kt?5ph?Hm?5n?$LFy@ 1008a95c     KPlayer.obj
 0003:00001980       ??_C@_0BP@BCIN@Kh?$KLng?5th?S?5v?xt?5b?a?5v?Kt?5ph?Hm?5n?$LFy?$CB?$AA@ 1008a980     KPlayer.obj
 0003:000019a0       ??_C@_0BG@JCAD@B?$LJn?5m?ji?5?$CFs?5giao?5d?$NOch?$CB?$AA@ 1008a9a0     KPlayer.obj
 0003:000019b8       ??_C@_0BI@KNNA@?$CFs?5xin?5gia?5nh?Kp?5t?f?5?$KO?ii?$CB?$AA@ 1008a9b8     KPlayer.obj
 0003:000019d0       ??_C@_0CP@FFME@Exception?5Have?5Caught?5When?5Execu@ 1008a9d0     KPlayer.obj
 0003:00001a00       ??_C@_08IPKA@PlayerId?$AA@ 1008aa00     KPlayer.obj
 0003:00001a0c       ??_C@_02IELE@ds?$AA@       1008aa0c     KPlayer.obj
 0003:00001a10       ??_C@_01KNFJ@?$CD?$AA@     1008aa10     KPlayer.obj
 0003:00001a14       ??_C@_02DILL@?$CFs?$AA@    1008aa14     KPlayer.obj
 0003:00001a18       ??_C@_0O@MNFC@?$CFs?5tr?$KKn?5m?$LJng?4?$AA@ 1008aa18     KPlayer.obj
 0003:00001a28       ??_C@_04FOJG@?M?j?$LD?I?$AA@ 1008aa28     KPlayer.obj
 0003:00001a30       ??_C@_04GLIP@?$LM?L?P?x?$AA@ 1008aa30     KPlayer.obj
 0003:00001a38       ??_C@_06NGLE@OnCall?$AA@   1008aa38     KPlayer.obj
 0003:00001a40       ??_C@_01KALE@?$HM?$AA@     1008aa40     KPlayer.obj
 0003:00001a44       ??_C@_0BO@OPON@?$KH?$LMng?5c?Jp?5c?qa?5b?$LJn?5t?$KIng?5?$KO?Un?5?$CFd?4?$AA@ 1008aa44     KPlayer.obj
 0003:00001a64       ??_C@_0BP@LKCK@B?$LJn?5nh?Kn?5?$KO?$KN?nc?5?$CFd?5?$KOi?Sm?5k?$PM?5n?$KIng?4?$AA@ 1008aa64     KPlayer.obj
 0003:00001a84       ??_C@_0CB@POCG@B?$LJn?5nh?Kn?5?$KO?$KN?nc?5?$CFd?5?$KOi?Sm?5ti?Rm?5n?$KIng?4@ 1008aa84     KPlayer.obj
 0003:00001aa8       ??_C@_0DF@BFB@B?$LJn?5b?$NO?5m?Jt?$DMcolor?$DNyellow?$DO?5?$CFd?5?$DMcol@ 1008aaa8     KPlayer.obj
 0003:00001ae0       ??_C@_0DH@KEAG@B?$LJn?5nh?Kn?5?$KO?$KN?nc?$DMcolor?$DNgreen?$DO?5?$CFd?5?$DMc@ 1008aae0     KPlayer.obj
 0003:00001b18       ??_C@_0DB@CBDB@B?$LJn?5nh?Kn?5?$KO?$KN?nc?$DMcolor?$DNyellow?$DO?5?$CFd?5?$DM@ 1008ab18     KPlayer.obj
 0003:00001b4c       ??_C@_0BG@HDPL@?$CFs?5m?ji?5b?$LJn?5giao?5d?$NOch?$CB?$AA@ 1008ab4c     KPlayer.obj
 0003:00001b64       ??_C@_0BO@PKFN@B?$LJn?5v?$LF?5?$CFs?5giao?5d?$NOch?5th?Jt?5b?$LJi?4?$AA@ 1008ab64     KPlayer.obj
 0003:00001b84       ??_C@_0CA@BJCK@B?$LJn?5v?$LF?5?$CFs?5giao?5d?$NOch?5th?$LFnh?5c?$KLng?4?$AA@ 1008ab84     KPlayer.obj
 0003:00001ba4       ??_C@_07KPAD@Capital?$AA@  1008aba4     KPlayer.obj
 0003:00001bac       ??_C@_04NBCE@City?$AA@     1008abac     KPlayer.obj
 0003:00001bb4       ??_C@_03ELAL@d?$CFd?$AA@   1008abb4     KPlayer.obj
 0003:00001bb8       ??_C@_03FBEH@a?$CFd?$AA@   1008abb8     KPlayer.obj
 0003:00001bbc       ?g_dwChannelOr@@3PAKA      1008abbc     KPlayerChat.obj
 0003:00001be0       ?g_dwChannelAnd@@3PAKA     1008abe0     KPlayerChat.obj
 0003:00001c04       ??_C@_08NNGO@?N?R?$LF?D?$LK?C?S?Q?$AA@ 1008ac04     KPlayerChat.obj
 0003:00001c10       ??_C@_0BN@CKBI@?$CFs?5?$KO?$LH?5?$KO?$KN?nc?5th?$KKm?5v?$LFo?5h?$LGo?5h?wu?$CB?$AA@ 1008ac10     KPlayerChat.obj
 0003:00001c30       ??_C@_08HPPF@Team?4cht?$AA@ 1008ac30     KPlayerChat.obj
 0003:00001c3c       ??_C@_08KLOA@FriendNo?$AA@ 1008ac3c     KPlayerChat.obj
 0003:00001c48       ??_C@_04CGED@T_?$CFs?$AA@  1008ac48     KPlayerChat.obj
 0003:00001c50       ??_C@_08GKPI@TeamName?$AA@ 1008ac50     KPlayerChat.obj
 0003:00001c5c       ??_C@_05NBBE@?2chat?$AA@   1008ac5c     KPlayerChat.obj
 0003:00001c64       ??_C@_0M@CLLO@Channel?4cht?$AA@ 1008ac64     KPlayerChat.obj
 0003:00001c70       ??_C@_07IADE@Channel?$AA@  1008ac70     KPlayerChat.obj
 0003:00001c78       ??_C@_0CB@LOCL@?$KH?$LH?5?$KO?$LJt?5?$KO?Un?5s?h?5t?hi?5?$KOa?5c?qa?5t?f?5?$KO?ii?4@ 1008ac78     KPlayerChat.obj
 0003:00001c9c       ??_C@_0BM@EAIB@?$KH?$LH?5t?en?5t?$LJi?5t?f?5?$KO?ii?5c?ong?5t?$KKn?4?$AA@ 1008ac9c     KPlayerChat.obj
 0003:00001cb8       ??_C@_0CE@NDLM@Th?$LFnh?5l?Kp?5chia?5t?f?5h?$LGo?5h?wu?5th?Jt?5b@ 1008acb8     KPlayerChat.obj
 0003:00001cdc       ??_C@_0BO@NOHJ@Thay?5?$KO?fi?5t?$KKn?5t?f?5?$KO?ii?5th?Jt?5b?$LJi?4?$AA@ 1008acdc     KPlayerChat.obj
 0003:00001cfc       ??_C@_0CA@GPNK@T?f?5?$KO?ii?5n?$LFy?5kh?$KLng?5?$KO?$KN?nc?5ph?Pp?5x?ca?4?$AA@ 1008acfc     KPlayerChat.obj
 0003:00001d1c       ??_C@_0BF@NLJI@X?ca?5t?f?5?$KO?ii?5th?Jt?5b?$LJi?4?$AA@ 1008ad1c     KPlayerChat.obj
 0003:00001d34       ??_C@_0M@FCG@?$CFs?5r?ji?5m?$LJng?$AA@ 1008ad34     KPlayerChat.obj
 0003:00001d40       ??_C@_08NMNE@?$LI?$LN?$LN?$PM?M?f?$LM?R?$AA@ 1008ad40     KPlayerChat.obj
 0003:00001d4c       ??_C@_04JDDF@?$LG?S?S?Q?$AA@ 1008ad4c     KPlayerChat.obj
 0003:00001d54       ??_C@_04NMPB@?M?$KM?C?E?$AA@ 1008ad54     KPlayerChat.obj
 0003:00001d5c       ??_C@_08JLHM@?$LG?S?N?i?F?$LF?$LF?$MA?$AA@ 1008ad5c     KPlayerChat.obj
 0003:00001d68       ??_C@_08GGBK@?C?E?E?I?F?$LF?$LF?$MA?$AA@ 1008ad68     KPlayerChat.obj
 0003:00001d74       ??_C@_08LKFP@?K?$LN?A?D?F?$LF?$LF?$MA?$AA@ 1008ad74     KPlayerChat.obj
 0003:00001d80       ??_C@_04BGBF@?O?$LF?M?$LD?$AA@ 1008ad80     KPlayerChat.obj
 0003:00001d88       ??_C@_06NOKC@?D?$LA?I?z?H?K?$AA@ 1008ad88     KPlayerChat.obj
 0003:00001d90       ??_C@_04BAII@?$LA?o?V?Z?$AA@ 1008ad90     KPlayerChat.obj
 0003:00001d98       ??_C@_04NIH@?$LK?C?S?Q?$AA@ 1008ad98     KPlayerChat.obj
 0003:00001da0       ??_C@_08BONO@?K?y?S?P?M?f?$LM?R?$AA@ 1008ada0     KPlayerChat.obj
 0003:00001dac       ??_C@_0P@INAO@?$CF02d?3?$CF02d?3?$CF02d?$AA@ 1008adac     KPlayerChat.obj
 0003:00001dbc       ??_C@_0P@KAJM@?$CF04d?4?$CF02d?4?$CF02d?$AA@ 1008adbc     KPlayerChat.obj
 0003:00001dcc       ??_C@_0BD@MKD@M?mi?5nh?Kp?5giang?5h?e?5?$AA@ 1008adcc     KPlayerFaction.obj
 0003:00001de0       ??_C@_0CI@LEOJ@?2settings?2npcres?2PlayerMenuState@ 1008ade0     KPlayerMenuState.obj
 0003:00001e08       ??_C@_0L@HFDM@PK?5?$KH?e?5S?$LIt?4?$AA@ 1008ae08     KPlayerPK.obj
 0003:00001e14       ??_C@_0P@DEHH@PK?5Luy?Vn?5C?$KLng?4?$AA@ 1008ae14     KPlayerPK.obj
 0003:00001e24       ??_C@_0O@GIIB@PK?5Chi?Un?5?$KH?Ju?4?$AA@ 1008ae24     KPlayerPK.obj
 0003:00001e34       ??_C@_0CO@FDFL@Hi?Vn?5t?$LJi?5b?$LJn?5?$KOang?5?k?5tr?$LJng?5th?$LIi?5p@ 1008ae34     KPlayerPK.obj
 0003:00001e64       ??_C@_0CC@EHC@B?$LJn?5?$KOang?5c?ong?5ng?$KN?ji?5kh?$LIc?5c?uu?5s?$LIt@ 1008ae64     KPlayerPK.obj
 0003:00001e88       ??_C@_0CD@CMAJ@PK?510?5kh?$KLng?5th?S?5ti?Up?5t?tc?5gi?Ut?5th@ 1008ae88     KPlayerPK.obj
 0003:00001eac       ??_C@_0CM@BHHM@?$KHi?Sm?5kinh?5nghi?Vm?5b?$NO?5?$KJm?5kh?$KLng?5th?S@ 1008aeac     KPlayerPK.obj
 0003:00001ed8       ??_C@_0BL@CJEL@B?$LOt?5?$KO?Gu?5ti?Un?5h?$LFnh?5c?uu?5s?$LIt?4?$AA@ 1008aed8     KPlayerPK.obj
 0003:00001ef4       ??_C@_0BN@DNCM@10?5gi?$KJy?5sau?5c?uu?5s?$LIt?5b?$LOt?5?$KO?Gu?4?$AA@ 1008aef4     KPlayerPK.obj
 0003:00001f14       ??_C@_0BN@JJGI@B?$LJn?5v?$LF?5?$CFs?5ti?Un?5h?$LFnh?5c?uu?5s?$LIt?$CB?$AA@ 1008af14     KPlayerPK.obj
 0003:00001f34       ??_C@_0BC@GKHM@K?Ut?5th?sc?5c?uu?5s?$LIt?$CB?$AA@ 1008af34     KPlayerPK.obj
 0003:00001f48       ??_C@_0CC@MLJH@Hi?Vn?5t?$LJi?5gi?$LI?5tr?$NO?5PK?5c?qa?5b?$LJn?5l?$LF?5?$CF@ 1008af48     KPlayerPK.obj
 0003:00001f6c       ??_C@_0DF@MPHJ@Tr?$LJng?5th?$LIi?5?$KO?$NP?5s?$LIt?5chuy?Sn?5sang?5lu@ 1008af6c     KPlayerPK.obj
 0003:00001fa4       ??_C@_0DI@IAG@Tr?$LJng?5th?$LIi?5chi?Un?5?$KO?Ju?5chuy?Sn?5sang@ 1008afa4     KPlayerPK.obj
 0003:00001fdc       ??_C@_0CI@HPON@Ch?X?5s?h?5PK?5qu?$LI?5l?mn?0?5kh?$KLng?5th?S?5chu@ 1008afdc     KPlayerPK.obj
 0003:00002004       ??_C@_09BOBH@TongLeave?$AA@ 1008b004     KPlayerSet.obj
 0003:00002010       ??_C@_0L@KHIE@TongChange?$AA@ 1008b010     KPlayerSet.obj
 0003:0000201c       ??_C@_05FMHM@Price?$AA@    1008b01c     KPlayerSet.obj
 0003:00002024       ??_C@_06NLKF@Repute?$AA@   1008b024     KPlayerSet.obj
 0003:0000202c       ??_C@_04GFKM@Item?$AA@     1008b02c     KPlayerSet.obj
 0003:00002034       ??_C@_05COBC@Money?$AA@    1008b034     KPlayerSet.obj
 0003:0000203c       ??_C@_09MKCK@LeadLevel?$AA@ 1008b03c     KPlayerSet.obj
 0003:00002048       ??_C@_0L@OHL@TongCreate?$AA@ 1008b048     KPlayerSet.obj
 0003:00002054       ??_C@_05PGGH@Level?$AA@    1008b054     KPlayerSet.obj
 0003:0000205c       ??_C@_0BL@PBNL@?2settings?2tong?2tongset?4ini?$AA@ 1008b05c     KPlayerSet.obj
 0003:00002078       ??_C@_0CD@PPJL@?2settings?2npc?2player?2level_add?4t@ 1008b078     KPlayerSet.obj
 0003:0000209c       ??_C@_0CD@GGIO@?2settings?2npc?2player?2level_exp?4t@ 1008b09c     KPlayerSet.obj
 0003:000020c0       ??_C@_0CI@JEAL@?2settings?2npc?2player?2level_lead_@ 1008b0c0     KPlayerSet.obj
 0003:000020e8       ??_C@_05PDHA@Lucky?$AA@    1008b0e8     KPlayerSet.obj
 0003:000020f0       ??_C@_07OCFL@Engergy?$AA@  1008b0f0     KPlayerSet.obj
 0003:000020f8       ??_C@_08MCFD@Vitality?$AA@ 1008b0f8     KPlayerSet.obj
 0003:00002104       ??_C@_09OBDH@Dexterity?$AA@ 1008b104     KPlayerSet.obj
 0003:00002110       ??_C@_08GLCH@Strength?$AA@ 1008b110     KPlayerSet.obj
 0003:0000211c       ??_C@_0DA@DDN@?2settings?2npc?2player?2newplayerba@ 1008b11c     KPlayerSet.obj
 0003:0000214c       ??_C@_05FIIP@earth?$AA@    1008b14c     KPlayerSet.obj
 0003:00002154       ??_C@_04OLBH@fire?$AA@     1008b154     KPlayerSet.obj
 0003:0000215c       ??_C@_05CCAC@water?$AA@    1008b15c     KPlayerSet.obj
 0003:00002164       ??_C@_04EOHJ@wood?$AA@     1008b164     KPlayerSet.obj
 0003:0000216c       ??_C@_05KMGP@metal?$AA@    1008b16c     KPlayerSet.obj
 0003:00002174       ??_C@_0BH@PJGA@?$CFs?5m?ji?5b?$LJn?5v?$LFo?5t?f?5?$KO?ii?$CB?$AA@ 1008b174     KPlayerTeam.obj
 0003:0000218c       ??_C@_0CP@BHLP@Hi?Sn?5th?$NO?5t?f?5?$KO?ii?5c?qa?5b?$LJn?0?5m?ji?5nh?w@ 1008b18c     KPlayerTeam.obj
 0003:000021bc       ??_C@_0DJ@PCMC@T?u?5ch?hi?5l?ji?5m?ji?5t?y?5?$KO?ing?5cho?5ng?$KN?j@ 1008b1bc     KPlayerTeam.obj
 0003:000021f8       ??_C@_08NOLM@Bang?5h?ii?$AA@ 1008b1f8     KPlayerTong.obj
 0003:00002204       ??_C@_0BG@OKH@T?$KKn?5bang?5h?ii?5qu?$LI?5d?$LFi?$CB?$AA@ 1008b204     KPlayerTong.obj
 0003:0000221c       ??_C@_0CP@PNAD@C?$NPn?5trong?5t?f?5?$KO?ii?5kh?$KLng?5th?S?5th?$LFnh@ 1008b21c     KPlayerTong.obj
 0003:0000224c       ??_C@_0BL@PBAL@B?$LJn?5kh?$KLng?5?$KO?q?5?$CFd?5danh?5v?dng?$CB?$AA@ 1008b24c     KPlayerTong.obj
 0003:00002268       ??_C@_0BO@MBCI@B?$LJn?5kh?$KLng?5c?c?5Nh?$LJc?5V?$KN?$KMng?5Ki?Um?$CB?$AA@ 1008b268     KPlayerTong.obj
 0003:00002288       ??_C@_0CB@JNPF@Th?$LFnh?5l?Kp?5bang?5h?ii?5c?Gn?5?$CFd?5l?$KN?nng?4@ 1008b288     KPlayerTong.obj
 0003:000022ac       ??_C@_0DA@FDOB@?$KH?$LMng?5c?Jp?5th?hng?5so?$LIi?5th?$LFnh?5l?Kp?5ba@ 1008b2ac     KPlayerTong.obj
 0003:000022dc       ??_C@_0CF@LHPG@?$KH?$LMng?5c?Jp?5th?$LFnh?5l?Kp?5bang?5h?ii?5ch?$KNa@ 1008b2dc     KPlayerTong.obj
 0003:00002304       ??_C@_0CK@OHBK@T?$KKn?5ch?w?5?$KO?a?5m?mi?5c?c?5th?S?5th?$LFnh?5l?Kp?5@ 1008b304     KPlayerTong.obj
 0003:00002330       ??_C@_0DC@HONB@Th?$LFnh?5vi?$KKn?5c?$NPn?5trong?5bang?5h?ii?5kh@ 1008b330     KPlayerTong.obj
 0003:00002364       ??_C@_0BH@DGKD@Phe?5ph?$LIi?5bang?5h?ii?5sai?$CB?$AA@ 1008b364     KPlayerTong.obj
 0003:0000237c       ??_C@_0BM@DJJE@B?$LJn?5xin?5th?$LFnh?5l?Kp?5bang?5h?ii?$CB?$AA@ 1008b37c     KPlayerTong.obj
 0003:00002398       ??_C@_0CO@PJHL@C?$NPn?5trong?5t?f?5?$KO?ii?5kh?$KLng?5th?S?5gia?5n@ 1008b398     KPlayerTong.obj
 0003:000023c8       ??_C@_0CK@PEGN@Ch?$KNa?5xu?Jt?5s?$KN?5kh?$KLng?5th?S?5gia?5nh?Kp?5@ 1008b3c8     KPlayerTong.obj
 0003:000023f4       ??_C@_0DK@NLOE@Th?$LFnh?5vi?$KKn?5bang?5h?ii?5n?$LFy?5kh?$KLng?5th@ 1008b3f4     KPlayerTong.obj
 0003:00002430       ??_C@_0BL@GOOG@B?$LJn?5xin?5gia?5nh?Kp?5bang?5h?ii?$CB?$AA@ 1008b430     KPlayerTong.obj
 0003:0000244c       ??_C@_0BP@MIJG@Th?$LFnh?5l?Kp?5bang?5h?ii?5th?$LFnh?5c?$KLng?$CB?$AA@ 1008b44c     KPlayerTong.obj
 0003:0000246c       ??_C@_0BO@PPKE@Gia?5nh?Kp?5bang?5h?ii?5th?$LFnh?5c?$KLng?$CB?$AA@ 1008b46c     KPlayerTong.obj
 0003:0000248c       ??_C@_0BF@HAGI@Kh?$KLng?5?$KO?q?5ng?$KJn?5l?$KN?nng?$CB?$AA@ 1008b48c     KPlayerTong.obj
 0003:000024a4       ??_C@_0CI@DAOI@Tr?$KN?kng?5l?$LHo?5kh?$KLng?5th?S?5r?ji?5kh?ai?5ba@ 1008b4a4     KPlayerTong.obj
 0003:000024cc       ??_C@_0CG@PANO@Bang?5ch?q?5kh?$KLng?5th?S?5r?ji?5kh?ai?5bang@ 1008b4cc     KPlayerTong.obj
 0003:000024f4       ??_C@_0CH@PGPO@Phe?5chuy?Sn?5?$KO?fi?5tr?ong?5v?mi?5phe?5hi?V@ 1008b4f4     KPlayerTong.obj
 0003:0000251c       ??_C@_0CK@BOLH@Ch?X?5?$KO?$KN?nc?5g?vi?5t?hi?5thi?Su?5?$CFd?5l?$KN?nng?5@ 1008b51c     KPlayerTong.obj
 0003:00002548       ??_C@_0CB@FCFF@Ch?X?5?$KO?$KN?nc?5r?st?5t?hi?5thi?Su?5?$CFd?5l?$KN?nng?$CB@ 1008b548     KPlayerTong.obj
 0003:0000256c       ??_C@_0CC@JBNK@?$CFs?5?$KH?$LH?5m?k?5kh?ca?5giao?5d?$NOch?5v?Kt?5ph?Hm@ 1008b56c     KPlayerTrade.obj
 0003:00002590       ??_C@_0BP@FONJ@?$CFs?5?$KH?$LH?5kh?ca?5giao?5d?$NOch?5v?Kt?5ph?Hm?4?$AA@ 1008b590     KPlayerTrade.obj
 0003:000025b0       ??_C@_0CD@HKBK@B?$LJn?5?$KO?$LH?5m?k?5kh?ca?5giao?5d?$NOch?5v?Kt?5ph?H@ 1008b5b0     KPlayerTrade.obj
 0003:000025d4       ??_C@_0CA@KAOH@B?$LJn?5?$KO?$LH?5kh?ca?5giao?5d?$NOch?5v?Kt?5ph?Hm?4?$AA@ 1008b5d4     KPlayerTrade.obj
 0003:000025f4       ?TABFILE_EQUIPMENT@@3PAPADA 1008b5f4     KBasPropTbl.obj
 0003:00002628       ??_C@_0L@FDIM@Mantle?4txt?$AA@ 1008b628     KBasPropTbl.obj
 0003:00002634       ??_C@_08KCP@Mask?4txt?$AA@ 1008b634     KBasPropTbl.obj
 0003:00002640       ??_C@_09EEPL@Horse?4txt?$AA@ 1008b640     KBasPropTbl.obj
 0003:0000264c       ??_C@_0M@KGOC@Pendant?4txt?$AA@ 1008b64c     KBasPropTbl.obj
 0003:00002658       ??_C@_08BAAI@Cuff?4txt?$AA@ 1008b658     KBasPropTbl.obj
 0003:00002664       ??_C@_08PAEK@Ring?4txt?$AA@ 1008b664     KBasPropTbl.obj
 0003:00002670       ??_C@_0L@BFDO@Amulet?4txt?$AA@ 1008b670     KBasPropTbl.obj
 0003:0000267c       ??_C@_08HFCC@Belt?4txt?$AA@ 1008b67c     KBasPropTbl.obj
 0003:00002688       ??_C@_08OCEE@Boot?4txt?$AA@ 1008b688     KBasPropTbl.obj
 0003:00002694       ??_C@_08HFB@Helm?4txt?$AA@ 1008b694     KBasPropTbl.obj
 0003:000026a0       ??_C@_09KIMI@Armor?4txt?$AA@ 1008b6a0     KBasPropTbl.obj
 0003:000026ac       ??_C@_0BA@EMDN@RangeWeapon?4txt?$AA@ 1008b6ac     KBasPropTbl.obj
 0003:000026bc       ??_C@_0BA@MGBA@MeleeWeapon?4txt?$AA@ 1008b6bc     KBasPropTbl.obj
 0003:000026cc       ??_C@_0P@BAML@?2settings?2item?$AA@ 1008b6cc     KBasPropTbl.obj
 0003:000026dc       ??_C@_0BB@KAMG@?2magicattrib?4txt?$AA@ 1008b6dc     KBasPropTbl.obj
 0003:000026f0       ??_C@_0O@KGDF@GoldEquip?4txt?$AA@ 1008b6f0     KBasPropTbl.obj
 0003:00002700       ??_C@_0BA@BOLM@BrokenEquip?4txt?$AA@ 1008b700     KBasPropTbl.obj
 0003:00002710       ??_C@_0L@DJI@potion?4txt?$AA@ 1008b710     KBasPropTbl.obj
 0003:0000271c       ??_C@_0N@KHKF@questkey?4txt?$AA@ 1008b71c     KBasPropTbl.obj
 0003:0000272c       ??_C@_0L@JMEH@Script?4txt?$AA@ 1008b72c     KBasPropTbl.obj
 0003:00002738       ??_C@_08IOIG@mine?4txt?$AA@ 1008b738     KBasPropTbl.obj
 0003:00002744       ??_C@_0BI@LILP@?2settings?2shop?2type?4txt?$AA@ 1008b744     KBuySell.obj
 0003:0000275c       ??_C@_0BJ@FGEF@?2settings?2shop?2goods?4txt?$AA@ 1008b75c     KBuySell.obj
 0003:00002778       ??_C@_0BL@KEAB@?2settings?2shop?2buysell?4txt?$AA@ 1008b778     KBuySell.obj
 0003:00002794       ??_C@_0O@BKKO@1?$CF03d?$CF02d?$CF02d?$AA@ 1008b794     KItem.obj
 0003:000027a4       ??_C@_0DD@HGN@?$DMcolor?$DNyellow?$DOGi?$LI?5ni?$KKm?5y?Ut?3?5?$CFd?5v@ 1008b7a4     KItem.obj
 0003:000027d8       ??_C@_0DA@CGCN@?$DMcolor?$DNyellow?$DOGi?$LI?5ni?$KKm?5y?Ut?3?5?$CFd?5v@ 1008b7d8     KItem.obj
 0003:00002808       ??_C@_0CM@HODD@?$DMcolor?$DNyellow?$DOGi?$LI?5ni?$KKm?5y?Ut?3?5?$CFd?5l@ 1008b808     KItem.obj
 0003:00002834       ??_C@_0DE@FGFH@?$DMcolor?$DNfire?$DOTh?ji?5gian?5b?$LIn?3?5?$CF02d?5@ 1008b834     KItem.obj
 0003:00002868       ??_C@_02POJB@xu?$AA@       1008b868     KItem.obj
 0003:0000286c       ??_C@_0FM@GMIK@c?qa?5?$DMcolor?$DNgreen?$DOGi?$LFy?$DMcolor?$DO?5v?$LF?5@ 1008b86c     KItem.obj
 0003:000028c8       ??_C@_0FM@LDDN@c?qa?5?$DMcolor?$DNgreen?$DONg?dc?5B?ii?$DMcolor?$DO@ 1008b8c8     KItem.obj
 0003:00002924       ??_C@_0FH@OCP@c?qa?5?$DMcolor?$DNgreen?$DOM?r?5?$DMcolor?$DOv?$LF?5?$DMc@ 1008b924     KItem.obj
 0003:0000297c       ??_C@_0GB@MMAP@c?qa?5?$DMcolor?$DNgreen?$DONh?In?5D?$KN?mi?$DMcolor@ 1008b97c     KItem.obj
 0003:000029e0       ??_C@_0FP@HOOD@c?qa?5?$DMcolor?$DNgreen?$DOD?$KJy?5Chuy?Rn?$DMcolo@ 1008b9e0     KItem.obj
 0003:00002a40       ??_C@_0P@PA@?$DMcolor?$DNViolet?$DO?$AA@ 1008ba40     KItem.obj
 0003:00002a50       ??_C@_0CN@JDL@C?c?5th?S?5s?v?5d?tng?3?$DMcolor?$DNgreen?$DO?5?$CFd?5@ 1008ba50     KItem.obj
 0003:00002a80       ??_C@_0CB@DKI@?5?$DMcolor?$DN0?0255?0255?$DO?$FL?$CFd?9?$CFd?$FN?$DMcolor?$DO@ 1008ba80     KItem.obj
 0003:00002aa4       ??_C@_0EB@MEBG@?5?$DMcolor?$DN0?0255?0255?$DO?$FL?$DMcolor?$DN0?0255?0@ 1008baa4     KItem.obj
 0003:00002ae8       ??_C@_0BJ@DBEE@?5?$DMcolor?$DNred?$DO?$FLMAX?$FN?$DMcolor?$DO?$AA@ 1008bae8     KItem.obj
 0003:00002b04       ??_C@_0O@BGOH@?$DMcolor?$DNDBlue?$DO?$AA@ 1008bb04     KItem.obj
 0003:00002b14       ??_C@_0BA@IFDM@?$DMcolor?$DNDYellow?$DO?$AA@ 1008bb14     KItem.obj
 0003:00002b24       ??_C@_0BA@BNJI@?$DMcolor?$DNDPurple?$DO?$AA@ 1008bb24     KItem.obj
 0003:00002b34       ??_C@_0P@PPHD@?$DMcolor?$DNDMetal?$DO?$AA@ 1008bb34     KItem.obj
 0003:00002b44       ??_C@_0O@PPGJ@?$DMcolor?$DNMetal?$DO?$AA@ 1008bb44     KItem.obj
 0003:00002b54       ??_C@_0BC@CDJE@?$KH?i?5b?Rn?3?5?$CF3d?5?1?5?$CF3d?$AA@ 1008bb54     KItem.obj
 0003:00002b68       ??_C@_0CN@KPON@?$DMcolor?$DNYellow?$DOKh?$KLng?5th?S?5ph?$LI?5h?qy?$DM@ 1008bb68     KItem.obj
 0003:00002b98       ??_C@_0CD@IOIP@?$DMcolor?$DNred?$DOTrang?5b?$NO?5t?fn?5h?$LJi?$DMcolo@ 1008bb98     KItem.obj
 0003:00002bbc       ??_C@_0CE@CPFE@?$DMcolor?$DNpurple?$DOPh?Hm?5ch?Jt?3?5?$CFd?5?$DMcol@ 1008bbbc     KItem.obj
 0003:00002be0       ??_C@_08KICN@?5?$DMenter?$DO?$AA@ 1008bbe0     KItem.obj
 0003:00002bec       ??_C@_0DF@NIDF@?6?$DMcolor?$DNWhite?$DOThu?ic?5t?$NNnh?5ng?r?5h?$LFn@ 1008bbec     KItem.obj
 0003:00002c24       ??_C@_0DD@BBDM@?6?$DMcolor?$DNWhite?$DOThu?ic?5t?$NNnh?5ng?r?5h?$LFn@ 1008bc24     KItem.obj
 0003:00002c58       ??_C@_0DF@GJJN@?6?$DMcolor?$DNWhite?$DOThu?ic?5t?$NNnh?5ng?r?5h?$LFn@ 1008bc58     KItem.obj
 0003:00002c90       ??_C@_0DD@FCLG@?6?$DMcolor?$DNWhite?$DOThu?ic?5t?$NNnh?5ng?r?5h?$LFn@ 1008bc90     KItem.obj
 0003:00002cc4       ??_C@_0DE@OAOF@?6?$DMcolor?$DNWhite?$DOThu?ic?5t?$NNnh?5ng?r?5h?$LFn@ 1008bcc4     KItem.obj
 0003:00002cf8       ??_C@_02CLMD@Xu?$AA@       1008bcf8     KItem.obj
 0003:00002cfc       ??_C@_0O@LKPP@?$DMcolor?$DNgreen?$DO?$AA@ 1008bcfc     KItem.obj
 0003:00002d0c       ??_C@_04POAC@?$KOi?Sm?$AA@ 1008bd0c     KItem.obj
 0003:00002d14       ??_C@_0P@NCEE@?$DMcolor?$DNviolet?$DO?$AA@ 1008bd14     KItem.obj
 0003:00002d24       ??_C@_05LKPD@l?$KN?nng?$AA@ 1008bd24     KItem.obj
 0003:00002d2c       ??_C@_0P@HLII@?$DMcolor?$DNyellow?$DO?$AA@ 1008bd2c     KItem.obj
 0003:00002d3c       ??_C@_0CP@EBD@?$DMcolor?$DNgreen?$DOV?Kt?5ph?Hm?5?$KO?$NNnh?5k?Lm?5n@ 1008bd3c     KItem.obj
 0003:00002d6c       ??_C@_0CO@FLPM@?$DMcolor?$DNgreen?$DOV?Kt?5ph?Hm?5?$KO?$LH?5kh?ca?5b?$LG@ 1008bd6c     KItem.obj
 0003:00002d9c       ??_C@_0DA@BJBM@?$DMcolor?$DNGreen?$DOGi?mi?5h?$LJn?5trong?5ng?$LFy@ 1008bd9c     KItem.obj
 0003:00002dcc       ??_C@_0DE@CFCM@?$DMcolor?$DNGreen?$DO?$KH?$LH?5d?ong?5h?Ut?5?$CFd?5v?Kt?5@ 1008bdcc     KItem.obj
 0003:00002e00       ??_C@_0DF@BBKD@?$DMcolor?$DNred?$DOV?Kt?5ph?Hm?5kh?$KLng?5th?S?5b?$LI@ 1008be00     KItem.obj
 0003:00002e38       ??_C@_09JBMN@?5?$CIC?Jp?5?$CFd?$CJ?$AA@ 1008be38     KItem.obj
 0003:00002e44       ??_C@_0N@MMD@?$DMcolor?$DNBlue?$DO?$AA@ 1008be44     KItem.obj
 0003:00002e54       ??_C@_0O@FFMD@?$DMcolor?$DNWhite?$DO?$AA@ 1008be54     KItem.obj
 0003:00002e64       ??_C@_0M@NFFB@?$DMcolor?$DNRed?$DO?$AA@ 1008be64     KItem.obj
 0003:00002e70       ??_C@_0N@LGOG@?$DMcolor?$DNGold?$DO?$AA@ 1008be70     KItem.obj
 0003:00002e80       ??_C@_0P@DBJI@?$DMcolor?$DNPurple?$DO?$AA@ 1008be80     KItem.obj
 0003:00002e90       ??_C@_0CP@BAKD@?$DMcolor?$DNYellow?$DOC?Gn?5h?V?5?$DMcolor?$DNfire@ 1008be90     KItem.obj
 0003:00002ec0       ??_C@_0CP@IFDM@?$DMcolor?$DNYellow?$DOC?Gn?5h?V?5?$DMcolor?$DNwood@ 1008bec0     KItem.obj
 0003:00002ef0       ??_C@_0DA@MEI@?$DMcolor?$DNYellow?$DOC?Gn?5h?V?5?$DMcolor?$DNmeta@ 1008bef0     KItem.obj
 0003:00002f20       ??_C@_0DB@KNFC@?$DMcolor?$DNYellow?$DOC?Gn?5h?V?5?$DMcolor?$DNwate@ 1008bf20     KItem.obj
 0003:00002f54       ??_C@_0DA@HGAG@?$DMcolor?$DNYellow?$DOC?Gn?5h?V?5?$DMcolor?$DNeart@ 1008bf54     KItem.obj
 0003:00002f84       ??_C@_0CH@JFJE@?$DMcolor?$DNred?$DOGi?$LI?5c?r?3?5?$CFd?5v?$LJn?5?$CFd?5?$CFs?$DM@ 1008bf84     KItem.obj
 0003:00002fac       ??_C@_0CE@PPAN@?$DMcolor?$DNred?$DOGi?$LI?5c?r?3?5?$CFd?5v?$LJn?5?$CFs?$DMcol@ 1008bfac     KItem.obj
 0003:00002fd0       ??_C@_0CB@PIEK@?$DMcolor?$DNred?$DOGi?$LI?5c?r?3?5?$CFd?5?$CFs?$DMcolor?$DO?6@ 1008bfd0     KItem.obj
 0003:00002ff4       ??_C@_0BO@KKNG@?$CFsGi?$LI?5c?$LG?3?5?$CFd?5v?$LJn?5?$CFd?5?$CFs?$DMcolor?$DO?$AA@ 1008bff4     KItem.obj
 0003:00003014       ??_C@_0BL@PBJM@?$CFsGi?$LI?5c?$LG?3?5?$CFd?5v?$LJn?5?$CFs?$DMcolor?$DO?$AA@ 1008c014     KItem.obj
 0003:00003030       ??_C@_0BH@MCMF@?$CFsGi?$LI?5c?$LG?3?5?$CFd?5?$CFs?$DMcolor?$DO?$AA@ 1008c030     KItem.obj
 0003:00003048       ??_C@_0EN@FPIN@?$DMcolor?$DNfire?$DOTh?ji?5h?$LJn?5s?v?5d?tng?3?$DMco@ 1008c048     KItem.obj
 0003:00003098       ??_C@_0EB@NAMA@?$DMcolor?$DNgreen?$DOTh?ji?5gian?5m?k?5kh?ca?3?5@ 1008c098     KItem.obj
 0003:000030dc       ??_C@_0P@OOB@?$DMcolor?$DNDGreen?$DO?$AA@ 1008c0dc     KItem.obj
 0003:000030ec       ??_C@_0O@OPL@?$DMcolor?$DNGreen?$DO?$AA@ 1008c0ec     KItem.obj
 0003:000030fc       ??_C@_08FALO@ItemName?$AA@ 1008c0fc     KItem.obj
 0003:00003108       ??_C@_0CA@KHOG@?2settings?2item?2GoldEquipRes?4txt?$AA@ 1008c108     KItemChangeRes.obj
 0003:00003128       ??_C@_0BM@HJJL@?2settings?2item?2HorseRes?4txt?$AA@ 1008c128     KItemChangeRes.obj
 0003:00003144       ??_C@_0BL@BCHA@?2settings?2item?2HelmRes?4txt?$AA@ 1008c144     KItemChangeRes.obj
 0003:00003160       ??_C@_0BM@KPKN@?2settings?2item?2ArmorRes?4txt?$AA@ 1008c160     KItemChangeRes.obj
 0003:0000317c       ??_C@_0BM@KIHB@?2settings?2item?2RangeRes?4txt?$AA@ 1008c17c     KItemChangeRes.obj
 0003:00003198       ??_C@_0BM@CJDD@?2settings?2item?2MeleeRes?4txt?$AA@ 1008c198     KItemChangeRes.obj
 0003:000031b4       ??_C@_07LDBP@ResType?$AA@  1008c1b4     KItemChangeRes.obj
 0003:000031bc       ??_C@_05DDEO@nMax3?$AA@    1008c1bc     KItemGenerator.obj
 0003:000031c4       ??_C@_05LOKN@nMin3?$AA@    1008c1c4     KItemGenerator.obj
 0003:000031cc       ??_C@_05JJNJ@nMax2?$AA@    1008c1cc     KItemGenerator.obj
 0003:000031d4       ??_C@_05BEDK@nMin2?$AA@    1008c1d4     KItemGenerator.obj
 0003:000031dc       ??_C@_05GGGA@nMax1?$AA@    1008c1dc     KItemGenerator.obj
 0003:000031e4       ??_C@_05OLID@nMin1?$AA@    1008c1e4     KItemGenerator.obj
 0003:000031ec       ??_C@_0L@LONJ@nMagicType?$AA@ 1008c1ec     KItemGenerator.obj
 0003:000031f8       ??_C@_0DB@JMML@Loi?5Item?5May?5Man?3?5Tong?5phan?5tram@ 1008c1f8     KItemGenerator.obj
 0003:0000322c       ??_C@_0CA@EKCB@?$FLKItemGenerator?$FN?5Loi?5nLucky?5?$DM?50?$AA@ 1008c22c     KItemGenerator.obj
 0003:0000324c       ?g_nEquipPower@@3PAHA      1008c24c     KItemList.obj
 0003:00003288       ?ms_ActiveEquip@KItemList@@0PAY01HA 1008c288     KItemList.obj
 0003:00003300       ?ms_ActivedEquip@KItemList@@0PAY01HA 1008c300     KItemList.obj
 0003:00003378       ?ms_RoomMap@KItemList@@0PAHA 1008c378     KItemList.obj
 0003:000033b0       ??_C@_04LCOO@Move?$AA@     1008c3b0     KItemSet.obj
 0003:000033b8       ??_C@_06PPP@Defend?$AA@    1008c3b8     KItemSet.obj
 0003:000033c0       ??_C@_05LNOF@Horse?$AA@    1008c3c0     KItemSet.obj
 0003:000033c8       ??_C@_07CIKC@Pendant?$AA@  1008c3c8     KItemSet.obj
 0003:000033d0       ??_C@_05LBOP@Ring2?$AA@    1008c3d0     KItemSet.obj
 0003:000033d8       ??_C@_05EOFG@Ring1?$AA@    1008c3d8     KItemSet.obj
 0003:000033e0       ??_C@_06BCFK@Amulet?$AA@   1008c3e0     KItemSet.obj
 0003:000033e8       ??_C@_04MHHA@Cuff?$AA@     1008c3e8     KItemSet.obj
 0003:000033f0       ??_C@_04KHBH@Belt?$AA@     1008c3f0     KItemSet.obj
 0003:000033f8       ??_C@_04HCKI@Body?$AA@     1008c3f8     KItemSet.obj
 0003:00003400       ??_C@_06MBHJ@Attack?$AA@   1008c400     KItemSet.obj
 0003:00003408       ??_C@_06DNLJ@Weapon?$AA@   1008c408     KItemSet.obj
 0003:00003410       ??_C@_0BA@OABO@MagicPriceScale?$AA@ 1008c410     KItemSet.obj
 0003:00003420       ??_C@_06NNPN@Repair?$AA@   1008c420     KItemSet.obj
 0003:00003428       ??_C@_0P@ILEH@ItemPriceScale?$AA@ 1008c428     KItemSet.obj
 0003:00003438       ??_C@_0BO@NLPP@?2settings?2item?2AbradeRate?4ini?$AA@ 1008c438     KItemSet.obj
 0003:00003458       ??_C@_04JFJ@SHOP?$AA@      1008c458     KItemSet.obj
 0003:00003460       ??_C@_06PGLI@CoinID?$AA@   1008c460     KItemSet.obj
 0003:00003468       ??_C@_0CD@EFAN@?$FLAdd?$CK?$FN?5Find?5Free?5Node?5Item?5Error@ 1008c468     KItemSet.obj
 0003:0000348c       ??_C@_0CC@EEGH@?$FLAdd?$FN?5Find?5Free?5Node?5Item?5Error?$CB@ 1008c48c     KItemSet.obj
 0003:000034b0       ??_C@_0CH@FJMJ@?$FLAddExist?$FN?5Find?5Free?5Node?5Item?5E@ 1008c4b0     KItemSet.obj
 0003:000034d8       ??_C@_0BA@OKOO@?$CFd?5v?$LJn?5?$CFd?5l?$KN?nng?$AA@ 1008c4d8     KObj.obj
 0003:000034e8       ??_C@_0N@MGID@?$CFd?5v?$LJn?5l?$KN?nng?$AA@ 1008c4e8     KObj.obj
 0003:000034f8       ??_C@_08KODL@?$CFd?5l?$KN?nng?$AA@ 1008c4f8     KObj.obj
 0003:00003504       ??_C@_0DF@HDGC@Exception?5Have?5Chought?5When?5Exec@ 1008c504     KObj.obj
 0003:0000353c       ??_C@_08NHHJ@ObjIndex?$AA@ 1008c53c     KObj.obj
 0003:00003548       ?g_szObjKind@@3PAY0CA@DA   1008c548     KObjSet.obj
 0003:000036c8       ?g_dwObjKindNum@@3PAKA     1008c6c8     KObjSet.obj
 0003:000036f8       ??_C@_01PAOO@B?$AA@        1008c6f8     KObjSet.obj
 0003:000036fc       ??_C@_01PACF@G?$AA@        1008c6fc     KObjSet.obj
 0003:00003700       ??_C@_01FJJO@R?$AA@        1008c700     KObjSet.obj
 0003:00003704       ??_C@_01PFH@A?$AA@         1008c704     KObjSet.obj
 0003:00003708       ??_C@_04DECM@List?$AA@     1008c708     KObjSet.obj
 0003:00003710       ??_C@_05HCNL@Count?$AA@    1008c710     KObjSet.obj
 0003:00003718       ??_C@_0BP@LLGP@?2settings?2obj?2objnamecolor?4ini?$AA@ 1008c718     KObjSet.obj
 0003:00003738       ??_C@_0BL@LMPI@?2settings?2obj?2moneyobj?4txt?$AA@ 1008c738     KObjSet.obj
 0003:00003754       ??_C@_0BK@NKBG@?2settings?2obj?2objdata?4txt?$AA@ 1008c754     KObjSet.obj
 0003:00003770       ??_C@_0BD@NMLI@?2?$CFs?2v_?$CF03d?2?$CF03d_?$CFs?$AA@ 1008c770     KObjSet.obj
 0003:00003784       ??_C@_09NMNJ@Obj_C?4dat?$AA@ 1008c784     KObjSet.obj
 0003:00003790       ??_C@_0BB@KIJI@?$LG?T?S?$KG?N?o?$MA?m?$LM?$LM?D?$NM?$LB?$OA?$LK?E?$AA@ 1008c790     KCore.obj
 0003:000037a4       ??_C@_08IBLA@?O?j?O?$LI?$MA?$OA?$LB?p?$AA@ 1008c7a4     KCore.obj
 0003:000037b0       ??_C@_08HOFG@?$LO?$NP?L?e?$MA?$OA?$LB?p?$AA@ 1008c7b0     KCore.obj
 0003:000037bc       ??_C@_0CB@NFOO@?2settings?2weaponphysicsskill?4txt@ 1008c7bc     KCore.obj
 0003:000037e0       ??_C@_0BK@JIJJ@Init?5Load?5File?5Error?$CB?$CB?$CB?$CB?6?$AA@ 1008c7e0     KCore.obj
 0003:000037fc       ??_C@_0BK@PEEG@Init?5PlayerSet?5Error?$CB?$CB?$CB?$CB?6?$AA@ 1008c7fc     KCore.obj
 0003:00003818       ??_C@_0BD@CLPK@?2settings?2npcS?4txt?$AA@ 1008c818     KCore.obj
 0003:0000382c       ??_C@_0BG@LHJJ@?2settings?2missles?4txt?$AA@ 1008c82c     KCore.obj
 0003:00003844       ??_C@_0BF@GMDK@?2settings?2skills?4txt?$AA@ 1008c844     KCore.obj
 0003:0000385c       ??_C@_06KBFD@?$CD32770?$AA@ 1008c85c     KCore.obj
 0003:00003864       ??_C@_08IOGN@DebugWin?$AA@ 1008c864     KCore.obj
 0003:00003870       ??_C@_0BK@BLDO@?2settings?2gamesetting?4ini?$AA@ 1008c870     KCore.obj
 0003:0000388c       ??_C@_0BK@JBAN@?2settings?2playertitle?4txt?$AA@ 1008c88c     KCore.obj
 0003:000038a8       ??_C@_0BA@OMOF@?2Ui?2npcbobo?4ini?$AA@ 1008c8a8     KCore.obj
 0003:000038b8       ??_C@_0BK@EHLD@?2settings?2RankSetting?4txt?$AA@ 1008c8b8     KCore.obj
 0003:000038d4       ??_C@_0BN@IGAC@?2settings?2StringResource?4txt?$AA@ 1008c8d4     KCore.obj
 0003:000038f4       ??_C@_0BN@NLBK@?2settings?2item?2GoldEquip?4txt?$AA@ 1008c8f4     KCore.obj
 0003:00003914       ??_C@_0BP@OMPF@?2settings?2battles?2defvalue?4ini?$AA@ 1008c914     KCore.obj
 0003:00003934       ??_C@_0CC@GNML@?2settings?2item?2magicattrib_ge?4tx@ 1008c934     KCore.obj
 0003:00003958       ??_C@_0CF@JJHD@?2settings?2item?2magicscript_stack@ 1008c958     KCore.obj
 0003:00003980       ??_C@_0CC@MCLP@?2settings?2item?2questkey_stack?4tx@ 1008c980     KCore.obj
 0003:000039a4       ??_C@_0CK@GJEJ@?2script?2npclevelscript?2npclevels@ 1008c9a4     KCore.obj
 0003:000039d0       ??_C@_08BAIB@MissleId?$AA@ 1008c9d0     KCore.obj
 0003:000039dc       ??_C@_0CA@JABA@?2settings?2ClientWeaponSkill?4txt?$AA@ 1008c9dc     KCore.obj
 0003:000039fc       ??_C@_04GKGD@BLUE?$AA@     1008c9fc     KCore.obj
 0003:00003a04       ??_C@_05FFOH@GREEN?$AA@    1008ca04     KCore.obj
 0003:00003a0c       ??_C@_03OJNE@RED?$AA@      1008ca0c     KCore.obj
 0003:00003a10       ??_C@_05PGEK@ALPHA?$AA@    1008ca10     KCore.obj
 0003:00003a18       ??_C@_0BK@KLHP@?2settings?2AdjustColor?4txt?$AA@ 1008ca18     KCore.obj
 0003:00003a74       ??_C@_0N@CAHM@?2maps?2?$CFd?4ini?$AA@ 1008ca74     KSubWorld.obj
 0003:00003a84       ??_C@_08LJLC@?2maps?2?$CFs?$AA@ 1008ca84     KSubWorld.obj
 0003:00003a90       ??_C@_0L@PLLC@?$CFd_MapType?$AA@ 1008ca90     KSubWorld.obj
 0003:00003a9c       ??_C@_0BG@CMDK@?2settings?2maplist?4ini?$AA@ 1008ca9c     KSubWorld.obj
 0003:00003ab4       ??_C@_0BI@KFGE@Region?3?$CI?$CFd?$CJ?5Player?$CI?$CFd?$CJ?6?$AA@ 1008cab4     KSubWorld.obj
 0003:00003acc       ??_C@_0M@HLNI@?2?$CFs?2?$CF03d_?$CFs?$AA@ 1008cacc     KRegion.obj
 0003:00003ad8       ??_C@_09FGBN@Npc_C?4dat?$AA@ 1008cad8     KRegion.obj
 0003:00003ae4       ??_C@_0L@IOJF@?$CFs?2?$CF03d_?$CFs?$AA@ 1008cae4     KRegion.obj
 0003:00003af0       ??_C@_0N@OBCI@Region_C?4dat?$AA@ 1008caf0     KRegion.obj
 0003:00003b00       ??_C@_0L@CIGF@?2?$CFs?2v_?$CF03d?$AA@ 1008cb00     KRegion.obj
 0003:00003b0c       ??_C@_07JHMB@?$CF03d_?$CFs?$AA@ 1008cb0c     KRegion.obj
 0003:00003b14       ??_C@_0N@OGMI@OBSTACLE?4DAT?$AA@ 1008cb14     KRegion.obj
 0003:00003b24       ??_C@_0P@FJLO@?$CFsRegion_C?4dat?$AA@ 1008cb24     KRegion.obj
 0003:00003b34       ??_C@_0BA@EDDM@?$CFs?2v_?$CF03d?2?$CF03d_?$AA@ 1008cb34     KRegion.obj
 0003:00003b44       ??_C@_09GFMI@?$CFs?2v_?$CF03d?$AA@ 1008cb44     KRegion.obj
 0003:00003b50       ??_C@_0BG@KKED@Loi?5Region?5X?5Y?5?$CFd?5?$CFd?6?$AA@ 1008cb50     KRegion.obj
 0003:00003b68       ?g_nSinBuffer@@3PAHA       1008cb68     KMath.obj
 0003:00003c68       ?g_nCosBuffer@@3PAHA       1008cc68     KMath.obj
 0003:00003d68       ?g_InternalDirSinCosCodeBuffer@@3PAEA 1008cd68     KMath.obj
 0003:00003d8c       ?g_InternalIsAccrueConquerCodeBuffer@@3PAEA 1008cd8c     KMath.obj
 0003:00003db8       ?g_nSin@@3PAHA             1008cdb8     KMath.obj
 0003:00003dbc       ?g_nCos@@3PAHA             1008cdbc     KMath.obj
 0003:00003dc0       ?g_InternalDirSinCosCode@@3PAEA 1008cdc0     KMath.obj
 0003:00003dc4       ?g_InternalIsAccrueConquerCode@@3PAEA 1008cdc4     KMath.obj
 0003:00003dc8       ?g_nProtocolSize@@3PAHA    1008cdc8     KProtocol.obj
 0003:000041c8       ??_C@_0CL@HEGF@?$CFs?5ch?$KNa?5?$KO?$KIng?5k?$PN?5v?$LFo?5k?$KKnh?5tr?$NP?5chu@ 1008d1c8     KProtocolProcess.obj
 0003:000041f4       ??_C@_0CD@LJFP@Hi?Vn?5t?$LJi?5b?$LJn?5kh?$KLng?5th?S?5l?Kp?5t?f?5?$KO?i@ 1008d1f4     KProtocolProcess.obj
 0003:00004218       ??_C@_0BL@DCHP@Th?$LFnh?5l?Kp?5t?f?5?$KO?ii?5th?Jt?5b?$LJi?4?$AA@ 1008d218     KProtocolProcess.obj
 0003:00004234       ??_C@_0BN@BECC@B?$LJn?5v?$LF?5?$CFs?5tr?k?5th?$LFnh?5h?$LGo?5h?wu?$CB?$AA@ 1008d234     KProtocolProcess.obj
 0003:00004254       ??_C@_0BN@CEDJ@Th?$KKm?5?$CFs?5l?$LFm?5h?$LGo?5h?wu?5th?Jt?5b?$LJi?$AA@ 1008d254     KProtocolProcess.obj
 0003:00004274       ??_C@_0BM@OOI@?$CFs?5t?u?5ch?hi?5l?ji?5m?ji?5h?$LGo?5h?wu?$CB?$AA@ 1008d274     KProtocolProcess.obj
 0003:00004290       ??_C@_0BJ@NMNL@?$CFs?5xin?5th?$KKm?5l?$LFm?5h?$LGo?5h?wu?$CB?$AA@ 1008d290     KProtocolProcess.obj
 0003:000042ac       ??_C@_0BK@BPIK@B?$LJn?5th?$LFnh?5l?Kp?5m?it?5t?f?5?$KO?ii?4?$AA@ 1008d2ac     KProtocolProcess.obj
 0003:000042c8       ??_C@_0CJ@MADM@?$KHi?Ru?5khi?Sn?5?$KO?$LMng?5c?Jp?5c?qa?5b?$LJn?5t?$KIng@ 1008d2c8     KProtocolProcess.obj
 0003:000042f4       ??_C@_0BJ@ODJL@r?$KN?$KMng?5ch?xa?5?$KO?e?5?$CItrang?5?$CFd?$CJ?$AA@ 1008d2f4     KProtocolProcess.obj
 0003:00004310       ??_C@_0M@HDH@t?si?5m?k?5r?ing?$AA@ 1008d310     KProtocolProcess.obj
 0003:0000431c       ??_C@_07LIIC@?$KL?5nhanh?$AA@ 1008d31c     KProtocolProcess.obj
 0003:00004324       ??_C@_0L@FICM@h?$LFnh?5trang?$AA@ 1008d324     KProtocolProcess.obj
 0003:00004330       ??_C@_0O@BOCH@r?$KN?$KMng?5ch?xa?5?$KO?e?$AA@ 1008d330     KProtocolProcess.obj
 0003:00004340       ??_C@_0DE@BIG@?$KH?$LH?5chuy?Sn?5?$DMcolor?$DNyellow?$DO?$CFs?$DMcolor@ 1008d340     KProtocolProcess.obj
 0003:00004374       ??_C@_0DP@PMDM@T?f?5?$KO?ii?5c?qa?5b?$LJn?5hi?Vn?5t?$LJi?5kh?$KLng?5ch@ 1008d374     KProtocolProcess.obj
 0003:000043b4       ??_C@_0DJ@PBA@T?f?5?$KO?ii?5c?qa?5b?$LJn?5hi?Vn?5t?$LJi?5cho?5ph?Pp@ 1008d3b4     KProtocolProcess.obj
 0003:000043f0       ??_C@_0BP@FGFH@?$CFs?5tr?k?5th?$LFnh?5?$KO?eng?5?$KO?ii?5c?qa?5b?$LJn?$CB?$AA@ 1008d3f0     KProtocolProcess.obj
 0003:00004410       ??_C@_0CB@NPOG@?$CFs?5?$KO?$KN?nc?5b?f?5nhi?Vm?5l?$LFm?5?$KO?ii?5tr?$KN?kng?$CB@ 1008d410     KProtocolProcess.obj
 0003:00004434       ??_C@_0CF@GIKP@B?$LJn?5?$KO?$KN?nc?5?$CFs?5b?f?5nhi?Vm?5l?$LFm?5?$KO?ii?5tr?$KN@ 1008d434     KProtocolProcess.obj
 0003:0000445c       ??_C@_0CC@IJF@?$CFs?5v?$LF?5b?$LJn?5h?qy?5b?a?5quan?5h?V?5h?$LGo?5h?wu@ 1008d45c     KProtocolProcess.obj
 0003:00004480       ??_C@_0CB@IGLP@B?$KJy?5gi?j?5b?$LJn?5kh?$KLng?5th?S?5giao?5d?$NOch?4@ 1008d480     KProtocolProcess.obj
 0003:000044a4       ??_C@_0BO@DLO@B?$KJy?5gi?j?5b?$LJn?5c?c?5th?S?5giao?5d?$NOch?4?$AA@ 1008d4a4     KProtocolProcess.obj
 0003:000044c4       ??_C@_0CC@PODP@Kh?$KLng?5th?S?5thao?5t?$LIc?5?$KO?$KN?nc?5t?$LJi?5?$KO?$KJy?$CB@ 1008d4c4     KProtocolProcess.obj
 0003:000044e8       ??_C@_0BN@GMJD@Kh?ca?5b?$LGo?5v?V?5?$KO?$KN?nc?5k?$NNch?5ho?$LJt?$CB?4?$AA@ 1008d4e8     KProtocolProcess.obj
 0003:00004508       ??_C@_0EK@BLNK@M?Kt?5kh?Hu?5b?$LGo?5v?V?5nh?$KJn?5v?Kt?5c?r?5kh?$KLn@ 1008d508     KProtocolProcess.obj
 0003:00004554       ??_C@_0CF@KJAE@?$KH?fi?5m?$LH?5thi?Ut?5l?Kp?5b?$LGo?5v?V?5th?$LFnh?5c?$KL@ 1008d554     KProtocolProcess.obj
 0003:0000457c       ??_C@_0CL@PDAN@M?Kt?5kh?Hu?5b?$LGo?5v?V?5nh?$KJn?5v?Kt?5kh?$KLng?5c@ 1008d57c     KProtocolProcess.obj
 0003:000045a8       ??_C@_0BM@LPIG@M?k?5kh?ca?5b?$LGo?5v?V?5th?$LFnh?5c?$KLng?$CB?4?$AA@ 1008d5a8     KProtocolProcess.obj
 0003:000045c4       ??_C@_0O@IGCA@Kh?ca?5nh?$KJn?5v?Kt?$AA@ 1008d5c4     KProtocolProcess.obj
 0003:000045d4       ??_C@_0DA@LAEE@Thi?Ut?5l?Kp?5m?Kt?5kh?Hu?5b?$LGo?5v?V?5nh?$KJn?5v@ 1008d5d4     KProtocolProcess.obj
 0003:00004604       ??_C@_0CP@PKJJ@Hi?Vn?5t?$LJi?5b?$LJn?5tr?k?5th?$LFnh?5bang?5ch?sn@ 1008d604     KProtocolProcess.obj
 0003:00004634       ??_C@_0CB@FPOL@B?$LJn?5?$KO?$KN?nc?5b?f?5nhi?Vm?5l?$LFm?5bang?5ch?q?$CB?$CB@ 1008d634     KProtocolProcess.obj
 0003:00004658       ??_C@_0CJ@MFMH@B?$LJn?5ch?q?5?$KO?ing?5r?ji?5kh?ai?5bang?5h?ii?5t@ 1008d658     KProtocolProcess.obj
 0003:00004684       ??_C@_0CL@GONP@B?$LJn?5ch?q?5?$KO?ing?5r?ji?5kh?ai?5bang?5h?ii?5t@ 1008d684     KProtocolProcess.obj
 0003:000046b0       ??_C@_0BN@OBJL@B?$LJn?5?$KO?$LH?5b?$NO?5?$KOu?fi?5kh?ai?5bang?5h?ii?$AA@ 1008d6b0     KProtocolProcess.obj
 0003:000046d0       ??_C@_0CG@NIGE@?$CFs?5t?u?5ch?hi?5cho?5b?$LJn?5gia?5nh?Kp?5bang@ 1008d6d0     KProtocolProcess.obj
 0003:000046f8       ??_C@_0BI@OIMH@B?$LJn?5b?$NO?5m?Jt?5v?Kt?5ph?Hm?5?$CFs?4?$AA@ 1008d6f8     KProtocolProcess.obj
 0003:00004710       ??_C@_0CK@NEMF@?$KH?hi?5ph?$KN?$KMng?5?$KOang?5c?ong?5ng?$KN?ji?5kh?$LIc?5@ 1008d710     KProtocolProcess.obj
 0003:0000473c       ??_C@_0CM@OOFN@?$KH?hi?5ph?$KN?$KMng?5?$KOang?5?k?5tr?$LJng?5th?$LIi?5phi@ 1008d73c     KProtocolProcess.obj
 0003:00004768       ??_C@_0CA@NMEN@B?$LJn?5kh?$KLng?5th?S?5c?uu?5s?$LIt?5t?$KJn?5th?q?$CB?$CB?$AA@ 1008d768     KProtocolProcess.obj
 0003:00004788       ??_C@_0CD@NDMM@B?$LJn?5?$KOang?5c?ong?5ng?$KN?ji?5kh?$LIc?5b?$LFn?5lu?K@ 1008d788     KProtocolProcess.obj
 0003:000047ac       ??_C@_0BL@NALG@T?$KJn?5th?q?5kh?$KLng?5th?S?5c?uu?5s?$LIt?$CB?$AA@ 1008d7ac     KProtocolProcess.obj
 0003:000047c8       ??_C@_02MOMN@PK?$AA@       1008d7c8     KProtocolProcess.obj
 0003:000047cc       ??_C@_0CK@FCDI@Hi?Vn?5t?$LJi?5ng?$KN?ji?5kh?$LIc?5kh?$KLng?5th?S?5v?$LF@ 1008d7cc     KProtocolProcess.obj
 0003:000047f8       ??_C@_06KEEO@T?f?5?$KO?ii?$AA@ 1008d7f8     KProtocolProcess.obj
 0003:00004800       ??_C@_0CI@IOMB@B?$LJn?5kh?$KLng?5th?S?5nh?Ft?5ti?Rn?5c?qa?5ng?$KN?j@ 1008d800     KProtocolProcess.obj
 0003:00004828       ??_C@_0BC@MLPI@B?$LJn?5nh?Kn?5?$KO?$KN?nc?5?$CFs?4?$AA@ 1008d828     KProtocolProcess.obj
 0003:0000483c       ??_C@_0CO@OOJF@Trang?5b?$NO?5m?Fc?5qu?$LI?5l?$KJu?0?5?$KO?$LH?5b?$NO?5h?$KN?5h@ 1008d83c     KProtocolProcess.obj
 0003:0000486c       ??_C@_0BP@DMCK@?$CFs?5t?u?5ch?hi?5c?ong?5b?$LJn?5giao?5d?$NOch?$CB?$AA@ 1008d86c     KProtocolProcess.obj
 0003:0000488c       ??_C@_0CF@EMHP@?$CFs?5Kho?$LGng?5tr?hng?5h?$LFnh?5trang?5kh?$KLng@ 1008d88c     KProtocolProcess.obj
 0003:000048b4       ??_C@_0CK@MMGJ@Kho?$LGng?5tr?hng?5h?$LFnh?5trang?5c?qa?5b?$LJn?5@ 1008d8b4     KProtocolProcess.obj
 0003:000048e0       ??_C@_0BO@EPFJ@B?$LJn?5b?$NO?5t?fn?5th?Jt?5?$CFd?5l?$KN?nng?5b?$LJc?$CB?$AA@ 1008d8e0     KProtocolProcess.obj
 0003:00004900       ??_C@_0CL@BNNH@V?Kt?5ph?Hm?5qu?$LI?5xa?0?5kh?$KLng?5c?$LIch?5n?$LFo?5@ 1008d900     KProtocolProcess.obj
 0003:0000492c       ??_C@_08HCF@H?V?5th?hng?$AA@ 1008d92c     KProtocolProcess.obj
 0003:00004938       ??_C@_0CM@GCPP@B?$LJn?5kh?$KLng?5th?S?5nh?Ft?5v?Kt?5ph?Hm?5c?qa?5@ 1008d938     KProtocolProcess.obj
 0003:00004964       ??_C@_0DB@JGPK@T?f?5?$KO?ii?5c?qa?5b?$LJn?5kh?$KLng?5th?S?5chuy?Sn?5@ 1008d964     KProtocolProcess.obj
 0003:00004998       ??_C@_0BJ@IIJ@?$CFs?5t?$LFi?5l?$LHnh?5?$KO?$LJo?5ch?$KNa?5?$KO?q?$CB?$AA@ 1008d998     KProtocolProcess.obj
 0003:000049b4       ??_C@_0BO@KIOD@B?f?5nhi?Vm?5?$KO?ii?5tr?$KN?kng?5th?Jt?5b?$LJi?$CB?$AA@ 1008d9b4     KProtocolProcess.obj
 0003:000049d4       ??_C@_0BI@CABK@B?$LJn?5gia?5nh?Kp?5t?f?5?$KO?ii?5?$CFs?$CB?$AA@ 1008d9d4     KProtocolProcess.obj
 0003:000049ec       ??_C@_0CD@IBDL@?$CFs?5t?u?5ch?hi?5l?ji?5m?ji?5t?f?5?$KO?ii?5c?qa?5b?$LJ@ 1008d9ec     KProtocolProcess.obj
 0003:00004a10       ??_C@_0BE@FEA@?$CFs?5r?ji?5kh?ai?5t?f?5?$KO?ii?$CB?$AA@ 1008da10     KProtocolProcess.obj
 0003:00004a24       ??_C@_04GHDH@?S?P?H?K?$AA@ 1008da24     KProtocolProcess.obj
 0003:00004a2c       ??_C@_0BH@EMFC@B?$LJn?5r?ji?5kh?ai?5t?f?5?$KO?ii?5?$CFs?$AA@ 1008da2c     KProtocolProcess.obj
 0003:00004a44       ??_C@_0BE@DEDP@?$CFs?5gi?$LGi?5t?$LIn?5t?f?5?$KO?ii?$CB?$AA@ 1008da44     KProtocolProcess.obj
 0003:00004a58       ??_C@_0BF@BNNM@B?$LJn?5gi?$LGi?5t?$LIn?5t?f?5?$KO?ii?$CB?$AA@ 1008da58     KProtocolProcess.obj
 0003:00004a70       ??_C@_0BP@HELI@?$CFs?5b?$NO?5khai?5tr?u?5ra?5kh?ai?5t?f?5?$KO?ii?$CB?$AA@ 1008da70     KProtocolProcess.obj
 0003:00004a90       ??_C@_0CA@JNNB@B?$LJn?5b?$NO?5khai?5tr?u?5ra?5kh?ai?5t?f?5?$KO?ii?$CB?$AA@ 1008da90     KProtocolProcess.obj
 0003:00004ab0       ??_C@_0BH@LCML@?$LE?$KL?N?$LL?J?$KH?$LA?$NM?$KD?$KM?$LG?T?$LH?$LN?$LC?$LL?T?Z?O?$NP?$KD?$KB?$AA@ 1008dab0     KProtocolProcess.obj
 0003:00004ac8       ??_C@_0BJ@HACB@?$LE?$KL?N?$LL?J?$KH?$LA?$NM?$KD?$KM?$LG?T?$LH?$LN?D?$NM?A?$KG?$LC?$LL?$LJ?$LL?$KD?$KB?$AA@ 1008dac8     KProtocolProcess.obj
 0003:00004ae4       ??_C@_0BJ@CAPP@?$LE?$KL?N?$LL?J?$KH?$LA?$NM?$KD?$KM?$LB?$LO?$LA?o?V?P?N?$NO?$LE?K?H?K?$KD?$KB?$AA@ 1008dae4     KProtocolProcess.obj
 0003:00004b00       ??_C@_0BK@JFOE@?$CFs?5mu?hn?5xin?5v?$LFo?5bang?5h?ii?$CB?$AA@ 1008db00     KProtocolProcess.obj
 0003:00004b1c       ??_C@_0CO@PNKB@B?$LJn?5kh?$KLng?5?$KO?q?5danh?5v?dng?5?$KO?S?5thi?Ut?5@ 1008db1c     KProtocolProcess.obj
 0003:00004b4c       ??_C@_0DM@LFE@T?$KKn?5bang?5h?ii?5kh?$KLng?5h?np?5l?V?5ho?Fc?5t@ 1008db4c     KProtocolProcess.obj
 0003:00004b88       ??_C@_0CF@HJAB@Kh?$KLng?5?$KO?q?5ti?Rn?5?$KO?S?5thi?Ut?5l?Kp?5bang?5@ 1008db88     KProtocolProcess.obj
 0003:00004bb0       ??_C@_0BC@JGHK@T?$KKn?5bang?5h?ii?5sai?$CB?$AA@ 1008dbb0     KProtocolProcess.obj
 0003:00004bc4       ??_C@_0BH@CEIH@L?Kp?5bang?5h?ii?5th?Jt?5b?$LJi?4?$AA@ 1008dbc4     KProtocolProcess.obj
 0003:00004bdc       ??_C@_0BM@CFDC@Trang?5b?$NO?5?$CFs?5?$KO?$LH?5g?Gn?5h?$KN?5h?ang?$CB?$AA@ 1008dbdc     KProtocolProcess.obj
 0003:00004bf8       ??_C@_0DH@ION@?$DMcolor?$DNgreen?$DOT?y?5?$KO?ing?$DMcolor?$DNyello@ 1008dbf8     KProtocolProcess.obj
 0003:00004c30       ??_C@_0DI@KMAD@?$DMcolor?$DNgreen?$DOT?y?5?$KO?ing?$DMcolor?$DNyello@ 1008dc30     KProtocolProcess.obj
 0003:00004c68       ?GameScriptFuns@@3PAUTLua_Funcs@@A 1008dc68     ScriptFuns.obj
 0003:00004d30       ?WorldScriptFuns@@3PAUTLua_Funcs@@A 1008dd30     ScriptFuns.obj
 0003:00004d48       ??_C@_0BB@PGHK@AddLoaclTimeNews?$AA@ 1008dd48     ScriptFuns.obj
 0003:00004d5c       ??_C@_0N@LGLB@FadeOutMusic?$AA@ 1008dd5c     ScriptFuns.obj
 0003:00004d6c       ??_C@_0M@OLBE@FadeInMusic?$AA@ 1008dd6c     ScriptFuns.obj
 0003:00004d78       ??_C@_09MJFL@PlayMusic?$AA@ 1008dd78     ScriptFuns.obj
 0003:00004d84       ??_C@_08KIJC@ExitGame?$AA@ 1008dd84     ScriptFuns.obj
 0003:00004d90       ??_C@_0N@EFIP@PlaySprMovie?$AA@ 1008dd90     ScriptFuns.obj
 0003:00004da0       ??_C@_09OHCJ@PlaySound?$AA@ 1008dda0     ScriptFuns.obj
 0003:00004dac       ??_C@_0BC@HKAI@AddLocalCountNews?$AA@ 1008ddac     ScriptFuns.obj
 0003:00004dc0       ??_C@_0BB@DMOB@AddLocalTimeNews?$AA@ 1008ddc0     ScriptFuns.obj
 0003:00004dd4       ??_C@_0N@COKK@AddLocalNews?$AA@ 1008ddd4     ScriptFuns.obj
 0003:00004de4       ??_C@_0BD@MGEH@AddGlobalCountNews?$AA@ 1008dde4     ScriptFuns.obj
 0003:00004df8       ??_C@_0BC@HDMA@AddGlobalTimeNews?$AA@ 1008ddf8     ScriptFuns.obj
 0003:00004e0c       ??_C@_0BA@PAFD@AddGlobalNewsEx?$AA@ 1008de0c     ScriptFuns.obj
 0003:00004e1c       ??_C@_0O@EMDD@AddGlobalNews?$AA@ 1008de1c     ScriptFuns.obj
 0003:00004e2c       ??_C@_0L@JJKJ@PutMessage?$AA@ 1008de2c     ScriptFuns.obj
 0003:00004e38       ??_C@_07HBPN@Include?$AA@  1008de38     ScriptFuns.obj
 0003:00004e40       ??_C@_07CNBH@SetByte?$AA@  1008de40     ScriptFuns.obj
 0003:00004e48       ??_C@_06JGIJ@SetBit?$AA@   1008de48     ScriptFuns.obj
 0003:00004e50       ??_C@_07HOBL@GetByte?$AA@  1008de50     ScriptFuns.obj
 0003:00004e58       ??_C@_06JKAL@GetBit?$AA@   1008de58     ScriptFuns.obj
 0003:00004e60       ??_C@_07NNP@Message?$AA@   1008de60     ScriptFuns.obj
 0003:00004e68       ??_C@_0M@MPOH@SetTaskTemp?$AA@ 1008de68     ScriptFuns.obj
 0003:00004e74       ??_C@_0M@MNCE@GetTaskTemp?$AA@ 1008de74     ScriptFuns.obj
 0003:00004e80       ??_C@_04MNKN@Talk?$AA@     1008de80     ScriptFuns.obj
 0003:00004e88       ??_C@_08GOO@SayImage?$AA@  1008de88     ScriptFuns.obj
 0003:00004e94       ??_C@_03JLNJ@Say?$AA@      1008de94     ScriptFuns.obj
 0003:00004e98       ??_C@_05OGEL@?$CFs?$HM?$CFs?$AA@ 1008de98     ScriptFuns.obj
 0003:00004ea0       ??_C@_01FDLN@?1?$AA@       1008dea0     ScriptFuns.obj
 0003:00004ea4       ??_C@_05DNHK@?$CFs?$CFd?$HM?$AA@ 1008dea4     ScriptFuns.obj
 0003:00004eac       ??_C@_05DGIG@?$CFs?$CFs?$HM?$AA@ 1008deac     ScriptFuns.obj
 0003:00004eb4       ??_C@_0N@GDFL@IntegerValue?$AA@ 1008deb4     KScriptValueSet.obj
 0003:00004ec4       ??_C@_0M@PCFE@StringValue?$AA@ 1008dec4     KScriptValueSet.obj
 0003:00004ed0       ??_C@_07FCHL@?2script?$AA@ 1008ded0     KSortScript.obj
 0003:00004ed8       ??_C@_04GABA@?4TXT?$AA@    1008ded8     KSortScript.obj
 0003:00004ee0       ??_C@_04IBCA@?4LUA?$AA@    1008dee0     KSortScript.obj
 0003:00004ee8       ??_C@_02OOND@?4?4?$AA@     1008dee8     KSortScript.obj
 0003:00004eec       ??_C@_01PJCK@?4?$AA@       1008deec     KSortScript.obj
 0003:00004ef0       ??_C@_03DCMC@?$CK?4?$CK?$AA@ 1008def0     KSortScript.obj
 0003:00004ef4       ??_C@_05KEJO@?$CFs?2?$CFs?$AA@ 1008def4     KSortScript.obj
 0003:00004efc       ??_C@_01FAFK@?$DO?$AA@     1008defc     CoreShell.obj
 0003:00004f00       ??_C@_01FHE@?$DM?$AA@      1008df00     CoreShell.obj
 0003:00004f04       ??_C@_06GNBE@?2?$CFs?2?$CFs?$AA@ 1008df04     CoreShell.obj
 0003:00004f0c       ??_C@_05FONF@Magic?$AA@    1008df0c     CoreShell.obj
 0003:00004f14       ??_C@_07GBHP@Attack2?$AA@  1008df14     CoreShell.obj
 0003:00004f1c       ??_C@_07JOMG@Attack1?$AA@  1008df1c     CoreShell.obj
 0003:00004f24       ??_C@_03OGBC@Die?$AA@      1008df24     CoreShell.obj
 0003:00004f28       ??_C@_05FJGL@Wound?$AA@    1008df28     CoreShell.obj
 0003:00004f30       ??_C@_07IEDE@H?$DP?5Th?$DP?5?$AA@ 1008df30     CoreShell.obj
 0003:00004f38       ??_C@_06CLDH@H?$DP?5H?$DPa?$AA@ 1008df38     CoreShell.obj
 0003:00004f40       ??_C@_06JEBL@H?$DP?5Kim?$AA@ 1008df40     CoreShell.obj
 0003:00004f48       ??_C@_06GEFF@H?$DP?5M?$DPc?$AA@ 1008df48     CoreShell.obj
 0003:00004f50       ??_C@_07HGKL@H?$DP?5Th?$DPy?$AA@ 1008df50     CoreShell.obj
 0003:00004f58       ??_C@_07KEDB@RANKSTR?$AA@  1008df58     CoreShell.obj
 0003:00004f60       ??_C@_05LFEB@?$CFd?$HM?$CFd?$AA@ 1008df60     CoreShell.obj
 0003:00004f68       ??_C@_03JFOM@?$CFld?$AA@   1008df68     CoreShell.obj
 0003:00004f6c       ??_C@_06BJDC@?$CFs?$HM?$CFld?$AA@ 1008df6c     CoreShell.obj
 0003:00004f74       ??_C@_0CJ@KCDM@B?$LJn?5?$KOang?5tr?$KKn?5ng?ya?5kh?$KLng?5th?S?5ng?e@ 1008df74     CoreShell.obj
 0003:00004fa0       ??_C@_0CO@OBMN@B?$LJn?5?$KOang?5ng?ei?5thi?Rn?5kh?$KLng?5th?S?5l?$KK@ 1008dfa0     CoreShell.obj
 0003:00004fd0       ??_C@_0DC@PGLA@B?$LJn?5?$KO?$LH?5qu?$LI?5m?Vt?5kh?$KLng?5th?S?5l?$KKn?5xu?h@ 1008dfd0     CoreShell.obj
 0003:00005004       ??_C@_0BI@EMEF@B?$LJn?5xin?5?$CFs?5l?$LFm?5h?$LGo?5h?wu?$CB?$AA@ 1008e004     CoreShell.obj
 0003:0000501c       ??_C@_0CJ@PPCF@Kh?$KLng?5th?S?5b?$LIn?5v?Kt?5ph?Hm?5n?$LFy?5v?$LFo?5c@ 1008e01c     CoreShell.obj
 0003:00005048       ??_C@_0BH@JIOC@Kh?$KLng?5?$KO?q?5ti?Rn?5xu?5kh?ca?$CB?$AA@ 1008e048     CoreShell.obj
 0003:00005060       ??_C@_0CB@IKJ@Kh?$KLng?5?$KO?q?5?$KOi?Sm?5t?$NNch?5l?ry?5Li?$KKn?5?$KH?Ju?$CB@ 1008e060     CoreShell.obj
 0003:00005084       ??_C@_0CB@IEBD@Kh?$KLng?5?$KO?q?5?$KOi?Sm?5t?$NNch?5l?ry?5T?hng?5Kim?$CB@ 1008e084     CoreShell.obj
 0003:000050a8       ??_C@_0BK@BAOH@Kh?$KLng?5?$KO?q?5?$KOi?Sm?5Ph?sc?5Duy?$KKn?$CB?$AA@ 1008e0a8     CoreShell.obj
 0003:000050c4       ??_C@_0BC@BCLK@Kh?$KLng?5?$KO?q?5ti?Rn?5xu?$CB?$AA@ 1008e0c4     CoreShell.obj
 0003:000050d8       ??_C@_0CN@EDIE@Ch?X?5?$KO?$KN?nc?5th?yc?5hi?Vn?5thao?5t?$LIc?5?k?5c?$LI@ 1008e0d8     CoreShell.obj
 0003:00005108       ??_C@_0CD@ICMF@?$KHang?5tr?$KKn?5ng?ya?5kh?$KLng?5th?S?5thao?5t?$LI@ 1008e108     CoreShell.obj
 0003:0000512c       ??_C@_0CC@NCDK@Ch?xc?5n?$KIng?5n?$LFy?5?$KOang?5?$KO?$KN?nc?5x?$KJy?5d?yng@ 1008e12c     CoreShell.obj
 0003:00005150       ??_C@_08HBOF@H?$DP?5th?$DPng?$AA@ 1008e150     CoreShell.obj
 0003:0000515c       ??_C@_0DK@ILPD@?$KHang?5?k?5tr?$LJng?5th?$LIi?5chi?Un?5?$KO?Ju?5kh?$KLn@ 1008e15c     CoreShell.obj
 0003:00005198       ??_C@_0CD@GHCA@L?ji?5m?ji?5t?f?5?$KO?ii?5c?qa?5b?$LJn?5g?vi?5?$KO?Un?5?$CF@ 1008e198     CoreShell.obj
 0003:000051bc       ?m_BranchFlag@KIpotBranch@@0PAIA 1008e1bc     KIpotBranch.obj
 0003:000051d0       ?m_RangePosTable@KScenePlaceC@@0PAUtagPOINT@@A 1008e1d0     KScenePlaceC.obj
 0003:00005358       ?m_PRIIdxTable@KScenePlaceC@@0PAHA 1008e358     KScenePlaceC.obj
 0003:0000541c       ??_C@_0BH@KHNK@_?$CKPlaceGround?$CK_?$CD?$HO?$CFd?$HO?$CD_?$AA@ 1008e41c     KScenePlaceC.obj
 0003:00005434       ??_C@_06BEEN@InDoor?$AA@   1008e434     KScenePlaceC.obj
 0003:0000543c       ??_C@_07PGNE@Evening?$AA@  1008e43c     KScenePlaceC.obj
 0003:00005444       ??_C@_04EPBE@Dusk?$AA@     1008e444     KScenePlaceC.obj
 0003:0000544c       ??_C@_04LPEO@Noon?$AA@     1008e44c     KScenePlaceC.obj
 0003:00005454       ??_C@_08OENG@Forenoon?$AA@ 1008e454     KScenePlaceC.obj
 0003:00005460       ??_C@_07ICHF@Morning?$AA@  1008e460     KScenePlaceC.obj
 0003:00005468       ??_C@_04HMEF@Dawn?$AA@     1008e468     KScenePlaceC.obj
 0003:00005470       ??_C@_05FBHK@LIGHT?$AA@    1008e470     KScenePlaceC.obj
 0003:00005478       ??_C@_08PLDJ@MidNight?$AA@ 1008e478     KScenePlaceC.obj
 0003:00005484       ??_C@_04BOOC@MAIN?$AA@     1008e484     KScenePlaceC.obj
 0003:0000548c       ??_C@_08PLIK@IsInDoor?$AA@ 1008e48c     KScenePlaceC.obj
 0003:00005498       ??_C@_09GLGL@?$CFs?2?$CFs?4wor?$AA@ 1008e498     KScenePlaceC.obj
 0003:000054a4       ??_C@_09IJNI@?$CFd_Pos_?$CFd?$AA@ 1008e4a4     KScenePlaceC.obj
 0003:000054b0       ??_C@_0M@HMKJ@?$CFd_Image_?$CFd?$AA@ 1008e4b0     KScenePlaceC.obj
 0003:000054bc       ??_C@_05DAHL@MapBg?$AA@    1008e4bc     KScenePlaceC.obj
 0003:000054c4       ??_C@_08KFHN@?$CFd_Count?$AA@ 1008e4c4     KScenePlaceC.obj
 0003:000054d0       ??_C@_0BA@JGC@?2Ui?2Setting?4ini?$AA@ 1008e4d0     KScenePlaceC.obj
 0003:000054e0       ??_C@_05IFEL@_name?$AA@    1008e4e0     KScenePlaceC.obj
 0003:000054e8       ??_C@_05GFGP@?2Maps?$AA@   1008e4e8     KScenePlaceC.obj
 0003:000054f0       ??_C@_0BG@HIBA@?2settings?2MapList?4ini?$AA@ 1008e4f0     KScenePlaceC.obj
 0003:00005508       ??_C@_07PNMD@Image?$CFd?$AA@ 1008e508     KScenePlaceC.obj
 0003:00005510       ??_C@_0L@IMMF@AreaBottom?$AA@ 1008e510     KScenePlaceC.obj
 0003:0000551c       ??_C@_09BLMN@AreaRight?$AA@ 1008e51c     KScenePlaceC.obj
 0003:00005528       ??_C@_07MJFF@AreaTop?$AA@  1008e528     KScenePlaceC.obj
 0003:00005530       ??_C@_08PILK@AreaLeft?$AA@ 1008e530     KScenePlaceC.obj
 0003:0000553c       ??_C@_04FCOP@Type?$AA@     1008e53c     KScenePlaceC.obj
 0003:00005544       ??_C@_04NLIF@Main?$AA@     1008e544     KScenePlaceC.obj
 0003:0000554c       ??_C@_0L@JAMB@?$CFsTrap?4dat?$AA@ 1008e54c     KScenePlaceRegionC.obj
 0003:00005558       ??_C@_0P@FOFO@?$CFsOBSTACLE?4DAT?$AA@ 1008e558     KScenePlaceRegionC.obj
 0003:00005568       ??_C@_0BB@IJAI@?$CFsBuildinObj?4Dat?$AA@ 1008e568     KScenePlaceRegionC.obj
 0003:0000557c       ??_C@_0N@FHNG@?$CFsGround?4dat?$AA@ 1008e57c     KScenePlaceRegionC.obj
 0003:0000558c       ??_C@_0CA@LPEH@?2?S?N?O?$LH?W?J?T?$LE?2background?2cloud5?4spr?$AA@ 1008e58c     KScenePlaceRegionC.obj
 0003:000055ac       ??_C@_0CA@DPNC@?2?S?N?O?$LH?W?J?T?$LE?2background?2cloud1?4spr?$AA@ 1008e5ac     KScenePlaceRegionC.obj
 0003:000055cc       ??_C@_0CA@JONN@?2?S?N?O?$LH?W?J?T?$LE?2background?2cloud8?4spr?$AA@ 1008e5cc     KScenePlaceRegionC.obj
 0003:000055ec       ??_C@_0CA@NPLN@?2?S?N?O?$LH?W?J?T?$LE?2background?2cloud2?4spr?$AA@ 1008e5ec     KScenePlaceRegionC.obj
 0003:0000560c       ??_C@_0CA@FPCI@?2?S?N?O?$LH?W?J?T?$LE?2background?2cloud6?4spr?$AA@ 1008e60c     KScenePlaceRegionC.obj
 0003:0000562c       ??_C@_0CA@PPAN@?2?S?N?O?$LH?W?J?T?$LE?2background?2cloud7?4spr?$AA@ 1008e62c     KScenePlaceRegionC.obj
 0003:0000564c       ??_C@_0CA@BPGC@?2?S?N?O?$LH?W?J?T?$LE?2background?2cloud4?4spr?$AA@ 1008e64c     KScenePlaceRegionC.obj
 0003:0000566c       ??_C@_0M@BCHK@FlareSound3?$AA@ 1008e66c     KWeather.obj
 0003:00005678       ??_C@_0M@LION@FlareSound2?$AA@ 1008e678     KWeather.obj
 0003:00005684       ??_C@_0M@EHFE@FlareSound1?$AA@ 1008e684     KWeather.obj
 0003:00005690       ??_C@_09IMJG@RainSound?$AA@ 1008e690     KWeather.obj
 0003:0000569c       ??_C@_07NOMD@LenRate?$AA@  1008e69c     KWeather.obj
 0003:000056a4       ??_C@_09EJDC@FlareTime?$AA@ 1008e6a4     KWeather.obj
 0003:000056b0       ??_C@_09GDON@WindSpeed?$AA@ 1008e6b0     KWeather.obj
 0003:000056bc       ??_C@_09IEHD@DownSpeed?$AA@ 1008e6bc     KWeather.obj
 0003:000056c8       ??_C@_0M@NFNN@ParticleNum?$AA@ 1008e6c8     KWeather.obj
 0003:000056d4       ??_C@_0M@IIHA@LifeTimeMax?$AA@ 1008e6d4     KWeather.obj
 0003:000056e0       ??_C@_0M@GLCG@LifeTimeMin?$AA@ 1008e6e0     KWeather.obj
 0003:000056ec       ??_C@_0M@DNFL@Weather?$CF?43d?$AA@ 1008e6ec     KWeather.obj
 0003:000056f8       ??_C@_0BO@LAIF@?2settings?2Weather?2Weather?4ini?$AA@ 1008e6f8     KWeather.obj
 0003:00005718       ??_C@_0L@ONPH@Weather?$CF3d?$AA@ 1008e718     KWeather.obj
 0003:00005724       ??_C@_0M@CONN@Weather?4ini?$AA@ 1008e724     KWeather.obj
 0003:00005730       ??_C@_0BC@KFJ@?2settings?2Weather?$AA@ 1008e730     KWeather.obj
 0003:00005744       ??_C@_09KAMI@TongColor?$AA@ 1008e744     ScenePlaceMapC.obj
 0003:00005750       ??_C@_0P@IBDG@NormalNpcColor?$AA@ 1008e750     ScenePlaceMapC.obj
 0003:00005760       ??_C@_0O@OAAP@FightNpcColor?$AA@ 1008e760     ScenePlaceMapC.obj
 0003:00005770       ??_C@_0M@OINE@PlayerColor?$AA@ 1008e770     ScenePlaceMapC.obj
 0003:0000577c       ??_C@_0O@MMGN@TeammateColor?$AA@ 1008e77c     ScenePlaceMapC.obj
 0003:0000578c       ??_C@_03DIFO@Map?$AA@      1008e78c     ScenePlaceMapC.obj
 0003:00005790       ??_C@_09PGJC@SelfColor?$AA@ 1008e790     ScenePlaceMapC.obj
 0003:0000579c       ??_C@_0O@CMFP@?$CKPlaceMap_?$CFd?$CK?$AA@ 1008e79c     ScenePlaceMapC.obj
 0003:000057ac       ??_C@_04IMHF@rect?$AA@     1008e7ac     ScenePlaceMapC.obj
 0003:000057b4       ??_C@_0BB@FNPP@MapLTRegionIndex?$AA@ 1008e7b4     ScenePlaceMapC.obj
 0003:000057c8       ??_C@_08NIBA@?$CFs24?4jpg?$AA@ 1008e7c8     ScenePlaceMapC.obj
 0003:000057d4       ??_C@_0N@KLDE@V?$KN?mn?5v?Kt?5c?$LGn?$AA@ 1008e7d4     ScenePlaceMapC.obj
 0003:000057e4       ??_C@_05BBIB@?$CFd?0?$CFd?$AA@ 1008e7e4     ScenePlaceMapC.obj
 0003:000057ec       ??_C@_0CB@NNEJ@?2Spr?2Ui3?2UiMiniMap?2FlagImage?4spr@ 1008e7ec     ScenePlaceMapC.obj
 0003:00005810       ??_C@_0L@FDMD@?$CFd_SprLink?$AA@ 1008e810     ScenePlaceMapC.obj
 0003:0000581c       ??_C@_0L@LCKD@?$CFd_NpcName?$AA@ 1008e81c     ScenePlaceMapC.obj
 0003:00005828       ??_C@_0L@BJCO@?$CFd_NamePos?$AA@ 1008e828     ScenePlaceMapC.obj
 0003:00005834       ??_C@_09JBAK@?$CFd_SprPos?$AA@ 1008e834     ScenePlaceMapC.obj
 0003:00005840       ??_C@_04GBMF@?$FL?$CFd?$FN?$AA@ 1008e840     ScenePlaceMapC.obj
 0003:00005848       ??_C@_0BO@FDJG@?2Settings?2maps?2MapTraffic?4ini?$AA@ 1008e848     ScenePlaceMapC.obj
 0003:00005868       ??_C@_0CD@HJEG@?2spr?2Ui?2?$LM?$LM?D?$NM?M?$LM?$LB?j?2icon_sk_ty_ap?4s@ 1008e868     CoreDrawGameObj.obj
 0003:0000588c       ??_C@_0BI@FDGD@?2settings?2MagicDesc?4Ini?$AA@ 1008e88c     KMagicDesc.obj
 0003:000058a4       ??_C@_03DDGG@Nam?$AA@      1008e8a4     KMagicDesc.obj
 0003:000058a8       ??_C@_04HFGK@N?w?5?5?$AA@  1008e8a8     KMagicDesc.obj
 0003:000058b0       ??_C@_01GJD@?9?$AA@        1008e8b0     KMagicDesc.obj
 0003:000058b4       ??_C@_01PJOB@?$CL?$AA@     1008e8b4     KMagicDesc.obj
 0003:000058b8       ??_C@_06KCKH@?$FL?5?$CFs?5?$FN?$AA@ 1008e8b8     KMagicDesc.obj
 0003:000058c0       ??_C@_0P@PEKG@v?b?5c?$KLng?5v?hn?5c?c?$AA@ 1008e8c0     KMagicDesc.obj
 0003:000058d0       ??_C@_04HFMI@Ti?Rn?$AA@    1008e8d0     KMagicDesc.obj
 0003:000058d8       ??_C@_07GCNK@Th?S?5L?yc?$AA@ 1008e8d8     KMagicDesc.obj
 0003:000058e0       ??_C@_08GALG@Sinh?5L?yc?$AA@ 1008e8e0     KMagicDesc.obj
 0003:000058ec       ??_C@_07LCIC@N?ii?5L?yc?$AA@ 1008e8ec     KMagicDesc.obj
 0003:000058f4       ??_C@_06PFFN@V?$KL?5h?V?5?$AA@ 1008e8f4     KMagicDesc.obj
 0003:000058fc       ??_C@_04MMIF@Th?f?5?$AA@   1008e8fc     KMagicDesc.obj
 0003:00005904       ??_C@_03HELO@H?aa?$AA@     1008e904     KMagicDesc.obj
 0003:00005908       ??_C@_04DFOG@Th?qy?$AA@    1008e908     KMagicDesc.obj
 0003:00005910       ??_C@_03IOII@M?ic?$AA@     1008e910     KMagicDesc.obj
 0003:00005914       ??_C@_03JMHO@Kim?$AA@      1008e914     KMagicDesc.obj
 0003:00005918       ??_C@_08BILC@Descript?$AA@ 1008e918     KMagicDesc.obj
 0003:00005924       ??_C@_06JDFN@STRING?$AA@   1008e924     KTaskFuns.obj
 0003:0000592c       ??_C@_09OLLC@Music?$CF03d?$AA@ 1008e92c     KMapMusic.obj
 0003:00005938       ??_C@_08COEK@MusicNum?$AA@ 1008e938     KMapMusic.obj
 0003:00005944       ??_C@_07KDJP@Map?$CF03d?$AA@ 1008e944     KMapMusic.obj
 0003:0000594c       ??_C@_06DHA@MapNum?$AA@    1008e94c     KMapMusic.obj
 0003:00005954       ??_C@_07FPLM@Stage?$CFd?$AA@ 1008e954     KMapMusic.obj
 0003:0000595c       ??_C@_05KJOA@Stage?$AA@    1008e95c     KMapMusic.obj
 0003:00005964       ??_C@_08BMPO@StageNum?$AA@ 1008e964     KMapMusic.obj
 0003:00005970       ??_C@_0CC@MLHK@?2settings?2music?2MusicFightSet?4in@ 1008e970     KMapMusic.obj
 0003:00005994       ??_C@_0BN@IFCB@?2settings?2music?2MusicSet?4txt?$AA@ 1008e994     KMapMusic.obj
 0003:000059b4       ??_C@_0O@GFKB@NormalNpcShow?$AA@ 1008e9b4     KLittleMap.obj
 0003:000059c4       ??_C@_0N@FMCH@FightNpcShow?$AA@ 1008e9c4     KLittleMap.obj
 0003:000059d4       ??_C@_0L@IHCJ@PlayerShow?$AA@ 1008e9d4     KLittleMap.obj
 0003:000059e0       ??_C@_0N@DOOD@TeammateShow?$AA@ 1008e9e0     KLittleMap.obj
 0003:000059f0       ??_C@_08IFMJ@MapColor?$AA@ 1008e9f0     KLittleMap.obj
 0003:000059fc       ??_C@_0M@ONEK@255?0255?0255?$AA@ 1008e9fc     KLittleMap.obj
 0003:00005a08       ??_C@_0BL@GDEL@?2Ui?2Default?2?P?$KB?$LF?X?M?$LM?Q?U?I?$KL?4ini?$AA@ 1008ea08     KLittleMap.obj
 0003:00005a30       ??_C@_00A@?$AA@            1008ea30     KThiefSkill.obj
 0003:00005a38       ?Missle@@3PAVKMissle@@A    1008ea38     KMissle.obj
 0003:0016d038       ?g_MisslesLib@@3PAVKMissle@@A 101f6038     KMissle.obj
 0003:002b0738       ?g_nRandMissleTab@@3PAHA   10339738     KMissle.obj
 0003:002b08c8       ?MissleSet@@3VKMissleSet@@A 103398c8     KMissleSet.obj
 0003:002b08e0       ?g_SkillManager@@3VKSkillManager@@A 103398e0     KSkillManager.obj
 0003:003355e0       ?g_ulSkillCount@@3KA       103be5e0     KSkillManager.obj
 0003:003355e8       ?SpecialMovieList@@3VKList@@A 103be5e8     KSkillSpecial.obj
 0003:00335600       ?g_Faction@@3VKFaction@@A  103be600     KFaction.obj
 0003:00335898       ?g_pNpcTemplate@@3PAY1GE@4PAVKNpcTemplate@@A 103be898     KNpc.obj
 0003:007fa3d8       ?Npc@@3PAVKNpc@@A          108833d8     KNpc.obj
 0003:01b663d8       ?NpcAI@@3VKNpcAI@@A        11bef3d8     KNpcAI.obj
 0003:01b663e0       ?g_NpcAttribModify@@3VKNpcAttribModify@@A 11bef3e0     KNpcAttribModify.obj
 0003:01b66820       ?g_NpcResList@@3VKNpcResList@@A 11bef820     KNpcResList.obj
 0003:01b70e38       ?NpcSet@@3VKNpcSet@@A      11bf9e38     KNpcSet.obj
 0003:01b747a8       ?g_nLastNetMsgLoop@@3HA    11bfd7a8     KPlayer.obj
 0003:01b747b0       ?Player@@3PAVKPlayer@@A    11bfd7b0     KPlayer.obj
 0003:01b8e2a8       ?PlayerSet@@3VKPlayerSet@@A 11c172a8     KPlayerSet.obj
 0003:01b8ea80       ?g_Team@@3PAVKTeam@@A      11c17a80     KPlayerTeam.obj
 0003:01b8ee20       ?BuySell@@3VKBuySell@@A    11c17e20     KBuySell.obj
 0003:01b8ee48       ?Item@@3PAVKItem@@A        11c17e48     KItem.obj
 0003:01ca2e48       ?g_ItemChangeRes@@3VKItemChangeRes@@A 11d2be48     KItemChangeRes.obj
 0003:01ca2f08       ?ItemGen@@3VKItemGenerator@@A 11d2bf08     KItemGenerator.obj
 0003:01ca8a50       ?ItemSet@@3VKItemSet@@A    11d31a50     KItemSet.obj
 0003:01ca8b28       ?Object@@3PAVKObj@@A       11d31b28     KObj.obj
 0003:01ce9328       ?ObjSet@@3VKObjSet@@A      11d72328     KObjSet.obj
 0003:01ce93c0       ?g_cViewItem@@3VKViewItem@@A 11d723c0     KViewItem.obj
 0003:01ce94d8       ?g_WorldScript@@3VKLuaScript@@A 11d724d8     KCore.obj
 0003:01ce9550       ?g_cGoldEquip@@3VKTabFile@@A 11d72550     KCore.obj
 0003:01ce9570       ?g_bDebugScript@@3HA       11d72570     KCore.obj
 0003:01ce9578       ?g_SoundCache@@3VKSoundCache@@A 11d72578     KCore.obj
 0003:01ce959c       ?g_nHandSkill@@3HA         11d7259c     KCore.obj
 0003:01ce95a0       ?g_nRangeWeaponSkill@@3PAHA 11d725a0     KCore.obj
 0003:01ce9730       ?g_nMeleeWeaponSkill@@3PAHA 11d72730     KCore.obj
 0003:01ce98c0       ?g_BattleSettingFile@@3VKIniFile@@A 11d728c0     KCore.obj
 0003:01ce9920       ?g_GoldMagicTab@@3VKTabFile@@A 11d72920     KCore.obj
 0003:01ce9940       ?g_MagicScriptStackTabFile@@3VKTabFile@@A 11d72940     KCore.obj
 0003:01ce9960       ?g_QuestStackTabFile@@3VKTabFile@@A 11d72960     KCore.obj
 0003:01ce9980       ?g_GameSettingFile@@3VKIniFile@@A 11d72980     KCore.obj
 0003:01ce99e0       ?g_NpcKindFile@@3VKTabFile@@A 11d729e0     KCore.obj
 0003:01ce9a00       ?g_NpcSetting@@3VKTabFile@@A 11d72a00     KCore.obj
 0003:01ce9a20       ?g_SkillLevelSetting@@3VKTabFile@@A 11d72a20     KCore.obj
 0003:01ce9a40       ?g_MisslesSetting@@3VKTabFile@@A 11d72a40     KCore.obj
 0003:01ce9a60       ?g_OrdinSkillsSetting@@3VKTabFile@@A 11d72a60     KCore.obj
 0003:01ce9a80       ?g_bPingReply@@3HA         11d72a80     KCore.obj
 0003:01ce9a84       ?g_pClient@@3PAUIClient@@A 11d72a84     KCore.obj
 0003:01ce9a88       ?g_TitleTabSetting@@3VKTabFile@@A 11d72a88     KCore.obj
 0003:01ce9aa8       ?g_MapTrafficSetting@@3VKIniFile@@A 11d72aa8     KCore.obj
 0003:01ce9b08       ?g_StateIniSetting@@3VKIniFile@@A 11d72b08     KCore.obj
 0003:01ce9b68       ?g_RankTabSetting@@3VKTabFile@@A 11d72b68     KCore.obj
 0003:01ce9b88       ?g_ClientWeaponSkillTabFile@@3VKTabFile@@A 11d72b88     KCore.obj
 0003:01ce9ba8       ?g_pAdjustColorTab@@3PAIA  11d72ba8     KCore.obj
 0003:01ce9bac       ?g_ulAdjustColorCount@@3IA 11d72bac     KCore.obj
 0003:01ce9bb0       ?g_bUISelIntelActiveWithServer@@3HA 11d72bb0     KCore.obj
 0003:01ce9bb4       ?g_bUISpeakActiveWithServer@@3HA 11d72bb4     KCore.obj
 0003:01ce9bb8       ?g_bUISelLastSelCount@@3HA 11d72bb8     KCore.obj
 0003:01ce9bbc       ?g_pMusic@@3PAVKMusic@@A   11d72bbc     KCore.obj
 0003:01ce9bc0       ?g_pNpcLevelScript@@3PAVKLuaScript@@A 11d72bc0     KCore.obj
 0003:01ce9bc8       ?SubWorld@@3PAVKSubWorld@@A 11d72bc8     KSubWorld.obj
 0003:01ce9cc8       ?nActiveRegionCount@@3HA   11d72cc8     KSubWorldSet.obj
 0003:01ce9cd0       ?g_SubWorldSet@@3VKSubWorldSet@@A 11d72cd0     KSubWorldSet.obj
 0003:01cf5dd8       ?g_nConquerSeries@@3PAHA   11d7edd8     KMath.obj
 0003:01cf5dec       ?g_nAccrueSeries@@3PAHA    11d7edec     KMath.obj
 0003:01cf5e00       ?g_ProtocolProcess@@3VKProtocolProcess@@A 11d7ee00     KProtocolProcess.obj
 0003:01cf61f8       ?g_TempValue@@3PAHA        11d7f1f8     ScriptFuns.obj
 0003:01cf69c8       ?g_StoryScriptList@@3VKScriptList@@A 11d7f9c8     ScriptFuns.obj
 0003:01cf69e0       ?g_ScriptValueSet@@3VKScriptValueSet@@A 11d7f9e0     KScriptValueSet.obj
 0003:01cf6a14       ?g_pMainScript@@3PAVKLuaScript@@A 11d7fa14     KScriptValueSet.obj
 0003:01cf6a18       ?g_szCurScriptDir@@3PADA   11d7fa18     KSortScript.obj
 0003:01cf6b1c       ?nCurrentScriptNum@@3IA    11d7fb1c     KSortScript.obj
 0003:01cf6b20       ?g_ScriptBinTree@@3V?$BinSTree@VKSortScriptNode@@@@A 11d7fb20     KSortScript.obj
 0003:01cf6b30       ?g_ScriptSet@@3PAVKLuaScript@@A 11d7fb30     KSortScript.obj
 0003:01cf6ba8       ?l_pDataChangedNotifyFunc@@3PAUIClientCallback@@A 11d7fba8     CoreShell.obj
 0003:01cf6bb0       ?g_ScenePlace@@3VKScenePlaceC@@A 11d7fbb0     KScenePlaceC.obj
 0003:01d6407c       ?g_pRepresent@@3PAUiRepresentShell@@A 11ded07c     ImgRef.obj
 0003:01d64080       ?l_Time@@3IA               11ded080     ImgRef.obj
 0003:01d64088       ?g_MagicDesc@@3VKMagicDesc@@A 11ded088     KMagicDesc.obj
 0003:01d642e8       ?g_StringResourseTabFile@@3VKTabFile@@A 11ded2e8     KTaskFuns.obj
 0003:01d64308       ?Option@@3VKOption@@A      11ded308     KOption.obj
 0003:01d64318       ?Ladder@@3VKLadder@@A      11ded318     KLadder.obj
 0003:01d65d00       ?g_LoadFile@@3VZLoadFile@@A 11deed00     ZLoadFile.obj
 0003:01d66010       ?g_JXPathFinder@@3VKJXPathFinder@@A 11def010     KJXPathFinder.obj
 0003:01d6605c       __adjust_fdiv              11def05c     <common>
 0003:01d66060       __pRawDllMain              11def060     <common>
 0003:01d66064       ___onexitend               11def064     <common>
 0003:01d66068       ___onexitbegin             11def068     <common>

 entry point at        0001:000768d3

 Static symbols

 0001:00073df0       _$E9                       10074df0 f   KJXPathFinder.obj
 0001:00073e00       _$E6                       10074e00 f   KJXPathFinder.obj
 0001:00073e10       _$E8                       10074e10 f   KJXPathFinder.obj
 0001:00073e20       _$E7                       10074e20 f   KJXPathFinder.obj
 0001:00073850       _$E28                      10074850 f   Kautoai.obj
 0001:00073860       _$E25                      10074860 f   Kautoai.obj
 0001:00073870       _$E27                      10074870 f   Kautoai.obj
 0001:00073880       _$E26                      10074880 f   Kautoai.obj
 0001:00073890       _$E34                      10074890 f   Kautoai.obj
 0001:000738a0       _$E31                      100748a0 f   Kautoai.obj
 0001:000738b0       _$E33                      100748b0 f   Kautoai.obj
 0001:000738c0       _$E32                      100748c0 f   Kautoai.obj
 0001:000731f0       _$E9                       100741f0 f   ZLoadFile.obj
 0001:00073200       _$E6                       10074200 f   ZLoadFile.obj
 0001:00073210       _$E8                       10074210 f   ZLoadFile.obj
 0001:00073220       _$E7                       10074220 f   ZLoadFile.obj
 0001:00073000       _$E9                       10074000 f   KLadder.obj
 0001:00073010       _$E6                       10074010 f   KLadder.obj
 0001:00073020       _$E8                       10074020 f   KLadder.obj
 0001:00073030       _$E7                       10074030 f   KLadder.obj
 0001:00072230       _$E32                      10073230 f   KTaskFuns.obj
 0001:00072240       _$E29                      10073240 f   KTaskFuns.obj
 0001:00072250       _$E31                      10073250 f   KTaskFuns.obj
 0001:00072260       _$E30                      10073260 f   KTaskFuns.obj
 0001:00071b40       _$E9                       10072b40 f   KMagicDesc.obj
 0001:00071b50       _$E6                       10072b50 f   KMagicDesc.obj
 0001:00071b60       _$E8                       10072b60 f   KMagicDesc.obj
 0001:00071b70       _$E7                       10072b70 f   KMagicDesc.obj
 0001:0006e900       _$E7                       1006f900 f   SceneMath.obj
 0001:0006e910       _$E6                       1006f910 f   SceneMath.obj
 0001:00068190       _$E13                      10069190 f   KScenePlaceC.obj
 0001:000681a0       _$E10                      100691a0 f   KScenePlaceC.obj
 0001:000681b0       _$E12                      100691b0 f   KScenePlaceC.obj
 0001:000681c0       _$E11                      100691c0 f   KScenePlaceC.obj
 0001:0005d5a0       _$E33                      1005e5a0 f   CoreShell.obj
 0001:0005d5b0       _$E32                      1005e5b0 f   CoreShell.obj
 0001:0005cbf0       _$E9                       1005dbf0 f   KSortScript.obj
 0001:0005cc00       _$E6                       1005dc00 f   KSortScript.obj
 0001:0005cc20       _$E8                       1005dc20 f   KSortScript.obj
 0001:0005cc30       _$E7                       1005dc30 f   KSortScript.obj
 0001:0005cc50       _$E14                      1005dc50 f   KSortScript.obj
 0001:0005cc60       _$E11                      1005dc60 f   KSortScript.obj
 0001:0005cc80       _$E13                      1005dc80 f   KSortScript.obj
 0001:0005cc90       _$E12                      1005dc90 f   KSortScript.obj
 0001:0005cd60       ?LoadAllScript@@YAKPAD@Z   1005dd60 f   KSortScript.obj
 0001:0005d0e0       ?LoadScriptToSortList@@YAHPAD@Z 1005e0e0 f   KSortScript.obj
 0001:0005d1b0       ?LoadScriptToSortListA@@YAHPAD@Z 1005e1b0 f   KSortScript.obj
 0001:0005c3a0       _$E9                       1005d3a0 f   KScriptValueSet.obj
 0001:0005c3b0       _$E6                       1005d3b0 f   KScriptValueSet.obj
 0001:0005c3c0       _$E8                       1005d3c0 f   KScriptValueSet.obj
 0001:0005c3d0       _$E7                       1005d3d0 f   KScriptValueSet.obj
 0001:0005a880       _$E32                      1005b880 f   ScriptFuns.obj
 0001:0005a890       _$E29                      1005b890 f   ScriptFuns.obj
 0001:0005a8a0       _$E31                      1005b8a0 f   ScriptFuns.obj
 0001:0005a8b0       _$E30                      1005b8b0 f   ScriptFuns.obj
 0001:000537c0       _$E35                      100547c0 f   KProtocolProcess.obj
 0001:000537d0       _$E32                      100547d0 f   KProtocolProcess.obj
 0001:000537e0       _$E34                      100547e0 f   KProtocolProcess.obj
 0001:000537f0       _$E33                      100547f0 f   KProtocolProcess.obj
 0001:00058b40       ?sParseUGName@@YAHABV?$basic_string@DU?$char_traits@D@std@@V?$allocator@D@2@@std@@PAV12@1@Z 10059b40 f   KProtocolProcess.obj
 0001:000511e0       _$E31                      100521e0 f   KSubWorldSet.obj
 0001:000511f0       _$E28                      100521f0 f   KSubWorldSet.obj
 0001:00051200       _$E30                      10052200 f   KSubWorldSet.obj
 0001:00051210       _$E29                      10052210 f   KSubWorldSet.obj
 0001:0004f320       _$E35                      10050320 f   KSubWorld.obj
 0001:0004f330       _$E32                      10050330 f   KSubWorld.obj
 0001:0004f350       _$E34                      10050350 f   KSubWorld.obj
 0001:0004f360       _$E33                      10050360 f   KSubWorld.obj
 0001:0004e670       _$E10                      1004f670 f   KCore.obj
 0001:0004e680       _$E7                       1004f680 f   KCore.obj
 0001:0004e690       _$E9                       1004f690 f   KCore.obj
 0001:0004e6a0       _$E8                       1004f6a0 f   KCore.obj
 0001:0004e6b0       _$E19                      1004f6b0 f   KCore.obj
 0001:0004e6c0       _$E16                      1004f6c0 f   KCore.obj
 0001:0004e6d0       _$E18                      1004f6d0 f   KCore.obj
 0001:0004e6e0       _$E17                      1004f6e0 f   KCore.obj
 0001:0004e6f0       _$E24                      1004f6f0 f   KCore.obj
 0001:0004e700       _$E21                      1004f700 f   KCore.obj
 0001:0004e710       _$E23                      1004f710 f   KCore.obj
 0001:0004e720       _$E22                      1004f720 f   KCore.obj
 0001:0004e730       _$E29                      1004f730 f   KCore.obj
 0001:0004e740       _$E26                      1004f740 f   KCore.obj
 0001:0004e750       _$E28                      1004f750 f   KCore.obj
 0001:0004e760       _$E27                      1004f760 f   KCore.obj
 0001:0004e770       _$E34                      1004f770 f   KCore.obj
 0001:0004e780       _$E31                      1004f780 f   KCore.obj
 0001:0004e790       _$E33                      1004f790 f   KCore.obj
 0001:0004e7a0       _$E32                      1004f7a0 f   KCore.obj
 0001:0004e7b0       _$E39                      1004f7b0 f   KCore.obj
 0001:0004e7c0       _$E36                      1004f7c0 f   KCore.obj
 0001:0004e7e0       _$E38                      1004f7e0 f   KCore.obj
 0001:0004e7f0       _$E37                      1004f7f0 f   KCore.obj
 0001:0004e810       _$E44                      1004f810 f   KCore.obj
 0001:0004e820       _$E41                      1004f820 f   KCore.obj
 0001:0004e830       _$E43                      1004f830 f   KCore.obj
 0001:0004e840       _$E42                      1004f840 f   KCore.obj
 0001:0004e850       _$E49                      1004f850 f   KCore.obj
 0001:0004e860       _$E46                      1004f860 f   KCore.obj
 0001:0004e870       _$E48                      1004f870 f   KCore.obj
 0001:0004e880       _$E47                      1004f880 f   KCore.obj
 0001:0004e890       _$E54                      1004f890 f   KCore.obj
 0001:0004e8a0       _$E51                      1004f8a0 f   KCore.obj
 0001:0004e8b0       _$E53                      1004f8b0 f   KCore.obj
 0001:0004e8c0       _$E52                      1004f8c0 f   KCore.obj
 0001:0004e8d0       _$E59                      1004f8d0 f   KCore.obj
 0001:0004e8e0       _$E56                      1004f8e0 f   KCore.obj
 0001:0004e8f0       _$E58                      1004f8f0 f   KCore.obj
 0001:0004e900       _$E57                      1004f900 f   KCore.obj
 0001:0004e910       _$E64                      1004f910 f   KCore.obj
 0001:0004e920       _$E61                      1004f920 f   KCore.obj
 0001:0004e930       _$E63                      1004f930 f   KCore.obj
 0001:0004e940       _$E62                      1004f940 f   KCore.obj
 0001:0004e950       _$E69                      1004f950 f   KCore.obj
 0001:0004e960       _$E66                      1004f960 f   KCore.obj
 0001:0004e970       _$E68                      1004f970 f   KCore.obj
 0001:0004e980       _$E67                      1004f980 f   KCore.obj
 0001:0004e990       _$E74                      1004f990 f   KCore.obj
 0001:0004e9a0       _$E71                      1004f9a0 f   KCore.obj
 0001:0004e9b0       _$E73                      1004f9b0 f   KCore.obj
 0001:0004e9c0       _$E72                      1004f9c0 f   KCore.obj
 0001:0004e9d0       _$E79                      1004f9d0 f   KCore.obj
 0001:0004e9e0       _$E76                      1004f9e0 f   KCore.obj
 0001:0004e9f0       _$E78                      1004f9f0 f   KCore.obj
 0001:0004ea00       _$E77                      1004fa00 f   KCore.obj
 0001:0004ea10       _$E84                      1004fa10 f   KCore.obj
 0001:0004ea20       _$E81                      1004fa20 f   KCore.obj
 0001:0004ea30       _$E83                      1004fa30 f   KCore.obj
 0001:0004ea40       _$E82                      1004fa40 f   KCore.obj
 0001:0004ea50       _$E89                      1004fa50 f   KCore.obj
 0001:0004ea60       _$E86                      1004fa60 f   KCore.obj
 0001:0004ea70       _$E88                      1004fa70 f   KCore.obj
 0001:0004ea80       _$E87                      1004fa80 f   KCore.obj
 0001:0004ea90       _$E94                      1004fa90 f   KCore.obj
 0001:0004eaa0       _$E91                      1004faa0 f   KCore.obj
 0001:0004eab0       _$E93                      1004fab0 f   KCore.obj
 0001:0004eac0       _$E92                      1004fac0 f   KCore.obj
 0001:0004e400       _$E29                      1004f400 f   KViewItem.obj
 0001:0004e410       _$E28                      1004f410 f   KViewItem.obj
 0001:0004d010       _$E35                      1004e010 f   KObjSet.obj
 0001:0004d020       _$E32                      1004e020 f   KObjSet.obj
 0001:0004d030       _$E34                      1004e030 f   KObjSet.obj
 0001:0004d040       _$E33                      1004e040 f   KObjSet.obj
 0001:0004bdd0       _$E33                      1004cdd0 f   KObj.obj
 0001:0004bde0       _$E32                      1004cde0 f   KObj.obj
 0001:0004b480       _$E9                       1004c480 f   KItemSet.obj
 0001:0004b490       _$E6                       1004c490 f   KItemSet.obj
 0001:0004b4a0       _$E8                       1004c4a0 f   KItemSet.obj
 0001:0004b4b0       _$E7                       1004c4b0 f   KItemSet.obj
 0001:00044230       _$E28                      10045230 f   KItemGenerator.obj
 0001:00044240       _$E25                      10045240 f   KItemGenerator.obj
 0001:00044250       _$E27                      10045250 f   KItemGenerator.obj
 0001:00044260       _$E26                      10045260 f   KItemGenerator.obj
 0001:00044270       _$E34                      10045270 f   KItemGenerator.obj
 0001:00044280       _$E31                      10045280 f   KItemGenerator.obj
 0001:00044290       _$E33                      10045290 f   KItemGenerator.obj
 0001:000442a0       _$E32                      100452a0 f   KItemGenerator.obj
 0001:000442b0       _$E39                      100452b0 f   KItemGenerator.obj
 0001:000442c0       _$E36                      100452c0 f   KItemGenerator.obj
 0001:000442d0       _$E38                      100452d0 f   KItemGenerator.obj
 0001:000442e0       _$E37                      100452e0 f   KItemGenerator.obj
 0001:00043e60       _$E9                       10044e60 f   KItemChangeRes.obj
 0001:00043e70       _$E6                       10044e70 f   KItemChangeRes.obj
 0001:00043e80       _$E8                       10044e80 f   KItemChangeRes.obj
 0001:00043e90       _$E7                       10044e90 f   KItemChangeRes.obj
 0001:00040bd0       _$E31                      10041bd0 f   KItem.obj
 0001:00040be0       _$E28                      10041be0 f   KItem.obj
 0001:00040c00       _$E30                      10041c00 f   KItem.obj
 0001:00040c10       _$E29                      10041c10 f   KItem.obj
 0001:0003f890       _$E31                      10040890 f   KBuySell.obj
 0001:0003f8a0       _$E28                      100408a0 f   KBuySell.obj
 0001:0003f8b0       _$E30                      100408b0 f   KBuySell.obj
 0001:0003f8c0       _$E29                      100408c0 f   KBuySell.obj
 0001:0003a8c0       _$E29                      1003b8c0 f   KPlayerTeam.obj
 0001:0003a8d0       _$E28                      1003b8d0 f   KPlayerTeam.obj
 0001:000396e0       _$E31                      1003a6e0 f   KPlayerSet.obj
 0001:000396f0       _$E28                      1003a6f0 f   KPlayerSet.obj
 0001:00039700       _$E30                      1003a700 f   KPlayerSet.obj
 0001:00039710       _$E29                      1003a710 f   KPlayerSet.obj
 0001:000264b0       _$E36                      100274b0 f   KPlayer.obj
 0001:000264c0       _$E33                      100274c0 f   KPlayer.obj
 0001:000264e0       _$E35                      100274e0 f   KPlayer.obj
 0001:000264f0       _$E34                      100274f0 f   KPlayer.obj
 0001:00023cf0       _$E35                      10024cf0 f   KNpcSet.obj
 0001:00023d00       _$E32                      10024d00 f   KNpcSet.obj
 0001:00023d10       _$E34                      10024d10 f   KNpcSet.obj
 0001:00023d20       _$E33                      10024d20 f   KNpcSet.obj
 0001:00021180       _$E9                       10022180 f   KNpcResList.obj
 0001:00021190       _$E6                       10022190 f   KNpcResList.obj
 0001:000211a0       _$E8                       100221a0 f   KNpcResList.obj
 0001:000211b0       _$E7                       100221b0 f   KNpcResList.obj
 0001:0001b360       _$E31                      1001c360 f   KNpcAttribModify.obj
 0001:0001b370       _$E28                      1001c370 f   KNpcAttribModify.obj
 0001:0001b380       _$E30                      1001c380 f   KNpcAttribModify.obj
 0001:0001b390       _$E29                      1001c390 f   KNpcAttribModify.obj
 0001:000185e0       _$E29                      100195e0 f   KNpcAI.obj
 0001:000185f0       _$E28                      100195f0 f   KNpcAI.obj
 0001:0000d740       _$E35                      1000e740 f   KNpc.obj
 0001:0000d750       _$E32                      1000e750 f   KNpc.obj
 0001:0000d770       _$E34                      1000e770 f   KNpc.obj
 0001:0000d780       _$E33                      1000e780 f   KNpc.obj
 0001:0000cf00       _$E13                      1000df00 f   KSkillSpecial.obj
 0001:0000cf10       _$E10                      1000df10 f   KSkillSpecial.obj
 0001:0000cf20       _$E12                      1000df20 f   KSkillSpecial.obj
 0001:0000cf30       _$E11                      1000df30 f   KSkillSpecial.obj
 0001:00005720       _$E31                      10006720 f   KSkillManager.obj
 0001:00005730       _$E28                      10006730 f   KSkillManager.obj
 0001:00005740       _$E30                      10006740 f   KSkillManager.obj
 0001:00005750       _$E29                      10006750 f   KSkillManager.obj
 0001:000040e0       _$E9                       100050e0 f   KMissleSet.obj
 0001:000040f0       _$E6                       100050f0 f   KMissleSet.obj
 0001:00004100       _$E8                       10005100 f   KMissleSet.obj
 0001:00004110       _$E7                       10005110 f   KMissleSet.obj
 0001:00000bc0       _$E35                      10001bc0 f   KMissle.obj
 0001:00000bd0       _$E32                      10001bd0 f   KMissle.obj
 0001:00000bf0       _$E34                      10001bf0 f   KMissle.obj
 0001:00000c00       _$E33                      10001c00 f   KMissle.obj
 0001:00000c20       _$E40                      10001c20 f   KMissle.obj
 0001:00000c30       _$E37                      10001c30 f   KMissle.obj
 0001:00000c50       _$E39                      10001c50 f   KMissle.obj
 0001:00000c60       _$E38                      10001c60 f   KMissle.obj
 0001:00076764       ?ArrayUnwindFilter@@YAHPAU_EXCEPTION_POINTERS@@@Z 10077764 f   MSVCRT:ehvecdtr.obj
