 GameServer

 Timestamp is 691c8b7d (Tue Nov 18 10:06:37 2025)

 Preferred load address is 00400000

 Start         Length     Name                   Class
 0001:00000000 0002fbccH .text                   CODE
 0001:0002fbd0 00002162H .text$x                 CODE
 0002:00000000 0000020cH .idata$5                DATA
 0002:00000210 00001c8cH .rdata                  DATA
 0002:00001ea0 0000104cH .rdata$r                DATA
 0002:00002ef0 000036b0H .xdata$x                DATA
 0002:000065a0 0000008cH .idata$2                DATA
 0002:0000662c 00000014H .idata$3                DATA
 0002:00006640 0000020cH .idata$4                DATA
 0002:0000684c 00000964H .idata$6                DATA
 0002:000071b0 00000000H .edata                  DATA
 0003:00000000 00000004H .CRT$XCA                DATA
 0003:00000004 000000c0H .CRT$XCU                DATA
 0003:000000c4 00000004H .CRT$XCZ                DATA
 0003:000000c8 00000004H .CRT$XIA                DATA
 0003:000000cc 0000000cH .CRT$XIC                DATA
 0003:000000d8 00000004H .CRT$XIY                DATA
 0003:000000dc 00000004H .CRT$XIZ                DATA
 0003:000000e0 00000004H .CRT$XPA                DATA
 0003:000000e4 00000004H .CRT$XPX                DATA
 0003:000000e8 00000004H .CRT$XPZ                DATA
 0003:000000ec 00000004H .CRT$XTA                DATA
 0003:000000f0 00000004H .CRT$XTB                DATA
 0003:000000f4 00000004H .CRT$XTZ                DATA
 0003:00000100 0000327cH .data                   DATA
 0003:00003380 000022d0H .bss                    DATA
 0004:00000000 000000a0H .rsrc$01                DATA
 0004:000000a0 000010c0H .rsrc$02                DATA

  Address         Publics by Value              Rva+Base     Lib:Object

 0001:00000000       ?GetCurrentDirectoryA@@YA?AV?$basic_string@DU?$char_traits@D@std@@V?$allocator@D@2@@std@@XZ 00401000 f   GameServer.obj
 0001:00000180       ??1CException@Win32@OnlineGameLib@@UAE@XZ 00401180 f i GameServer.obj
 0001:00000200       ??_ECException@Win32@OnlineGameLib@@UAEPAXI@Z 00401200 f i GameServer.obj
 0001:00000200       ??_GCException@Win32@OnlineGameLib@@UAEPAXI@Z 00401200 f i GameServer.obj
 0001:00000220       ??0CException@Win32@OnlineGameLib@@QAE@ABV012@@Z 00401220 f i GameServer.obj
 0001:00000360       ?KinnoxHx@@YAHPAD@Z        00401360 f   GameServer.obj
 0001:000003c0       ?GetMachineID@@YA?AV?$basic_string@DU?$char_traits@D@std@@V?$allocator@D@2@@std@@XZ 004013c0 f   GameServer.obj
 0001:00000670       ??0ios_base@std@@IAE@XZ    00401670 f i GameServer.obj
 0001:00000680       ??_Eios_base@std@@UAEPAXI@Z 00401680 f i GameServer.obj
 0001:00000680       ??_Gios_base@std@@UAEPAXI@Z 00401680 f i GameServer.obj
 0001:000006a0       ??_D?$basic_stringstream@DU?$char_traits@D@std@@V?$allocator@D@2@@std@@QAEXXZ 004016a0 f i GameServer.obj
 0001:000006c0       _main                      004016c0 f   GameServer.obj
 0001:00000a80       ??1?$basic_string@DU?$char_traits@D@std@@V?$allocator@D@2@@std@@QAE@XZ 00401a80 f i GameServer.obj
 0001:00000ac0       ??6?$basic_ostream@DU?$char_traits@D@std@@@std@@QAEAAV01@K@Z 00401ac0 f i GameServer.obj
 0001:00000d00       ??1bad_cast@std@@UAE@XZ    00401d00 f i GameServer.obj
 0001:00000d10       ?_Doraise@bad_cast@std@@MBEXXZ 00401d10 f i GameServer.obj
 0001:00000d30       ??_Ebad_cast@std@@UAEPAXI@Z 00401d30 f i GameServer.obj
 0001:00000d30       ??_Gbad_cast@std@@UAEPAXI@Z 00401d30 f i GameServer.obj
 0001:00000d50       ??0bad_cast@std@@QAE@ABV01@@Z 00401d50 f i GameServer.obj
 0001:00000d70       ??Bid@locale@std@@QAEIXZ   00401d70 f i GameServer.obj
 0001:00000da0       ?_Decref@facet@locale@std@@QAEPAV123@XZ 00401da0 f i GameServer.obj
 0001:00000de0       ??1locale@std@@QAE@XZ      00401de0 f i GameServer.obj
 0001:00000e00       ?getloc@ios_base@std@@QBE?AVlocale@2@XZ 00401e00 f i GameServer.obj
 0001:00000e40       ??1?$basic_ios@DU?$char_traits@D@std@@@std@@UAE@XZ 00401e40 f i GameServer.obj
 0001:00000e50       ??0?$basic_iostream@DU?$char_traits@D@std@@@std@@QAE@PAV?$basic_streambuf@DU?$char_traits@D@std@@@1@@Z 00401e50 f i GameServer.obj
 0001:00000f20       ??1?$basic_istream@DU?$char_traits@D@std@@@std@@UAE@XZ 00401f20 f i GameServer.obj
 0001:00000f30       ??1?$basic_iostream@DU?$char_traits@D@std@@@std@@UAE@XZ 00401f30 f i GameServer.obj
 0001:00000f70       ??1?$auto_ptr@D@std@@QAE@XZ 00401f70 f i GameServer.obj
 0001:00000f80       ??1?$basic_stringstream@DU?$char_traits@D@std@@V?$allocator@D@2@@std@@UAE@XZ 00401f80 f i GameServer.obj
 0001:00001080       ?overflow@?$basic_streambuf@DU?$char_traits@D@std@@@std@@MAEHH@Z 00402080 f i GameServer.obj
 0001:00001090       ?pbackfail@?$basic_streambuf@DU?$char_traits@D@std@@@std@@MAEHH@Z 00402090 f i GameServer.obj
 0001:000010a0       ?showmanyc@?$basic_streambuf@DU?$char_traits@D@std@@@std@@MAEHXZ 004020a0 f i GameServer.obj
 0001:000010b0       ?underflow@?$basic_streambuf@DU?$char_traits@D@std@@@std@@MAEHXZ 004020b0 f i GameServer.obj
 0001:000010c0       ?uflow@?$basic_streambuf@DU?$char_traits@D@std@@@std@@MAEHXZ 004020c0 f i GameServer.obj
 0001:000010f0       ?xsgetn@?$basic_streambuf@DU?$char_traits@D@std@@@std@@MAEHPADH@Z 004020f0 f i GameServer.obj
 0001:00001190       ?xsputn@?$basic_streambuf@DU?$char_traits@D@std@@@std@@MAEHPBDH@Z 00402190 f i GameServer.obj
 0001:00001230       ?seekoff@?$basic_streambuf@DU?$char_traits@D@std@@@std@@MAE?AV?$fpos@H@2@JW4seekdir@ios_base@2@H@Z 00402230 f i GameServer.obj
 0001:00001260       ?seekpos@?$basic_streambuf@DU?$char_traits@D@std@@@std@@MAE?AV?$fpos@H@2@V32@H@Z 00402260 f i GameServer.obj
 0001:00001290       ?setbuf@?$basic_streambuf@DU?$char_traits@D@std@@@std@@MAEPAV12@PADH@Z 00402290 f i GameServer.obj
 0001:000012a0       ?sync@?$basic_streambuf@DU?$char_traits@D@std@@@std@@MAEHXZ 004022a0 f i GameServer.obj
 0001:000012b0       ?imbue@?$basic_streambuf@DU?$char_traits@D@std@@@std@@MAEXABVlocale@2@@Z 004022b0 f i GameServer.obj
 0001:000012c0       ?str@?$basic_stringstream@DU?$char_traits@D@std@@V?$allocator@D@2@@std@@QBE?AV?$basic_string@DU?$char_traits@D@std@@V?$allocator@D@2@@2@XZ 004022c0 f i GameServer.obj
 0001:000012e0       ??1?$basic_stringbuf@DU?$char_traits@D@std@@V?$allocator@D@2@@std@@UAE@XZ 004022e0 f i GameServer.obj
 0001:00001360       ?overflow@?$basic_stringbuf@DU?$char_traits@D@std@@V?$allocator@D@2@@std@@MAEHH@Z 00402360 f i GameServer.obj
 0001:00001510       ?pbackfail@?$basic_stringbuf@DU?$char_traits@D@std@@V?$allocator@D@2@@std@@MAEHH@Z 00402510 f i GameServer.obj
 0001:00001570       ?underflow@?$basic_stringbuf@DU?$char_traits@D@std@@V?$allocator@D@2@@std@@MAEHXZ 00402570 f i GameServer.obj
 0001:000015d0       ?seekoff@?$basic_stringbuf@DU?$char_traits@D@std@@V?$allocator@D@2@@std@@MAE?AV?$fpos@H@2@JW4seekdir@ios_base@2@H@Z 004025d0 f i GameServer.obj
 0001:00001740       ?seekpos@?$basic_stringbuf@DU?$char_traits@D@std@@V?$allocator@D@2@@std@@MAE?AV?$fpos@H@2@V32@H@Z 00402740 f i GameServer.obj
 0001:00001820       ??_E?$basic_ostream@DU?$char_traits@D@std@@@std@@UAEPAXI@Z 00402820 f i GameServer.obj
 0001:00001820       ??_G?$basic_ostream@DU?$char_traits@D@std@@@std@@UAEPAXI@Z 00402820 f i GameServer.obj
 0001:00001850       ??_G?$basic_ios@DU?$char_traits@D@std@@@std@@UAEPAXI@Z 00402850 f i GameServer.obj
 0001:00001850       ??_E?$basic_ios@DU?$char_traits@D@std@@@std@@UAEPAXI@Z 00402850 f i GameServer.obj
 0001:00001870       ??_E?$basic_istream@DU?$char_traits@D@std@@@std@@UAEPAXI@Z 00402870 f i GameServer.obj
 0001:00001870       ??_G?$basic_istream@DU?$char_traits@D@std@@@std@@UAEPAXI@Z 00402870 f i GameServer.obj
 0001:000018a0       ??_G?$basic_streambuf@DU?$char_traits@D@std@@@std@@UAEPAXI@Z 004028a0 f i GameServer.obj
 0001:000018a0       ??_E?$basic_streambuf@DU?$char_traits@D@std@@@std@@UAEPAXI@Z 004028a0 f i GameServer.obj
 0001:000018c0       ??1?$basic_streambuf@DU?$char_traits@D@std@@@std@@UAE@XZ 004028c0 f i GameServer.obj
 0001:00001910       ??_G?$basic_iostream@DU?$char_traits@D@std@@@std@@UAEPAXI@Z 00402910 f i GameServer.obj
 0001:00001910       ??_E?$basic_iostream@DU?$char_traits@D@std@@@std@@UAEPAXI@Z 00402910 f i GameServer.obj
 0001:00001940       ??_G?$basic_stringstream@DU?$char_traits@D@std@@V?$allocator@D@2@@std@@UAEPAXI@Z 00402940 f i GameServer.obj
 0001:00001940       ??_E?$basic_stringstream@DU?$char_traits@D@std@@V?$allocator@D@2@@std@@UAEPAXI@Z 00402940 f i GameServer.obj
 0001:00001970       ??_G?$basic_stringbuf@DU?$char_traits@D@std@@V?$allocator@D@2@@std@@UAEPAXI@Z 00402970 f i GameServer.obj
 0001:00001970       ??_E?$basic_stringbuf@DU?$char_traits@D@std@@V?$allocator@D@2@@std@@UAEPAXI@Z 00402970 f i GameServer.obj
 0001:00001990       ?assign@?$basic_string@DU?$char_traits@D@std@@V?$allocator@D@2@@std@@QAEAAV12@ABV12@II@Z 00402990 f i GameServer.obj
 0001:00001b90       ?_Tidy@?$basic_string@DU?$char_traits@D@std@@V?$allocator@D@2@@std@@AAEX_N@Z 00402b90 f i GameServer.obj
 0001:00001be0       ??1sentry@?$basic_ostream@DU?$char_traits@D@std@@@std@@QAE@XZ 00402be0 f i GameServer.obj
 0001:00001c50       ??0?$fpos@H@std@@QAE@J@Z   00402c50 f i GameServer.obj
 0001:00001c90       ??0?$basic_stringbuf@DU?$char_traits@D@std@@V?$allocator@D@2@@std@@QAE@H@Z 00402c90 f i GameServer.obj
 0001:00001da0       ?setg@?$basic_streambuf@DU?$char_traits@D@std@@@std@@IAEXPAD00@Z 00402da0 f i GameServer.obj
 0001:00001dc0       ?str@?$basic_stringbuf@DU?$char_traits@D@std@@V?$allocator@D@2@@std@@QBE?AV?$basic_string@DU?$char_traits@D@std@@V?$allocator@D@2@@2@XZ 00402dc0 f i GameServer.obj
 0001:00001fb0       ?assign@?$basic_string@DU?$char_traits@D@std@@V?$allocator@D@2@@std@@QAEAAV12@PBDI@Z 00402fb0 f i GameServer.obj
 0001:00002050       ?erase@?$basic_string@DU?$char_traits@D@std@@V?$allocator@D@2@@std@@QAEAAV12@II@Z 00403050 f i GameServer.obj
 0001:00002170       ?_Eos@?$basic_string@DU?$char_traits@D@std@@V?$allocator@D@2@@std@@AAEXI@Z 00403170 f i GameServer.obj
 0001:00002190       ?_Grow@?$basic_string@DU?$char_traits@D@std@@V?$allocator@D@2@@std@@AAE_NI_N@Z 00403190 f i GameServer.obj
 0001:000022b0       ?opfx@?$basic_ostream@DU?$char_traits@D@std@@@std@@QAE_NXZ 004032b0 f i GameServer.obj
 0001:00002330       ?max_size@?$basic_string@DU?$char_traits@D@std@@V?$allocator@D@2@@std@@QBEIXZ 00403330 f i GameServer.obj
 0001:00002340       ?_Copy@?$basic_string@DU?$char_traits@D@std@@V?$allocator@D@2@@std@@AAEXI@Z 00403340 f i GameServer.obj
 0001:00002450       ?_Split@?$basic_string@DU?$char_traits@D@std@@V?$allocator@D@2@@std@@AAEXXZ 00403450 f i GameServer.obj
 0001:00002520       ??0?$num_put@DV?$ostreambuf_iterator@DU?$char_traits@D@std@@@std@@@std@@QAE@I@Z 00403520 f i GameServer.obj
 0001:00002580       ??1facet@locale@std@@UAE@XZ 00403580 f i GameServer.obj
 0001:00002590       ??_Efacet@locale@std@@UAEPAXI@Z 00403590 f i GameServer.obj
 0001:00002590       ??_Gfacet@locale@std@@UAEPAXI@Z 00403590 f i GameServer.obj
 0001:000025b0       ?do_put@?$num_put@DV?$ostreambuf_iterator@DU?$char_traits@D@std@@@std@@@std@@MBE?AV?$ostreambuf_iterator@DU?$char_traits@D@std@@@2@V32@AAVios_base@2@D_N@Z 004035b0 f i GameServer.obj
 0001:00002890       ??0bad_cast@std@@QAE@PBD@Z 00403890 f i GameServer.obj
 0001:000028b0       ?sputc@?$basic_streambuf@DU?$char_traits@D@std@@@std@@QAEHD@Z 004038b0 f i GameServer.obj
 0001:00002900       ?do_put@?$num_put@DV?$ostreambuf_iterator@DU?$char_traits@D@std@@@std@@@std@@MBE?AV?$ostreambuf_iterator@DU?$char_traits@D@std@@@2@V32@AAVios_base@2@DJ@Z 00403900 f i GameServer.obj
 0001:000029b0       ?do_put@?$num_put@DV?$ostreambuf_iterator@DU?$char_traits@D@std@@@std@@@std@@MBE?AV?$ostreambuf_iterator@DU?$char_traits@D@std@@@2@V32@AAVios_base@2@DK@Z 004039b0 f i GameServer.obj
 0001:00002a60       ?do_put@?$num_put@DV?$ostreambuf_iterator@DU?$char_traits@D@std@@@std@@@std@@MBE?AV?$ostreambuf_iterator@DU?$char_traits@D@std@@@2@V32@AAVios_base@2@DN@Z 00403a60 f i GameServer.obj
 0001:00002b50       ?do_put@?$num_put@DV?$ostreambuf_iterator@DU?$char_traits@D@std@@@std@@@std@@MBE?AV?$ostreambuf_iterator@DU?$char_traits@D@std@@@2@V32@AAVios_base@2@DO@Z 00403b50 f i GameServer.obj
 0001:00002c40       ?do_put@?$num_put@DV?$ostreambuf_iterator@DU?$char_traits@D@std@@@std@@@std@@MBE?AV?$ostreambuf_iterator@DU?$char_traits@D@std@@@2@V32@AAVios_base@2@DPBX@Z 00403c40 f i GameServer.obj
 0001:00002e00       ??_G?$num_put@DV?$ostreambuf_iterator@DU?$char_traits@D@std@@@std@@@std@@UAEPAXI@Z 00403e00 f i GameServer.obj
 0001:00002e00       ??_E?$num_put@DV?$ostreambuf_iterator@DU?$char_traits@D@std@@@std@@@std@@UAEPAXI@Z 00403e00 f i GameServer.obj
 0001:00002e20       ??1?$num_put@DV?$ostreambuf_iterator@DU?$char_traits@D@std@@@std@@@std@@UAE@XZ 00403e20 f i GameServer.obj
 0001:00002e30       ?_Fput@?$num_put@DV?$ostreambuf_iterator@DU?$char_traits@D@std@@@std@@@std@@KA?AV?$ostreambuf_iterator@DU?$char_traits@D@std@@@2@V32@AAVios_base@2@DPBDII@Z 00403e30 f i GameServer.obj
 0001:00003240       ?_Iput@?$num_put@DV?$ostreambuf_iterator@DU?$char_traits@D@std@@@std@@@std@@KA?AV?$ostreambuf_iterator@DU?$char_traits@D@std@@@2@V32@AAVios_base@2@DPADI@Z 00404240 f i GameServer.obj
 0001:00003690       ?_Rep@?$num_put@DV?$ostreambuf_iterator@DU?$char_traits@D@std@@@std@@@std@@KA?AV?$ostreambuf_iterator@DU?$char_traits@D@std@@@2@V32@DI@Z 00404690 f i GameServer.obj
 0001:00003710       ?falsename@?$numpunct@D@std@@QBE?AV?$basic_string@DU?$char_traits@D@std@@V?$allocator@D@2@@2@XZ 00404710 f i GameServer.obj
 0001:00003730       ?truename@?$numpunct@D@std@@QBE?AV?$basic_string@DU?$char_traits@D@std@@V?$allocator@D@2@@2@XZ 00404730 f i GameServer.obj
 0001:00003750       ??4?$ostreambuf_iterator@DU?$char_traits@D@std@@@std@@QAEAAV01@D@Z 00404750 f i GameServer.obj
 0001:000037b0       ?grouping@?$numpunct@D@std@@QBE?AV?$basic_string@DU?$char_traits@D@std@@V?$allocator@D@2@@2@XZ 004047b0 f i GameServer.obj
 0001:000037d0       ??0?$numpunct@D@std@@QAE@I@Z 004047d0 f i GameServer.obj
 0001:000038f0       ?do_decimal_point@?$numpunct@D@std@@MBEDXZ 004048f0 f i GameServer.obj
 0001:00003900       ?do_thousands_sep@?$numpunct@D@std@@MBEDXZ 00404900 f i GameServer.obj
 0001:00003910       ?do_grouping@?$numpunct@D@std@@MBE?AV?$basic_string@DU?$char_traits@D@std@@V?$allocator@D@2@@2@XZ 00404910 f i GameServer.obj
 0001:000039e0       ?do_falsename@?$numpunct@D@std@@MBE?AV?$basic_string@DU?$char_traits@D@std@@V?$allocator@D@2@@2@XZ 004049e0 f i GameServer.obj
 0001:00003ab0       ?do_truename@?$numpunct@D@std@@MBE?AV?$basic_string@DU?$char_traits@D@std@@V?$allocator@D@2@@2@XZ 00404ab0 f i GameServer.obj
 0001:00003b80       ??_E?$numpunct@D@std@@UAEPAXI@Z 00404b80 f i GameServer.obj
 0001:00003b80       ??_G?$numpunct@D@std@@UAEPAXI@Z 00404b80 f i GameServer.obj
 0001:00003ba0       ??1?$numpunct@D@std@@UAE@XZ 00404ba0 f i GameServer.obj
 0001:00003bd0       ?_Save@?$_Tidyfac@V?$num_put@DV?$ostreambuf_iterator@DU?$char_traits@D@std@@@std@@@std@@@std@@SAPAV?$num_put@DV?$ostreambuf_iterator@DU?$char_traits@D@std@@@std@@@2@PAV32@@Z 00404bd0 f i GameServer.obj
 0001:00003c50       ?_Save@?$_Tidyfac@V?$numpunct@D@std@@@std@@SAPAV?$numpunct@D@2@PAV32@@Z 00404c50 f i GameServer.obj
 0001:00003cd0       ?_Tidy@?$_Tidyfac@V?$num_put@DV?$ostreambuf_iterator@DU?$char_traits@D@std@@@std@@@std@@@std@@SAXXZ 00404cd0 f i GameServer.obj
 0001:00003d70       ?_Tidy@?$_Tidyfac@V?$numpunct@D@std@@@std@@SAXXZ 00404d70 f i GameServer.obj
 0001:00003e90       ?id@?$numpunct@D@std@@$E   00404e90 f i GameServer.obj
 0001:00003ea0       ?id@?$num_put@DV?$ostreambuf_iterator@DU?$char_traits@D@std@@@$E 00404ea0 f i GameServer.obj
 0001:00003eb0       ?id@?$ctype@G@std@@$E      00404eb0 f i GameServer.obj
 0001:00004160       ?ServerEventNotify@@YGXPAXABK1@Z 00405160 f   KSOServer.obj
 0001:000041e0       ??1Owner@CCriticalSection@Win32@OnlineGameLib@@QAE@XZ 004051e0 f i KSOServer.obj
 0001:000041f0       ?GatewayClientEventNotify@@YGXPAXABK@Z 004051f0 f   KSOServer.obj
 0001:00004220       ?ChatClientEventNotify@@YGXPAXABK@Z 00405220 f   KSOServer.obj
 0001:00004240       ?TongClientEventNotify@@YGXPAXABK@Z 00405240 f   KSOServer.obj
 0001:00004260       ?DatabaseClientEventNotify@@YGXPAXABK@Z 00405260 f   KSOServer.obj
 0001:00004290       ?TransferClientEventNotify@@YGXPAXABK@Z 00405290 f   KSOServer.obj
 0001:000042a0       ??0KSwordOnLineSever@@QAE@XZ 004052a0 f   KSOServer.obj
 0001:00004450       ??1KSwordOnLineSever@@QAE@XZ 00405450 f   KSOServer.obj
 0001:00004500       ?Init@KSwordOnLineSever@@QAEHXZ 00405500 f   KSOServer.obj
 0001:00005910       ??_H@YGXPAXIHP6EX0@Z@Z     00406910 f i KSOServer.obj
 0001:00005940       ?Release@KSwordOnLineSever@@QAEXXZ 00406940 f   KSOServer.obj
 0001:00005b80       ?Breathe@KSwordOnLineSever@@QAEHXZ 00406b80 f   KSOServer.obj
 0001:00005c00       ?MessageLoop@KSwordOnLineSever@@AAEXXZ 00406c00 f   KSOServer.obj
 0001:00005e00       ?ChatMessageProcess@KSwordOnLineSever@@AAEXPBDI@Z 00406e00 f   KSOServer.obj
 0001:00005ef0       ?TongMessageProcess@KSwordOnLineSever@@AAEXPBDI@Z 00406ef0 f   KSOServer.obj
 0001:00006fb0       ?ChatGroupMan@KSwordOnLineSever@@AAEXPBXI@Z 00407fb0 f   KSOServer.obj
 0001:00007060       ?ChatSpecMan@KSwordOnLineSever@@AAEXPBXI@Z 00408060 f   KSOServer.obj
 0001:000070c0       ?DatabaseMessageProcess@KSwordOnLineSever@@AAEXPBDI@Z 004080c0 f   KSOServer.obj
 0001:00007120       ?DatabaseLargePackProcess@KSwordOnLineSever@@AAEXPBDI@Z 00408120 f   KSOServer.obj
 0001:000071b0       ?TransferMessageProcess@KSwordOnLineSever@@AAEXPBDI@Z 004081b0 f   KSOServer.obj
 0001:00007360       ?TransferLargePackProcess@KSwordOnLineSever@@AAEXPBXIPAVKTransferUnit@@@Z 00408360 f   KSOServer.obj
 0001:000076a0       ?TransferSmallPackProcess@KSwordOnLineSever@@AAEXPBXIPAVKTransferUnit@@@Z 004086a0 f   KSOServer.obj
 0001:00007bd0       ?PlayerMessageProcess@KSwordOnLineSever@@AAEXKPBDI@Z 00408bd0 f   KSOServer.obj
 0001:00008080       ?GatewayMessageProcess@KSwordOnLineSever@@AAEXPBDI@Z 00409080 f   KSOServer.obj
 0001:000080b0       ?GatewayLargePackProcess@KSwordOnLineSever@@AAEXPBXI@Z 004090b0 f   KSOServer.obj
 0001:000083c0       ?GatewaySmallPackProcess@KSwordOnLineSever@@AAEXPBXI@Z 004093c0 f   KSOServer.obj
 0001:00008500       ?GatewayBoardCastProcess@KSwordOnLineSever@@AAEXPBDI@Z 00409500 f   KSOServer.obj
 0001:000085c0       ?MainLoop@KSwordOnLineSever@@AAEXXZ 004095c0 f   KSOServer.obj
 0001:000087b0       ?PingClient@KSwordOnLineSever@@AAEXK@Z 004097b0 f   KSOServer.obj
 0001:00008950       ?ProcessPingReply@KSwordOnLineSever@@AAEXKPBDI@Z 00409950 f   KSOServer.obj
 0001:00008ab0       ?SavePlayerData@KSwordOnLineSever@@AAEXXZ 00409ab0 f   KSOServer.obj
 0001:00008b40       ?SavePlayerData@KSwordOnLineSever@@AAEHH_NH@Z 00409b40 f   KSOServer.obj
 0001:00008cf0       ?PlayerExchangeServer@KSwordOnLineSever@@AAEXXZ 00409cf0 f   KSOServer.obj
 0001:00009020       ?PlayerLogoutGateway@KSwordOnLineSever@@AAEXXZ 0040a020 f   KSOServer.obj
 0001:000094b0       ?GetNetStatus@KSwordOnLineSever@@QAEHK@Z 0040a4b0 f   KSOServer.obj
 0001:000094e0       ?SetNetStatus@KSwordOnLineSever@@QAEXKW4NetStatus@@@Z 0040a4e0 f   KSOServer.obj
 0001:000095d0       ?ProcessLoginProtocol@KSwordOnLineSever@@AAEHKPBDI@Z 0040a5d0 f   KSOServer.obj
 0001:00009600       ?SendGameDataToClient@KSwordOnLineSever@@AAEHKH@Z 0040a600 f   KSOServer.obj
 0001:000096f0       ?ProcessSyncReplyProtocol@KSwordOnLineSever@@AAEHKPBDI@Z 0040a6f0 f   KSOServer.obj
 0001:00009700       ?ExitAllPlayer@KSwordOnLineSever@@AAEXXZ 0040a700 f   KSOServer.obj
 0001:00009880       ?SetRunningStatus@KSwordOnLineSever@@QAEXH@Z 0040a880 f   KSOServer.obj
 0001:00009890       ?ConformAskWay@KSwordOnLineSever@@AAEHPBXHPAK@Z 0040a890 f   KSOServer.obj
 0001:00009910       ?GetLocalIpAddress@KSwordOnLineSever@@AAEHPAK0@Z 0040a910 f   KSOServer.obj
 0001:00009af0       ?TransferAskWayMessageProcess@KSwordOnLineSever@@AAEXPBDI@Z 0040aaf0 f   KSOServer.obj
 0001:00009c80       ?TransferLoseWayMessageProcess@KSwordOnLineSever@@AAEXPBDI@Z 0040ac80 f   KSOServer.obj
 0001:00009de0       ?ProcessPlayerTongMsg@KSwordOnLineSever@@AAEXKPBDI@Z 0040ade0 f   KSOServer.obj
 0001:0000aa90       ?CheckPlayerID@KSwordOnLineSever@@AAEHKK@Z 0040ba90 f   KSOServer.obj
 0001:0000aae0       ??6?$basic_ostream@DU?$char_traits@D@std@@@std@@QAEAAV01@H@Z 0040bae0 f i KSOServer.obj
 0001:0000ad20       ?put@?$basic_ostream@DU?$char_traits@D@std@@@std@@QAEAAV12@D@Z 0040bd20 f i KSOServer.obj
 0001:0000ae90       ?clear@?$basic_ios@DU?$char_traits@D@std@@@std@@QAEXH_N@Z 0040be90 f i KSOServer.obj
 0001:0000aeb0       ?insert@?$_Tree@KU?$pair@$$CBKPAVKTransferUnit@@@std@@U_Kfn@?$map@KPAVKTransferUnit@@U?$less@K@std@@V?$allocator@PAVKTransferUnit@@@3@@2@U?$less@K@2@V?$allocator@PAVKTransferUnit@@@2@@std@@QAE?AU?$pair@Viterator@?$_Tree@KU?$pair@$$CBKPAVKTransferUnit@@@std@@U_Kfn@?$map@KPAVKTransferUnit@@U?$less@K@std@@V?$allocator@PAVKTransferUnit@@@3@@2@U?$less@K@2@V?$allocator@PAVKTransferUnit@@@2@@std@@_N@2@ABU?$pair@$$CBKPAVKTransferUnit@@@2@@Z 0040beb0 f i KSOServer.obj
 0001:0000afe0       ?erase@?$_Tree@KU?$pair@$$CBKPAVKTransferUnit@@@std@@U_Kfn@?$map@KPAVKTransferUnit@@U?$less@K@std@@V?$allocator@PAVKTransferUnit@@@3@@2@U?$less@K@2@V?$allocator@PAVKTransferUnit@@@2@@std@@QAE?AViterator@12@V312@0@Z 0040bfe0 f i KSOServer.obj
 0001:0000b110       ?erase@?$_Tree@KU?$pair@$$CBKPAVKTransferUnit@@@std@@U_Kfn@?$map@KPAVKTransferUnit@@U?$less@K@std@@V?$allocator@PAVKTransferUnit@@@3@@2@U?$less@K@2@V?$allocator@PAVKTransferUnit@@@2@@std@@QAE?AViterator@12@V312@@Z 0040c110 f i KSOServer.obj
 0001:0000b630       ?lower_bound@?$_Tree@KU?$pair@$$CBKPAVKTransferUnit@@@std@@U_Kfn@?$map@KPAVKTransferUnit@@U?$less@K@std@@V?$allocator@PAVKTransferUnit@@@3@@2@U?$less@K@2@V?$allocator@PAVKTransferUnit@@@2@@std@@QAE?AViterator@12@ABK@Z 0040c630 f i KSOServer.obj
 0001:0000b650       ?_Erase@?$_Tree@KU?$pair@$$CBKPAVKTransferUnit@@@std@@U_Kfn@?$map@KPAVKTransferUnit@@U?$less@K@std@@V?$allocator@PAVKTransferUnit@@@3@@2@U?$less@K@2@V?$allocator@PAVKTransferUnit@@@2@@std@@IAEXPAU_Node@12@@Z 0040c650 f i KSOServer.obj
 0001:0000b6e0       ?_Insert@?$_Tree@KU?$pair@$$CBKPAVKTransferUnit@@@std@@U_Kfn@?$map@KPAVKTransferUnit@@U?$less@K@std@@V?$allocator@PAVKTransferUnit@@@3@@2@U?$less@K@2@V?$allocator@PAVKTransferUnit@@@2@@std@@IAE?AViterator@12@PAU_Node@12@0ABU?$pair@$$CBKPAVKTransferUnit@@@2@@Z 0040c6e0 f i KSOServer.obj
 0001:0000b9e0       ?_Inc@const_iterator@?$_Tree@KU?$pair@$$CBKPAVKTransferUnit@@@std@@U_Kfn@?$map@KPAVKTransferUnit@@U?$less@K@std@@V?$allocator@PAVKTransferUnit@@@3@@2@U?$less@K@2@V?$allocator@PAVKTransferUnit@@@2@@std@@QAEXXZ 0040c9e0 f i KSOServer.obj
 0001:0000ba90       ?_Lbound@?$_Tree@KU?$pair@$$CBKPAVKTransferUnit@@@std@@U_Kfn@?$map@KPAVKTransferUnit@@U?$less@K@std@@V?$allocator@PAVKTransferUnit@@@3@@2@U?$less@K@2@V?$allocator@PAVKTransferUnit@@@2@@std@@IBEPAU_Node@12@ABK@Z 0040ca90 f i KSOServer.obj
 0001:0000bae0       ?_Min@?$_Tree@KU?$pair@$$CBKPAVKTransferUnit@@@std@@U_Kfn@?$map@KPAVKTransferUnit@@U?$less@K@std@@V?$allocator@PAVKTransferUnit@@@3@@2@U?$less@K@2@V?$allocator@PAVKTransferUnit@@@2@@std@@KAPAU_Node@12@PAU312@@Z 0040cae0 f i KSOServer.obj
 0001:0000bb20       ?_Dec@const_iterator@?$_Tree@KU?$pair@$$CBKPAVKTransferUnit@@@std@@U_Kfn@?$map@KPAVKTransferUnit@@U?$less@K@std@@V?$allocator@PAVKTransferUnit@@@3@@2@U?$less@K@2@V?$allocator@PAVKTransferUnit@@@2@@std@@QAEXXZ 0040cb20 f i KSOServer.obj
 0001:0000bbe0       ??6std@@YAAAV?$basic_ostream@DU?$char_traits@D@std@@@0@AAV10@PBD@Z 0040cbe0 f i KSOServer.obj
 0001:0000be70       ?_Construct@std@@YAXPAU?$pair@$$CBKPAVKTransferUnit@@@1@ABU21@@Z 0040ce70 f i KSOServer.obj
 0001:0000bf10       ??0KTransferUnit@@QAE@KK@Z 0040cf10 f   KTransferUnit.obj
 0001:0000bf50       ??_EKTransferUnit@@UAEPAXI@Z 0040cf50 f i KTransferUnit.obj
 0001:0000bf50       ??_GKTransferUnit@@UAEPAXI@Z 0040cf50 f i KTransferUnit.obj
 0001:0000bf70       ??1KTransferUnit@@UAE@XZ   0040cf70 f   KTransferUnit.obj
 0001:0000bfb0       _GetCurrentDirectoryA@8    0040cfb0 f   kernel32:KERNEL32.dll
 0001:0000bfb6       _GetVolumeInformationA@32  0040cfb6 f   kernel32:KERNEL32.dll
 0001:0000bfbc       _SetConsoleMode@8          0040cfbc f   kernel32:KERNEL32.dll
 0001:0000bfc2       _GetConsoleMode@8          0040cfc2 f   kernel32:KERNEL32.dll
 0001:0000bfc8       _GetStdHandle@4            0040cfc8 f   kernel32:KERNEL32.dll
 0001:0000bfce       _InitializeCriticalSection@4 0040cfce f   kernel32:KERNEL32.dll
 0001:0000bfd4       _DeleteCriticalSection@4   0040cfd4 f   kernel32:KERNEL32.dll
 0001:0000bfda       _LeaveCriticalSection@4    0040cfda f   kernel32:KERNEL32.dll
 0001:0000bfe0       _EnterCriticalSection@4    0040cfe0 f   kernel32:KERNEL32.dll
 0001:0000bfe6       _GetProcAddress@8          0040cfe6 f   kernel32:KERNEL32.dll
 0001:0000bfec       _GetModuleFileNameA@12     0040cfec f   kernel32:KERNEL32.dll
 0001:0000bff2       _Sleep@4                   0040cff2 f   kernel32:KERNEL32.dll
 0001:0000bff8       _FreeLibrary@4             0040cff8 f   kernel32:KERNEL32.dll
 0001:0000bffe       _LoadLibraryA@4            0040cffe f   kernel32:KERNEL32.dll
 0001:0000c004       _GetCurrentHwProfileA@4    0040d004 f   advapi32:ADVAPI32.dll
 0001:0000c00a       ?g_pClientLic@@YAXPAD@Z    0040d00a f   engine:Engine.dll
 0001:0000c010       ?KSG_StringToMD5String@@YAHQADQBD@Z 0040d010 f   engine:Engine.dll
 0001:0000c016       ??0KLicense@@QAE@XZ        0040d016 f   engine:Engine.dll
 0001:0000c01c       ??1KLicense@@QAE@XZ        0040d01c f   engine:Engine.dll
 0001:0000c022       ??1KPakList@@QAE@XZ        0040d022 f   engine:Engine.dll
 0001:0000c028       ??0KTimer@@QAE@XZ          0040d028 f   engine:Engine.dll
 0001:0000c02e       ??0KPakList@@QAE@XZ        0040d02e f   engine:Engine.dll
 0001:0000c034       ?Start@KTimer@@QAEXXZ      0040d034 f   engine:Engine.dll
 0001:0000c03a       ??1KIniFile@@QAE@XZ        0040d03a f   engine:Engine.dll
 0001:0000c040       ?GetString@KIniFile@@QAEHPBD00PADK@Z 0040d040 f   engine:Engine.dll
 0001:0000c046       ?GetInteger@KIniFile@@QAEHPBD0HPAH@Z 0040d046 f   engine:Engine.dll
 0001:0000c04c       ?Open@KPakList@@QAE_NPBD@Z 0040d04c f   engine:Engine.dll
 0001:0000c052       ?Load@KIniFile@@QAEHPBD@Z  0040d052 f   engine:Engine.dll
 0001:0000c058       ??0KIniFile@@QAE@XZ        0040d058 f   engine:Engine.dll
 0001:0000c05e       ?g_SetFilePath@@YAXPAD@Z   0040d05e f   engine:Engine.dll
 0001:0000c064       ?g_SetRootPath@@YAXPAD@Z   0040d064 f   engine:Engine.dll
 0001:0000c06a       ?GetElapse@KTimer@@QAEKXZ  0040d06a f   engine:Engine.dll
 0001:0000c070       ?g_FileName2Id@@YAKPAD@Z   0040d070 f   engine:Engine.dll
 0001:0000c076       _CoreGetServerShell        0040d076 f   CoreServer:CoreServer.dll
 0001:0000c080       ??0CException@Win32@OnlineGameLib@@QAE@ABV?$basic_string@DU?$char_traits@D@std@@V?$allocator@D@2@@std@@0@Z 0040d080 f   common:Exception.obj
 0001:0000c1b0       ?GetWhere@CException@Win32@OnlineGameLib@@UBE?AV?$basic_string@DU?$char_traits@D@std@@V?$allocator@D@2@@std@@XZ 0040d1b0 f   common:Exception.obj
 0001:0000c2e0       ?GetMessageA@CException@Win32@OnlineGameLib@@UBE?AV?$basic_string@DU?$char_traits@D@std@@V?$allocator@D@2@@std@@XZ 0040d2e0 f   common:Exception.obj
 0001:0000c410       ?MessageBoxA@CException@Win32@OnlineGameLib@@QBEXPAUHWND__@@@Z 0040d410 f   common:Exception.obj
 0001:0000c520       ??0CLibrary@Win32@OnlineGameLib@@QAE@QBD@Z 0040d520 f   common:Library.obj
 0001:0000c580       ??_ECLibrary@Win32@OnlineGameLib@@UAEPAXI@Z 0040d580 f i common:Library.obj
 0001:0000c580       ??_GCLibrary@Win32@OnlineGameLib@@UAEPAXI@Z 0040d580 f i common:Library.obj
 0001:0000c5a0       ??0CLibrary@Win32@OnlineGameLib@@QAE@XZ 0040d5a0 f   common:Library.obj
 0001:0000c5c0       ??1CLibrary@Win32@OnlineGameLib@@UAE@XZ 0040d5c0 f   common:Library.obj
 0001:0000c630       ?Load@CLibrary@Win32@OnlineGameLib@@QAE_NQBD@Z 0040d630 f   common:Library.obj
 0001:0000c6f0       ?Free@CLibrary@Win32@OnlineGameLib@@QAE_NXZ 0040d6f0 f   common:Library.obj
 0001:0000c740       ??0CUsesWinsock@Win32@OnlineGameLib@@QAE@XZ 0040d740 f   common:UsesWinsock.obj
 0001:0000c810       ??1CWin32Exception@Win32@OnlineGameLib@@UAE@XZ 0040d810 f i common:UsesWinsock.obj
 0001:0000c890       ??0CWin32Exception@Win32@OnlineGameLib@@QAE@ABV012@@Z 0040d890 f i common:UsesWinsock.obj
 0001:0000c9d0       ??_GCWin32Exception@Win32@OnlineGameLib@@UAEPAXI@Z 0040d9d0 f i common:UsesWinsock.obj
 0001:0000c9d0       ??_ECWin32Exception@Win32@OnlineGameLib@@UAEPAXI@Z 0040d9d0 f i common:UsesWinsock.obj
 0001:0000c9f0       ??1CUsesWinsock@Win32@OnlineGameLib@@QAE@XZ 0040d9f0 f   common:UsesWinsock.obj
 0001:0000ca30       ??0CBuffer@Win32@OnlineGameLib@@AAE@AAVAllocator@012@I@Z 0040da30 f   common:Buffer.obj
 0001:0000cab0       ??1COpaqueUserData@OnlineGameLib@@IAE@XZ 0040dab0 f i common:Buffer.obj
 0001:0000cac0       ??1CBuffer@Win32@OnlineGameLib@@AAE@XZ 0040dac0 f   common:Buffer.obj
 0001:0000cb20       ?GetHeadPack@CBuffer@Win32@OnlineGameLib@@QAEPAV123@I@Z 0040db20 f   common:Buffer.obj
 0001:0000cb70       ?GetNextPack@CBuffer@Win32@OnlineGameLib@@QAEPAV123@XZ 0040db70 f   common:Buffer.obj
 0001:0000cbc0       ?AddData@CBuffer@Win32@OnlineGameLib@@QAEXQBDI@Z 0040dbc0 f   common:Buffer.obj
 0001:0000cce0       ?AddData@CBuffer@Win32@OnlineGameLib@@QAEXQBEI@Z 0040dce0 f   common:Buffer.obj
 0001:0000cd00       ?AddData@CBuffer@Win32@OnlineGameLib@@QAEXE@Z 0040dd00 f   common:Buffer.obj
 0001:0000cd10       ?SplitBuffer@CBuffer@Win32@OnlineGameLib@@QAEPAV123@I@Z 0040dd10 f   common:Buffer.obj
 0001:0000cd60       ?AllocateNewBuffer@CBuffer@Win32@OnlineGameLib@@QBEPAV123@XZ 0040dd60 f   common:Buffer.obj
 0001:0000cd70       ?Release@CBuffer@Win32@OnlineGameLib@@QAEXXZ 0040dd70 f   common:Buffer.obj
 0001:0000ce80       ??2CBuffer@Win32@OnlineGameLib@@CAPAXII@Z 0040de80 f   common:Buffer.obj
 0001:0000ce90       ??3CBuffer@Win32@OnlineGameLib@@CAXPAXI@Z 0040de90 f   common:Buffer.obj
 0001:0000cea0       ??0Allocator@CBuffer@Win32@OnlineGameLib@@QAE@II@Z 0040dea0 f   common:Buffer.obj
 0001:0000cee0       ?OnBufferCreated@Allocator@CBuffer@Win32@OnlineGameLib@@EAEXXZ 0040dee0 f i common:Buffer.obj
 0001:0000cef0       ?OnBufferAllocated@Allocator@CBuffer@Win32@OnlineGameLib@@EAEXXZ 0040def0 f i common:Buffer.obj
 0001:0000cf00       ?OnBufferReleased@Allocator@CBuffer@Win32@OnlineGameLib@@EAEXXZ 0040df00 f i common:Buffer.obj
 0001:0000cf10       ??_GAllocator@CBuffer@Win32@OnlineGameLib@@UAEPAXI@Z 0040df10 f i common:Buffer.obj
 0001:0000cf10       ??_EAllocator@CBuffer@Win32@OnlineGameLib@@UAEPAXI@Z 0040df10 f i common:Buffer.obj
 0001:0000cf30       ??1Allocator@CBuffer@Win32@OnlineGameLib@@UAE@XZ 0040df30 f   common:Buffer.obj
 0001:0000cfa0       ??1CCriticalSection@Win32@OnlineGameLib@@QAE@XZ 0040dfa0 f i common:Buffer.obj
 0001:0000cfb0       ?Allocate@Allocator@CBuffer@Win32@OnlineGameLib@@QAEPAV234@XZ 0040dfb0 f   common:Buffer.obj
 0001:0000d110       ?Flush@Allocator@CBuffer@Win32@OnlineGameLib@@IAEXXZ 0040e110 f   common:Buffer.obj
 0001:0000d1b0       ?DestroyBuffer@Allocator@CBuffer@Win32@OnlineGameLib@@AAEXPAV234@@Z 0040e1b0 f i common:Buffer.obj
 0001:0000d210       ?Release@Allocator@CBuffer@Win32@OnlineGameLib@@AAEXPAV234@@Z 0040e210 f   common:Buffer.obj
 0001:0000d380       ??0CPackager@Win32@OnlineGameLib@@QAE@II@Z 0040e380 f   common:Buffer.obj
 0001:0000d510       ??_ECPackager@Win32@OnlineGameLib@@UAEPAXI@Z 0040e510 f i common:Buffer.obj
 0001:0000d510       ??_GCPackager@Win32@OnlineGameLib@@UAEPAXI@Z 0040e510 f i common:Buffer.obj
 0001:0000d530       ??1?$map@EPAVCBuffer@Win32@OnlineGameLib@@U?$less@E@std@@V?$allocator@PAVCBuffer@Win32@OnlineGameLib@@@5@@std@@QAE@XZ 0040e530 f i common:Buffer.obj
 0001:0000d5a0       ??1CPackager@Win32@OnlineGameLib@@UAE@XZ 0040e5a0 f   common:Buffer.obj
 0001:0000d6d0       ?AddData@CPackager@Win32@OnlineGameLib@@QAEXEQBDIK@Z 0040e6d0 f   common:Buffer.obj
 0001:0000d830       ?AddData@CPackager@Win32@OnlineGameLib@@QAEXEQBEIK@Z 0040e830 f   common:Buffer.obj
 0001:0000d850       ?DelData@CPackager@Win32@OnlineGameLib@@QAEXE@Z 0040e850 f   common:Buffer.obj
 0001:0000d970       ?GetHeadPack@CPackager@Win32@OnlineGameLib@@QAEPAVCBuffer@23@EI@Z 0040e970 f   common:Buffer.obj
 0001:0000dab0       ?GetNextPack@CPackager@Win32@OnlineGameLib@@QAEPAVCBuffer@23@E@Z 0040eab0 f   common:Buffer.obj
 0001:0000dbe0       ?PackUp@CPackager@Win32@OnlineGameLib@@QAEPAVCBuffer@23@PBXI@Z 0040ebe0 f   common:Buffer.obj
 0001:0000dd30       ?Empty@CPackager@Win32@OnlineGameLib@@QAEXXZ 0040ed30 f   common:Buffer.obj
 0001:0000de60       ?insert@?$map@EPAVCBuffer@Win32@OnlineGameLib@@U?$less@E@std@@V?$allocator@PAVCBuffer@Win32@OnlineGameLib@@@5@@std@@QAE?AU?$pair@Viterator@?$_Tree@EU?$pair@$$CBEPAVCBuffer@Win32@OnlineGameLib@@@std@@U_Kfn@?$map@EPAVCBuffer@Win32@OnlineGameLib@@U?$less@E@std@@V?$allocator@PAVCBuffer@Win32@OnlineGameLib@@@5@@2@U?$less@E@2@V?$allocator@PAVCBuffer@Win32@OnlineGameLib@@@2@@std@@_N@2@ABU?$pair@$$CBEPAVCBuffer@Win32@OnlineGameLib@@@2@@Z 0040ee60 f i common:Buffer.obj
 0001:0000de90       ?erase@?$_Tree@EU?$pair@$$CBEPAVCBuffer@Win32@OnlineGameLib@@@std@@U_Kfn@?$map@EPAVCBuffer@Win32@OnlineGameLib@@U?$less@E@std@@V?$allocator@PAVCBuffer@Win32@OnlineGameLib@@@5@@2@U?$less@E@2@V?$allocator@PAVCBuffer@Win32@OnlineGameLib@@@2@@std@@QAE?AViterator@12@V312@0@Z 0040ee90 f i common:Buffer.obj
 0001:0000dfc0       ?find@?$_Tree@EU?$pair@$$CBEPAVCBuffer@Win32@OnlineGameLib@@@std@@U_Kfn@?$map@EPAVCBuffer@Win32@OnlineGameLib@@U?$less@E@std@@V?$allocator@PAVCBuffer@Win32@OnlineGameLib@@@5@@2@U?$less@E@2@V?$allocator@PAVCBuffer@Win32@OnlineGameLib@@@2@@std@@QAE?AViterator@12@ABE@Z 0040efc0 f i common:Buffer.obj
 0001:0000e010       ?insert@?$_Tree@EU?$pair@$$CBEPAVCBuffer@Win32@OnlineGameLib@@@std@@U_Kfn@?$map@EPAVCBuffer@Win32@OnlineGameLib@@U?$less@E@std@@V?$allocator@PAVCBuffer@Win32@OnlineGameLib@@@5@@2@U?$less@E@2@V?$allocator@PAVCBuffer@Win32@OnlineGameLib@@@2@@std@@QAE?AU?$pair@Viterator@?$_Tree@EU?$pair@$$CBEPAVCBuffer@Win32@OnlineGameLib@@@std@@U_Kfn@?$map@EPAVCBuffer@Win32@OnlineGameLib@@U?$less@E@std@@V?$allocator@PAVCBuffer@Win32@OnlineGameLib@@@5@@2@U?$less@E@2@V?$allocator@PAVCBuffer@Win32@OnlineGameLib@@@2@@std@@_N@2@ABU?$pair@$$CBEPAVCBuffer@Win32@OnlineGameLib@@@2@@Z 0040f010 f i common:Buffer.obj
 0001:0000e140       ?erase@?$_Tree@EU?$pair@$$CBEPAVCBuffer@Win32@OnlineGameLib@@@std@@U_Kfn@?$map@EPAVCBuffer@Win32@OnlineGameLib@@U?$less@E@std@@V?$allocator@PAVCBuffer@Win32@OnlineGameLib@@@5@@2@U?$less@E@2@V?$allocator@PAVCBuffer@Win32@OnlineGameLib@@@2@@std@@QAE?AViterator@12@V312@@Z 0040f140 f i common:Buffer.obj
 0001:0000e660       ?lower_bound@?$_Tree@EU?$pair@$$CBEPAVCBuffer@Win32@OnlineGameLib@@@std@@U_Kfn@?$map@EPAVCBuffer@Win32@OnlineGameLib@@U?$less@E@std@@V?$allocator@PAVCBuffer@Win32@OnlineGameLib@@@5@@2@U?$less@E@2@V?$allocator@PAVCBuffer@Win32@OnlineGameLib@@@2@@std@@QAE?AViterator@12@ABE@Z 0040f660 f i common:Buffer.obj
 0001:0000e680       ?_Erase@?$_Tree@EU?$pair@$$CBEPAVCBuffer@Win32@OnlineGameLib@@@std@@U_Kfn@?$map@EPAVCBuffer@Win32@OnlineGameLib@@U?$less@E@std@@V?$allocator@PAVCBuffer@Win32@OnlineGameLib@@@5@@2@U?$less@E@2@V?$allocator@PAVCBuffer@Win32@OnlineGameLib@@@2@@std@@IAEXPAU_Node@12@@Z 0040f680 f i common:Buffer.obj
 0001:0000e710       ?_Inc@const_iterator@?$_Tree@EU?$pair@$$CBEPAVCBuffer@Win32@OnlineGameLib@@@std@@U_Kfn@?$map@EPAVCBuffer@Win32@OnlineGameLib@@U?$less@E@std@@V?$allocator@PAVCBuffer@Win32@OnlineGameLib@@@5@@2@U?$less@E@2@V?$allocator@PAVCBuffer@Win32@OnlineGameLib@@@2@@std@@QAEXXZ 0040f710 f i common:Buffer.obj
 0001:0000e7c0       ??0?$pair@Viterator@?$_Tree@EU?$pair@$$CBEPAVCBuffer@Win32@OnlineGameLib@@@std@@U_Kfn@?$map@EPAVCBuffer@Win32@OnlineGameLib@@U?$less@E@std@@V?$allocator@PAVCBuffer@Win32@OnlineGameLib@@@5@@2@U?$less@E@2@V?$allocator@PAVCBuffer@Win32@OnlineGameLib@@@2@@std@@_N@std@@QAE@ABViterator@?$_Tree@EU?$pair@$$CBEPAVCBuffer@Win32@OnlineGameLib@@@std@@U_Kfn@?$map@EPAVCBuffer@Win32@OnlineGameLib@@U?$less@E@std@@V?$allocator@PAVCBuffer@Win32@OnlineGameLib@@@5@@2@U?$less@E@2@V?$allocator@PAVCBuffer@Win32@OnlineGameLib@@@2@@1@AB_N@Z 0040f7c0 f i common:Buffer.obj
 0001:0000e7e0       ?_Insert@?$_Tree@EU?$pair@$$CBEPAVCBuffer@Win32@OnlineGameLib@@@std@@U_Kfn@?$map@EPAVCBuffer@Win32@OnlineGameLib@@U?$less@E@std@@V?$allocator@PAVCBuffer@Win32@OnlineGameLib@@@5@@2@U?$less@E@2@V?$allocator@PAVCBuffer@Win32@OnlineGameLib@@@2@@std@@IAE?AViterator@12@PAU_Node@12@0ABU?$pair@$$CBEPAVCBuffer@Win32@OnlineGameLib@@@2@@Z 0040f7e0 f i common:Buffer.obj
 0001:0000eae0       ?_Lbound@?$_Tree@EU?$pair@$$CBEPAVCBuffer@Win32@OnlineGameLib@@@std@@U_Kfn@?$map@EPAVCBuffer@Win32@OnlineGameLib@@U?$less@E@std@@V?$allocator@PAVCBuffer@Win32@OnlineGameLib@@@5@@2@U?$less@E@2@V?$allocator@PAVCBuffer@Win32@OnlineGameLib@@@2@@std@@IBEPAU_Node@12@ABE@Z 0040fae0 f i common:Buffer.obj
 0001:0000eb30       ?_Ubound@?$_Tree@EU?$pair@$$CBEPAVCBuffer@Win32@OnlineGameLib@@@std@@U_Kfn@?$map@EPAVCBuffer@Win32@OnlineGameLib@@U?$less@E@std@@V?$allocator@PAVCBuffer@Win32@OnlineGameLib@@@5@@2@U?$less@E@2@V?$allocator@PAVCBuffer@Win32@OnlineGameLib@@@2@@std@@IBEPAU_Node@12@ABE@Z 0040fb30 f i common:Buffer.obj
 0001:0000eb80       ?_Dec@const_iterator@?$_Tree@EU?$pair@$$CBEPAVCBuffer@Win32@OnlineGameLib@@@std@@U_Kfn@?$map@EPAVCBuffer@Win32@OnlineGameLib@@U?$less@E@std@@V?$allocator@PAVCBuffer@Win32@OnlineGameLib@@@5@@2@U?$less@E@2@V?$allocator@PAVCBuffer@Win32@OnlineGameLib@@@2@@std@@QAEXXZ 0040fb80 f i common:Buffer.obj
 0001:0000ec40       ?_Construct@std@@YAXPAU?$pair@$$CBEPAVCBuffer@Win32@OnlineGameLib@@@1@ABU21@@Z 0040fc40 f i common:Buffer.obj
 0001:0000ec60       ?_Distance@std@@YAXViterator@?$_Tree@EU?$pair@$$CBEPAVCBuffer@Win32@OnlineGameLib@@@std@@U_Kfn@?$map@EPAVCBuffer@Win32@OnlineGameLib@@U?$less@E@std@@V?$allocator@PAVCBuffer@Win32@OnlineGameLib@@@5@@2@U?$less@E@2@V?$allocator@PAVCBuffer@Win32@OnlineGameLib@@@2@@1@0AAIUbidirectional_iterator_tag@1@@Z 0040fc60 f i common:Buffer.obj
 0001:0000ecc0       _GetCRCTable               0040fcc0 f   common:CRC32.OBJ
 0001:0000ecd0       _CRC32_C                   0040fcd0 f   common:CRC32.OBJ
 0001:0000ee10       _CRC32                     0040fe10 f   common:CRC32.OBJ
 0001:0000ef10       ??0CWin32Exception@Win32@OnlineGameLib@@QAE@ABV?$basic_string@DU?$char_traits@D@std@@V?$allocator@D@2@@std@@K@Z 0040ff10 f   common:Win32Exception.obj
 0001:0000efd0       ??0CNodeList@OnlineGameLib@@QAE@XZ 0040ffd0 f   common:NodeList.obj
 0001:0000efe0       ?PushNode@CNodeList@OnlineGameLib@@QAEXPAVNode@12@@Z 0040ffe0 f   common:NodeList.obj
 0001:0000f010       ?PopNode@CNodeList@OnlineGameLib@@QAEPAVNode@12@XZ 00410010 f   common:NodeList.obj
 0001:0000f030       ?RemoveNode@CNodeList@OnlineGameLib@@AAEXPAVNode@12@@Z 00410030 f   common:NodeList.obj
 0001:0000f050       ??0Node@CNodeList@OnlineGameLib@@IAE@XZ 00410050 f   common:NodeList.obj
 0001:0000f060       ??1Node@CNodeList@OnlineGameLib@@IAE@XZ 00410060 f   common:NodeList.obj
 0001:0000f0c0       ?AddToList@Node@CNodeList@OnlineGameLib@@QAEXPAV23@@Z 004100c0 f   common:NodeList.obj
 0001:0000f0d0       ?RemoveFromList@Node@CNodeList@OnlineGameLib@@QAEXXZ 004100d0 f   common:NodeList.obj
 0001:0000f0e0       ?Unlink@Node@CNodeList@OnlineGameLib@@AAEXXZ 004100e0 f   common:NodeList.obj
 0001:0000f370       ?SetLogFileName@Win32@OnlineGameLib@@YAXABV?$basic_string@DU?$char_traits@D@std@@V?$allocator@D@2@@std@@@Z 00410370 f   common:Utils.obj
 0001:0000f480       ?Message@Win32@OnlineGameLib@@YAXQBD@Z 00410480 f   common:Utils.obj
 0001:0000f4b0       ?Output@Win32@OnlineGameLib@@YAXABV?$basic_string@DU?$char_traits@D@std@@V?$allocator@D@2@@std@@@Z 004104b0 f   common:Utils.obj
 0001:0000f4c0       ?Trace@Win32@OnlineGameLib@@YAXABV?$basic_string@DU?$char_traits@D@std@@V?$allocator@D@2@@std@@0@Z 004104c0 f   common:Utils.obj
 0001:0000f4d0       ?GetLastErrorMessage@Win32@OnlineGameLib@@YA?AV?$basic_string@DU?$char_traits@D@std@@V?$allocator@D@2@@std@@K@Z 004104d0 f   common:Utils.obj
 0001:0000f5f0       ?HexToString@Win32@OnlineGameLib@@YA?AV?$basic_string@DU?$char_traits@D@std@@V?$allocator@D@2@@std@@PBEI@Z 004105f0 f   common:Utils.obj
 0001:0000f780       ?StringToHex@Win32@OnlineGameLib@@YAXABV?$basic_string@DU?$char_traits@D@std@@V?$allocator@D@2@@std@@PAEI@Z 00410780 f   common:Utils.obj
 0001:0000f8c0       ?HexStringToDWORD@Win32@OnlineGameLib@@YAKPBD@Z 004108c0 f   common:Utils.obj
 0001:0000f920       ?HashStr2ID@Win32@OnlineGameLib@@YAKQBD@Z 00410920 f   common:Utils.obj
 0001:0000f970       ?net_aton@Win32@OnlineGameLib@@YAKPBD@Z 00410970 f   common:Utils.obj
 0001:0000fa00       ?net_ntoa@Win32@OnlineGameLib@@YAPBDK@Z 00410a00 f   common:Utils.obj
 0001:0000fa40       ?GetCurrentDirectoryA@Win32@OnlineGameLib@@YA?AV?$basic_string@DU?$char_traits@D@std@@V?$allocator@D@2@@std@@XZ 00410a40 f   common:Utils.obj
 0001:0000fbc0       ?GetAppFullPath@Win32@OnlineGameLib@@YA?AV?$basic_string@DU?$char_traits@D@std@@V?$allocator@D@2@@std@@PAUHINSTANCE__@@@Z 00410bc0 f   common:Utils.obj
 0001:0000fda0       ?GetDateStamp@Win32@OnlineGameLib@@YA?AV?$basic_string@DU?$char_traits@D@std@@V?$allocator@D@2@@std@@XZ 00410da0 f   common:Utils.obj
 0001:0000fec0       ?GetTimeStamp@Win32@OnlineGameLib@@YA?AV?$basic_string@DU?$char_traits@D@std@@V?$allocator@D@2@@std@@XZ 00410ec0 f   common:Utils.obj
 0001:0000ffd0       ?ToHex@Win32@OnlineGameLib@@YA?AV?$basic_string@DU?$char_traits@D@std@@V?$allocator@D@2@@std@@E@Z 00410fd0 f   common:Utils.obj
 0001:000100b0       ?DumpData@Win32@OnlineGameLib@@YA?AV?$basic_string@DU?$char_traits@D@std@@V?$allocator@D@2@@std@@QBEII@Z 004110b0 f   common:Utils.obj
 0001:00010450       ?GetComputerNameA@Win32@OnlineGameLib@@YA?AV?$basic_string@DU?$char_traits@D@std@@V?$allocator@D@2@@std@@XZ 00411450 f   common:Utils.obj
 0001:000106a0       ?GetModuleFileNameA@Win32@OnlineGameLib@@YA?AV?$basic_string@DU?$char_traits@D@std@@V?$allocator@D@2@@std@@PAUHINSTANCE__@@@Z 004116a0 f   common:Utils.obj
 0001:00010900       ?GetUserNameA@Win32@OnlineGameLib@@YA?AV?$basic_string@DU?$char_traits@D@std@@V?$allocator@D@2@@std@@XZ 00411900 f   common:Utils.obj
 0001:00010b60       ?StripLeading@Win32@OnlineGameLib@@YA?AV?$basic_string@DU?$char_traits@D@std@@V?$allocator@D@2@@std@@ABV34@D@Z 00411b60 f   common:Utils.obj
 0001:00010c40       ?StripTrailing@Win32@OnlineGameLib@@YA?AV?$basic_string@DU?$char_traits@D@std@@V?$allocator@D@2@@std@@ABV34@D@Z 00411c40 f   common:Utils.obj
 0001:00010c90       ?GetFileVersion@Win32@OnlineGameLib@@YA?AV?$basic_string@DU?$char_traits@D@std@@V?$allocator@D@2@@std@@XZ 00411c90 f   common:Utils.obj
 0001:00010f70       ?GetLocalName@Win32@OnlineGameLib@@YA_NPADI@Z 00411f70 f   common:Utils.obj
 0001:00011070       ?GetLocalAddress@Win32@OnlineGameLib@@YA_NPADIH@Z 00412070 f   common:Utils.obj
 0001:000111a0       ?substr@?$basic_string@DU?$char_traits@D@std@@V?$allocator@D@2@@std@@QBE?AV12@II@Z 004121a0 f i common:Utils.obj
 0001:00011330       ??0?$basic_fstream@DU?$char_traits@D@std@@@std@@QAE@XZ 00412330 f i common:Utils.obj
 0001:00011490       ?_Incref@facet@locale@std@@QAEXXZ 00412490 f i common:Utils.obj
 0001:000114c0       ??0?$basic_ostream@DU?$char_traits@D@std@@@std@@QAE@PAV?$basic_streambuf@DU?$char_traits@D@std@@@1@_N1@Z 004124c0 f i common:Utils.obj
 0001:00011580       ??1?$basic_fstream@DU?$char_traits@D@std@@@std@@UAE@XZ 00412580 f i common:Utils.obj
 0001:000116c0       ?overflow@?$basic_filebuf@DU?$char_traits@D@std@@@std@@MAEHH@Z 004126c0 f i common:Utils.obj
 0001:000118a0       ?pbackfail@?$basic_filebuf@DU?$char_traits@D@std@@@std@@MAEHH@Z 004128a0 f i common:Utils.obj
 0001:00011a40       ?underflow@?$basic_filebuf@DU?$char_traits@D@std@@@std@@MAEHXZ 00412a40 f i common:Utils.obj
 0001:00011a70       ?uflow@?$basic_filebuf@DU?$char_traits@D@std@@@std@@MAEHXZ 00412a70 f i common:Utils.obj
 0001:00011c60       ?seekoff@?$basic_filebuf@DU?$char_traits@D@std@@@std@@MAE?AV?$fpos@H@2@JW4seekdir@ios_base@2@H@Z 00412c60 f i common:Utils.obj
 0001:00011cf0       ?seekpos@?$basic_filebuf@DU?$char_traits@D@std@@@std@@MAE?AV?$fpos@H@2@V32@H@Z 00412cf0 f i common:Utils.obj
 0001:00011e80       ?setbuf@?$basic_filebuf@DU?$char_traits@D@std@@@std@@MAEPAV?$basic_streambuf@DU?$char_traits@D@std@@@2@PADH@Z 00412e80 f i common:Utils.obj
 0001:00011eb0       ?sync@?$basic_filebuf@DU?$char_traits@D@std@@@std@@MAEHXZ 00412eb0 f i common:Utils.obj
 0001:00011ed0       ??1?$auto_ptr@E@std@@QAE@XZ 00412ed0 f i common:Utils.obj
 0001:00011ee0       ??_G?$basic_fstream@DU?$char_traits@D@std@@@std@@UAEPAXI@Z 00412ee0 f i common:Utils.obj
 0001:00011ee0       ??_E?$basic_fstream@DU?$char_traits@D@std@@@std@@UAEPAXI@Z 00412ee0 f i common:Utils.obj
 0001:00011f10       ??_E?$basic_filebuf@DU?$char_traits@D@std@@@std@@UAEPAXI@Z 00412f10 f i common:Utils.obj
 0001:00011f10       ??_G?$basic_filebuf@DU?$char_traits@D@std@@@std@@UAEPAXI@Z 00412f10 f i common:Utils.obj
 0001:00011f30       ??1?$basic_filebuf@DU?$char_traits@D@std@@@std@@UAE@XZ 00412f30 f i common:Utils.obj
 0001:00012080       ?append@?$basic_string@DU?$char_traits@D@std@@V?$allocator@D@2@@std@@QAEAAV12@ID@Z 00413080 f i common:Utils.obj
 0001:00012150       ?init@?$basic_ios@DU?$char_traits@D@std@@@std@@IAEXPAV?$basic_streambuf@DU?$char_traits@D@std@@@2@_N@Z 00413150 f i common:Utils.obj
 0001:000121a0       ?_Init@?$basic_streambuf@DU?$char_traits@D@std@@@std@@IAEXXZ 004131a0 f i common:Utils.obj
 0001:00012200       ?append@?$basic_string@DU?$char_traits@D@std@@V?$allocator@D@2@@std@@QAEAAV12@ABV12@II@Z 00413200 f i common:Utils.obj
 0001:000122e0       ?append@?$basic_string@DU?$char_traits@D@std@@V?$allocator@D@2@@std@@QAEAAV12@PBDI@Z 004132e0 f i common:Utils.obj
 0001:000123a0       ?_Freeze@?$basic_string@DU?$char_traits@D@std@@V?$allocator@D@2@@std@@AAEXXZ 004133a0 f i common:Utils.obj
 0001:00012420       ?_Init@?$basic_filebuf@DU?$char_traits@D@std@@@std@@IAEXPAU_iobuf@@W4_Initfl@12@@Z 00413420 f i common:Utils.obj
 0001:00012500       ??0locale@std@@QAE@XZ      00413500 f i common:Utils.obj
 0001:00012550       ??Hstd@@YA?AV?$basic_string@DU?$char_traits@D@std@@V?$allocator@D@2@@0@ABV10@PBD@Z 00413550 f i common:Utils.obj
 0001:00012680       ??Hstd@@YA?AV?$basic_string@DU?$char_traits@D@std@@V?$allocator@D@2@@0@ABV10@0@Z 00413680 f i common:Utils.obj
 0001:000127e0       ??3@YAXPAX@Z               004137e0 f   libcpmt:delop.obj
 0001:000127eb       ?clear@ios_base@std@@QAEXH_N@Z 004137eb f   libcpmt:ios.obj
 0001:00012887       ??0runtime_error@std@@QAE@ABV?$basic_string@DU?$char_traits@D@std@@V?$allocator@D@2@@1@@Z 00413887 f i libcpmt:ios.obj
 0001:000128eb       ?what@runtime_error@std@@UBEPBDXZ 004138eb f i libcpmt:ios.obj
 0001:000128f8       ?_Doraise@runtime_error@std@@MBEXXZ 004138f8 f i libcpmt:ios.obj
 0001:00012915       ??1runtime_error@std@@UAE@XZ 00413915 f i libcpmt:ios.obj
 0001:00012952       ??_Eruntime_error@std@@UAEPAXI@Z 00413952 f i libcpmt:ios.obj
 0001:00012952       ??_Gruntime_error@std@@UAEPAXI@Z 00413952 f i libcpmt:ios.obj
 0001:0001296e       ??0runtime_error@std@@QAE@ABV01@@Z 0041396e f i libcpmt:ios.obj
 0001:000129cb       ??1failure@ios_base@std@@UAE@XZ 004139cb f i libcpmt:ios.obj
 0001:00012a08       ?_Doraise@failure@ios_base@std@@MBEXXZ 00413a08 f i libcpmt:ios.obj
 0001:00012a25       ??_Efailure@ios_base@std@@UAEPAXI@Z 00413a25 f i libcpmt:ios.obj
 0001:00012a25       ??_Gfailure@ios_base@std@@UAEPAXI@Z 00413a25 f i libcpmt:ios.obj
 0001:00012a41       ??0failure@ios_base@std@@QAE@ABV012@@Z 00413a41 f i libcpmt:ios.obj
 0001:00012a59       ?copyfmt@ios_base@std@@QAEAAV12@ABV12@@Z 00413a59 f   libcpmt:ios.obj
 0001:00012aea       ??4locale@std@@QAEAAV01@ABV01@@Z 00413aea f i libcpmt:ios.obj
 0001:00012b19       ?imbue@ios_base@std@@QAE?AVlocale@2@ABV32@@Z 00413b19 f   libcpmt:ios.obj
 0001:00012b78       ?register_callback@ios_base@std@@QAEXP6AXW4event@12@AAV12@H@ZH@Z 00413b78 f   libcpmt:ios.obj
 0001:00012bae       ??1ios_base@std@@UAE@XZ    00413bae f   libcpmt:ios.obj
 0001:00012bfe       ?_Callfns@ios_base@std@@AAEXW4event@12@@Z 00413bfe f   libcpmt:ios.obj
 0001:00012c20       ?_Findarr@ios_base@std@@AAEAAU_Iosarray@12@H@Z 00413c20 f   libcpmt:ios.obj
 0001:00012cf1       ?_Addstd@ios_base@std@@IAEXXZ 00413cf1 f   libcpmt:ios.obj
 0001:00012d3f       ?_Init@ios_base@std@@IAEXXZ 00413d3f f   libcpmt:ios.obj
 0001:00012d77       ?_Tidy@ios_base@std@@AAEXXZ 00413d77 f   libcpmt:ios.obj
 0001:00012db9       ?uncaught_exception@std@@YA_NXZ 00413db9 f   libcpmt:uncaught.obj
 0001:00012dbc       ??0_Lockit@std@@QAE@XZ     00413dbc f   libcpmt:xlock.obj
 0001:00012e58       ??1_Lockit@std@@QAE@XZ     00413e58 f   libcpmt:xlock.obj
 0001:00012e8e       ?classic@locale@std@@SAABV12@XZ 00413e8e f   libcpmt:locale0.obj
 0001:00012eae       ?empty@locale@std@@SA?AV12@XZ 00413eae f   libcpmt:locale0.obj
 0001:00012ef5       ?_Getfacet@locale@std@@QBEPBVfacet@12@I_N@Z 00413ef5 f   libcpmt:locale0.obj
 0001:00012f4b       ?_Iscloc@locale@std@@QBE_NXZ 00413f4b f   libcpmt:locale0.obj
 0001:00012f86       ??8locale@std@@QBE_NABV01@@Z 00413f86 f   libcpmt:locale0.obj
 0001:00013055       ?name@locale@std@@QBE?AV?$basic_string@DU?$char_traits@D@std@@V?$allocator@D@2@@2@XZ 00414055 f i libcpmt:locale0.obj
 0001:0001308c       ?_Init@locale@std@@CAPAV_Locimp@12@XZ 0041408c f   libcpmt:locale0.obj
 0001:00013156       ?_Tidy@locale@std@@CAXXZ   00414156 f   libcpmt:locale0.obj
 0001:000131a0       ??0_Locimp@locale@std@@AAE@_N@Z 004141a0 f   libcpmt:locale0.obj
 0001:00013212       ??_G_Locimp@locale@std@@UAEPAXI@Z 00414212 f i libcpmt:locale0.obj
 0001:00013212       ??_E_Locimp@locale@std@@UAEPAXI@Z 00414212 f i libcpmt:locale0.obj
 0001:0001322e       ??1_Locimp@locale@std@@UAE@XZ 0041422e f   libcpmt:locale0.obj
 0001:000132b6       ?compare@?$basic_string@DU?$char_traits@D@std@@V?$allocator@D@2@@std@@QBEHABV12@@Z 004142b6 f i libcpmt:locale0.obj
 0001:000132d8       ?compare@?$basic_string@DU?$char_traits@D@std@@V?$allocator@D@2@@std@@QBEHIIPBDI@Z 004142d8 f i libcpmt:locale0.obj
 0001:0001337d       ?id@?$collate@D@std@@$E    0041437d f i libcpmt:locale0.obj
 0001:0001337e       ?_Xlen@std@@YAXXZ          0041437e f   libcpmt:string.obj
 0001:000133d8       ??0logic_error@std@@QAE@ABV?$basic_string@DU?$char_traits@D@std@@V?$allocator@D@2@@1@@Z 004143d8 f i libcpmt:string.obj
 0001:0001343c       ?what@logic_error@std@@UBEPBDXZ 0041443c f i libcpmt:string.obj
 0001:00013449       ?_Doraise@logic_error@std@@MBEXXZ 00414449 f i libcpmt:string.obj
 0001:00013466       ??1logic_error@std@@UAE@XZ 00414466 f i libcpmt:string.obj
 0001:000134a3       ??_Elogic_error@std@@UAEPAXI@Z 004144a3 f i libcpmt:string.obj
 0001:000134a3       ??_Glogic_error@std@@UAEPAXI@Z 004144a3 f i libcpmt:string.obj
 0001:000134bf       ??0logic_error@std@@QAE@ABV01@@Z 004144bf f i libcpmt:string.obj
 0001:0001351c       ??1length_error@std@@UAE@XZ 0041451c f i libcpmt:string.obj
 0001:00013559       ?_Doraise@length_error@std@@MBEXXZ 00414559 f i libcpmt:string.obj
 0001:00013576       ??_Glength_error@std@@UAEPAXI@Z 00414576 f i libcpmt:string.obj
 0001:00013576       ??_Elength_error@std@@UAEPAXI@Z 00414576 f i libcpmt:string.obj
 0001:00013592       ??0length_error@std@@QAE@ABV01@@Z 00414592 f i libcpmt:string.obj
 0001:000135aa       ?_Xran@std@@YAXXZ          004145aa f   libcpmt:string.obj
 0001:00013604       ??1out_of_range@std@@UAE@XZ 00414604 f i libcpmt:string.obj
 0001:00013641       ?_Doraise@out_of_range@std@@MBEXXZ 00414641 f i libcpmt:string.obj
 0001:0001365e       ??_Gout_of_range@std@@UAEPAXI@Z 0041465e f i libcpmt:string.obj
 0001:0001365e       ??_Eout_of_range@std@@UAEPAXI@Z 0041465e f i libcpmt:string.obj
 0001:0001367a       ??0out_of_range@std@@QAE@ABV01@@Z 0041467a f i libcpmt:string.obj
 0001:000136d4       ??0locale@std@@QAE@ABV01@0H@Z 004146d4 f   libcpmt:locale.obj
 0001:0001377c       ??0locale@std@@QAE@PBDH@Z  0041477c f   libcpmt:locale.obj
 0001:00013889       ?_Getname@_Locinfo@std@@QBE?AV?$basic_string@DU?$char_traits@D@std@@V?$allocator@D@2@@2@XZ 00414889 f i libcpmt:locale.obj
 0001:000138bf       ??0locale@std@@QAE@ABV01@PBDH@Z 004148bf f   libcpmt:locale.obj
 0001:000139e0       ?_Addfac@locale@std@@QAEAAV12@PAVfacet@12@II@Z 004149e0 f   libcpmt:locale.obj
 0001:00013a63       ?global@locale@std@@SA?AV12@ABV12@@Z 00414a63 f   libcpmt:locale.obj
 0001:00013b5e       ?_Makeloc@_Locimp@locale@std@@CAPAV123@ABV_Locinfo@3@HPAV123@PBV23@@Z 00414b5e f   libcpmt:locale.obj
 0001:00013dd2       ?do_always_noconv@codecvt_base@std@@MBE_NXZ 00414dd2 f i libcpmt:locale.obj
 0001:00013dd5       ?do_max_length@codecvt_base@std@@MBEHXZ 00414dd5 f i libcpmt:locale.obj
 0001:00013dd9       ?do_encoding@codecvt_base@std@@MBEHXZ 00414dd9 f i libcpmt:locale.obj
 0001:00013ddd       ??1ctype_base@std@@UAE@XZ  00414ddd f i libcpmt:locale.obj
 0001:00013de4       ?_Init@?$ctype@D@std@@IAEXABV_Locinfo@2@@Z 00414de4 f i libcpmt:locale.obj
 0001:00013e39       ?_Term@?$ctype@D@std@@KAXXZ 00414e39 f i libcpmt:locale.obj
 0001:00013e46       ?do_tolower@?$ctype@D@std@@MBEDD@Z 00414e46 f i libcpmt:locale.obj
 0001:00013e5a       ?do_tolower@?$ctype@D@std@@MBEPBDPADPBD@Z 00414e5a f i libcpmt:locale.obj
 0001:00013e85       ?do_toupper@?$ctype@D@std@@MBEDD@Z 00414e85 f i libcpmt:locale.obj
 0001:00013e99       ?do_toupper@?$ctype@D@std@@MBEPBDPADPBD@Z 00414e99 f i libcpmt:locale.obj
 0001:00013ec4       ??_G?$ctype@D@std@@UAEPAXI@Z 00414ec4 f i libcpmt:locale.obj
 0001:00013ec4       ??_E?$ctype@D@std@@UAEPAXI@Z 00414ec4 f i libcpmt:locale.obj
 0001:00013ee0       ??1?$ctype@D@std@@UAE@XZ   00414ee0 f i libcpmt:locale.obj
 0001:00013f00       ??0_Locimp@locale@std@@AAE@ABV012@@Z 00414f00 f   libcpmt:locale.obj
 0001:00014020       ?_Addfac@_Locimp@locale@std@@AAEXPAVfacet@23@I@Z 00415020 f   libcpmt:locale.obj
 0001:000140d3       ??0_Locinfo@std@@QAE@PBD@Z 004150d3 f   libcpmt:locale.obj
 0001:0001418c       ??0_Locinfo@std@@QAE@HPBD@Z 0041518c f   libcpmt:locale.obj
 0001:00014203       ??1_Locinfo@std@@QAE@XZ    00415203 f   libcpmt:locale.obj
 0001:00014278       ?_Addcats@_Locinfo@std@@QAEAAV12@HPBD@Z 00415278 f   libcpmt:locale.obj
 0001:000142e7       ?do_in@?$codecvt@DDH@std@@MBEHAAHPBD1AAPBDPAD3AAPAD@Z 004152e7 f i libcpmt:locale.obj
 0001:00014301       ?do_out@?$codecvt@DDH@std@@MBEHAAHPBD1AAPBDPAD3AAPAD@Z 00415301 f i libcpmt:locale.obj
 0001:0001431b       ?do_length@?$codecvt@DDH@std@@MBEHAAHPBD1I@Z 0041531b f i libcpmt:locale.obj
 0001:00014330       ?do_get@?$num_get@DV?$istreambuf_iterator@DU?$char_traits@D@std@@@std@@@std@@MBE?AV?$istreambuf_iterator@DU?$char_traits@D@std@@@2@V32@0AAVios_base@2@AAHAA_N@Z 00415330 f i libcpmt:locale.obj
 0001:000144da       ?do_get@?$num_get@DV?$istreambuf_iterator@DU?$char_traits@D@std@@@std@@@std@@MBE?AV?$istreambuf_iterator@DU?$char_traits@D@std@@@2@V32@0AAVios_base@2@AAHAAG@Z 004154da f i libcpmt:locale.obj
 0001:000145a6       ?do_get@?$num_get@DV?$istreambuf_iterator@DU?$char_traits@D@std@@@std@@@std@@MBE?AV?$istreambuf_iterator@DU?$char_traits@D@std@@@2@V32@0AAVios_base@2@AAHAAI@Z 004155a6 f i libcpmt:locale.obj
 0001:0001466e       ?do_get@?$num_get@DV?$istreambuf_iterator@DU?$char_traits@D@std@@@std@@@std@@MBE?AV?$istreambuf_iterator@DU?$char_traits@D@std@@@2@V32@0AAVios_base@2@AAHAAJ@Z 0041566e f i libcpmt:locale.obj
 0001:0001471c       ?do_get@?$num_get@DV?$istreambuf_iterator@DU?$char_traits@D@std@@@std@@@std@@MBE?AV?$istreambuf_iterator@DU?$char_traits@D@std@@@2@V32@0AAVios_base@2@AAHAAK@Z 0041571c f i libcpmt:locale.obj
 0001:000147ca       ?do_get@?$num_get@DV?$istreambuf_iterator@DU?$char_traits@D@std@@@std@@@std@@MBE?AV?$istreambuf_iterator@DU?$char_traits@D@std@@@2@V32@0AAVios_base@2@AAHAAM@Z 004157ca f i libcpmt:locale.obj
 0001:00014874       ?do_get@?$num_get@DV?$istreambuf_iterator@DU?$char_traits@D@std@@@std@@@std@@MBE?AV?$istreambuf_iterator@DU?$char_traits@D@std@@@2@V32@0AAVios_base@2@AAHAAN@Z 00415874 f i libcpmt:locale.obj
 0001:0001491e       ?do_get@?$num_get@DV?$istreambuf_iterator@DU?$char_traits@D@std@@@std@@@std@@MBE?AV?$istreambuf_iterator@DU?$char_traits@D@std@@@2@V32@0AAVios_base@2@AAHAAO@Z 0041591e f i libcpmt:locale.obj
 0001:000149c8       ?do_get@?$num_get@DV?$istreambuf_iterator@DU?$char_traits@D@std@@@std@@@std@@MBE?AV?$istreambuf_iterator@DU?$char_traits@D@std@@@2@V32@0AAVios_base@2@AAHAAPAX@Z 004159c8 f i libcpmt:locale.obj
 0001:00014abe       ??_G?$codecvt@DDH@std@@UAEPAXI@Z 00415abe f i libcpmt:locale.obj
 0001:00014abe       ??_E?$codecvt@DDH@std@@UAEPAXI@Z 00415abe f i libcpmt:locale.obj
 0001:00014ada       ??1?$codecvt@DDH@std@@UAE@XZ 00415ada f i libcpmt:locale.obj
 0001:00014ae1       ??_G?$num_get@DV?$istreambuf_iterator@DU?$char_traits@D@std@@@std@@@std@@UAEPAXI@Z 00415ae1 f i libcpmt:locale.obj
 0001:00014ae1       ??_E?$num_get@DV?$istreambuf_iterator@DU?$char_traits@D@std@@@std@@@std@@UAEPAXI@Z 00415ae1 f i libcpmt:locale.obj
 0001:00014afd       ??1?$num_get@DV?$istreambuf_iterator@DU?$char_traits@D@std@@@std@@@std@@UAE@XZ 00415afd f i libcpmt:locale.obj
 0001:00014b04       ?_Getifld@?$num_get@DV?$istreambuf_iterator@DU?$char_traits@D@std@@@std@@@std@@CAHPADAAV?$istreambuf_iterator@DU?$char_traits@D@std@@@2@1HABVlocale@2@@Z 00415b04 f i libcpmt:locale.obj
 0001:00014e99       ?_Getffld@?$num_get@DV?$istreambuf_iterator@DU?$char_traits@D@std@@@std@@@std@@CAHPADAAV?$istreambuf_iterator@DU?$char_traits@D@std@@@2@1ABVlocale@2@@Z 00415e99 f i libcpmt:locale.obj
 0001:00015185       ?_Ffmt@?$num_put@DV?$ostreambuf_iterator@DU?$char_traits@D@std@@@std@@@std@@KAPADPADDH@Z 00416185 f i libcpmt:locale.obj
 0001:000151e3       ?_Ifmt@?$num_put@DV?$ostreambuf_iterator@DU?$char_traits@D@std@@@std@@@std@@KAPADPADDH@Z 004161e3 f i libcpmt:locale.obj
 0001:0001523d       ?_Init@?$numpunct@D@std@@IAEXABV_Locinfo@2@@Z 0041623d f i libcpmt:locale.obj
 0001:00015286       ?assign@?$basic_string@DU?$char_traits@D@std@@V?$allocator@D@2@@std@@QAEAAV12@ID@Z 00416286 f i libcpmt:locale.obj
 0001:000152cc       ?_Inc@?$istreambuf_iterator@DU?$char_traits@D@std@@@std@@AAEXXZ 004162cc f i libcpmt:locale.obj
 0001:000152ee       ?sbumpc@?$basic_streambuf@DU?$char_traits@D@std@@@std@@QAEHXZ 004162ee f i libcpmt:locale.obj
 0001:00015311       ?_Gninc@?$basic_streambuf@DU?$char_traits@D@std@@@std@@IAEPADXZ 00416311 f i libcpmt:locale.obj
 0001:00015321       ?_Peek@?$istreambuf_iterator@DU?$char_traits@D@std@@@std@@AAEDXZ 00416321 f i libcpmt:locale.obj
 0001:00015345       ?sgetc@?$basic_streambuf@DU?$char_traits@D@std@@@std@@QAEHXZ 00416345 f i libcpmt:locale.obj
 0001:00015363       ?_Pninc@?$basic_streambuf@DU?$char_traits@D@std@@@std@@IAEPADXZ 00416363 f i libcpmt:locale.obj
 0001:00015373       ?use_facet@std@@YAABV?$ctype@D@1@ABVlocale@1@PBV21@_N@Z 00416373 f i libcpmt:locale.obj
 0001:0001543b       ??0?$ctype@D@std@@QAE@PBF_NI@Z 0041643b f i libcpmt:locale.obj
 0001:000154da       ?use_facet@std@@YAABV?$num_get@DV?$istreambuf_iterator@DU?$char_traits@D@std@@@std@@@1@ABVlocale@1@PBV21@_N@Z 004164da f i libcpmt:locale.obj
 0001:000155b6       ?use_facet@std@@YAABV?$num_put@DV?$ostreambuf_iterator@DU?$char_traits@D@std@@@std@@@1@ABVlocale@1@PBV21@_N@Z 004165b6 f i libcpmt:locale.obj
 0001:00015692       ?use_facet@std@@YAABV?$numpunct@D@1@ABVlocale@1@PBV21@_N@Z 00416692 f i libcpmt:locale.obj
 0001:00015756       ?use_facet@std@@YAABV?$codecvt@DDH@1@ABVlocale@1@PBV21@_N@Z 00416756 f i libcpmt:locale.obj
 0001:0001581a       ?_Getloctxt@std@@YAHAAV?$istreambuf_iterator@DU?$char_traits@D@std@@@1@0IPBD@Z 0041681a f i libcpmt:locale.obj
 0001:000159d3       ?isdigit@std@@YA_NDABVlocale@1@@Z 004169d3 f i libcpmt:locale.obj
 0001:000159f4       ?_Maklocstr@std@@YAPADPBDPAD@Z 004169f4 f i libcpmt:locale.obj
 0001:00015a1d       ??0?$codecvt@DDH@std@@QAE@I@Z 00416a1d f i libcpmt:locale.obj
 0001:00015a71       ??1codecvt_base@std@@UAE@XZ 00416a71 f i libcpmt:locale.obj
 0001:00015a78       ?equal@?$istreambuf_iterator@DU?$char_traits@D@std@@@std@@QBE_NABV12@@Z 00416a78 f i libcpmt:locale.obj
 0001:00015ab7       ?_Save@?$_Tidyfac@V?$ctype@D@std@@@std@@SAPAV?$ctype@D@2@PAV32@@Z 00416ab7 f i libcpmt:locale.obj
 0001:00015b05       ?_Save@?$_Tidyfac@V?$num_get@DV?$istreambuf_iterator@DU?$char_traits@D@std@@@std@@@std@@@std@@SAPAV?$num_get@DV?$istreambuf_iterator@DU?$char_traits@D@std@@@std@@@2@PAV32@@Z 00416b05 f i libcpmt:locale.obj
 0001:00015b53       ?_Save@?$_Tidyfac@V?$codecvt@DDH@std@@@std@@SAPAV?$codecvt@DDH@2@PAV32@@Z 00416b53 f i libcpmt:locale.obj
 0001:00015ba1       ?_Tidy@?$_Tidyfac@V?$ctype@D@std@@@std@@SAXXZ 00416ba1 f i libcpmt:locale.obj
 0001:00015bee       ?_Tidy@?$_Tidyfac@V?$num_get@DV?$istreambuf_iterator@DU?$char_traits@D@std@@@std@@@std@@@std@@SAXXZ 00416bee f i libcpmt:locale.obj
 0001:00015c3b       ?_Tidy@?$_Tidyfac@V?$codecvt@DDH@std@@@std@@SAXXZ 00416c3b f i libcpmt:locale.obj
 0001:00015d53       ??_D?$basic_istream@DU?$char_traits@D@std@@@std@@QAEXXZ 00416d53 f i libcpmt:iostream.obj
 0001:00015d97       ??_D?$basic_ostream@DU?$char_traits@D@std@@@std@@QAEXXZ 00416d97 f i libcpmt:iostream.obj
 0001:00015e37       ??0Init@ios_base@std@@QAE@XZ 00416e37 f   libcpmt:iostream.obj
 0001:00015fb6       ??3@YAXPAX0@Z              00416fb6 f i libcpmt:iostream.obj
 0001:00015fb7       ??1Init@ios_base@std@@QAE@XZ 00416fb7 f   libcpmt:iostream.obj
 0001:00015ffa       ??0?$basic_ostream@DU?$char_traits@D@std@@@std@@QAE@W4_Uninitialized@1@@Z 00416ffa f i libcpmt:iostream.obj
 0001:00016059       ?flush@?$basic_ostream@DU?$char_traits@D@std@@@std@@QAEAAV12@XZ 00417059 f i libcpmt:iostream.obj
 0001:000160a3       ??0?$basic_istream@DU?$char_traits@D@std@@@std@@QAE@PAV?$basic_streambuf@DU?$char_traits@D@std@@@1@_N@Z 004170a3 f i libcpmt:iostream.obj
 0001:0001610b       ??0?$basic_istream@DU?$char_traits@D@std@@@std@@QAE@W4_Uninitialized@1@@Z 0041710b f i libcpmt:iostream.obj
 0001:0001616a       ??0?$basic_filebuf@DU?$char_traits@D@std@@@std@@QAE@PAU_iobuf@@@Z 0041716a f i libcpmt:iostream.obj
 0001:000161ca       ??0?$basic_filebuf@DU?$char_traits@D@std@@@std@@QAE@W4_Uninitialized@1@@Z 004171ca f i libcpmt:iostream.obj
 0001:000161d5       ?_Gndec@?$basic_streambuf@DU?$char_traits@D@std@@@std@@IAEPADXZ 004171d5 f i libcpmt:iostream.obj
 0001:000161e5       ?close@?$basic_filebuf@DU?$char_traits@D@std@@@std@@QAEPAV12@XZ 004171e5 f i libcpmt:iostream.obj
 0001:0001620c       ?_Ungetc@std@@YA_NABDPAU_iobuf@@I@Z 0041720c f i libcpmt:iostream.obj
 0001:000163a5       ??_D?$basic_istream@GU?$char_traits@G@std@@@std@@QAEXXZ 004173a5 f i libcpmt:wiostrea.obj
 0001:000163e9       ??_D?$basic_ostream@GU?$char_traits@G@std@@@std@@QAEXXZ 004173e9 f i libcpmt:wiostrea.obj
 0001:0001645c       ??0_Winit@std@@QAE@XZ      0041745c f   libcpmt:wiostrea.obj
 0001:000165dd       ??1_Winit@std@@QAE@XZ      004175dd f   libcpmt:wiostrea.obj
 0001:00016620       ??0?$basic_ostream@GU?$char_traits@G@std@@@std@@QAE@PAV?$basic_streambuf@GU?$char_traits@G@std@@@1@_N1@Z 00417620 f i libcpmt:wiostrea.obj
 0001:0001668a       ??0?$basic_ostream@GU?$char_traits@G@std@@@std@@QAE@W4_Uninitialized@1@@Z 0041768a f i libcpmt:wiostrea.obj
 0001:000166e9       ?flush@?$basic_ostream@GU?$char_traits@G@std@@@std@@QAEAAV12@XZ 004176e9 f i libcpmt:wiostrea.obj
 0001:00016733       ??1?$basic_ios@GU?$char_traits@G@std@@@std@@UAE@XZ 00417733 f i libcpmt:wiostrea.obj
 0001:0001673e       ??0?$basic_istream@GU?$char_traits@G@std@@@std@@QAE@PAV?$basic_streambuf@GU?$char_traits@G@std@@@1@_N@Z 0041773e f i libcpmt:wiostrea.obj
 0001:000167a6       ??0?$basic_istream@GU?$char_traits@G@std@@@std@@QAE@W4_Uninitialized@1@@Z 004177a6 f i libcpmt:wiostrea.obj
 0001:00016805       ??0?$basic_filebuf@GU?$char_traits@G@std@@@std@@QAE@PAU_iobuf@@@Z 00417805 f i libcpmt:wiostrea.obj
 0001:00016865       ??1?$basic_streambuf@GU?$char_traits@G@std@@@std@@UAE@XZ 00417865 f i libcpmt:wiostrea.obj
 0001:00016873       ?overflow@?$basic_streambuf@GU?$char_traits@G@std@@@std@@MAEGG@Z 00417873 f i libcpmt:wiostrea.obj
 0001:0001687a       ?pbackfail@?$basic_streambuf@GU?$char_traits@G@std@@@std@@MAEGG@Z 0041787a f i libcpmt:wiostrea.obj
 0001:00016881       ?showmanyc@?$basic_streambuf@GU?$char_traits@G@std@@@std@@MAEHXZ 00417881 f i libcpmt:wiostrea.obj
 0001:00016884       ?underflow@?$basic_streambuf@GU?$char_traits@G@std@@@std@@MAEGXZ 00417884 f i libcpmt:wiostrea.obj
 0001:00016889       ?uflow@?$basic_streambuf@GU?$char_traits@G@std@@@std@@MAEGXZ 00417889 f i libcpmt:wiostrea.obj
 0001:000168aa       ?xsgetn@?$basic_streambuf@GU?$char_traits@G@std@@@std@@MAEHPAGH@Z 004178aa f i libcpmt:wiostrea.obj
 0001:00016931       ?xsputn@?$basic_streambuf@GU?$char_traits@G@std@@@std@@MAEHPBGH@Z 00417931 f i libcpmt:wiostrea.obj
 0001:000169b9       ?seekoff@?$basic_streambuf@GU?$char_traits@G@std@@@std@@MAE?AV?$fpos@H@2@JW4seekdir@ios_base@2@H@Z 004179b9 f i libcpmt:wiostrea.obj
 0001:000169dd       ?seekpos@?$basic_streambuf@GU?$char_traits@G@std@@@std@@MAE?AV?$fpos@H@2@V32@H@Z 004179dd f i libcpmt:wiostrea.obj
 0001:00016a01       ?setbuf@?$basic_streambuf@GU?$char_traits@G@std@@@std@@MAEPAV12@PAGH@Z 00417a01 f i libcpmt:wiostrea.obj
 0001:00016a06       ?sync@?$basic_streambuf@GU?$char_traits@G@std@@@std@@MAEHXZ 00417a06 f i libcpmt:wiostrea.obj
 0001:00016a09       ?imbue@?$basic_streambuf@GU?$char_traits@G@std@@@std@@MAEXABVlocale@2@@Z 00417a09 f i libcpmt:wiostrea.obj
 0001:00016a0c       ??0?$basic_filebuf@GU?$char_traits@G@std@@@std@@QAE@W4_Uninitialized@1@@Z 00417a0c f i libcpmt:wiostrea.obj
 0001:00016a17       ??1?$basic_filebuf@GU?$char_traits@G@std@@@std@@UAE@XZ 00417a17 f i libcpmt:wiostrea.obj
 0001:00016a7c       ?overflow@?$basic_filebuf@GU?$char_traits@G@std@@@std@@MAEGG@Z 00417a7c f i libcpmt:wiostrea.obj
 0001:00016bc4       ?pbackfail@?$basic_filebuf@GU?$char_traits@G@std@@@std@@MAEGG@Z 00417bc4 f i libcpmt:wiostrea.obj
 0001:00016c7b       ?underflow@?$basic_filebuf@GU?$char_traits@G@std@@@std@@MAEGXZ 00417c7b f i libcpmt:wiostrea.obj
 0001:00016ca9       ?uflow@?$basic_filebuf@GU?$char_traits@G@std@@@std@@MAEGXZ 00417ca9 f i libcpmt:wiostrea.obj
 0001:00016dc7       ?seekoff@?$basic_filebuf@GU?$char_traits@G@std@@@std@@MAE?AV?$fpos@H@2@JW4seekdir@ios_base@2@H@Z 00417dc7 f i libcpmt:wiostrea.obj
 0001:00016e36       ?seekpos@?$basic_filebuf@GU?$char_traits@G@std@@@std@@MAE?AV?$fpos@H@2@V32@H@Z 00417e36 f i libcpmt:wiostrea.obj
 0001:00016ee5       ?setbuf@?$basic_filebuf@GU?$char_traits@G@std@@@std@@MAEPAV?$basic_streambuf@GU?$char_traits@G@std@@@2@PAGH@Z 00417ee5 f i libcpmt:wiostrea.obj
 0001:00016f13       ?sync@?$basic_filebuf@GU?$char_traits@G@std@@@std@@MAEHXZ 00417f13 f i libcpmt:wiostrea.obj
 0001:00016f2c       ??_E?$basic_ostream@GU?$char_traits@G@std@@@std@@UAEPAXI@Z 00417f2c f i libcpmt:wiostrea.obj
 0001:00016f2c       ??_G?$basic_ostream@GU?$char_traits@G@std@@@std@@UAEPAXI@Z 00417f2c f i libcpmt:wiostrea.obj
 0001:00016f4b       ??_E?$basic_ios@GU?$char_traits@G@std@@@std@@UAEPAXI@Z 00417f4b f i libcpmt:wiostrea.obj
 0001:00016f4b       ??_G?$basic_ios@GU?$char_traits@G@std@@@std@@UAEPAXI@Z 00417f4b f i libcpmt:wiostrea.obj
 0001:00016f67       ??_E?$basic_istream@GU?$char_traits@G@std@@@std@@UAEPAXI@Z 00417f67 f i libcpmt:wiostrea.obj
 0001:00016f67       ??_G?$basic_istream@GU?$char_traits@G@std@@@std@@UAEPAXI@Z 00417f67 f i libcpmt:wiostrea.obj
 0001:00016f86       ??_E?$basic_streambuf@GU?$char_traits@G@std@@@std@@UAEPAXI@Z 00417f86 f i libcpmt:wiostrea.obj
 0001:00016f86       ??_G?$basic_streambuf@GU?$char_traits@G@std@@@std@@UAEPAXI@Z 00417f86 f i libcpmt:wiostrea.obj
 0001:00016fa2       ??_G?$basic_filebuf@GU?$char_traits@G@std@@@std@@UAEPAXI@Z 00417fa2 f i libcpmt:wiostrea.obj
 0001:00016fa2       ??_E?$basic_filebuf@GU?$char_traits@G@std@@@std@@UAEPAXI@Z 00417fa2 f i libcpmt:wiostrea.obj
 0001:00016fbe       ?init@?$basic_ios@GU?$char_traits@G@std@@@std@@IAEXPAV?$basic_streambuf@GU?$char_traits@G@std@@@2@_N@Z 00417fbe f i libcpmt:wiostrea.obj
 0001:00017008       ?gbump@?$basic_streambuf@GU?$char_traits@G@std@@@std@@IAEXH@Z 00418008 f i libcpmt:wiostrea.obj
 0001:0001701c       ?_Gndec@?$basic_streambuf@GU?$char_traits@G@std@@@std@@IAEPAGXZ 0041801c f i libcpmt:wiostrea.obj
 0001:0001702d       ?_Gninc@?$basic_streambuf@GU?$char_traits@G@std@@@std@@IAEPAGXZ 0041802d f i libcpmt:wiostrea.obj
 0001:0001703d       ?pbump@?$basic_streambuf@GU?$char_traits@G@std@@@std@@IAEXH@Z 0041803d f i libcpmt:wiostrea.obj
 0001:00017051       ?_Pninc@?$basic_streambuf@GU?$char_traits@G@std@@@std@@IAEPAGXZ 00418051 f i libcpmt:wiostrea.obj
 0001:00017061       ?close@?$basic_filebuf@GU?$char_traits@G@std@@@std@@QAEPAV12@XZ 00418061 f i libcpmt:wiostrea.obj
 0001:00017088       ?_Init@?$basic_filebuf@GU?$char_traits@G@std@@@std@@IAEXPAU_iobuf@@W4_Initfl@12@@Z 00418088 f i libcpmt:wiostrea.obj
 0001:000170de       ?_Init@?$basic_streambuf@GU?$char_traits@G@std@@@std@@IAEXXZ 004180de f i libcpmt:wiostrea.obj
 0001:00017162       ?_Nomemory@std@@YAXXZ      00418162 f   libcpmt:nomemory.obj
 0001:000171ad       ??0bad_alloc@std@@QAE@PBD@Z 004181ad f i libcpmt:nomemory.obj
 0001:000171c6       ??1bad_alloc@std@@UAE@XZ   004181c6 f i libcpmt:nomemory.obj
 0001:000171d1       ?_Doraise@bad_alloc@std@@MBEXXZ 004181d1 f i libcpmt:nomemory.obj
 0001:000171ee       ??_Gbad_alloc@std@@UAEPAXI@Z 004181ee f i libcpmt:nomemory.obj
 0001:000171ee       ??_Ebad_alloc@std@@UAEPAXI@Z 004181ee f i libcpmt:nomemory.obj
 0001:0001720a       ??0bad_alloc@std@@QAE@ABV01@@Z 0041820a f i libcpmt:nomemory.obj
 0001:0001722c       ?_Makewloc@_Locimp@locale@std@@CAXABV_Locinfo@3@HPAV123@PBV23@@Z 0041822c f   libcpmt:wlocale.obj
 0001:0001777e       ??1_Timevec@std@@QAE@XZ    0041877e f i libcpmt:wlocale.obj
 0001:00017787       ?do_in@?$codecvt@GDH@std@@MBEHAAHPBD1AAPBDPAG3AAPAG@Z 00418787 f i libcpmt:wlocale.obj
 0001:00017809       ?do_out@?$codecvt@GDH@std@@MBEHAAHPBG1AAPBGPAD3AAPAD@Z 00418809 f i libcpmt:wlocale.obj
 0001:000178dc       ?do_length@?$codecvt@GDH@std@@MBEHAAHPBG1I@Z 004188dc f i libcpmt:wlocale.obj
 0001:0001792b       ?do_always_noconv@?$codecvt@GDH@std@@MBE_NXZ 0041892b f i libcpmt:wlocale.obj
 0001:0001792e       ?do_max_length@?$codecvt@GDH@std@@MBEHXZ 0041892e f i libcpmt:wlocale.obj
 0001:00017932       ?do_encoding@?$codecvt@GDH@std@@MBEHXZ 00418932 f i libcpmt:wlocale.obj
 0001:00017935       ??_E?$codecvt@GDH@std@@UAEPAXI@Z 00418935 f i libcpmt:wlocale.obj
 0001:00017935       ??_G?$codecvt@GDH@std@@UAEPAXI@Z 00418935 f i libcpmt:wlocale.obj
 0001:00017951       ??1?$codecvt@GDH@std@@UAE@XZ 00418951 f i libcpmt:wlocale.obj
 0001:00017958       ??1time_base@std@@UAE@XZ   00418958 f i libcpmt:wlocale.obj
 0001:0001795f       ??1messages_base@std@@UAE@XZ 0041895f f i libcpmt:wlocale.obj
 0001:00017966       ?do_is@?$ctype@G@std@@MBE_NFG@Z 00418966 f i libcpmt:wlocale.obj
 0001:0001798d       ?do_is@?$ctype@G@std@@MBEPBGPBG0PAF@Z 0041898d f i libcpmt:wlocale.obj
 0001:000179cc       ?do_scan_is@?$ctype@G@std@@MBEPBGFPBG0@Z 004189cc f i libcpmt:wlocale.obj
 0001:000179f8       ?do_scan_not@?$ctype@G@std@@MBEPBGFPBG0@Z 004189f8 f i libcpmt:wlocale.obj
 0001:00017a24       ?do_tolower@?$ctype@G@std@@MBEGG@Z 00418a24 f i libcpmt:wlocale.obj
 0001:00017a55       ?do_tolower@?$ctype@G@std@@MBEPBGPAGPBG@Z 00418a55 f i libcpmt:wlocale.obj
 0001:00017a82       ?do_toupper@?$ctype@G@std@@MBEGG@Z 00418a82 f i libcpmt:wlocale.obj
 0001:00017ab3       ?do_toupper@?$ctype@G@std@@MBEPBGPAGPBG@Z 00418ab3 f i libcpmt:wlocale.obj
 0001:00017ae0       ?do_widen@?$ctype@G@std@@MBEGD@Z 00418ae0 f i libcpmt:wlocale.obj
 0001:00017aef       ?do_widen@?$ctype@G@std@@MBEPBDPBD0PAG@Z 00418aef f i libcpmt:wlocale.obj
 0001:00017b1c       ?do_narrow@?$ctype@G@std@@MBEDGD@Z 00418b1c f i libcpmt:wlocale.obj
 0001:00017b29       ?do_narrow@?$ctype@G@std@@MBEPBGPBG0DPAD@Z 00418b29 f i libcpmt:wlocale.obj
 0001:00017b55       ?do_put@?$time_put@GV?$ostreambuf_iterator@GU?$char_traits@G@std@@@std@@@std@@MBE?AV?$ostreambuf_iterator@GU?$char_traits@G@std@@@2@V32@AAVios_base@2@PBUtm@@DD@Z 00418b55 f i libcpmt:wlocale.obj
 0001:00017c31       ?do_get@?$num_get@GV?$istreambuf_iterator@GU?$char_traits@G@std@@@std@@@std@@MBE?AV?$istreambuf_iterator@GU?$char_traits@G@std@@@2@V32@0AAVios_base@2@AAHAA_N@Z 00418c31 f i libcpmt:wlocale.obj
 0001:00017ddb       ?do_get@?$num_get@GV?$istreambuf_iterator@GU?$char_traits@G@std@@@std@@@std@@MBE?AV?$istreambuf_iterator@GU?$char_traits@G@std@@@2@V32@0AAVios_base@2@AAHAAG@Z 00418ddb f i libcpmt:wlocale.obj
 0001:00017ea7       ?do_get@?$num_get@GV?$istreambuf_iterator@GU?$char_traits@G@std@@@std@@@std@@MBE?AV?$istreambuf_iterator@GU?$char_traits@G@std@@@2@V32@0AAVios_base@2@AAHAAI@Z 00418ea7 f i libcpmt:wlocale.obj
 0001:00017f6f       ?do_get@?$num_get@GV?$istreambuf_iterator@GU?$char_traits@G@std@@@std@@@std@@MBE?AV?$istreambuf_iterator@GU?$char_traits@G@std@@@2@V32@0AAVios_base@2@AAHAAJ@Z 00418f6f f i libcpmt:wlocale.obj
 0001:0001801d       ?do_get@?$num_get@GV?$istreambuf_iterator@GU?$char_traits@G@std@@@std@@@std@@MBE?AV?$istreambuf_iterator@GU?$char_traits@G@std@@@2@V32@0AAVios_base@2@AAHAAK@Z 0041901d f i libcpmt:wlocale.obj
 0001:000180cb       ?do_get@?$num_get@GV?$istreambuf_iterator@GU?$char_traits@G@std@@@std@@@std@@MBE?AV?$istreambuf_iterator@GU?$char_traits@G@std@@@2@V32@0AAVios_base@2@AAHAAM@Z 004190cb f i libcpmt:wlocale.obj
 0001:00018175       ?do_get@?$num_get@GV?$istreambuf_iterator@GU?$char_traits@G@std@@@std@@@std@@MBE?AV?$istreambuf_iterator@GU?$char_traits@G@std@@@2@V32@0AAVios_base@2@AAHAAN@Z 00419175 f i libcpmt:wlocale.obj
 0001:0001821f       ?do_get@?$num_get@GV?$istreambuf_iterator@GU?$char_traits@G@std@@@std@@@std@@MBE?AV?$istreambuf_iterator@GU?$char_traits@G@std@@@2@V32@0AAVios_base@2@AAHAAO@Z 0041921f f i libcpmt:wlocale.obj
 0001:000182c9       ?do_get@?$num_get@GV?$istreambuf_iterator@GU?$char_traits@G@std@@@std@@@std@@MBE?AV?$istreambuf_iterator@GU?$char_traits@G@std@@@2@V32@0AAVios_base@2@AAHAAPAX@Z 004192c9 f i libcpmt:wlocale.obj
 0001:000183c7       ?do_put@?$num_put@GV?$ostreambuf_iterator@GU?$char_traits@G@std@@@std@@@std@@MBE?AV?$ostreambuf_iterator@GU?$char_traits@G@std@@@2@V32@AAVios_base@2@G_N@Z 004193c7 f i libcpmt:wlocale.obj
 0001:0001857a       ?do_put@?$num_put@GV?$ostreambuf_iterator@GU?$char_traits@G@std@@@std@@@std@@MBE?AV?$ostreambuf_iterator@GU?$char_traits@G@std@@@2@V32@AAVios_base@2@GJ@Z 0041957a f i libcpmt:wlocale.obj
 0001:000185d2       ?do_put@?$num_put@GV?$ostreambuf_iterator@GU?$char_traits@G@std@@@std@@@std@@MBE?AV?$ostreambuf_iterator@GU?$char_traits@G@std@@@2@V32@AAVios_base@2@GK@Z 004195d2 f i libcpmt:wlocale.obj
 0001:0001862a       ?do_put@?$num_put@GV?$ostreambuf_iterator@GU?$char_traits@G@std@@@std@@@std@@MBE?AV?$ostreambuf_iterator@GU?$char_traits@G@std@@@2@V32@AAVios_base@2@GN@Z 0041962a f i libcpmt:wlocale.obj
 0001:000186a8       ?do_put@?$num_put@GV?$ostreambuf_iterator@GU?$char_traits@G@std@@@std@@@std@@MBE?AV?$ostreambuf_iterator@GU?$char_traits@G@std@@@2@V32@AAVios_base@2@GO@Z 004196a8 f i libcpmt:wlocale.obj
 0001:00018726       ?do_put@?$num_put@GV?$ostreambuf_iterator@GU?$char_traits@G@std@@@std@@@std@@MBE?AV?$ostreambuf_iterator@GU?$char_traits@G@std@@@2@V32@AAVios_base@2@GPBX@Z 00419726 f i libcpmt:wlocale.obj
 0001:000187f8       ?do_decimal_point@?$numpunct@G@std@@MBEGXZ 004197f8 f i libcpmt:wlocale.obj
 0001:000187fd       ?do_thousands_sep@?$numpunct@G@std@@MBEGXZ 004197fd f i libcpmt:wlocale.obj
 0001:00018802       ?do_grouping@?$numpunct@G@std@@MBE?AV?$basic_string@DU?$char_traits@D@std@@V?$allocator@D@2@@2@XZ 00419802 f i libcpmt:wlocale.obj
 0001:00018838       ?do_falsename@?$numpunct@G@std@@MBE?AV?$basic_string@GU?$char_traits@G@std@@V?$allocator@G@2@@2@XZ 00419838 f i libcpmt:wlocale.obj
 0001:0001886e       ?do_truename@?$numpunct@G@std@@MBE?AV?$basic_string@GU?$char_traits@G@std@@V?$allocator@G@2@@2@XZ 0041986e f i libcpmt:wlocale.obj
 0001:000188a4       ?do_compare@?$collate@G@std@@MBEHPBG000@Z 004198a4 f i libcpmt:wlocale.obj
 0001:000188e7       ?do_transform@?$collate@G@std@@MBE?AV?$basic_string@GU?$char_traits@G@std@@V?$allocator@G@2@@2@PBG0@Z 004198e7 f i libcpmt:wlocale.obj
 0001:000189be       ?do_hash@?$collate@G@std@@MBEJPBG0@Z 004199be f i libcpmt:wlocale.obj
 0001:000189e0       ?do_open@?$messages@G@std@@MBEHABV?$basic_string@DU?$char_traits@D@std@@V?$allocator@D@2@@2@ABVlocale@2@@Z 004199e0 f i libcpmt:wlocale.obj
 0001:000189e5       ?do_get@?$messages@G@std@@MBE?AV?$basic_string@GU?$char_traits@G@std@@V?$allocator@G@2@@2@HHHABV32@@Z 004199e5 f i libcpmt:wlocale.obj
 0001:00018a56       ?do_close@?$messages@G@std@@MBEXH@Z 00419a56 f i libcpmt:wlocale.obj
 0001:00018a59       ?do_get@?$money_get@GV?$istreambuf_iterator@GU?$char_traits@G@std@@@std@@@std@@MBE?AV?$istreambuf_iterator@GU?$char_traits@G@std@@@2@V32@0_NAAVios_base@2@AAHAAO@Z 00419a59 f i libcpmt:wlocale.obj
 0001:00018b8e       ?do_get@?$money_get@GV?$istreambuf_iterator@GU?$char_traits@G@std@@@std@@@std@@MBE?AV?$istreambuf_iterator@GU?$char_traits@G@std@@@2@V32@0_NAAVios_base@2@AAHAAV?$basic_string@GU?$char_traits@G@std@@V?$allocator@G@2@@2@@Z 00419b8e f i libcpmt:wlocale.obj
 0001:00018c18       ?do_put@?$money_put@GV?$ostreambuf_iterator@GU?$char_traits@G@std@@@std@@@std@@MBE?AV?$ostreambuf_iterator@GU?$char_traits@G@std@@@2@V32@_NAAVios_base@2@GO@Z 00419c18 f i libcpmt:wlocale.obj
 0001:00018d4c       ?do_put@?$money_put@GV?$ostreambuf_iterator@GU?$char_traits@G@std@@@std@@@std@@MBE?AV?$ostreambuf_iterator@GU?$char_traits@G@std@@@2@V32@_NAAVios_base@2@GABV?$basic_string@GU?$char_traits@G@std@@V?$allocator@G@2@@2@@Z 00419d4c f i libcpmt:wlocale.obj
 0001:00018e88       ?do_decimal_point@?$_Mpunct@G@std@@MBEGXZ 00419e88 f i libcpmt:wlocale.obj
 0001:00018e8d       ?do_thousands_sep@?$_Mpunct@G@std@@MBEGXZ 00419e8d f i libcpmt:wlocale.obj
 0001:00018e92       ?do_grouping@?$_Mpunct@G@std@@MBE?AV?$basic_string@DU?$char_traits@D@std@@V?$allocator@D@2@@2@XZ 00419e92 f i libcpmt:wlocale.obj
 0001:00018ec8       ?do_curr_symbol@?$_Mpunct@G@std@@MBE?AV?$basic_string@GU?$char_traits@G@std@@V?$allocator@G@2@@2@XZ 00419ec8 f i libcpmt:wlocale.obj
 0001:00018efe       ?do_positive_sign@?$_Mpunct@G@std@@MBE?AV?$basic_string@GU?$char_traits@G@std@@V?$allocator@G@2@@2@XZ 00419efe f i libcpmt:wlocale.obj
 0001:00018f34       ?do_negative_sign@?$_Mpunct@G@std@@MBE?AV?$basic_string@GU?$char_traits@G@std@@V?$allocator@G@2@@2@XZ 00419f34 f i libcpmt:wlocale.obj
 0001:00018f6a       ?do_frac_digits@?$_Mpunct@G@std@@MBEHXZ 00419f6a f i libcpmt:wlocale.obj
 0001:00018f6e       ?do_pos_format@?$_Mpunct@G@std@@MBE?AUpattern@money_base@2@XZ 00419f6e f i libcpmt:wlocale.obj
 0001:00018f7a       ?do_neg_format@?$_Mpunct@G@std@@MBE?AUpattern@money_base@2@XZ 00419f7a f i libcpmt:wlocale.obj
 0001:00018f86       ?do_date_order@?$time_get@GV?$istreambuf_iterator@GU?$char_traits@G@std@@@std@@@std@@MBEHXZ 00419f86 f i libcpmt:wlocale.obj
 0001:00018f8a       ?do_get_time@?$time_get@GV?$istreambuf_iterator@GU?$char_traits@G@std@@@std@@@std@@MBE?AV?$istreambuf_iterator@GU?$char_traits@G@std@@@2@V32@0AAVios_base@2@AAHPAUtm@@@Z 00419f8a f i libcpmt:wlocale.obj
 0001:0001904e       ?do_get_date@?$time_get@GV?$istreambuf_iterator@GU?$char_traits@G@std@@@std@@@std@@MBE?AV?$istreambuf_iterator@GU?$char_traits@G@std@@@2@V32@0AAVios_base@2@AAHPAUtm@@@Z 0041a04e f i libcpmt:wlocale.obj
 0001:0001917f       ?do_get_weekday@?$time_get@GV?$istreambuf_iterator@GU?$char_traits@G@std@@@std@@@std@@MBE?AV?$istreambuf_iterator@GU?$char_traits@G@std@@@2@V32@0AAVios_base@2@AAHPAUtm@@@Z 0041a17f f i libcpmt:wlocale.obj
 0001:000191bd       ?do_get_monthname@?$time_get@GV?$istreambuf_iterator@GU?$char_traits@G@std@@@std@@@std@@MBE?AV?$istreambuf_iterator@GU?$char_traits@G@std@@@2@V32@0AAVios_base@2@AAHPAUtm@@@Z 0041a1bd f i libcpmt:wlocale.obj
 0001:000191fb       ?do_get_year@?$time_get@GV?$istreambuf_iterator@GU?$char_traits@G@std@@@std@@@std@@MBE?AV?$istreambuf_iterator@GU?$char_traits@G@std@@@2@V32@0AAVios_base@2@AAHPAUtm@@@Z 0041a1fb f i libcpmt:wlocale.obj
 0001:00019261       ??_E?$ctype@G@std@@UAEPAXI@Z 0041a261 f i libcpmt:wlocale.obj
 0001:00019261       ??_G?$ctype@G@std@@UAEPAXI@Z 0041a261 f i libcpmt:wlocale.obj
 0001:0001927d       ??1?$ctype@G@std@@UAE@XZ   0041a27d f i libcpmt:wlocale.obj
 0001:0001929d       ??_G?$time_put@GV?$ostreambuf_iterator@GU?$char_traits@G@std@@@std@@@std@@UAEPAXI@Z 0041a29d f i libcpmt:wlocale.obj
 0001:0001929d       ??_E?$time_put@GV?$ostreambuf_iterator@GU?$char_traits@G@std@@@std@@@std@@UAEPAXI@Z 0041a29d f i libcpmt:wlocale.obj
 0001:000192b9       ??1?$time_put@GV?$ostreambuf_iterator@GU?$char_traits@G@std@@@std@@@std@@UAE@XZ 0041a2b9 f i libcpmt:wlocale.obj
 0001:000192d3       ??_G?$num_get@GV?$istreambuf_iterator@GU?$char_traits@G@std@@@std@@@std@@UAEPAXI@Z 0041a2d3 f i libcpmt:wlocale.obj
 0001:000192d3       ??_E?$num_get@GV?$istreambuf_iterator@GU?$char_traits@G@std@@@std@@@std@@UAEPAXI@Z 0041a2d3 f i libcpmt:wlocale.obj
 0001:000192ef       ??1?$num_get@GV?$istreambuf_iterator@GU?$char_traits@G@std@@@std@@@std@@UAE@XZ 0041a2ef f i libcpmt:wlocale.obj
 0001:000192f6       ??_G?$num_put@GV?$ostreambuf_iterator@GU?$char_traits@G@std@@@std@@@std@@UAEPAXI@Z 0041a2f6 f i libcpmt:wlocale.obj
 0001:000192f6       ??_E?$num_put@GV?$ostreambuf_iterator@GU?$char_traits@G@std@@@std@@@std@@UAEPAXI@Z 0041a2f6 f i libcpmt:wlocale.obj
 0001:00019312       ??1?$num_put@GV?$ostreambuf_iterator@GU?$char_traits@G@std@@@std@@@std@@UAE@XZ 0041a312 f i libcpmt:wlocale.obj
 0001:00019319       ??_E?$numpunct@G@std@@UAEPAXI@Z 0041a319 f i libcpmt:wlocale.obj
 0001:00019319       ??_G?$numpunct@G@std@@UAEPAXI@Z 0041a319 f i libcpmt:wlocale.obj
 0001:00019335       ??1?$numpunct@G@std@@UAE@XZ 0041a335 f i libcpmt:wlocale.obj
 0001:00019361       ??_E?$collate@G@std@@UAEPAXI@Z 0041a361 f i libcpmt:wlocale.obj
 0001:00019361       ??_G?$collate@G@std@@UAEPAXI@Z 0041a361 f i libcpmt:wlocale.obj
 0001:0001937d       ??1?$collate@G@std@@UAE@XZ 0041a37d f i libcpmt:wlocale.obj
 0001:00019384       ??_G?$messages@G@std@@UAEPAXI@Z 0041a384 f i libcpmt:wlocale.obj
 0001:00019384       ??_E?$messages@G@std@@UAEPAXI@Z 0041a384 f i libcpmt:wlocale.obj
 0001:000193a0       ??1?$messages@G@std@@UAE@XZ 0041a3a0 f i libcpmt:wlocale.obj
 0001:000193c3       ??_E?$money_get@GV?$istreambuf_iterator@GU?$char_traits@G@std@@@std@@@std@@UAEPAXI@Z 0041a3c3 f i libcpmt:wlocale.obj
 0001:000193c3       ??_G?$money_get@GV?$istreambuf_iterator@GU?$char_traits@G@std@@@std@@@std@@UAEPAXI@Z 0041a3c3 f i libcpmt:wlocale.obj
 0001:000193df       ??1?$money_get@GV?$istreambuf_iterator@GU?$char_traits@G@std@@@std@@@std@@UAE@XZ 0041a3df f i libcpmt:wlocale.obj
 0001:000193e6       ??_E?$money_put@GV?$ostreambuf_iterator@GU?$char_traits@G@std@@@std@@@std@@UAEPAXI@Z 0041a3e6 f i libcpmt:wlocale.obj
 0001:000193e6       ??_G?$money_put@GV?$ostreambuf_iterator@GU?$char_traits@G@std@@@std@@@std@@UAEPAXI@Z 0041a3e6 f i libcpmt:wlocale.obj
 0001:00019402       ??1?$money_put@GV?$ostreambuf_iterator@GU?$char_traits@G@std@@@std@@@std@@UAE@XZ 0041a402 f i libcpmt:wlocale.obj
 0001:00019409       ??_G?$moneypunct@G$0A@@std@@UAEPAXI@Z 0041a409 f i libcpmt:wlocale.obj
 0001:00019409       ??_E?$moneypunct@G$0A@@std@@UAEPAXI@Z 0041a409 f i libcpmt:wlocale.obj
 0001:00019425       ??_G?$moneypunct@G$00@std@@UAEPAXI@Z 0041a425 f i libcpmt:wlocale.obj
 0001:00019425       ??_E?$moneypunct@G$00@std@@UAEPAXI@Z 0041a425 f i libcpmt:wlocale.obj
 0001:00019441       ??_G?$time_get@GV?$istreambuf_iterator@GU?$char_traits@G@std@@@std@@@std@@UAEPAXI@Z 0041a441 f i libcpmt:wlocale.obj
 0001:00019441       ??_E?$time_get@GV?$istreambuf_iterator@GU?$char_traits@G@std@@@std@@@std@@UAEPAXI@Z 0041a441 f i libcpmt:wlocale.obj
 0001:0001945d       ??1?$time_get@GV?$istreambuf_iterator@GU?$char_traits@G@std@@@std@@@std@@UAE@XZ 0041a45d f i libcpmt:wlocale.obj
 0001:00019480       ??1?$moneypunct@G$0A@@std@@UAE@XZ 0041a480 f i libcpmt:wlocale.obj
 0001:00019485       ??1?$_Mpunct@G@std@@UAE@XZ 0041a485 f i libcpmt:wlocale.obj
 0001:000194b9       ??_E?$_Mpunct@G@std@@UAEPAXI@Z 0041a4b9 f i libcpmt:wlocale.obj
 0001:000194b9       ??_G?$_Mpunct@G@std@@UAEPAXI@Z 0041a4b9 f i libcpmt:wlocale.obj
 0001:000194d5       ??1?$moneypunct@G$00@std@@UAE@XZ 0041a4d5 f i libcpmt:wlocale.obj
 0001:000194da       ?_Init@?$time_put@GV?$ostreambuf_iterator@GU?$char_traits@G@std@@@std@@@std@@IAEXABV_Locinfo@2@@Z 0041a4da f i libcpmt:wlocale.obj
 0001:00019502       ?_Gettnames@_Locinfo@std@@QBE?AV_Timevec@2@XZ 0041a502 f i libcpmt:wlocale.obj
 0001:0001951a       ??4?$ostreambuf_iterator@GU?$char_traits@G@std@@@std@@QAEAAV01@G@Z 0041a51a f i libcpmt:wlocale.obj
 0001:0001953c       ?sputc@?$basic_streambuf@GU?$char_traits@G@std@@@std@@QAEGG@Z 0041a53c f i libcpmt:wlocale.obj
 0001:0001956d       ?_Getifld@?$num_get@GV?$istreambuf_iterator@GU?$char_traits@G@std@@@std@@@std@@CAHPADAAV?$istreambuf_iterator@GU?$char_traits@G@std@@@2@1HABVlocale@2@@Z 0041a56d f i libcpmt:wlocale.obj
 0001:0001993c       ?_Getffld@?$num_get@GV?$istreambuf_iterator@GU?$char_traits@G@std@@@std@@@std@@CAHPADAAV?$istreambuf_iterator@GU?$char_traits@G@std@@@2@1ABVlocale@2@@Z 0041a93c f i libcpmt:wlocale.obj
 0001:00019c87       ?_Ffmt@?$num_put@GV?$ostreambuf_iterator@GU?$char_traits@G@std@@@std@@@std@@KAPADPADDH@Z 0041ac87 f i libcpmt:wlocale.obj
 0001:00019ce5       ?_Fput@?$num_put@GV?$ostreambuf_iterator@GU?$char_traits@G@std@@@std@@@std@@KA?AV?$ostreambuf_iterator@GU?$char_traits@G@std@@@2@V32@AAVios_base@2@GPBDII@Z 0041ace5 f i libcpmt:wlocale.obj
 0001:00019fca       ?_Ifmt@?$num_put@GV?$ostreambuf_iterator@GU?$char_traits@G@std@@@std@@@std@@KAPADPADDH@Z 0041afca f i libcpmt:wlocale.obj
 0001:0001a024       ?_Iput@?$num_put@GV?$ostreambuf_iterator@GU?$char_traits@G@std@@@std@@@std@@KA?AV?$ostreambuf_iterator@GU?$char_traits@G@std@@@2@V32@AAVios_base@2@GPADI@Z 0041b024 f i libcpmt:wlocale.obj
 0001:0001a2d2       ?falsename@?$numpunct@G@std@@QBE?AV?$basic_string@GU?$char_traits@G@std@@V?$allocator@G@2@@2@XZ 0041b2d2 f i libcpmt:wlocale.obj
 0001:0001a2e9       ?truename@?$numpunct@G@std@@QBE?AV?$basic_string@GU?$char_traits@G@std@@V?$allocator@G@2@@2@XZ 0041b2e9 f i libcpmt:wlocale.obj
 0001:0001a300       ?_Init@?$numpunct@G@std@@IAEXABV_Locinfo@2@@Z 0041b300 f i libcpmt:wlocale.obj
 0001:0001a35d       ?_Init@?$messages@G@std@@IAEXABV_Locinfo@2@@Z 0041b35d f i libcpmt:wlocale.obj
 0001:0001a385       ?_Getmfld@?$money_get@GV?$istreambuf_iterator@GU?$char_traits@G@std@@@std@@@std@@ABE?AV?$basic_string@GU?$char_traits@G@std@@V?$allocator@G@2@@2@AAV?$istreambuf_iterator@GU?$char_traits@G@std@@@2@0_NAAVios_base@2@@Z 0041b385 f i libcpmt:wlocale.obj
 0001:0001ac33       ?_Putmfld@?$money_put@GV?$ostreambuf_iterator@GU?$char_traits@G@std@@@std@@@std@@ABE?AV?$ostreambuf_iterator@GU?$char_traits@G@std@@@2@V32@_NAAVios_base@2@G1V?$basic_string@GU?$char_traits@G@std@@V?$allocator@G@2@@2@@Z 0041bc33 f i libcpmt:wlocale.obj
 0001:0001b201       ??1?$basic_string@GU?$char_traits@G@std@@V?$allocator@G@2@@std@@QAE@XZ 0041c201 f i libcpmt:wlocale.obj
 0001:0001b209       ?append@?$basic_string@GU?$char_traits@G@std@@V?$allocator@G@2@@std@@QAEAAV12@IG@Z 0041c209 f i libcpmt:wlocale.obj
 0001:0001b272       ?resize@?$basic_string@GU?$char_traits@G@std@@V?$allocator@G@2@@std@@QAEXI@Z 0041c272 f i libcpmt:wlocale.obj
 0001:0001b298       ??0?$_Mpunct@G@std@@QAE@ABV_Locinfo@1@I_N@Z 0041c298 f i libcpmt:wlocale.obj
 0001:0001b2d8       ??1money_base@std@@UAE@XZ  0041c2d8 f i libcpmt:wlocale.obj
 0001:0001b2df       ?_Init@?$time_get@GV?$istreambuf_iterator@GU?$char_traits@G@std@@@std@@@std@@IAEXABV_Locinfo@2@@Z 0041c2df f i libcpmt:wlocale.obj
 0001:0001b312       ?_Getdays@_Locinfo@std@@QBEPBDXZ 0041c312 f i libcpmt:wlocale.obj
 0001:0001b358       ?_Getmonths@_Locinfo@std@@QBEPBDXZ 0041c358 f i libcpmt:wlocale.obj
 0001:0001b39f       ?_Getint@?$time_get@GV?$istreambuf_iterator@GU?$char_traits@G@std@@@std@@@std@@CAHAAV?$istreambuf_iterator@GU?$char_traits@G@std@@@2@0HHAAH@Z 0041c39f f i libcpmt:wlocale.obj
 0001:0001b4f6       ?_Inc@?$istreambuf_iterator@GU?$char_traits@G@std@@@std@@AAEXXZ 0041c4f6 f i libcpmt:wlocale.obj
 0001:0001b519       ?sbumpc@?$basic_streambuf@GU?$char_traits@G@std@@@std@@QAEGXZ 0041c519 f i libcpmt:wlocale.obj
 0001:0001b53d       ?_Peek@?$istreambuf_iterator@GU?$char_traits@G@std@@@std@@AAEGXZ 0041c53d f i libcpmt:wlocale.obj
 0001:0001b564       ?sgetc@?$basic_streambuf@GU?$char_traits@G@std@@@std@@QAEGXZ 0041c564 f i libcpmt:wlocale.obj
 0001:0001b583       ?grouping@?$numpunct@G@std@@QBE?AV?$basic_string@DU?$char_traits@D@std@@V?$allocator@D@2@@2@XZ 0041c583 f i libcpmt:wlocale.obj
 0001:0001b59a       ?assign@?$basic_string@GU?$char_traits@G@std@@V?$allocator@G@2@@std@@QAEAAV12@ABV12@II@Z 0041c59a f i libcpmt:wlocale.obj
 0001:0001b678       ?assign@?$basic_string@GU?$char_traits@G@std@@V?$allocator@G@2@@std@@QAEAAV12@PBGI@Z 0041c678 f i libcpmt:wlocale.obj
 0001:0001b6ba       ?assign@?$basic_string@GU?$char_traits@G@std@@V?$allocator@G@2@@std@@QAEAAV12@IG@Z 0041c6ba f i libcpmt:wlocale.obj
 0001:0001b712       ?insert@?$basic_string@GU?$char_traits@G@std@@V?$allocator@G@2@@std@@QAEAAV12@IIG@Z 0041c712 f i libcpmt:wlocale.obj
 0001:0001b7a7       _wmemmove                  0041c7a7 f i libcpmt:wlocale.obj
 0001:0001b7ec       ?erase@?$basic_string@GU?$char_traits@G@std@@V?$allocator@G@2@@std@@QAEAAV12@II@Z 0041c7ec f i libcpmt:wlocale.obj
 0001:0001b858       ?_Freeze@?$basic_string@GU?$char_traits@G@std@@V?$allocator@G@2@@std@@AAEXXZ 0041c858 f i libcpmt:wlocale.obj
 0001:0001b884       ?_Grow@?$basic_string@GU?$char_traits@G@std@@V?$allocator@G@2@@std@@AAE_NI_N@Z 0041c884 f i libcpmt:wlocale.obj
 0001:0001b90d       ?_Tidy@?$basic_string@GU?$char_traits@G@std@@V?$allocator@G@2@@std@@AAEX_N@Z 0041c90d f i libcpmt:wlocale.obj
 0001:0001b94a       ?grouping@?$_Mpunct@G@std@@QBE?AV?$basic_string@DU?$char_traits@D@std@@V?$allocator@D@2@@2@XZ 0041c94a f i libcpmt:wlocale.obj
 0001:0001b961       ?curr_symbol@?$_Mpunct@G@std@@QBE?AV?$basic_string@GU?$char_traits@G@std@@V?$allocator@G@2@@2@XZ 0041c961 f i libcpmt:wlocale.obj
 0001:0001b978       ?positive_sign@?$_Mpunct@G@std@@QBE?AV?$basic_string@GU?$char_traits@G@std@@V?$allocator@G@2@@2@XZ 0041c978 f i libcpmt:wlocale.obj
 0001:0001b98f       ?negative_sign@?$_Mpunct@G@std@@QBE?AV?$basic_string@GU?$char_traits@G@std@@V?$allocator@G@2@@2@XZ 0041c98f f i libcpmt:wlocale.obj
 0001:0001b9a6       ?_Init@?$_Mpunct@G@std@@IAEXABV_Locinfo@2@@Z 0041c9a6 f i libcpmt:wlocale.obj
 0001:0001ba91       ?append@?$basic_string@GU?$char_traits@G@std@@V?$allocator@G@2@@std@@QAEAAV12@ABV12@II@Z 0041ca91 f i libcpmt:wlocale.obj
 0001:0001bb23       ?_Copy@?$basic_string@GU?$char_traits@G@std@@V?$allocator@G@2@@std@@AAEXI@Z 0041cb23 f i libcpmt:wlocale.obj
 0001:0001bbf5       ?_Split@?$basic_string@GU?$char_traits@G@std@@V?$allocator@G@2@@std@@AAEXXZ 0041cbf5 f i libcpmt:wlocale.obj
 0001:0001bc25       ?_Makpat@?$_Mpunct@G@std@@AAEXAAUpattern@money_base@2@DDD@Z 0041cc25 f i libcpmt:wlocale.obj
 0001:0001bc86       ?use_facet@std@@YAABV?$ctype@G@1@ABVlocale@1@PBV21@_N@Z 0041cc86 f i libcpmt:wlocale.obj
 0001:0001bd4a       ?use_facet@std@@YAABV?$num_get@GV?$istreambuf_iterator@GU?$char_traits@G@std@@@std@@@1@ABVlocale@1@PBV21@_N@Z 0041cd4a f i libcpmt:wlocale.obj
 0001:0001be26       ?use_facet@std@@YAABV?$num_put@GV?$ostreambuf_iterator@GU?$char_traits@G@std@@@std@@@1@ABVlocale@1@PBV21@_N@Z 0041ce26 f i libcpmt:wlocale.obj
 0001:0001bf02       ?use_facet@std@@YAABV?$numpunct@G@1@ABVlocale@1@PBV21@_N@Z 0041cf02 f i libcpmt:wlocale.obj
 0001:0001bfc6       ?use_facet@std@@YAABV?$collate@G@1@ABVlocale@1@PBV21@_N@Z 0041cfc6 f i libcpmt:wlocale.obj
 0001:0001c08a       ?use_facet@std@@YAABV?$messages@G@1@ABVlocale@1@PBV21@_N@Z 0041d08a f i libcpmt:wlocale.obj
 0001:0001c14e       ?use_facet@std@@YAABV?$money_get@GV?$istreambuf_iterator@GU?$char_traits@G@std@@@std@@@1@ABVlocale@1@PBV21@_N@Z 0041d14e f i libcpmt:wlocale.obj
 0001:0001c22a       ?use_facet@std@@YAABV?$money_put@GV?$ostreambuf_iterator@GU?$char_traits@G@std@@@std@@@1@ABVlocale@1@PBV21@_N@Z 0041d22a f i libcpmt:wlocale.obj
 0001:0001c306       ?use_facet@std@@YAABV?$moneypunct@G$0A@@1@ABVlocale@1@PBV21@_N@Z 0041d306 f i libcpmt:wlocale.obj
 0001:0001c3d5       ?use_facet@std@@YAABV?$moneypunct@G$00@1@ABVlocale@1@PBV21@_N@Z 0041d3d5 f i libcpmt:wlocale.obj
 0001:0001c4a4       ?use_facet@std@@YAABV?$time_get@GV?$istreambuf_iterator@GU?$char_traits@G@std@@@std@@@1@ABVlocale@1@PBV21@_N@Z 0041d4a4 f i libcpmt:wlocale.obj
 0001:0001c568       ?use_facet@std@@YAABV?$time_put@GV?$ostreambuf_iterator@GU?$char_traits@G@std@@@std@@@1@ABVlocale@1@PBV21@_N@Z 0041d568 f i libcpmt:wlocale.obj
 0001:0001c62c       ?use_facet@std@@YAABV?$codecvt@GDH@1@ABVlocale@1@PBV21@_N@Z 0041d62c f i libcpmt:wlocale.obj
 0001:0001c6f0       ??0?$codecvt@GDH@std@@QAE@I@Z 0041d6f0 f i libcpmt:wlocale.obj
 0001:0001c744       ?_Getloctxt@std@@YAHAAV?$istreambuf_iterator@GU?$char_traits@G@std@@@1@0IPBG@Z 0041d744 f i libcpmt:wlocale.obj
 0001:0001c910       ?_Maklocstr@std@@YAPAGPBDPAG@Z 0041d910 f i libcpmt:wlocale.obj
 0001:0001c94e       ??0?$ctype@G@std@@QAE@I@Z  0041d94e f i libcpmt:wlocale.obj
 0001:0001c9ae       ??0?$time_put@GV?$ostreambuf_iterator@GU?$char_traits@G@std@@@std@@@std@@QAE@I@Z 0041d9ae f i libcpmt:wlocale.obj
 0001:0001ca1b       ?equal@?$istreambuf_iterator@GU?$char_traits@G@std@@@std@@QBE_NABV12@@Z 0041da1b f i libcpmt:wlocale.obj
 0001:0001ca5a       ??0?$numpunct@G@std@@QAE@I@Z 0041da5a f i libcpmt:wlocale.obj
 0001:0001cab3       ??0?$collate@G@std@@QAE@I@Z 0041dab3 f i libcpmt:wlocale.obj
 0001:0001cb07       ??0?$messages@G@std@@QAE@I@Z 0041db07 f i libcpmt:wlocale.obj
 0001:0001cb79       ??0?$time_get@GV?$istreambuf_iterator@GU?$char_traits@G@std@@@std@@@std@@QAE@I@Z 0041db79 f i libcpmt:wlocale.obj
 0001:0001cbd2       ?_Save@?$_Tidyfac@V?$ctype@G@std@@@std@@SAPAV?$ctype@G@2@PAV32@@Z 0041dbd2 f i libcpmt:wlocale.obj
 0001:0001cc20       ?_Save@?$_Tidyfac@V?$num_get@GV?$istreambuf_iterator@GU?$char_traits@G@std@@@std@@@std@@@std@@SAPAV?$num_get@GV?$istreambuf_iterator@GU?$char_traits@G@std@@@std@@@2@PAV32@@Z 0041dc20 f i libcpmt:wlocale.obj
 0001:0001cc6e       ?_Save@?$_Tidyfac@V?$num_put@GV?$ostreambuf_iterator@GU?$char_traits@G@std@@@std@@@std@@@std@@SAPAV?$num_put@GV?$ostreambuf_iterator@GU?$char_traits@G@std@@@std@@@2@PAV32@@Z 0041dc6e f i libcpmt:wlocale.obj
 0001:0001ccbc       ?_Save@?$_Tidyfac@V?$numpunct@G@std@@@std@@SAPAV?$numpunct@G@2@PAV32@@Z 0041dcbc f i libcpmt:wlocale.obj
 0001:0001cd0a       ?_Save@?$_Tidyfac@V?$collate@G@std@@@std@@SAPAV?$collate@G@2@PAV32@@Z 0041dd0a f i libcpmt:wlocale.obj
 0001:0001cd58       ?_Save@?$_Tidyfac@V?$messages@G@std@@@std@@SAPAV?$messages@G@2@PAV32@@Z 0041dd58 f i libcpmt:wlocale.obj
 0001:0001cda6       ?_Save@?$_Tidyfac@V?$money_get@GV?$istreambuf_iterator@GU?$char_traits@G@std@@@std@@@std@@@std@@SAPAV?$money_get@GV?$istreambuf_iterator@GU?$char_traits@G@std@@@std@@@2@PAV32@@Z 0041dda6 f i libcpmt:wlocale.obj
 0001:0001cdf4       ?_Save@?$_Tidyfac@V?$money_put@GV?$ostreambuf_iterator@GU?$char_traits@G@std@@@std@@@std@@@std@@SAPAV?$money_put@GV?$ostreambuf_iterator@GU?$char_traits@G@std@@@std@@@2@PAV32@@Z 0041ddf4 f i libcpmt:wlocale.obj
 0001:0001ce42       ?_Save@?$_Tidyfac@V?$moneypunct@G$0A@@std@@@std@@SAPAV?$moneypunct@G$0A@@2@PAV32@@Z 0041de42 f i libcpmt:wlocale.obj
 0001:0001ce90       ?_Save@?$_Tidyfac@V?$moneypunct@G$00@std@@@std@@SAPAV?$moneypunct@G$00@2@PAV32@@Z 0041de90 f i libcpmt:wlocale.obj
 0001:0001cede       ?_Save@?$_Tidyfac@V?$time_get@GV?$istreambuf_iterator@GU?$char_traits@G@std@@@std@@@std@@@std@@SAPAV?$time_get@GV?$istreambuf_iterator@GU?$char_traits@G@std@@@std@@@2@PAV32@@Z 0041dede f i libcpmt:wlocale.obj
 0001:0001cf2c       ?_Save@?$_Tidyfac@V?$time_put@GV?$ostreambuf_iterator@GU?$char_traits@G@std@@@std@@@std@@@std@@SAPAV?$time_put@GV?$ostreambuf_iterator@GU?$char_traits@G@std@@@std@@@2@PAV32@@Z 0041df2c f i libcpmt:wlocale.obj
 0001:0001cf7a       ?_Save@?$_Tidyfac@V?$codecvt@GDH@std@@@std@@SAPAV?$codecvt@GDH@2@PAV32@@Z 0041df7a f i libcpmt:wlocale.obj
 0001:0001cfc8       ??0?$_Mpunct@G@std@@QAE@I_N@Z 0041dfc8 f i libcpmt:wlocale.obj
 0001:0001d027       ?_Tidy@?$_Tidyfac@V?$ctype@G@std@@@std@@SAXXZ 0041e027 f i libcpmt:wlocale.obj
 0001:0001d074       ?_Tidy@?$_Tidyfac@V?$num_get@GV?$istreambuf_iterator@GU?$char_traits@G@std@@@std@@@std@@@std@@SAXXZ 0041e074 f i libcpmt:wlocale.obj
 0001:0001d0c1       ?_Tidy@?$_Tidyfac@V?$num_put@GV?$ostreambuf_iterator@GU?$char_traits@G@std@@@std@@@std@@@std@@SAXXZ 0041e0c1 f i libcpmt:wlocale.obj
 0001:0001d10e       ?_Tidy@?$_Tidyfac@V?$numpunct@G@std@@@std@@SAXXZ 0041e10e f i libcpmt:wlocale.obj
 0001:0001d15b       ?_Tidy@?$_Tidyfac@V?$collate@G@std@@@std@@SAXXZ 0041e15b f i libcpmt:wlocale.obj
 0001:0001d1a8       ?_Tidy@?$_Tidyfac@V?$messages@G@std@@@std@@SAXXZ 0041e1a8 f i libcpmt:wlocale.obj
 0001:0001d1f5       ?_Tidy@?$_Tidyfac@V?$money_get@GV?$istreambuf_iterator@GU?$char_traits@G@std@@@std@@@std@@@std@@SAXXZ 0041e1f5 f i libcpmt:wlocale.obj
 0001:0001d242       ?_Tidy@?$_Tidyfac@V?$money_put@GV?$ostreambuf_iterator@GU?$char_traits@G@std@@@std@@@std@@@std@@SAXXZ 0041e242 f i libcpmt:wlocale.obj
 0001:0001d28f       ?_Tidy@?$_Tidyfac@V?$moneypunct@G$0A@@std@@@std@@SAXXZ 0041e28f f i libcpmt:wlocale.obj
 0001:0001d2dc       ?_Tidy@?$_Tidyfac@V?$moneypunct@G$00@std@@@std@@SAXXZ 0041e2dc f i libcpmt:wlocale.obj
 0001:0001d329       ?_Tidy@?$_Tidyfac@V?$time_get@GV?$istreambuf_iterator@GU?$char_traits@G@std@@@std@@@std@@@std@@SAXXZ 0041e329 f i libcpmt:wlocale.obj
 0001:0001d376       ?_Tidy@?$_Tidyfac@V?$time_put@GV?$ostreambuf_iterator@GU?$char_traits@G@std@@@std@@@std@@@std@@SAXXZ 0041e376 f i libcpmt:wlocale.obj
 0001:0001d3c3       ?_Tidy@?$_Tidyfac@V?$codecvt@GDH@std@@@std@@SAXXZ 0041e3c3 f i libcpmt:wlocale.obj
 0001:0001d431       ?_Makexloc@_Locimp@locale@std@@CAXABV_Locinfo@3@HPAV123@PBV23@@Z 0041e431 f   libcpmt:xlocale.obj
 0001:0001d789       ?do_compare@?$collate@D@std@@MBEHPBD000@Z 0041e789 f i libcpmt:xlocale.obj
 0001:0001d7c7       ?do_transform@?$collate@D@std@@MBE?AV?$basic_string@DU?$char_traits@D@std@@V?$allocator@D@2@@2@PBD0@Z 0041e7c7 f i libcpmt:xlocale.obj
 0001:0001d896       ?do_hash@?$collate@D@std@@MBEJPBD0@Z 0041e896 f i libcpmt:xlocale.obj
 0001:0001d8b7       ?do_open@?$messages@D@std@@MBEHABV?$basic_string@DU?$char_traits@D@std@@V?$allocator@D@2@@2@ABVlocale@2@@Z 0041e8b7 f i libcpmt:xlocale.obj
 0001:0001d8bc       ?do_get@?$messages@D@std@@MBE?AV?$basic_string@DU?$char_traits@D@std@@V?$allocator@D@2@@2@HHHABV32@@Z 0041e8bc f i libcpmt:xlocale.obj
 0001:0001d92d       ?do_close@?$messages@D@std@@MBEXH@Z 0041e92d f i libcpmt:xlocale.obj
 0001:0001d930       ?do_get@?$money_get@DV?$istreambuf_iterator@DU?$char_traits@D@std@@@std@@@std@@MBE?AV?$istreambuf_iterator@DU?$char_traits@D@std@@@2@V32@0_NAAVios_base@2@AAHAAO@Z 0041e930 f i libcpmt:xlocale.obj
 0001:0001da5e       ?do_get@?$money_get@DV?$istreambuf_iterator@DU?$char_traits@D@std@@@std@@@std@@MBE?AV?$istreambuf_iterator@DU?$char_traits@D@std@@@2@V32@0_NAAVios_base@2@AAHAAV?$basic_string@DU?$char_traits@D@std@@V?$allocator@D@2@@2@@Z 0041ea5e f i libcpmt:xlocale.obj
 0001:0001dae8       ?do_put@?$money_put@DV?$ostreambuf_iterator@DU?$char_traits@D@std@@@std@@@std@@MBE?AV?$ostreambuf_iterator@DU?$char_traits@D@std@@@2@V32@_NAAVios_base@2@DO@Z 0041eae8 f i libcpmt:xlocale.obj
 0001:0001dc12       ?do_put@?$money_put@DV?$ostreambuf_iterator@DU?$char_traits@D@std@@@std@@@std@@MBE?AV?$ostreambuf_iterator@DU?$char_traits@D@std@@@2@V32@_NAAVios_base@2@DABV?$basic_string@DU?$char_traits@D@std@@V?$allocator@D@2@@2@@Z 0041ec12 f i libcpmt:xlocale.obj
 0001:0001dd2a       ?do_decimal_point@?$_Mpunct@D@std@@MBEDXZ 0041ed2a f i libcpmt:xlocale.obj
 0001:0001dd2e       ?do_thousands_sep@?$_Mpunct@D@std@@MBEDXZ 0041ed2e f i libcpmt:xlocale.obj
 0001:0001dd32       ?do_grouping@?$_Mpunct@D@std@@MBE?AV?$basic_string@DU?$char_traits@D@std@@V?$allocator@D@2@@2@XZ 0041ed32 f i libcpmt:xlocale.obj
 0001:0001dd68       ?do_curr_symbol@?$_Mpunct@D@std@@MBE?AV?$basic_string@DU?$char_traits@D@std@@V?$allocator@D@2@@2@XZ 0041ed68 f i libcpmt:xlocale.obj
 0001:0001dd9e       ?do_positive_sign@?$_Mpunct@D@std@@MBE?AV?$basic_string@DU?$char_traits@D@std@@V?$allocator@D@2@@2@XZ 0041ed9e f i libcpmt:xlocale.obj
 0001:0001ddd4       ?do_negative_sign@?$_Mpunct@D@std@@MBE?AV?$basic_string@DU?$char_traits@D@std@@V?$allocator@D@2@@2@XZ 0041edd4 f i libcpmt:xlocale.obj
 0001:0001de0a       ?do_frac_digits@?$_Mpunct@D@std@@MBEHXZ 0041ee0a f i libcpmt:xlocale.obj
 0001:0001de0e       ?do_pos_format@?$_Mpunct@D@std@@MBE?AUpattern@money_base@2@XZ 0041ee0e f i libcpmt:xlocale.obj
 0001:0001de1a       ?do_neg_format@?$_Mpunct@D@std@@MBE?AUpattern@money_base@2@XZ 0041ee1a f i libcpmt:xlocale.obj
 0001:0001de26       ?do_date_order@?$time_get@DV?$istreambuf_iterator@DU?$char_traits@D@std@@@std@@@std@@MBEHXZ 0041ee26 f i libcpmt:xlocale.obj
 0001:0001de2a       ?do_get_time@?$time_get@DV?$istreambuf_iterator@DU?$char_traits@D@std@@@std@@@std@@MBE?AV?$istreambuf_iterator@DU?$char_traits@D@std@@@2@V32@0AAVios_base@2@AAHPAUtm@@@Z 0041ee2a f i libcpmt:xlocale.obj
 0001:0001dedb       ?do_get_date@?$time_get@DV?$istreambuf_iterator@DU?$char_traits@D@std@@@std@@@std@@MBE?AV?$istreambuf_iterator@DU?$char_traits@D@std@@@2@V32@0AAVios_base@2@AAHPAUtm@@@Z 0041eedb f i libcpmt:xlocale.obj
 0001:0001dff0       ?do_get_weekday@?$time_get@DV?$istreambuf_iterator@DU?$char_traits@D@std@@@std@@@std@@MBE?AV?$istreambuf_iterator@DU?$char_traits@D@std@@@2@V32@0AAVios_base@2@AAHPAUtm@@@Z 0041eff0 f i libcpmt:xlocale.obj
 0001:0001e02e       ?do_get_monthname@?$time_get@DV?$istreambuf_iterator@DU?$char_traits@D@std@@@std@@@std@@MBE?AV?$istreambuf_iterator@DU?$char_traits@D@std@@@2@V32@0AAVios_base@2@AAHPAUtm@@@Z 0041f02e f i libcpmt:xlocale.obj
 0001:0001e06c       ?do_get_year@?$time_get@DV?$istreambuf_iterator@DU?$char_traits@D@std@@@std@@@std@@MBE?AV?$istreambuf_iterator@DU?$char_traits@D@std@@@2@V32@0AAVios_base@2@AAHPAUtm@@@Z 0041f06c f i libcpmt:xlocale.obj
 0001:0001e0d2       ?do_put@?$time_put@DV?$ostreambuf_iterator@DU?$char_traits@D@std@@@std@@@std@@MBE?AV?$ostreambuf_iterator@DU?$char_traits@D@std@@@2@V32@AAVios_base@2@PBUtm@@DD@Z 0041f0d2 f i libcpmt:xlocale.obj
 0001:0001e1ab       ??_E?$collate@D@std@@UAEPAXI@Z 0041f1ab f i libcpmt:xlocale.obj
 0001:0001e1ab       ??_G?$collate@D@std@@UAEPAXI@Z 0041f1ab f i libcpmt:xlocale.obj
 0001:0001e1c7       ??1?$collate@D@std@@UAE@XZ 0041f1c7 f i libcpmt:xlocale.obj
 0001:0001e1ce       ??_G?$messages@D@std@@UAEPAXI@Z 0041f1ce f i libcpmt:xlocale.obj
 0001:0001e1ce       ??_E?$messages@D@std@@UAEPAXI@Z 0041f1ce f i libcpmt:xlocale.obj
 0001:0001e1ea       ??1?$messages@D@std@@UAE@XZ 0041f1ea f i libcpmt:xlocale.obj
 0001:0001e20d       ??_G?$money_get@DV?$istreambuf_iterator@DU?$char_traits@D@std@@@std@@@std@@UAEPAXI@Z 0041f20d f i libcpmt:xlocale.obj
 0001:0001e20d       ??_E?$money_get@DV?$istreambuf_iterator@DU?$char_traits@D@std@@@std@@@std@@UAEPAXI@Z 0041f20d f i libcpmt:xlocale.obj
 0001:0001e229       ??1?$money_get@DV?$istreambuf_iterator@DU?$char_traits@D@std@@@std@@@std@@UAE@XZ 0041f229 f i libcpmt:xlocale.obj
 0001:0001e230       ??_E?$money_put@DV?$ostreambuf_iterator@DU?$char_traits@D@std@@@std@@@std@@UAEPAXI@Z 0041f230 f i libcpmt:xlocale.obj
 0001:0001e230       ??_G?$money_put@DV?$ostreambuf_iterator@DU?$char_traits@D@std@@@std@@@std@@UAEPAXI@Z 0041f230 f i libcpmt:xlocale.obj
 0001:0001e24c       ??1?$money_put@DV?$ostreambuf_iterator@DU?$char_traits@D@std@@@std@@@std@@UAE@XZ 0041f24c f i libcpmt:xlocale.obj
 0001:0001e253       ??_G?$moneypunct@D$0A@@std@@UAEPAXI@Z 0041f253 f i libcpmt:xlocale.obj
 0001:0001e253       ??_E?$moneypunct@D$0A@@std@@UAEPAXI@Z 0041f253 f i libcpmt:xlocale.obj
 0001:0001e26f       ??_G?$moneypunct@D$00@std@@UAEPAXI@Z 0041f26f f i libcpmt:xlocale.obj
 0001:0001e26f       ??_E?$moneypunct@D$00@std@@UAEPAXI@Z 0041f26f f i libcpmt:xlocale.obj
 0001:0001e28b       ??_G?$time_get@DV?$istreambuf_iterator@DU?$char_traits@D@std@@@std@@@std@@UAEPAXI@Z 0041f28b f i libcpmt:xlocale.obj
 0001:0001e28b       ??_E?$time_get@DV?$istreambuf_iterator@DU?$char_traits@D@std@@@std@@@std@@UAEPAXI@Z 0041f28b f i libcpmt:xlocale.obj
 0001:0001e2a7       ??1?$time_get@DV?$istreambuf_iterator@DU?$char_traits@D@std@@@std@@@std@@UAE@XZ 0041f2a7 f i libcpmt:xlocale.obj
 0001:0001e2ca       ??_E?$time_put@DV?$ostreambuf_iterator@DU?$char_traits@D@std@@@std@@@std@@UAEPAXI@Z 0041f2ca f i libcpmt:xlocale.obj
 0001:0001e2ca       ??_G?$time_put@DV?$ostreambuf_iterator@DU?$char_traits@D@std@@@std@@@std@@UAEPAXI@Z 0041f2ca f i libcpmt:xlocale.obj
 0001:0001e2e6       ??1?$time_put@DV?$ostreambuf_iterator@DU?$char_traits@D@std@@@std@@@std@@UAE@XZ 0041f2e6 f i libcpmt:xlocale.obj
 0001:0001e300       ??1?$moneypunct@D$0A@@std@@UAE@XZ 0041f300 f i libcpmt:xlocale.obj
 0001:0001e305       ??1?$_Mpunct@D@std@@UAE@XZ 0041f305 f i libcpmt:xlocale.obj
 0001:0001e339       ??_G?$_Mpunct@D@std@@UAEPAXI@Z 0041f339 f i libcpmt:xlocale.obj
 0001:0001e339       ??_E?$_Mpunct@D@std@@UAEPAXI@Z 0041f339 f i libcpmt:xlocale.obj
 0001:0001e355       ??1?$moneypunct@D$00@std@@UAE@XZ 0041f355 f i libcpmt:xlocale.obj
 0001:0001e35a       ?resize@?$basic_string@DU?$char_traits@D@std@@V?$allocator@D@2@@std@@QAEXI@Z 0041f35a f i libcpmt:xlocale.obj
 0001:0001e380       ?_Init@?$messages@D@std@@IAEXABV_Locinfo@2@@Z 0041f380 f i libcpmt:xlocale.obj
 0001:0001e3a8       ?_Getmfld@?$money_get@DV?$istreambuf_iterator@DU?$char_traits@D@std@@@std@@@std@@ABE?AV?$basic_string@DU?$char_traits@D@std@@V?$allocator@D@2@@2@AAV?$istreambuf_iterator@DU?$char_traits@D@std@@@2@0_NAAVios_base@2@@Z 0041f3a8 f i libcpmt:xlocale.obj
 0001:0001ec1d       ?_Putmfld@?$money_put@DV?$ostreambuf_iterator@DU?$char_traits@D@std@@@std@@@std@@ABE?AV?$ostreambuf_iterator@DU?$char_traits@D@std@@@2@V32@_NAAVios_base@2@D1V?$basic_string@DU?$char_traits@D@std@@V?$allocator@D@2@@2@@Z 0041fc1d f i libcpmt:xlocale.obj
 0001:0001f1c8       ??0?$_Mpunct@D@std@@QAE@ABV_Locinfo@1@I_N@Z 004201c8 f i libcpmt:xlocale.obj
 0001:0001f208       ?_Init@?$time_get@DV?$istreambuf_iterator@DU?$char_traits@D@std@@@std@@@std@@IAEXABV_Locinfo@2@@Z 00420208 f i libcpmt:xlocale.obj
 0001:0001f23b       ?_Getint@?$time_get@DV?$istreambuf_iterator@DU?$char_traits@D@std@@@std@@@std@@CAHAAV?$istreambuf_iterator@DU?$char_traits@D@std@@@2@0HHAAH@Z 0042023b f i libcpmt:xlocale.obj
 0001:0001f372       ?_Init@?$time_put@DV?$ostreambuf_iterator@DU?$char_traits@D@std@@@std@@@std@@IAEXABV_Locinfo@2@@Z 00420372 f i libcpmt:xlocale.obj
 0001:0001f39a       ?insert@?$basic_string@DU?$char_traits@D@std@@V?$allocator@D@2@@std@@QAEAAV12@IID@Z 0042039a f i libcpmt:xlocale.obj
 0001:0001f419       ?grouping@?$_Mpunct@D@std@@QBE?AV?$basic_string@DU?$char_traits@D@std@@V?$allocator@D@2@@2@XZ 00420419 f i libcpmt:xlocale.obj
 0001:0001f430       ?curr_symbol@?$_Mpunct@D@std@@QBE?AV?$basic_string@DU?$char_traits@D@std@@V?$allocator@D@2@@2@XZ 00420430 f i libcpmt:xlocale.obj
 0001:0001f447       ?positive_sign@?$_Mpunct@D@std@@QBE?AV?$basic_string@DU?$char_traits@D@std@@V?$allocator@D@2@@2@XZ 00420447 f i libcpmt:xlocale.obj
 0001:0001f45e       ?negative_sign@?$_Mpunct@D@std@@QBE?AV?$basic_string@DU?$char_traits@D@std@@V?$allocator@D@2@@2@XZ 0042045e f i libcpmt:xlocale.obj
 0001:0001f475       ?_Init@?$_Mpunct@D@std@@IAEXABV_Locinfo@2@@Z 00420475 f i libcpmt:xlocale.obj
 0001:0001f54f       ?_Makpat@?$_Mpunct@D@std@@AAEXAAUpattern@money_base@2@DDD@Z 0042054f f i libcpmt:xlocale.obj
 0001:0001f5b0       ?use_facet@std@@YAABV?$collate@D@1@ABVlocale@1@PBV21@_N@Z 004205b0 f i libcpmt:xlocale.obj
 0001:0001f674       ?use_facet@std@@YAABV?$messages@D@1@ABVlocale@1@PBV21@_N@Z 00420674 f i libcpmt:xlocale.obj
 0001:0001f738       ?use_facet@std@@YAABV?$money_get@DV?$istreambuf_iterator@DU?$char_traits@D@std@@@std@@@1@ABVlocale@1@PBV21@_N@Z 00420738 f i libcpmt:xlocale.obj
 0001:0001f814       ?use_facet@std@@YAABV?$money_put@DV?$ostreambuf_iterator@DU?$char_traits@D@std@@@std@@@1@ABVlocale@1@PBV21@_N@Z 00420814 f i libcpmt:xlocale.obj
 0001:0001f8f0       ?use_facet@std@@YAABV?$moneypunct@D$0A@@1@ABVlocale@1@PBV21@_N@Z 004208f0 f i libcpmt:xlocale.obj
 0001:0001f9bf       ?use_facet@std@@YAABV?$moneypunct@D$00@1@ABVlocale@1@PBV21@_N@Z 004209bf f i libcpmt:xlocale.obj
 0001:0001fa8e       ?use_facet@std@@YAABV?$time_get@DV?$istreambuf_iterator@DU?$char_traits@D@std@@@std@@@1@ABVlocale@1@PBV21@_N@Z 00420a8e f i libcpmt:xlocale.obj
 0001:0001fb52       ?use_facet@std@@YAABV?$time_put@DV?$ostreambuf_iterator@DU?$char_traits@D@std@@@std@@@1@ABVlocale@1@PBV21@_N@Z 00420b52 f i libcpmt:xlocale.obj
 0001:0001fc16       ??0?$collate@D@std@@QAE@I@Z 00420c16 f i libcpmt:xlocale.obj
 0001:0001fc6a       ??0?$messages@D@std@@QAE@I@Z 00420c6a f i libcpmt:xlocale.obj
 0001:0001fcdc       ??0?$time_get@DV?$istreambuf_iterator@DU?$char_traits@D@std@@@std@@@std@@QAE@I@Z 00420cdc f i libcpmt:xlocale.obj
 0001:0001fd35       ??0?$time_put@DV?$ostreambuf_iterator@DU?$char_traits@D@std@@@std@@@std@@QAE@I@Z 00420d35 f i libcpmt:xlocale.obj
 0001:0001fda2       ?_Save@?$_Tidyfac@V?$collate@D@std@@@std@@SAPAV?$collate@D@2@PAV32@@Z 00420da2 f i libcpmt:xlocale.obj
 0001:0001fdf0       ?_Save@?$_Tidyfac@V?$messages@D@std@@@std@@SAPAV?$messages@D@2@PAV32@@Z 00420df0 f i libcpmt:xlocale.obj
 0001:0001fe3e       ?_Save@?$_Tidyfac@V?$money_get@DV?$istreambuf_iterator@DU?$char_traits@D@std@@@std@@@std@@@std@@SAPAV?$money_get@DV?$istreambuf_iterator@DU?$char_traits@D@std@@@std@@@2@PAV32@@Z 00420e3e f i libcpmt:xlocale.obj
 0001:0001fe8c       ?_Save@?$_Tidyfac@V?$money_put@DV?$ostreambuf_iterator@DU?$char_traits@D@std@@@std@@@std@@@std@@SAPAV?$money_put@DV?$ostreambuf_iterator@DU?$char_traits@D@std@@@std@@@2@PAV32@@Z 00420e8c f i libcpmt:xlocale.obj
 0001:0001feda       ?_Save@?$_Tidyfac@V?$moneypunct@D$0A@@std@@@std@@SAPAV?$moneypunct@D$0A@@2@PAV32@@Z 00420eda f i libcpmt:xlocale.obj
 0001:0001ff28       ?_Save@?$_Tidyfac@V?$moneypunct@D$00@std@@@std@@SAPAV?$moneypunct@D$00@2@PAV32@@Z 00420f28 f i libcpmt:xlocale.obj
 0001:0001ff76       ?_Save@?$_Tidyfac@V?$time_get@DV?$istreambuf_iterator@DU?$char_traits@D@std@@@std@@@std@@@std@@SAPAV?$time_get@DV?$istreambuf_iterator@DU?$char_traits@D@std@@@std@@@2@PAV32@@Z 00420f76 f i libcpmt:xlocale.obj
 0001:0001ffc4       ?_Save@?$_Tidyfac@V?$time_put@DV?$ostreambuf_iterator@DU?$char_traits@D@std@@@std@@@std@@@std@@SAPAV?$time_put@DV?$ostreambuf_iterator@DU?$char_traits@D@std@@@std@@@2@PAV32@@Z 00420fc4 f i libcpmt:xlocale.obj
 0001:00020012       ??0?$_Mpunct@D@std@@QAE@I_N@Z 00421012 f i libcpmt:xlocale.obj
 0001:00020071       ?_Tidy@?$_Tidyfac@V?$collate@D@std@@@std@@SAXXZ 00421071 f i libcpmt:xlocale.obj
 0001:000200be       ?_Tidy@?$_Tidyfac@V?$messages@D@std@@@std@@SAXXZ 004210be f i libcpmt:xlocale.obj
 0001:0002010b       ?_Tidy@?$_Tidyfac@V?$money_get@DV?$istreambuf_iterator@DU?$char_traits@D@std@@@std@@@std@@@std@@SAXXZ 0042110b f i libcpmt:xlocale.obj
 0001:00020158       ?_Tidy@?$_Tidyfac@V?$money_put@DV?$ostreambuf_iterator@DU?$char_traits@D@std@@@std@@@std@@@std@@SAXXZ 00421158 f i libcpmt:xlocale.obj
 0001:000201a5       ?_Tidy@?$_Tidyfac@V?$moneypunct@D$0A@@std@@@std@@SAXXZ 004211a5 f i libcpmt:xlocale.obj
 0001:000201f2       ?_Tidy@?$_Tidyfac@V?$moneypunct@D$00@std@@@std@@SAXXZ 004211f2 f i libcpmt:xlocale.obj
 0001:0002023f       ?_Tidy@?$_Tidyfac@V?$time_get@DV?$istreambuf_iterator@DU?$char_traits@D@std@@@std@@@std@@@std@@SAXXZ 0042123f f i libcpmt:xlocale.obj
 0001:0002028c       ?_Tidy@?$_Tidyfac@V?$time_put@DV?$ostreambuf_iterator@DU?$char_traits@D@std@@@std@@@std@@@std@@SAXXZ 0042128c f i libcpmt:xlocale.obj
 0001:000202fa       __Wcrtomb                  004212fa f   libcpmt:xwctomb.obj
 0001:00020359       ___Wcrtomb_lk              00421359 f   libcpmt:xwctomb.obj
 0001:000203cc       __Getcvt                   004213cc f   libcpmt:xwctomb.obj
 0001:00020420       _wcrtomb                   00421420 f   libcpmt:xwctomb.obj
 0001:0002043f       _wcsrtombs                 0042143f f   libcpmt:xwctomb.obj
 0001:000205a7       _wctob                     004215a7 f   libcpmt:xwctomb.obj
 0001:000205d5       __Tolower                  004215d5 f   libcpmt:_tolower.obj
 0001:00020654       __Tolower_lk               00421654 f   libcpmt:_tolower.obj
 0001:0002073c       __Getctype                 0042173c f   libcpmt:_tolower.obj
 0001:000207e4       __Toupper                  004217e4 f   libcpmt:_toupper.obj
 0001:00020863       __Toupper_lk               00421863 f   libcpmt:_toupper.obj
 0001:00020944       __Stod                     00421944 f   libcpmt:xstod.obj
 0001:00020980       __Stof                     00421980 f   libcpmt:xstod.obj
 0001:00020995       __Stold                    00421995 f   libcpmt:xstod.obj
 0001:000209aa       __Mbrtowc                  004219aa f   libcpmt:xmbtowc.obj
 0001:00020b20       _btowc                     00421b20 f   libcpmt:xmbtowc.obj
 0001:00020b61       _mbrlen                    00421b61 f   libcpmt:xmbtowc.obj
 0001:00020bcc       _mbrtowc                   00421bcc f   libcpmt:xmbtowc.obj
 0001:00020c5d       _mbsrtowcs                 00421c5d f   libcpmt:xmbtowc.obj
 0001:00020d52       __Strcoll                  00421d52 f   libcpmt:xstrcoll.obj
 0001:00020e4b       __Getcoll                  00421e4b f   libcpmt:xstrcoll.obj
 0001:00020ea0       _inet_addr@4               00421ea0 f   ws2_32:WS2_32.dll
 0001:00020ea6       _WSAGetLastError@0         00421ea6 f   ws2_32:WS2_32.dll
 0001:00020eac       _WSAStartup@8              00421eac f   ws2_32:WS2_32.dll
 0001:00020eb2       _WSACleanup@0              00421eb2 f   ws2_32:WS2_32.dll
 0001:00020eb8       _gethostbyname@4           00421eb8 f   ws2_32:WS2_32.dll
 0001:00020ebe       _gethostname@8             00421ebe f   ws2_32:WS2_32.dll
 0001:00020ec4       ??1type_info@@UAE@XZ       00421ec4 f   LIBCMT:typinfo.obj
 0001:00020eed       ??_Gtype_info@@UAEPAXI@Z   00421eed f i LIBCMT:typinfo.obj
 0001:00020eed       ??_Etype_info@@UAEPAXI@Z   00421eed f i LIBCMT:typinfo.obj
 0001:00020f09       ??8type_info@@QBEHABV0@@Z  00421f09 f   LIBCMT:typinfo.obj
 0001:00020f24       ??9type_info@@QBEHABV0@@Z  00421f24 f   LIBCMT:typinfo.obj
 0001:00020f40       ?before@type_info@@QBEHABV1@@Z 00421f40 f   LIBCMT:typinfo.obj
 0001:00020f5f       ?raw_name@type_info@@QBEPBDXZ 00421f5f f   LIBCMT:typinfo.obj
 0001:00020f63       ??0type_info@@AAE@ABV0@@Z  00421f63 f   LIBCMT:typinfo.obj
 0001:00020f6e       ??4type_info@@AAEAAV0@ABV0@@Z 00421f6e f   LIBCMT:typinfo.obj
 0001:00020f73       ??2@YAPAXI@Z               00421f73 f   LIBCMT:new.obj
 0001:00020f81       ?_JumpToContinuation@@YGXPAXPAUEHRegistrationNode@@@Z 00421f81 f   LIBCMT:trnsctrl.obj
 0001:00020fb5       ?_CallMemberFunction0@@YGXPAX0@Z 00421fb5 f   LIBCMT:trnsctrl.obj
 0001:00020fbc       ?_CallMemberFunction1@@YGXPAX00@Z 00421fbc f   LIBCMT:trnsctrl.obj
 0001:00020fc3       ?_CallMemberFunction2@@YGXPAX00H@Z 00421fc3 f   LIBCMT:trnsctrl.obj
 0001:00020fca       ?_UnwindNestedFrames@@YGXPAUEHRegistrationNode@@PAUEHExceptionRecord@@@Z 00421fca f   LIBCMT:trnsctrl.obj
 0001:00021019       ___CxxFrameHandler         00422019 f   LIBCMT:trnsctrl.obj
 0001:0002104f       ___CxxLongjmpUnwind@4      0042204f f   LIBCMT:trnsctrl.obj
 0001:00021069       ?_CallCatchBlock2@@YAPAXPAUEHRegistrationNode@@PBU_s_FuncInfo@@PAXHK@Z 00422069 f   LIBCMT:trnsctrl.obj
 0001:000210e2       ?_CallSETranslator@@YAHPAUEHExceptionRecord@@PAUEHRegistrationNode@@PAX2PBU_s_FuncInfo@@H1@Z 004220e2 f   LIBCMT:trnsctrl.obj
 0001:0002120d       ?_GetRangeOfTrysToCheck@@YAPBU_s_TryBlockMapEntry@@PBU_s_FuncInfo@@HHPAI1@Z 0042220d f   LIBCMT:trnsctrl.obj
 0001:00021288       __global_unwind2           00422288 f   LIBCMT:exsup.obj
 0001:000212ca       __local_unwind2            004222ca f   LIBCMT:exsup.obj
 0001:00021322       __NLG_Return2              00422322 f   LIBCMT:exsup.obj
 0001:00021332       __abnormal_termination     00422332 f   LIBCMT:exsup.obj
 0001:00021355       __NLG_Notify1              00422355 f   LIBCMT:exsup.obj
 0001:0002135e       __NLG_Notify               0042235e f   LIBCMT:exsup.obj
 0001:00021371       __NLG_Dispatch             00422371 f   LIBCMT:exsup.obj
 0001:00021376       __CxxThrowException@8      00422376 f   LIBCMT:throw.obj
 0001:000213b0       _atol                      004223b0 f   LIBCMT:atox.obj
 0001:0002143b       _atoi                      0042243b f   LIBCMT:atox.obj
 0001:00021446       __atoi64                   00422446 f   LIBCMT:atox.obj
 0001:00021500       _system                    00422500 f   LIBCMT:system.obj
 0001:000215a2       ??0exception@@QAE@XZ       004225a2 f   LIBCMT:stdexcpt.obj
 0001:000215b3       ??_Gexception@@UAEPAXI@Z   004225b3 f i LIBCMT:stdexcpt.obj
 0001:000215b3       ??_Eexception@@UAEPAXI@Z   004225b3 f i LIBCMT:stdexcpt.obj
 0001:000215cf       ??0exception@@QAE@ABQBD@Z  004225cf f   LIBCMT:stdexcpt.obj
 0001:0002160c       ??0exception@@QAE@ABV0@@Z  0042260c f   LIBCMT:stdexcpt.obj
 0001:00021656       ??4exception@@QAEAAV0@ABV0@@Z 00422656 f   LIBCMT:stdexcpt.obj
 0001:00021675       ??1exception@@UAE@XZ       00422675 f   LIBCMT:stdexcpt.obj
 0001:0002168b       ?what@exception@@UBEPBDXZ  0042268b f   LIBCMT:stdexcpt.obj
 0001:000216a0       _memmove                   004226a0 f   LIBCMT:memmove.obj
 0001:000219d5       _sprintf                   004229d5 f   LIBCMT:sprintf.obj
 0001:00021a27       __fpmath                   00422a27 f   LIBCMT:fpinit.obj
 0001:00021a3e       __fpclear                  00422a3e f   LIBCMT:fpinit.obj
 0001:00021a3f       __cfltcvt_init             00422a3f f   LIBCMT:fpinit.obj
 0001:00021a77       ___setfflag                00422a77 f   LIBCMT:fpinit.obj
 0001:00021a90       _memchr                    00422a90 f   LIBCMT:memchr.obj
 0001:00021b35       _localeconv                00422b35 f   LIBCMT:lconv.obj
 0001:00021b40       _strcspn                   00422b40 f   LIBCMT:strcspn.obj
 0001:00021b7e       __onexit                   00422b7e f   LIBCMT:onexit.obj
 0001:00021bfc       _atexit                    00422bfc f   LIBCMT:onexit.obj
 0001:00021c0e       ___onexitinit              00422c0e f   LIBCMT:onexit.obj
 0001:00021c3d       _printf                    00422c3d f   LIBCMT:printf.obj
 0001:00021c80       _strstr                    00422c80 f   LIBCMT:strstr.obj
 0001:00021d00       _strncpy                   00422d00 f   LIBCMT:strncpy.obj
 0001:00021dfe       _fclose                    00422dfe f   LIBCMT:fclose.obj
 0001:00021e2f       __fclose_lk                00422e2f f   LIBCMT:fclose.obj
 0001:00021e7b       _fwrite                    00422e7b f   LIBCMT:fwrite.obj
 0001:00021eaa       __fwrite_lk                00422eaa f   LIBCMT:fwrite.obj
 0001:00021fb4       __fsopen                   00422fb4 f   LIBCMT:fopen.obj
 0001:00021fe5       _fopen                     00422fe5 f   LIBCMT:fopen.obj
 0001:00022000       __alloca_probe             00423000 f   LIBCMT:chkstk.obj
 0001:00022000       __chkstk                   00423000 f   LIBCMT:chkstk.obj
 0001:0002202f       _mainCRTStartup            0042302f f   LIBCMT:crt0.obj
 0001:0002211f       __amsg_exit                0042311f f   LIBCMT:crt0.obj
 0001:00022168       __toupper                  00423168 f   LIBCMT:toupper.obj
 0001:00022170       _toupper                   00423170 f   LIBCMT:toupper.obj
 0001:000221df       __toupper_lk               004231df f   LIBCMT:toupper.obj
 0001:000222ab       _isalpha                   004232ab f   LIBCMT:_ctype.obj
 0001:000222d9       _isupper                   004232d9 f   LIBCMT:_ctype.obj
 0001:00022301       _islower                   00423301 f   LIBCMT:_ctype.obj
 0001:00022329       _isdigit                   00423329 f   LIBCMT:_ctype.obj
 0001:00022351       _isxdigit                  00423351 f   LIBCMT:_ctype.obj
 0001:0002237e       _isspace                   0042337e f   LIBCMT:_ctype.obj
 0001:000223a6       _ispunct                   004233a6 f   LIBCMT:_ctype.obj
 0001:000223ce       _isalnum                   004233ce f   LIBCMT:_ctype.obj
 0001:000223fc       _isprint                   004233fc f   LIBCMT:_ctype.obj
 0001:0002242a       _isgraph                   0042342a f   LIBCMT:_ctype.obj
 0001:00022458       _iscntrl                   00423458 f   LIBCMT:_ctype.obj
 0001:00022480       ___isascii                 00423480 f   LIBCMT:_ctype.obj
 0001:0002248d       ___toascii                 0042348d f   LIBCMT:_ctype.obj
 0001:00022495       ___iscsymf                 00423495 f   LIBCMT:_ctype.obj
 0001:000224d2       ___iscsym                  004234d2 f   LIBCMT:_ctype.obj
 0001:0002250f       _strtok                    0042350f f   LIBCMT:strtok.obj
 0001:000225b3       _fputc                     004235b3 f   LIBCMT:fputc.obj
 0001:000225ee       _putc                      004235ee f   LIBCMT:fputc.obj
 0001:000225fe       _fgetc                     004235fe f   LIBCMT:fgetc.obj
 0001:0002262f       _getc                      0042362f f   LIBCMT:fgetc.obj
 0001:0002263a       _ungetc                    0042363a f   LIBCMT:ungetc.obj
 0001:00022663       __ungetc_lk                00423663 f   LIBCMT:ungetc.obj
 0001:000226d1       _fgetpos                   004236d1 f   LIBCMT:fgetpos.obj
 0001:000226f3       _fseek                     004236f3 f   LIBCMT:fseek.obj
 0001:0002271f       __fseek_lk                 0042371f f   LIBCMT:fseek.obj
 0001:000227ac       _fsetpos                   004237ac f   LIBCMT:fsetpos.obj
 0001:000227c4       _setvbuf                   004237c4 f   LIBCMT:setvbuf.obj
 0001:00022873       _fflush                    00423873 f   LIBCMT:fflush.obj
 0001:000228a2       __fflush_lk                004238a2 f   LIBCMT:fflush.obj
 0001:000228d0       __flush                    004238d0 f   LIBCMT:fflush.obj
 0001:0002292c       __flushall                 0042392c f   LIBCMT:fflush.obj
 0001:000229d9       _free                      004239d9 f   LIBCMT:free.obj
 0001:00022a30       _strlen                    00423a30 f   LIBCMT:strlen.obj
 0001:00022aac       __EH_prolog                00423aac f   LIBCMT:ehprolog.obj
 0001:00022ad0       _memcpy                    00423ad0 f   LIBCMT:memcpy.obj
 0001:00022e10       _memcmp                    00423e10 f   LIBCMT:memcmp.obj
 0001:00022ebc       _setlocale                 00423ebc f   LIBCMT:setlocal.obj
 0001:000232d6       __expandlocale             004242d6 f   LIBCMT:setlocal.obj
 0001:000233ee       ___init_dummy              004243ee f   LIBCMT:setlocal.obj
 0001:000233f1       __strcats                  004243f1 f   LIBCMT:setlocal.obj
 0001:00023416       ___lc_strtolc              00424416 f   LIBCMT:setlocal.obj
 0001:000234e2       ___lc_lctostr              004244e2 f   LIBCMT:setlocal.obj
 0001:00023535       _malloc                    00424535 f   LIBCMT:malloc.obj
 0001:00023547       __nh_malloc                00424547 f   LIBCMT:malloc.obj
 0001:00023573       __heap_alloc               00424573 f   LIBCMT:malloc.obj
 0001:000235c1       _realloc                   004245c1 f   LIBCMT:realloc.obj
 0001:000236f9       _strtol                    004246f9 f   LIBCMT:strtol.obj
 0001:00023915       _strtoul                   00424915 f   LIBCMT:strtol.obj
 0001:0002392c       __dosmaperr                0042492c f   LIBCMT:dosmap.obj
 0001:0002399f       __errno                    0042499f f   LIBCMT:dosmap.obj
 0001:000239a8       ___doserrno                004249a8 f   LIBCMT:dosmap.obj
 0001:000239c0       _memset                    004249c0 f   LIBCMT:memset.obj
 0001:00023a18       ___initstdio               00424a18 f   LIBCMT:_file.obj
 0001:00023ac0       ___endstdio                00424ac0 f   LIBCMT:_file.obj
 0001:00023ad4       __lock_file                00424ad4 f   LIBCMT:_file.obj
 0001:00023b03       __lock_file2               00424b03 f   LIBCMT:_file.obj
 0001:00023b26       __unlock_file              00424b26 f   LIBCMT:_file.obj
 0001:00023b55       __unlock_file2             00424b55 f   LIBCMT:_file.obj
 0001:00023b78       _fputwc                    00424b78 f   LIBCMT:fputwc.obj
 0001:00023ba2       __putwc_lk                 00424ba2 f   LIBCMT:fputwc.obj
 0001:00023c9b       _putwc                     00424c9b f   LIBCMT:fputwc.obj
 0001:00023cab       _ungetwc                   00424cab f   LIBCMT:ungetwc.obj
 0001:00023cd5       __ungetwc_lk               00424cd5 f   LIBCMT:ungetwc.obj
 0001:00023dc2       _fgetwc                    00424dc2 f   LIBCMT:fgetwc.obj
 0001:00023de5       __getwc_lk                 00424de5 f   LIBCMT:fgetwc.obj
 0001:00023ed6       _getwc                     00424ed6 f   LIBCMT:fgetwc.obj
 0001:00023ee1       __Getdays                  00424ee1 f   LIBCMT:strftime.obj
 0001:00023f70       __Getmonths                00424f70 f   LIBCMT:strftime.obj
 0001:00024005       __Gettnames                00425005 f   LIBCMT:strftime.obj
 0001:00024237       _strftime                  00425237 f   LIBCMT:strftime.obj
 0001:00024252       __Strftime                 00425252 f   LIBCMT:strftime.obj
 0001:00024ae9       _wcslen                    00425ae9 f   LIBCMT:wcslen.obj
 0001:00024b06       __mtinitlocks              00425b06 f   LIBCMT:mlock.obj
 0001:00024b2f       __mtdeletelocks            00425b2f f   LIBCMT:mlock.obj
 0001:00024b9b       __lock                     00425b9b f   LIBCMT:mlock.obj
 0001:00024bfc       __unlock                   00425bfc f   LIBCMT:mlock.obj
 0001:00024c11       __lockerr_exit             00425c11 f   LIBCMT:mlock.obj
 0001:00024c29       ___crtLCMapStringA         00425c29 f   LIBCMT:a_map.obj
 0001:00024e78       __isctype                  00425e78 f   LIBCMT:isctype.obj
 0001:00024eed       _strtod                    00425eed f   LIBCMT:strtod.obj
 0001:00024f97       ___crtCompareStringA       00425f97 f   LIBCMT:a_cmp.obj
 0001:00025240       _strcmp                    00426240 f   LIBCMT:strcmp.obj
 0001:000252c4       ___InternalCxxFrameHandler 004262c4 f   LIBCMT:frame.obj
 0001:00025619       ___FrameUnwindToState      00426619 f   LIBCMT:frame.obj
 0001:00025a51       ?_DestructExceptionObject@@YAXPAUEHExceptionRecord@@E@Z 00426a51 f   LIBCMT:frame.obj
 0001:00025ae0       __CallSettingFrame@12      00426ae0 f   LIBCMT:lowhelpr.obj
 0001:00025b07       __NLG_Return               00426b07 f   LIBCMT:lowhelpr.obj
 0001:00025b2c       __mtinit                   00426b2c f   LIBCMT:tidtable.obj
 0001:00025b80       __mtterm                   00426b80 f   LIBCMT:tidtable.obj
 0001:00025b9e       __initptd                  00426b9e f   LIBCMT:tidtable.obj
 0001:00025bb1       __getptd                   00426bb1 f   LIBCMT:tidtable.obj
 0001:00025c18       __freeptd                  00426c18 f   LIBCMT:tidtable.obj
 0001:00025cb8       ___threadid                00426cb8 f   LIBCMT:tidtable.obj
 0001:00025cbe       ___threadhandle            00426cbe f   LIBCMT:tidtable.obj
 0001:00025cc4       ?terminate@@YAXXZ          00426cc4 f   LIBCMT:hooks.obj
 0001:00025d25       ?unexpected@@YAXXZ         00426d25 f   LIBCMT:hooks.obj
 0001:00025d3d       ?_inconsistency@@YAXXZ     00426d3d f   LIBCMT:hooks.obj
 0001:00025d93       ?__CxxUnhandledExceptionFilter@@YGJPAU_EXCEPTION_POINTERS@@@Z 00426d93 f   LIBCMT:unhandld.obj
 0001:00025dd9       ?__CxxSetUnhandledExceptionFilter@@YAXXZ 00426dd9 f   LIBCMT:unhandld.obj
 0001:00025dea       ?__CxxRestoreUnhandledExceptionFilter@@YAXXZ 00426dea f   LIBCMT:unhandld.obj
 0001:00025e00       __allmul                   00426e00 f   LIBCMT:llmul.obj
 0001:00025e34       __spawnvpe                 00426e34 f   LIBCMT:spawnvpe.obj
 0001:00025f99       __cinit                    00426f99 f   LIBCMT:crt0dat.obj
 0001:00025fc6       _exit                      00426fc6 f   LIBCMT:crt0dat.obj
 0001:00025fd7       __exit                     00426fd7 f   LIBCMT:crt0dat.obj
 0001:00025fe8       __cexit                    00426fe8 f   LIBCMT:crt0dat.obj
 0001:00025ff7       __c_exit                   00426ff7 f   LIBCMT:crt0dat.obj
 0001:000260ab       __lockexit                 004270ab f   LIBCMT:crt0dat.obj
 0001:000260b4       __unlockexit               004270b4 f   LIBCMT:crt0dat.obj
 0001:000260d7       __spawnve                  004270d7 f   LIBCMT:spawnve.obj
 0001:00026271       __access                   00427271 f   LIBCMT:access.obj
 0001:000262b7       _getenv                    004272b7 f   LIBCMT:getenv.obj
 0001:000262d8       __getenv_lk                004272d8 f   LIBCMT:getenv.obj
 0001:00026360       _strcpy                    00427360 f   LIBCMT:strcat.obj
 0001:00026370       _strcat                    00427370 f   LIBCMT:strcat.obj
 0001:00026450       __flsbuf                   00427450 f   LIBCMT:_flsbuf.obj
 0001:00026568       __output                   00427568 f   LIBCMT:output.obj
 0001:00026d72       __setdefaultprecision      00427d72 f   LIBCMT:fp8.obj
 0001:00026d84       __ms_p5_test_fdiv          00427d84 f   LIBCMT:testfdiv.obj
 0001:00026dc2       __ms_p5_mp_test_fdiv       00427dc2 f   LIBCMT:testfdiv.obj
 0001:00026deb       __forcdecpt                00427deb f   LIBCMT:cvt.obj
 0001:00026e45       __cropzeros                00427e45 f   LIBCMT:cvt.obj
 0001:00026e93       __positive                 00427e93 f   LIBCMT:cvt.obj
 0001:00026eab       __fassign                  00427eab f   LIBCMT:cvt.obj
 0001:00026ee9       __cftoe                    00427ee9 f   LIBCMT:cvt.obj
 0001:0002700c       __cftof                    0042800c f   LIBCMT:cvt.obj
 0001:00027108       __cftog                    00428108 f   LIBCMT:cvt.obj
 0001:0002719b       __cfltcvt                  0042819b f   LIBCMT:cvt.obj
 0001:00027211       __msize                    00428211 f   LIBCMT:msize.obj
 0001:00027256       __stbuf                    00428256 f   LIBCMT:_sftbuf.obj
 0001:000272e3       __ftbuf                    004282e3 f   LIBCMT:_sftbuf.obj
 0001:00027320       _strchr                    00428320 f   LIBCMT:strchr.obj
 0001:00027326       ___from_strstr_to_strchr   00428326 f   LIBCMT:strchr.obj
 0001:000273dc       __close                    004283dc f   LIBCMT:close.obj
 0001:00027439       __close_lk                 00428439 f   LIBCMT:close.obj
 0001:000274bc       __freebuf                  004284bc f   LIBCMT:_freebuf.obj
 0001:000274e7       __write                    004284e7 f   LIBCMT:write.obj
 0001:0002754c       __write_lk                 0042854c f   LIBCMT:write.obj
 0001:000276d7       __openfile                 004286d7 f   LIBCMT:_open.obj
 0001:00027847       __getstream                00428847 f   LIBCMT:stream.obj
 0001:0002790f       __XcptFilter               0042890f f   LIBCMT:winxfltr.obj
 0001:00027a87       __setenvp                  00428a87 f   LIBCMT:stdenvp.obj
 0001:00027b40       __setargv                  00428b40 f   LIBCMT:stdargv.obj
 0001:00027d8d       ___crtGetEnvironmentStringsA 00428d8d f   LIBCMT:a_env.obj
 0001:00027ebf       __ioinit                   00428ebf f   LIBCMT:ioinit.obj
 0001:0002807b       __ioterm                   0042907b f   LIBCMT:ioinit.obj
 0001:000280cf       __heap_init                004290cf f   LIBCMT:heapinit.obj
 0001:0002810b       __heap_term                0042910b f   LIBCMT:heapinit.obj
 0001:00028188       __except_handler3          00429188 f   LIBCMT:exsup3.obj
 0001:00028245       __seh_longjmp_unwind@4     00429245 f   LIBCMT:exsup3.obj
 0001:00028260       __FF_MSGBANNER             00429260 f   LIBCMT:crt0msg.obj
 0001:00028299       __NMSG_WRITE               00429299 f   LIBCMT:crt0msg.obj
 0001:000283ec       __GET_RTERRMSG             004293ec f   LIBCMT:crt0msg.obj
 0001:0002841d       __filbuf                   0042941d f   LIBCMT:_filbuf.obj
 0001:000284f9       __getbuf                   004294f9 f   LIBCMT:_getbuf.obj
 0001:0002853d       __ftelli64                 0042953d f   LIBCMT:ftelli64.obj
 0001:00028565       __ftelli64_lk              00429565 f   LIBCMT:ftelli64.obj
 0001:000286f5       __lseek                    004296f5 f   LIBCMT:lseek.obj
 0001:0002875a       __lseek_lk                 0042975a f   LIBCMT:lseek.obj
 0001:000287cd       _ftell                     004297cd f   LIBCMT:ftell.obj
 0001:000287ef       __ftell_lk                 004297ef f   LIBCMT:ftell.obj
 0001:00028950       __fseeki64                 00429950 f   LIBCMT:fseeki64.obj
 0001:0002897f       __fseeki64_lk              0042997f f   LIBCMT:fseeki64.obj
 0001:00028a10       __commit                   00429a10 f   LIBCMT:commit.obj
 0001:00028aa3       __get_sbh_threshold        00429aa3 f   LIBCMT:sbheap.obj
 0001:00028aa9       __set_sbh_threshold        00429aa9 f   LIBCMT:sbheap.obj
 0001:00028ac0       ___sbh_heap_init           00429ac0 f   LIBCMT:sbheap.obj
 0001:00028afe       ___sbh_find_block          00429afe f   LIBCMT:sbheap.obj
 0001:00028b29       ___sbh_free_block          00429b29 f   LIBCMT:sbheap.obj
 0001:00028e54       ___sbh_alloc_block         00429e54 f   LIBCMT:sbheap.obj
 0001:0002915d       ___sbh_alloc_new_region    0042a15d f   LIBCMT:sbheap.obj
 0001:0002920e       ___sbh_alloc_new_group     0042a20e f   LIBCMT:sbheap.obj
 0001:00029309       ___sbh_resize_block        0042a309 f   LIBCMT:sbheap.obj
 0001:000295ff       ___sbh_heapmin             0042a5ff f   LIBCMT:sbheap.obj
 0001:000296d0       ___sbh_heap_check          0042a6d0 f   LIBCMT:sbheap.obj
 0001:000299ff       ___init_time               0042a9ff f   LIBCMT:inittime.obj
 0001:00029f6e       ___init_numeric            0042af6e f   LIBCMT:initnum.obj
 0001:0002a17a       ___init_monetary           0042b17a f   LIBCMT:initmon.obj
 0001:0002a3ec       ___init_ctype              0042b3ec f   LIBCMT:initctyp.obj
 0001:0002a631       ___init_collate            0042b631 f   LIBCMT:initcoll.obj
 0001:0002a640       _strncmp                   0042b640 f   LIBCMT:strncmp.obj
 0001:0002a680       _strpbrk                   0042b680 f   LIBCMT:strpbrk.obj
 0001:0002a6ba       ___get_qualified_locale    0042b6ba f   LIBCMT:getqloc.obj
 0001:0002af61       ?_set_new_handler@@YAP6AHI@ZP6AHI@Z@Z 0042bf61 f   LIBCMT:handler.obj
 0001:0002af85       ?_query_new_handler@@YAP6AHI@ZXZ 0042bf85 f   LIBCMT:handler.obj
 0001:0002af8b       __callnewh                 0042bf8b f   LIBCMT:handler.obj
 0001:0002afa6       _calloc                    0042bfa6 f   LIBCMT:calloc.obj
 0001:0002b033       __fcloseall                0042c033 f   LIBCMT:closeall.obj
 0001:0002b0b4       __flswbuf                  0042c0b4 f   LIBCMT:_flswbuf.obj
 0001:0002b1db       _wctomb                    0042c1db f   LIBCMT:wctomb.obj
 0001:0002b234       __wctomb_lk                0042c234 f   LIBCMT:wctomb.obj
 0001:0002b29d       __filwbuf                  0042c29d f   LIBCMT:_filwbuf.obj
 0001:0002b384       _mbtowc                    0042c384 f   LIBCMT:mbtowc.obj
 0001:0002b3e1       __mbtowc_lk                0042c3e1 f   LIBCMT:mbtowc.obj
 0001:0002b4aa       ___tzset                   0042c4aa f   LIBCMT:tzset.obj
 0001:0002b4d8       __tzset                    0042c4d8 f   LIBCMT:tzset.obj
 0001:0002b775       __isindst                  0042c775 f   LIBCMT:tzset.obj
 0001:0002ba90       __strcmpi                  0042ca90 f   LIBCMT:stricmp.obj
 0001:0002ba90       _strcmpi                   0042ca90 f   LIBCMT:stricmp.obj
 0001:0002ba90       __stricmp                  0042ca90 f   LIBCMT:stricmp.obj
 0001:0002bb60       ___crtGetStringTypeA       0042cb60 f   LIBCMT:a_str.obj
 0001:0002bcac       __fltin2                   0042ccac f   LIBCMT:cfin.obj
 0001:0002bd2b       ?_ValidateRead@@YAHPBXI@Z  0042cd2b f   LIBCMT:validate.obj
 0001:0002bd47       ?_ValidateWrite@@YAHPAXI@Z 0042cd47 f   LIBCMT:validate.obj
 0001:0002bd63       ?_ValidateExecute@@YAHP6GHXZ@Z 0042cd63 f   LIBCMT:validate.obj
 0001:0002bd7b       _abort                     0042cd7b f   LIBCMT:abort.obj
 0001:0002bd92       __mbsrchr                  0042cd92 f   LIBCMT:mbsrchr.obj
 0001:0002be04       __getpath                  0042ce04 f   LIBCMT:getpath.obj
 0001:0002be78       __mbschr                   0042ce78 f   LIBCMT:mbschr.obj
 0001:0002bf0f       __dospawn                  0042cf0f f   LIBCMT:dospawn.obj
 0001:0002c0f8       __cenvarg                  0042d0f8 f   LIBCMT:cenvarg.obj
 0001:0002c2fe       __mbsnbicoll               0042d2fe f   LIBCMT:mbsnbico.obj
 0001:0002c33d       ___wtomb_environ           0042d33d f   LIBCMT:wtombenv.obj
 0001:0002c3ab       __isatty                   0042d3ab f   LIBCMT:isatty.obj
 0001:0002c3e0       __aulldiv                  0042d3e0 f   LIBCMT:ulldiv.obj
 0001:0002c450       __aullrem                  0042d450 f   LIBCMT:ullrem.obj
 0001:0002c4c5       __statusfp                 0042d4c5 f   LIBCMT:ieee87.obj
 0001:0002c4d8       __clearfp                  0042d4d8 f   LIBCMT:ieee87.obj
 0001:0002c4ec       __control87                0042d4ec f   LIBCMT:ieee87.obj
 0001:0002c521       __controlfp                0042d521 f   LIBCMT:ieee87.obj
 0001:0002c537       __fpreset                  0042d537 f   LIBCMT:ieee87.obj
 0001:0002c6b2       __tolower                  0042d6b2 f   LIBCMT:tolower.obj
 0001:0002c6ba       _tolower                   0042d6ba f   LIBCMT:tolower.obj
 0001:0002c729       __tolower_lk               0042d729 f   LIBCMT:tolower.obj
 0001:0002c7f4       __ZeroTail                 0042d7f4 f   LIBCMT:intrncvt.obj
 0001:0002c83d       __IncMan                   0042d83d f   LIBCMT:intrncvt.obj
 0001:0002c893       __RoundMan                 0042d893 f   LIBCMT:intrncvt.obj
 0001:0002c91f       __CopyMan                  0042d91f f   LIBCMT:intrncvt.obj
 0001:0002c93a       __FillZeroMan              0042d93a f   LIBCMT:intrncvt.obj
 0001:0002c946       __IsZeroMan                0042d946 f   LIBCMT:intrncvt.obj
 0001:0002c961       __ShrMan                   0042d961 f   LIBCMT:intrncvt.obj
 0001:0002c9ee       __ld12cvt                  0042d9ee f   LIBCMT:intrncvt.obj
 0001:0002cb5a       __ld12tod                  0042db5a f   LIBCMT:intrncvt.obj
 0001:0002cb70       __ld12tof                  0042db70 f   LIBCMT:intrncvt.obj
 0001:0002cb86       __ld12told                 0042db86 f   LIBCMT:intrncvt.obj
 0001:0002cc00       __atodbl                   0042dc00 f   LIBCMT:intrncvt.obj
 0001:0002cc2d       __atoldbl                  0042dc2d f   LIBCMT:intrncvt.obj
 0001:0002cc5b       __atoflt                   0042dc5b f   LIBCMT:intrncvt.obj
 0001:0002cc88       __fptostr                  0042dc88 f   LIBCMT:_fptostr.obj
 0001:0002ccff       __fltout2                  0042dcff f   LIBCMT:cfout.obj
 0001:0002cd5b       ___dtold                   0042dd5b f   LIBCMT:cfout.obj
 0001:0002ce11       __fptrap                   0042de11 f   LIBCMT:crt0fp.obj
 0001:0002ce1a       __alloc_osfhnd             0042de1a f   LIBCMT:osfinfo.obj
 0001:0002cf3d       __set_osfhnd               0042df3d f   LIBCMT:osfinfo.obj
 0001:0002cfb9       __free_osfhnd              0042dfb9 f   LIBCMT:osfinfo.obj
 0001:0002d038       __get_osfhandle            0042e038 f   LIBCMT:osfinfo.obj
 0001:0002d07a       __open_osfhandle           0042e07a f   LIBCMT:osfinfo.obj
 0001:0002d121       __lock_fhandle             0042e121 f   LIBCMT:osfinfo.obj
 0001:0002d180       __unlock_fhandle           0042e180 f   LIBCMT:osfinfo.obj
 0001:0002d1a2       __open                     0042e1a2 f   LIBCMT:open.obj
 0001:0002d1b9       __sopen                    0042e1b9 f   LIBCMT:open.obj
 0001:0002d488       __setmbcp                  0042e488 f   LIBCMT:mbctype.obj
 0001:0002d860       __getmbcp                  0042e860 f   LIBCMT:mbctype.obj
 0001:0002d870       ___initmbctable            0042e870 f   LIBCMT:mbctype.obj
 0001:0002d88c       ___crtMessageBoxA          0042e88c f   LIBCMT:crtmbox.obj
 0001:0002d915       __read                     0042e915 f   LIBCMT:read.obj
 0001:0002d97a       __read_lk                  0042e97a f   LIBCMT:read.obj
 0001:0002db53       __lseeki64                 0042eb53 f   LIBCMT:lseeki64.obj
 0001:0002dbc4       __lseeki64_lk              0042ebc4 f   LIBCMT:lseeki64.obj
 0001:0002dc49       ___getlocaleinfo           0042ec49 f   LIBCMT:inithelp.obj
 0001:0002dd81       ___crtGetStringTypeW       0042ed81 f   LIBCMT:w_str.obj
 0001:0002df46       __itoa                     0042ef46 f   LIBCMT:xtoa.obj
 0001:0002dfcf       __ltoa                     0042efcf f   LIBCMT:xtoa.obj
 0001:0002dff9       __ultoa                    0042eff9 f   LIBCMT:xtoa.obj
 0001:0002e014       __i64toa                   0042f014 f   LIBCMT:xtoa.obj
 0001:0002e0cb       __ui64toa                  0042f0cb f   LIBCMT:xtoa.obj
 0001:0002e0f0       __strnicmp                 0042f0f0 f   LIBCMT:strnicmp.obj
 0001:0002e1f1       ___strgtold12              0042f1f1 f   LIBCMT:strgtold.obj
 0001:0002e6c2       ___STRINGTOLD              0042f6c2 f   LIBCMT:strgtold.obj
 0001:0002e6fe       _signal                    0042f6fe f   LIBCMT:winsig.obj
 0001:0002e8e2       _raise                     0042f8e2 f   LIBCMT:winsig.obj
 0001:0002eaa1       ___fpecode                 0042faa1 f   LIBCMT:winsig.obj
 0001:0002eaaa       ___pxcptinfoptrs           0042faaa f   LIBCMT:winsig.obj
 0001:0002eac0       _strrchr                   0042fac0 f   LIBCMT:strrchr.obj
 0001:0002eae7       ___crtsetenv               0042fae7 f   LIBCMT:setenv.obj
 0001:0002ed2d       ___addl                    0042fd2d f   LIBCMT:mantold.obj
 0001:0002ed4e       ___add_12                  0042fd4e f   LIBCMT:mantold.obj
 0001:0002edac       ___shl_12                  0042fdac f   LIBCMT:mantold.obj
 0001:0002edda       ___shr_12                  0042fdda f   LIBCMT:mantold.obj
 0001:0002ee07       ___mtold12                 0042fe07 f   LIBCMT:mantold.obj
 0001:0002eece       _$I10_OUTPUT               0042fece f   LIBCMT:x10fout.obj
 0001:0002f161       __chsize                   00430161 f   LIBCMT:chsize.obj
 0001:0002f1ba       __chsize_lk                004301ba f   LIBCMT:chsize.obj
 0001:0002f2df       ___crtGetLocaleInfoW       004302df f   LIBCMT:w_loc.obj
 0001:0002f3f2       ___crtGetLocaleInfoA       004303f2 f   LIBCMT:a_loc.obj
 0001:0002f510       ___ld12mul                 00430510 f   LIBCMT:tenpow.obj
 0001:0002f730       ___multtenpow12            00430730 f   LIBCMT:tenpow.obj
 0001:0002f7ac       __strdup                   004307ac f   LIBCMT:strdup.obj
 0001:0002f7d7       __setmode                  004307d7 f   LIBCMT:setmode.obj
 0001:0002f830       __setmode_lk               00430830 f   LIBCMT:setmode.obj
 0001:0002f8a0       _VerQueryValueA@16         004308a0 f   Version:VERSION.dll
 0001:0002f8a6       _GetFileVersionInfoA@16    004308a6 f   Version:VERSION.dll
 0001:0002f8ac       _GetFileVersionInfoSizeA@8 004308ac f   Version:VERSION.dll
 0001:0002f8b2       _InterlockedDecrement@4    004308b2 f   kernel32:KERNEL32.dll
 0001:0002f8b8       _InterlockedIncrement@4    004308b8 f   kernel32:KERNEL32.dll
 0001:0002f8be       _InterlockedExchange@8     004308be f   kernel32:KERNEL32.dll
 0001:0002f8c4       _GetLastError@0            004308c4 f   kernel32:KERNEL32.dll
 0001:0002f8ca       _FormatMessageA@28         004308ca f   kernel32:KERNEL32.dll
 0001:0002f8d0       _GetSystemTime@4           004308d0 f   kernel32:KERNEL32.dll
 0001:0002f8d6       _GetLocalTime@4            004308d6 f   kernel32:KERNEL32.dll
 0001:0002f8dc       _GetComputerNameA@8        004308dc f   kernel32:KERNEL32.dll
 0001:0002f8e2       _SetLastError@4            004308e2 f   kernel32:KERNEL32.dll
 0001:0002f8e8       _WideCharToMultiByte@32    004308e8 f   kernel32:KERNEL32.dll
 0001:0002f8ee       _MultiByteToWideChar@24    004308ee f   kernel32:KERNEL32.dll
 0001:0002f8f4       _RtlUnwind@16              004308f4 f   kernel32:KERNEL32.dll
 0001:0002f8fa       _RaiseException@16         004308fa f   kernel32:KERNEL32.dll
 0001:0002f900       _GetCommandLineA@0         00430900 f   kernel32:KERNEL32.dll
 0001:0002f906       _GetVersion@0              00430906 f   kernel32:KERNEL32.dll
 0001:0002f90c       _ExitProcess@4             0043090c f   kernel32:KERNEL32.dll
 0001:0002f912       _HeapFree@12               00430912 f   kernel32:KERNEL32.dll
 0001:0002f918       _HeapAlloc@12              00430918 f   kernel32:KERNEL32.dll
 0001:0002f91e       _HeapReAlloc@16            0043091e f   kernel32:KERNEL32.dll
 0001:0002f924       _FatalAppExitA@8           00430924 f   kernel32:KERNEL32.dll
 0001:0002f92a       _LCMapStringA@24           0043092a f   kernel32:KERNEL32.dll
 0001:0002f930       _LCMapStringW@24           00430930 f   kernel32:KERNEL32.dll
 0001:0002f936       _GetCPInfo@8               00430936 f   kernel32:KERNEL32.dll
 0001:0002f93c       _CompareStringA@24         0043093c f   kernel32:KERNEL32.dll
 0001:0002f942       _CompareStringW@24         00430942 f   kernel32:KERNEL32.dll
 0001:0002f948       _GetCurrentThreadId@0      00430948 f   kernel32:KERNEL32.dll
 0001:0002f94e       _TlsSetValue@8             0043094e f   kernel32:KERNEL32.dll
 0001:0002f954       _TlsAlloc@0                00430954 f   kernel32:KERNEL32.dll
 0001:0002f95a       _TlsFree@4                 0043095a f   kernel32:KERNEL32.dll
 0001:0002f960       _TlsGetValue@4             00430960 f   kernel32:KERNEL32.dll
 0001:0002f966       _GetCurrentThread@0        00430966 f   kernel32:KERNEL32.dll
 0001:0002f96c       _SetUnhandledExceptionFilter@4 0043096c f   kernel32:KERNEL32.dll
 0001:0002f972       _TerminateProcess@8        00430972 f   kernel32:KERNEL32.dll
 0001:0002f978       _GetCurrentProcess@0       00430978 f   kernel32:KERNEL32.dll
 0001:0002f97e       _GetFileAttributesA@4      0043097e f   kernel32:KERNEL32.dll
 0001:0002f984       _GetModuleHandleA@4        00430984 f   kernel32:KERNEL32.dll
 0001:0002f98a       _HeapSize@12               0043098a f   kernel32:KERNEL32.dll
 0001:0002f990       _CloseHandle@4             00430990 f   kernel32:KERNEL32.dll
 0001:0002f996       _WriteFile@20              00430996 f   kernel32:KERNEL32.dll
 0001:0002f99c       _UnhandledExceptionFilter@4 0043099c f   kernel32:KERNEL32.dll
 0001:0002f9a2       _FreeEnvironmentStringsA@4 004309a2 f   kernel32:KERNEL32.dll
 0001:0002f9a8       _FreeEnvironmentStringsW@4 004309a8 f   kernel32:KERNEL32.dll
 0001:0002f9ae       _GetEnvironmentStrings@0   004309ae f   kernel32:KERNEL32.dll
 0001:0002f9b4       _GetEnvironmentStringsW@0  004309b4 f   kernel32:KERNEL32.dll
 0001:0002f9ba       _SetHandleCount@4          004309ba f   kernel32:KERNEL32.dll
 0001:0002f9c0       _GetFileType@4             004309c0 f   kernel32:KERNEL32.dll
 0001:0002f9c6       _GetStartupInfoA@4         004309c6 f   kernel32:KERNEL32.dll
 0001:0002f9cc       _HeapDestroy@4             004309cc f   kernel32:KERNEL32.dll
 0001:0002f9d2       _HeapCreate@12             004309d2 f   kernel32:KERNEL32.dll
 0001:0002f9d8       _VirtualFree@12            004309d8 f   kernel32:KERNEL32.dll
 0001:0002f9de       _SetFilePointer@16         004309de f   kernel32:KERNEL32.dll
 0001:0002f9e4       _FlushFileBuffers@4        004309e4 f   kernel32:KERNEL32.dll
 0001:0002f9ea       _VirtualAlloc@16           004309ea f   kernel32:KERNEL32.dll
 0001:0002f9f0       _IsBadWritePtr@8           004309f0 f   kernel32:KERNEL32.dll
 0001:0002f9f6       _IsValidLocale@8           004309f6 f   kernel32:KERNEL32.dll
 0001:0002f9fc       _IsValidCodePage@4         004309fc f   kernel32:KERNEL32.dll
 0001:0002fa02       _GetLocaleInfoA@16         00430a02 f   kernel32:KERNEL32.dll
 0001:0002fa08       _EnumSystemLocalesA@8      00430a08 f   kernel32:KERNEL32.dll
 0001:0002fa0e       _GetUserDefaultLCID@0      00430a0e f   kernel32:KERNEL32.dll
 0001:0002fa14       _GetVersionExA@4           00430a14 f   kernel32:KERNEL32.dll
 0001:0002fa1a       _GetTimeZoneInformation@4  00430a1a f   kernel32:KERNEL32.dll
 0001:0002fa20       _GetStringTypeA@20         00430a20 f   kernel32:KERNEL32.dll
 0001:0002fa26       _GetStringTypeW@16         00430a26 f   kernel32:KERNEL32.dll
 0001:0002fa2c       _IsBadReadPtr@8            00430a2c f   kernel32:KERNEL32.dll
 0001:0002fa32       _IsBadCodePtr@4            00430a32 f   kernel32:KERNEL32.dll
 0001:0002fa38       _GetExitCodeProcess@8      00430a38 f   kernel32:KERNEL32.dll
 0001:0002fa3e       _WaitForSingleObject@8     00430a3e f   kernel32:KERNEL32.dll
 0001:0002fa44       _CreateProcessA@40         00430a44 f   kernel32:KERNEL32.dll
 0001:0002fa4a       _SetStdHandle@8            00430a4a f   kernel32:KERNEL32.dll
 0001:0002fa50       _CreateFileA@28            00430a50 f   kernel32:KERNEL32.dll
 0001:0002fa56       _GetACP@0                  00430a56 f   kernel32:KERNEL32.dll
 0001:0002fa5c       _GetOEMCP@0                00430a5c f   kernel32:KERNEL32.dll
 0001:0002fa62       _ReadFile@20               00430a62 f   kernel32:KERNEL32.dll
 0001:0002fa68       _SetConsoleCtrlHandler@8   00430a68 f   kernel32:KERNEL32.dll
 0001:0002fa6e       _SetEnvironmentVariableA@8 00430a6e f   kernel32:KERNEL32.dll
 0001:0002fa74       _SetEndOfFile@4            00430a74 f   kernel32:KERNEL32.dll
 0001:0002fa7a       _GetLocaleInfoW@16         00430a7a f   kernel32:KERNEL32.dll
 0001:0002fa80       _MessageBoxA@16            00430a80 f   user32:USER32.dll
 0001:0002fa86       _MessageBeep@4             00430a86 f   user32:USER32.dll
 0001:0002fa8c       _wsprintfA                 00430a8c f   user32:USER32.dll
 0001:0002fa92       _GetUserNameA@8            00430a92 f   advapi32:ADVAPI32.dll
 0001:0002fa98       __strlwr                   00430a98 f   LIBCMT:strlwr.obj
 0001:0002fa98       _strlwr                    00430a98 f   LIBCMT:strlwr.obj
 0002:00000000       __imp__GetCurrentHwProfileA@4 00433000     advapi32:ADVAPI32.dll
 0002:00000004       __imp__GetUserNameA@8      00433004     advapi32:ADVAPI32.dll
 0002:00000008       \177ADVAPI32_NULL_THUNK_DATA 00433008     advapi32:ADVAPI32.dll
 0002:0000000c       __imp__CoreGetServerShell  0043300c     CoreServer:CoreServer.dll
 0002:00000010       \177CoreServer_NULL_THUNK_DATA 00433010     CoreServer:CoreServer.dll
 0002:00000014       __imp_??1KPakList@@QAE@XZ  00433014     engine:Engine.dll
 0002:00000018       __imp_?g_FileName2Id@@YAKPAD@Z 00433018     engine:Engine.dll
 0002:0000001c       __imp_?GetElapse@KTimer@@QAEKXZ 0043301c     engine:Engine.dll
 0002:00000020       __imp_?g_SetRootPath@@YAXPAD@Z 00433020     engine:Engine.dll
 0002:00000024       __imp_?g_SetFilePath@@YAXPAD@Z 00433024     engine:Engine.dll
 0002:00000028       __imp_??0KIniFile@@QAE@XZ  00433028     engine:Engine.dll
 0002:0000002c       __imp_?Load@KIniFile@@QAEHPBD@Z 0043302c     engine:Engine.dll
 0002:00000030       __imp_?Open@KPakList@@QAE_NPBD@Z 00433030     engine:Engine.dll
 0002:00000034       __imp_?GetInteger@KIniFile@@QAEHPBD0HPAH@Z 00433034     engine:Engine.dll
 0002:00000038       __imp_?GetString@KIniFile@@QAEHPBD00PADK@Z 00433038     engine:Engine.dll
 0002:0000003c       __imp_??1KIniFile@@QAE@XZ  0043303c     engine:Engine.dll
 0002:00000040       __imp_?g_pClientLic@@YAXPAD@Z 00433040     engine:Engine.dll
 0002:00000044       __imp_?KSG_StringToMD5String@@YAHQADQBD@Z 00433044     engine:Engine.dll
 0002:00000048       __imp_?Start@KTimer@@QAEXXZ 00433048     engine:Engine.dll
 0002:0000004c       __imp_??1KLicense@@QAE@XZ  0043304c     engine:Engine.dll
 0002:00000050       __imp_??0KLicense@@QAE@XZ  00433050     engine:Engine.dll
 0002:00000054       __imp_??0KTimer@@QAE@XZ    00433054     engine:Engine.dll
 0002:00000058       __imp_??0KPakList@@QAE@XZ  00433058     engine:Engine.dll
 0002:0000005c       \177Engine_NULL_THUNK_DATA 0043305c     engine:Engine.dll
 0002:00000060       __imp__SetConsoleMode@8    00433060     kernel32:KERNEL32.dll
 0002:00000064       __imp__GetConsoleMode@8    00433064     kernel32:KERNEL32.dll
 0002:00000068       __imp__GetStdHandle@4      00433068     kernel32:KERNEL32.dll
 0002:0000006c       __imp__LoadLibraryA@4      0043306c     kernel32:KERNEL32.dll
 0002:00000070       __imp__FreeLibrary@4       00433070     kernel32:KERNEL32.dll
 0002:00000074       __imp__Sleep@4             00433074     kernel32:KERNEL32.dll
 0002:00000078       __imp__GetModuleFileNameA@12 00433078     kernel32:KERNEL32.dll
 0002:0000007c       __imp__GetProcAddress@8    0043307c     kernel32:KERNEL32.dll
 0002:00000080       __imp__EnterCriticalSection@4 00433080     kernel32:KERNEL32.dll
 0002:00000084       __imp__LeaveCriticalSection@4 00433084     kernel32:KERNEL32.dll
 0002:00000088       __imp__DeleteCriticalSection@4 00433088     kernel32:KERNEL32.dll
 0002:0000008c       __imp__GetVolumeInformationA@32 0043308c     kernel32:KERNEL32.dll
 0002:00000090       __imp__InitializeCriticalSection@4 00433090     kernel32:KERNEL32.dll
 0002:00000094       __imp__GetLocaleInfoW@16   00433094     kernel32:KERNEL32.dll
 0002:00000098       __imp__SetEndOfFile@4      00433098     kernel32:KERNEL32.dll
 0002:0000009c       __imp__SetEnvironmentVariableA@8 0043309c     kernel32:KERNEL32.dll
 0002:000000a0       __imp__SetConsoleCtrlHandler@8 004330a0     kernel32:KERNEL32.dll
 0002:000000a4       __imp__ReadFile@20         004330a4     kernel32:KERNEL32.dll
 0002:000000a8       __imp__GetOEMCP@0          004330a8     kernel32:KERNEL32.dll
 0002:000000ac       __imp__GetACP@0            004330ac     kernel32:KERNEL32.dll
 0002:000000b0       __imp__CreateFileA@28      004330b0     kernel32:KERNEL32.dll
 0002:000000b4       __imp__SetStdHandle@8      004330b4     kernel32:KERNEL32.dll
 0002:000000b8       __imp__CreateProcessA@40   004330b8     kernel32:KERNEL32.dll
 0002:000000bc       __imp__WaitForSingleObject@8 004330bc     kernel32:KERNEL32.dll
 0002:000000c0       __imp__InterlockedDecrement@4 004330c0     kernel32:KERNEL32.dll
 0002:000000c4       __imp__InterlockedIncrement@4 004330c4     kernel32:KERNEL32.dll
 0002:000000c8       __imp__InterlockedExchange@8 004330c8     kernel32:KERNEL32.dll
 0002:000000cc       __imp__GetLastError@0      004330cc     kernel32:KERNEL32.dll
 0002:000000d0       __imp__FormatMessageA@28   004330d0     kernel32:KERNEL32.dll
 0002:000000d4       __imp__GetSystemTime@4     004330d4     kernel32:KERNEL32.dll
 0002:000000d8       __imp__GetLocalTime@4      004330d8     kernel32:KERNEL32.dll
 0002:000000dc       __imp__GetComputerNameA@8  004330dc     kernel32:KERNEL32.dll
 0002:000000e0       __imp__SetLastError@4      004330e0     kernel32:KERNEL32.dll
 0002:000000e4       __imp__WideCharToMultiByte@32 004330e4     kernel32:KERNEL32.dll
 0002:000000e8       __imp__MultiByteToWideChar@24 004330e8     kernel32:KERNEL32.dll
 0002:000000ec       __imp__RtlUnwind@16        004330ec     kernel32:KERNEL32.dll
 0002:000000f0       __imp__RaiseException@16   004330f0     kernel32:KERNEL32.dll
 0002:000000f4       __imp__GetCommandLineA@0   004330f4     kernel32:KERNEL32.dll
 0002:000000f8       __imp__GetVersion@0        004330f8     kernel32:KERNEL32.dll
 0002:000000fc       __imp__ExitProcess@4       004330fc     kernel32:KERNEL32.dll
 0002:00000100       __imp__HeapFree@12         00433100     kernel32:KERNEL32.dll
 0002:00000104       __imp__HeapAlloc@12        00433104     kernel32:KERNEL32.dll
 0002:00000108       __imp__HeapReAlloc@16      00433108     kernel32:KERNEL32.dll
 0002:0000010c       __imp__FatalAppExitA@8     0043310c     kernel32:KERNEL32.dll
 0002:00000110       __imp__LCMapStringA@24     00433110     kernel32:KERNEL32.dll
 0002:00000114       __imp__LCMapStringW@24     00433114     kernel32:KERNEL32.dll
 0002:00000118       __imp__GetCPInfo@8         00433118     kernel32:KERNEL32.dll
 0002:0000011c       __imp__CompareStringA@24   0043311c     kernel32:KERNEL32.dll
 0002:00000120       __imp__CompareStringW@24   00433120     kernel32:KERNEL32.dll
 0002:00000124       __imp__GetCurrentThreadId@0 00433124     kernel32:KERNEL32.dll
 0002:00000128       __imp__TlsSetValue@8       00433128     kernel32:KERNEL32.dll
 0002:0000012c       __imp__TlsAlloc@0          0043312c     kernel32:KERNEL32.dll
 0002:00000130       __imp__TlsFree@4           00433130     kernel32:KERNEL32.dll
 0002:00000134       __imp__TlsGetValue@4       00433134     kernel32:KERNEL32.dll
 0002:00000138       __imp__GetCurrentThread@0  00433138     kernel32:KERNEL32.dll
 0002:0000013c       __imp__SetUnhandledExceptionFilter@4 0043313c     kernel32:KERNEL32.dll
 0002:00000140       __imp__TerminateProcess@8  00433140     kernel32:KERNEL32.dll
 0002:00000144       __imp__GetCurrentProcess@0 00433144     kernel32:KERNEL32.dll
 0002:00000148       __imp__GetFileAttributesA@4 00433148     kernel32:KERNEL32.dll
 0002:0000014c       __imp__GetModuleHandleA@4  0043314c     kernel32:KERNEL32.dll
 0002:00000150       __imp__HeapSize@12         00433150     kernel32:KERNEL32.dll
 0002:00000154       __imp__CloseHandle@4       00433154     kernel32:KERNEL32.dll
 0002:00000158       __imp__WriteFile@20        00433158     kernel32:KERNEL32.dll
 0002:0000015c       __imp__UnhandledExceptionFilter@4 0043315c     kernel32:KERNEL32.dll
 0002:00000160       __imp__FreeEnvironmentStringsA@4 00433160     kernel32:KERNEL32.dll
 0002:00000164       __imp__FreeEnvironmentStringsW@4 00433164     kernel32:KERNEL32.dll
 0002:00000168       __imp__GetEnvironmentStrings@0 00433168     kernel32:KERNEL32.dll
 0002:0000016c       __imp__GetEnvironmentStringsW@0 0043316c     kernel32:KERNEL32.dll
 0002:00000170       __imp__SetHandleCount@4    00433170     kernel32:KERNEL32.dll
 0002:00000174       __imp__GetFileType@4       00433174     kernel32:KERNEL32.dll
 0002:00000178       __imp__GetStartupInfoA@4   00433178     kernel32:KERNEL32.dll
 0002:0000017c       __imp__HeapDestroy@4       0043317c     kernel32:KERNEL32.dll
 0002:00000180       __imp__HeapCreate@12       00433180     kernel32:KERNEL32.dll
 0002:00000184       __imp__VirtualFree@12      00433184     kernel32:KERNEL32.dll
 0002:00000188       __imp__SetFilePointer@16   00433188     kernel32:KERNEL32.dll
 0002:0000018c       __imp__FlushFileBuffers@4  0043318c     kernel32:KERNEL32.dll
 0002:00000190       __imp__VirtualAlloc@16     00433190     kernel32:KERNEL32.dll
 0002:00000194       __imp__IsBadWritePtr@8     00433194     kernel32:KERNEL32.dll
 0002:00000198       __imp__IsValidLocale@8     00433198     kernel32:KERNEL32.dll
 0002:0000019c       __imp__IsValidCodePage@4   0043319c     kernel32:KERNEL32.dll
 0002:000001a0       __imp__GetLocaleInfoA@16   004331a0     kernel32:KERNEL32.dll
 0002:000001a4       __imp__EnumSystemLocalesA@8 004331a4     kernel32:KERNEL32.dll
 0002:000001a8       __imp__GetUserDefaultLCID@0 004331a8     kernel32:KERNEL32.dll
 0002:000001ac       __imp__GetVersionExA@4     004331ac     kernel32:KERNEL32.dll
 0002:000001b0       __imp__GetTimeZoneInformation@4 004331b0     kernel32:KERNEL32.dll
 0002:000001b4       __imp__GetStringTypeA@20   004331b4     kernel32:KERNEL32.dll
 0002:000001b8       __imp__GetStringTypeW@16   004331b8     kernel32:KERNEL32.dll
 0002:000001bc       __imp__IsBadReadPtr@8      004331bc     kernel32:KERNEL32.dll
 0002:000001c0       __imp__IsBadCodePtr@4      004331c0     kernel32:KERNEL32.dll
 0002:000001c4       __imp__GetExitCodeProcess@8 004331c4     kernel32:KERNEL32.dll
 0002:000001c8       __imp__GetCurrentDirectoryA@8 004331c8     kernel32:KERNEL32.dll
 0002:000001cc       \177KERNEL32_NULL_THUNK_DATA 004331cc     kernel32:KERNEL32.dll
 0002:000001d0       __imp__MessageBeep@4       004331d0     user32:USER32.dll
 0002:000001d4       __imp__wsprintfA           004331d4     user32:USER32.dll
 0002:000001d8       __imp__MessageBoxA@16      004331d8     user32:USER32.dll
 0002:000001dc       \177USER32_NULL_THUNK_DATA 004331dc     user32:USER32.dll
 0002:000001e0       __imp__VerQueryValueA@16   004331e0     Version:VERSION.dll
 0002:000001e4       __imp__GetFileVersionInfoA@16 004331e4     Version:VERSION.dll
 0002:000001e8       __imp__GetFileVersionInfoSizeA@8 004331e8     Version:VERSION.dll
 0002:000001ec       \177VERSION_NULL_THUNK_DATA 004331ec     Version:VERSION.dll
 0002:000001f0       __imp__inet_addr@4         004331f0     ws2_32:WS2_32.dll
 0002:000001f4       __imp__WSACleanup@0        004331f4     ws2_32:WS2_32.dll
 0002:000001f8       __imp__gethostbyname@4     004331f8     ws2_32:WS2_32.dll
 0002:000001fc       __imp__gethostname@8       004331fc     ws2_32:WS2_32.dll
 0002:00000200       __imp__WSAStartup@8        00433200     ws2_32:WS2_32.dll
 0002:00000204       __imp__WSAGetLastError@0   00433204     ws2_32:WS2_32.dll
 0002:00000208       \177WS2_32_NULL_THUNK_DATA 00433208     ws2_32:WS2_32.dll
 0002:00000230       _IID_IDocHostUIHandlerDispatch 00433230     GameServer.obj
 0002:00000240       _IID_IInternalConnection   00433240     GameServer.obj
 0002:00000250       _IID_IAxWinAmbientDispatch 00433250     GameServer.obj
 0002:00000260       _IID_IAxWinHostWindow      00433260     GameServer.obj
 0002:00000270       _IID_IRegistrar            00433270     GameServer.obj
 0002:00000280       _CLSID_Registrar           00433280     GameServer.obj
 0002:00000290       _LIBID_ATLLib              00433290     GameServer.obj
 0002:000002a0       ??_7CException@Win32@OnlineGameLib@@6B@ 004332a0     GameServer.obj
 0002:000002ac       ?_C@?1??_Nullstr@?$basic_string@DU?$char_traits@D@std@@V?$allocator@D@2@@std@@CAPBDXZ@4DB 004332ac     GameServer.obj
 0002:000002b0       ?npos@?$basic_string@DU?$char_traits@D@std@@V?$allocator@D@2@@std@@2IB 004332b0     GameServer.obj
 0002:000002b4       ??_7?$basic_stringstream@DU?$char_traits@D@std@@V?$allocator@D@2@@std@@6B@ 004332b4     GameServer.obj
 0002:000002b8       ??_8?$basic_stringstream@DU?$char_traits@D@std@@V?$allocator@D@2@@std@@7B?$basic_ostream@DU?$char_traits@D@std@@@1@@ 004332b8     GameServer.obj
 0002:000002c0       ??_8?$basic_stringstream@DU?$char_traits@D@std@@V?$allocator@D@2@@std@@7B?$basic_istream@DU?$char_traits@D@std@@@1@@ 004332c0     GameServer.obj
 0002:000002c8       ??_7?$basic_iostream@DU?$char_traits@D@std@@@std@@6B@ 004332c8     GameServer.obj
 0002:000002cc       ??_8?$basic_iostream@DU?$char_traits@D@std@@@std@@7B?$basic_ostream@DU?$char_traits@D@std@@@1@@ 004332cc     GameServer.obj
 0002:000002d4       ??_8?$basic_iostream@DU?$char_traits@D@std@@@std@@7B?$basic_istream@DU?$char_traits@D@std@@@1@@ 004332d4     GameServer.obj
 0002:000002dc       ??_7?$basic_stringbuf@DU?$char_traits@D@std@@V?$allocator@D@2@@std@@6B@ 004332dc     GameServer.obj
 0002:00000310       _IID_IESClient             00433310     KSOServer.obj
 0002:00000320       _IID_IClientFactory        00433320     KSOServer.obj
 0002:00000330       _IID_IPropertyFrame        00433330     KSOServer.obj
 0002:00000340       _CLSID_CFontPropPage       00433340     KSOServer.obj
 0002:00000350       _CLSID_CColorPropPage      00433350     KSOServer.obj
 0002:00000360       _CLSID_CPicturePropPage    00433360     KSOServer.obj
 0002:00000370       _CLSID_PersistPropset      00433370     KSOServer.obj
 0002:00000380       _CLSID_ConvertVBX          00433380     KSOServer.obj
 0002:00000390       _CLSID_StdFont             00433390     KSOServer.obj
 0002:000003a0       _CLSID_StdPicture          004333a0     KSOServer.obj
 0002:000003b0       _GUID_HIMETRIC             004333b0     KSOServer.obj
 0002:000003c0       _GUID_COLOR                004333c0     KSOServer.obj
 0002:000003d0       _GUID_XPOSPIXEL            004333d0     KSOServer.obj
 0002:000003e0       _GUID_YPOSPIXEL            004333e0     KSOServer.obj
 0002:000003f0       _GUID_XSIZEPIXEL           004333f0     KSOServer.obj
 0002:00000400       _GUID_YSIZEPIXEL           00433400     KSOServer.obj
 0002:00000410       _GUID_XPOS                 00433410     KSOServer.obj
 0002:00000420       _GUID_YPOS                 00433420     KSOServer.obj
 0002:00000430       _GUID_XSIZE                00433430     KSOServer.obj
 0002:00000440       _GUID_YSIZE                00433440     KSOServer.obj
 0002:00000450       _GUID_OPTIONVALUEEXCLUSIVE 00433450     KSOServer.obj
 0002:00000460       _GUID_CHECKVALUEEXCLUSIVE  00433460     KSOServer.obj
 0002:00000470       _GUID_FONTNAME             00433470     KSOServer.obj
 0002:00000480       _GUID_FONTSIZE             00433480     KSOServer.obj
 0002:00000490       _GUID_FONTBOLD             00433490     KSOServer.obj
 0002:000004a0       _GUID_FONTITALIC           004334a0     KSOServer.obj
 0002:000004b0       _GUID_FONTUNDERSCORE       004334b0     KSOServer.obj
 0002:000004c0       _GUID_FONTSTRIKETHROUGH    004334c0     KSOServer.obj
 0002:000004d0       _GUID_HANDLE               004334d0     KSOServer.obj
 0002:000004e0       _IID_IIOCPServer           004334e0     KSOServer.obj
 0002:000004f0       _IID_IServerFactory        004334f0     KSOServer.obj
 0002:00000500       ?m_snMaxBuffer@KSwordOnLineSever@@0HB 00433500     KSOServer.obj
 0002:00000504       ?m_snBufferSize@KSwordOnLineSever@@0HB 00433504     KSOServer.obj
 0002:00000508       ??_7KTransferUnit@@6B@     00433508     KTransferUnit.obj
 0002:0000050c       ??_7CLibrary@Win32@OnlineGameLib@@6B@ 0043350c     common:Library.obj
 0002:00000510       ??_7CWin32Exception@Win32@OnlineGameLib@@6B@ 00433510     common:UsesWinsock.obj
 0002:0000051c       ??_7Allocator@CBuffer@Win32@OnlineGameLib@@6B@ 0043351c     common:Buffer.obj
 0002:0000052c       ??_7CPackager@Win32@OnlineGameLib@@6B@ 0043352c     common:Buffer.obj
 0002:00000930       ??_7?$basic_fstream@DU?$char_traits@D@std@@@std@@6B@ 00433930     common:Utils.obj
 0002:00000934       ??_8?$basic_fstream@DU?$char_traits@D@std@@@std@@7B?$basic_ostream@DU?$char_traits@D@std@@@1@@ 00433934     common:Utils.obj
 0002:0000093c       ??_8?$basic_fstream@DU?$char_traits@D@std@@@std@@7B?$basic_istream@DU?$char_traits@D@std@@@1@@ 0043393c     common:Utils.obj
 0002:00000944       ??_8?$basic_ostream@DU?$char_traits@D@std@@@std@@7B@ 00433944     common:Utils.obj
 0002:00000950       ?_Fpz@std@@3_JB            00433950     libcpmt:ios.obj
 0002:0000095c       ??_7failure@ios_base@std@@6B@ 0043395c     libcpmt:ios.obj
 0002:00000968       ??_C@_0BA@NGIA@ios?3?3eofbit?5set?$AA@ 00433968     libcpmt:ios.obj
 0002:00000978       ??_C@_0BB@KPBH@ios?3?3failbit?5set?$AA@ 00433978     libcpmt:ios.obj
 0002:0000098c       ??_C@_0BA@HGGD@ios?3?3badbit?5set?$AA@ 0043398c     libcpmt:ios.obj
 0002:000009a0       ??_7runtime_error@std@@6B@ 004339a0     libcpmt:ios.obj
 0002:000009b0       ??_7ios_base@std@@6B@      004339b0     libcpmt:ios.obj
 0002:000009b4       ??_C@_0BP@INPK@invalid?5ios?3?3iword?1pword?5index?$AA@ 004339b4     libcpmt:ios.obj
 0002:000009d4       ?table_size@?$ctype@D@std@@2IB 004339d4     libcpmt:locale0.obj
 0002:000009d8       ??_C@_01FDHG@?$CK?$AA@     004339d8     libcpmt:locale0.obj
 0002:000009e0       ??_7_Locimp@locale@std@@6B@ 004339e0     libcpmt:locale0.obj
 0002:000009e8       ??_7facet@locale@std@@6B@  004339e8     libcpmt:locale0.obj
 0002:000009f0       ??_7length_error@std@@6B@  004339f0     libcpmt:string.obj
 0002:000009fc       ??_C@_0BA@HHMB@string?5too?5long?$AA@ 004339fc     libcpmt:string.obj
 0002:00000a10       ??_7logic_error@std@@6B@   00433a10     libcpmt:string.obj
 0002:00000a20       ??_7out_of_range@std@@6B@  00433a20     libcpmt:string.obj
 0002:00000a2c       ??_C@_0BI@EEBE@invalid?5string?5position?$AA@ 00433a2c     libcpmt:string.obj
 0002:00000a44       ??_C@_0BA@KCC@bad?5locale?5name?$AA@ 00433a44     libcpmt:locale.obj
 0002:00000a58       ??_7?$codecvt@DDH@std@@6B@ 00433a58     libcpmt:locale.obj
 0002:00000a78       ??_7?$numpunct@D@std@@6B@  00433a78     libcpmt:locale.obj
 0002:00000a94       ??_7?$num_put@DV?$ostreambuf_iterator@DU?$char_traits@D@std@@@std@@@std@@6B@ 00433a94     libcpmt:locale.obj
 0002:00000ab4       ??_7?$num_get@DV?$istreambuf_iterator@DU?$char_traits@D@std@@@std@@@std@@6B@ 00433ab4     libcpmt:locale.obj
 0002:00000ae0       ??_7?$ctype@D@std@@6B@     00433ae0     libcpmt:locale.obj
 0002:00000af4       ??_C@_0BH@CFAI@0123456789abcdefABCDEF?$AA@ 00433af4     libcpmt:locale.obj
 0002:00000b10       ??_7bad_cast@std@@6B@      00433b10     libcpmt:locale.obj
 0002:00000b20       ??_7?$basic_istream@DU?$char_traits@D@std@@@std@@6B@ 00433b20     libcpmt:iostream.obj
 0002:00000b28       ??_7?$basic_ostream@DU?$char_traits@D@std@@@std@@6B@ 00433b28     libcpmt:iostream.obj
 0002:00000b30       ??_7?$basic_ios@DU?$char_traits@D@std@@@std@@6B@ 00433b30     libcpmt:iostream.obj
 0002:00000b34       ??_8?$basic_istream@DU?$char_traits@D@std@@@std@@7B@ 00433b34     libcpmt:iostream.obj
 0002:00000b40       ??_7?$basic_filebuf@DU?$char_traits@D@std@@@std@@6B@ 00433b40     libcpmt:iostream.obj
 0002:00000b78       ??_7?$basic_streambuf@DU?$char_traits@D@std@@@std@@6B@ 00433b78     libcpmt:iostream.obj
 0002:00000bb0       ??_7?$basic_istream@GU?$char_traits@G@std@@@std@@6B@ 00433bb0     libcpmt:wiostrea.obj
 0002:00000bb8       ??_7?$basic_ostream@GU?$char_traits@G@std@@@std@@6B@ 00433bb8     libcpmt:wiostrea.obj
 0002:00000bc0       ??_7?$basic_ios@GU?$char_traits@G@std@@@std@@6B@ 00433bc0     libcpmt:wiostrea.obj
 0002:00000bc4       ??_8?$basic_ostream@GU?$char_traits@G@std@@@std@@7B@ 00433bc4     libcpmt:wiostrea.obj
 0002:00000bcc       ??_8?$basic_istream@GU?$char_traits@G@std@@@std@@7B@ 00433bcc     libcpmt:wiostrea.obj
 0002:00000bd8       ??_7?$basic_filebuf@GU?$char_traits@G@std@@@std@@6B@ 00433bd8     libcpmt:wiostrea.obj
 0002:00000c10       ??_7?$basic_streambuf@GU?$char_traits@G@std@@@std@@6B@ 00433c10     libcpmt:wiostrea.obj
 0002:00000c44       ?nothrow@std@@3Unothrow_t@1@B 00433c44     libcpmt:nomemory.obj
 0002:00000c48       ??_C@_0P@LJNA@bad?5allocation?$AA@ 00433c48     libcpmt:nomemory.obj
 0002:00000c5c       ??_7bad_alloc@std@@6B@     00433c5c     libcpmt:nomemory.obj
 0002:00000c6c       ??_7?$codecvt@GDH@std@@6B@ 00433c6c     libcpmt:wlocale.obj
 0002:00000c8c       ??_7?$time_put@GV?$ostreambuf_iterator@GU?$char_traits@G@std@@@std@@@std@@6B@ 00433c8c     libcpmt:wlocale.obj
 0002:00000c98       ??_7?$time_get@GV?$istreambuf_iterator@GU?$char_traits@G@std@@@std@@@std@@6B@ 00433c98     libcpmt:wlocale.obj
 0002:00000cb8       ??_7?$moneypunct@G$00@std@@6B@ 00433cb8     libcpmt:wlocale.obj
 0002:00000ce4       ??_7?$moneypunct@G$0A@@std@@6B@ 00433ce4     libcpmt:wlocale.obj
 0002:00000d10       ??_7?$money_put@GV?$ostreambuf_iterator@GU?$char_traits@G@std@@@std@@@std@@6B@ 00433d10     libcpmt:wlocale.obj
 0002:00000d20       ??_7?$money_get@GV?$istreambuf_iterator@GU?$char_traits@G@std@@@std@@@std@@6B@ 00433d20     libcpmt:wlocale.obj
 0002:00000d30       ??_7?$messages@G@std@@6B@  00433d30     libcpmt:wlocale.obj
 0002:00000d44       ??_7?$collate@G@std@@6B@   00433d44     libcpmt:wlocale.obj
 0002:00000d58       ??_7?$numpunct@G@std@@6B@  00433d58     libcpmt:wlocale.obj
 0002:00000d74       ??_7?$num_put@GV?$ostreambuf_iterator@GU?$char_traits@G@std@@@std@@@std@@6B@ 00433d74     libcpmt:wlocale.obj
 0002:00000d94       ??_7?$num_get@GV?$istreambuf_iterator@GU?$char_traits@G@std@@@std@@@std@@6B@ 00433d94     libcpmt:wlocale.obj
 0002:00000dc0       ??_7?$ctype@G@std@@6B@     00433dc0     libcpmt:wlocale.obj
 0002:00000df4       ??_C@_04HHID@?$CB?$CFx?$AA?$AA@ 00433df4     libcpmt:wlocale.obj
 0002:00000dfc       ?_C@?1??_Nullstr@?$basic_string@GU?$char_traits@G@std@@V?$allocator@G@2@@std@@CAPBGXZ@4GB 00433dfc     libcpmt:wlocale.obj
 0002:00000e00       ?npos@?$basic_string@GU?$char_traits@G@std@@V?$allocator@G@2@@std@@2IB 00433e00     libcpmt:wlocale.obj
 0002:00000e04       ??_C@_05FFJC@?$CF?40Lf?$AA@ 00433e04     libcpmt:wlocale.obj
 0002:00000e10       __real@8@3fdddbe6fecebdedd800 00433e10     libcpmt:wlocale.obj
 0002:00000e18       __real@8@40739a130b963a6c1000 00433e18     libcpmt:wlocale.obj
 0002:00000e20       __real@8@00000000000000000000 00433e20     libcpmt:wlocale.obj
 0002:00000e2c       ??_7?$_Mpunct@G@std@@6B@   00433e2c     libcpmt:wlocale.obj
 0002:00000e54       ??_C@_03LGKI@yes?$AA@      00433e54     libcpmt:wlocale.obj
 0002:00000e58       ??_C@_02ELCB@no?$AA@       00433e58     libcpmt:wlocale.obj
 0002:00000e5c       ??_C@_0FG@ILEN@?3Sun?3Sunday?3Mon?3Monday?3Tue?3Tuesd@ 00433e5c     libcpmt:wlocale.obj
 0002:00000eb4       ??_C@_0IH@JLLA@?3Jan?3January?3Feb?3February?3Mar?3Ma@ 00433eb4     libcpmt:wlocale.obj
 0002:00000f3c       ??_C@_01GJD@?9?$AA@        00433f3c     libcpmt:wlocale.obj
 0002:00000f40       ??_C@_04HDBI@$?$CLvx?$AA@  00433f40     libcpmt:wlocale.obj
 0002:00000f48       ??_C@_0FB@PNAB@?$CLv$x?$CLv$xv$?$CLxv?$CL$xv$?$CLx?$CL$vx?$CL$vx$v?$CLx@ 00433f48     libcpmt:wlocale.obj
 0002:00000fa0       ??_7?$time_put@DV?$ostreambuf_iterator@DU?$char_traits@D@std@@@std@@@std@@6B@ 00433fa0     libcpmt:xlocale.obj
 0002:00000fac       ??_7?$time_get@DV?$istreambuf_iterator@DU?$char_traits@D@std@@@std@@@std@@6B@ 00433fac     libcpmt:xlocale.obj
 0002:00000fcc       ??_7?$moneypunct@D$00@std@@6B@ 00433fcc     libcpmt:xlocale.obj
 0002:00000ff8       ??_7?$moneypunct@D$0A@@std@@6B@ 00433ff8     libcpmt:xlocale.obj
 0002:00001024       ??_7?$money_put@DV?$ostreambuf_iterator@DU?$char_traits@D@std@@@std@@@std@@6B@ 00434024     libcpmt:xlocale.obj
 0002:00001034       ??_7?$money_get@DV?$istreambuf_iterator@DU?$char_traits@D@std@@@std@@@std@@6B@ 00434034     libcpmt:xlocale.obj
 0002:00001044       ??_7?$messages@D@std@@6B@  00434044     libcpmt:xlocale.obj
 0002:00001058       ??_7?$collate@D@std@@6B@   00434058     libcpmt:xlocale.obj
 0002:0000106c       ??_7?$_Mpunct@D@std@@6B@   0043406c     libcpmt:xlocale.obj
 0002:00001098       __real@8@3ffbccccccccccccd000 00434098     libcpmt:xstod.obj
 0002:000010a0       __real@8@4002a000000000000000 004340a0     libcpmt:xstod.obj
 0002:000010ac       ??_7type_info@@6B@         004340ac     LIBCMT:typinfo.obj
 0002:000010d0       ??_C@_07OOMJ@cmd?4exe?$AA@ 004340d0     LIBCMT:system.obj
 0002:000010d8       ??_C@_0M@IPJP@command?4com?$AA@ 004340d8     LIBCMT:system.obj
 0002:000010e4       ??_C@_02JMK@?1c?$AA@       004340e4     LIBCMT:system.obj
 0002:000010e8       ??_C@_07KFDO@COMSPEC?$AA@  004340e8     LIBCMT:system.obj
 0002:000010f4       ??_7exception@@6B@         004340f4     LIBCMT:stdexcpt.obj
 0002:000010fc       ??_C@_0BC@OIDF@Unknown?5exception?$AA@ 004340fc     LIBCMT:stdexcpt.obj
 0002:0000111c       ??_C@_07PCLE@LC_TIME?$AA@  0043411c     LIBCMT:setlocal.obj
 0002:00001124       ??_C@_0L@NKG@LC_NUMERIC?$AA@ 00434124     LIBCMT:setlocal.obj
 0002:00001130       ??_C@_0M@CBIH@LC_MONETARY?$AA@ 00434130     LIBCMT:setlocal.obj
 0002:0000113c       ??_C@_08LFGE@LC_CTYPE?$AA@ 0043413c     LIBCMT:setlocal.obj
 0002:00001148       ??_C@_0L@CFLC@LC_COLLATE?$AA@ 00434148     LIBCMT:setlocal.obj
 0002:00001154       ??_C@_06GCPK@LC_ALL?$AA@   00434154     LIBCMT:setlocal.obj
 0002:0000115c       ??_C@_01FAJB@?$DL?$AA@     0043415c     LIBCMT:setlocal.obj
 0002:00001160       ??_C@_02BGDO@?$DN?$DL?$AA@ 00434160     LIBCMT:setlocal.obj
 0002:00001164       ??_C@_01KPOD@?$DN?$AA@     00434164     LIBCMT:setlocal.obj
 0002:00001168       ??_C@_03DBOJ@_?4?0?$AA@    00434168     LIBCMT:setlocal.obj
 0002:0000116c       ??_C@_01PJCK@?4?$AA@       0043416c     LIBCMT:setlocal.obj
 0002:00001170       ??_C@_01NON@_?$AA@         00434170     LIBCMT:setlocal.obj
 0002:00001174       ??_C@_07CJME@H?3mm?3ss?$AA@ 00434174     LIBCMT:strftime.obj
 0002:0000117c       ??_C@_0BE@MHI@dddd?0?5MMMM?5dd?0?5yyyy?$AA@ 0043417c     LIBCMT:strftime.obj
 0002:00001190       ??_C@_06HCAD@M?1d?1yy?$AA@ 00434190     LIBCMT:strftime.obj
 0002:00001198       ??_C@_02DBLP@PM?$AA@       00434198     LIBCMT:strftime.obj
 0002:0000119c       ??_C@_02ENLM@AM?$AA@       0043419c     LIBCMT:strftime.obj
 0002:000011a0       ??_C@_08LIDF@December?$AA@ 004341a0     LIBCMT:strftime.obj
 0002:000011ac       ??_C@_08NJLI@November?$AA@ 004341ac     LIBCMT:strftime.obj
 0002:000011b8       ??_C@_07IAMM@October?$AA@  004341b8     LIBCMT:strftime.obj
 0002:000011c0       ??_C@_09MKGD@September?$AA@ 004341c0     LIBCMT:strftime.obj
 0002:000011cc       ??_C@_06PADP@August?$AA@   004341cc     LIBCMT:strftime.obj
 0002:000011d4       ??_C@_04PIJO@July?$AA@     004341d4     LIBCMT:strftime.obj
 0002:000011dc       ??_C@_04ICFP@June?$AA@     004341dc     LIBCMT:strftime.obj
 0002:000011e4       ??_C@_05JFGC@April?$AA@    004341e4     LIBCMT:strftime.obj
 0002:000011ec       ??_C@_05FGPD@March?$AA@    004341ec     LIBCMT:strftime.obj
 0002:000011f4       ??_C@_08PGBA@February?$AA@ 004341f4     LIBCMT:strftime.obj
 0002:00001200       ??_C@_07BPKJ@January?$AA@  00434200     LIBCMT:strftime.obj
 0002:00001208       ??_C@_03PGJO@Dec?$AA@      00434208     LIBCMT:strftime.obj
 0002:0000120c       ??_C@_03PDLM@Nov?$AA@      0043420c     LIBCMT:strftime.obj
 0002:00001210       ??_C@_03BLHK@Oct?$AA@      00434210     LIBCMT:strftime.obj
 0002:00001214       ??_C@_03DPFM@Sep?$AA@      00434214     LIBCMT:strftime.obj
 0002:00001218       ??_C@_03CMCH@Aug?$AA@      00434218     LIBCMT:strftime.obj
 0002:0000121c       ??_C@_03OBKI@Jul?$AA@      0043421c     LIBCMT:strftime.obj
 0002:00001220       ??_C@_03LEIG@Jun?$AA@      00434220     LIBCMT:strftime.obj
 0002:00001224       ??_C@_03MGHB@May?$AA@      00434224     LIBCMT:strftime.obj
 0002:00001228       ??_C@_03MJJM@Apr?$AA@      00434228     LIBCMT:strftime.obj
 0002:0000122c       ??_C@_03GNHA@Mar?$AA@      0043422c     LIBCMT:strftime.obj
 0002:00001230       ??_C@_03PICE@Feb?$AA@      00434230     LIBCMT:strftime.obj
 0002:00001234       ??_C@_03IEIF@Jan?$AA@      00434234     LIBCMT:strftime.obj
 0002:00001238       ??_C@_08FAKH@Saturday?$AA@ 00434238     LIBCMT:strftime.obj
 0002:00001244       ??_C@_06ONCK@Friday?$AA@   00434244     LIBCMT:strftime.obj
 0002:0000124c       ??_C@_08CCFO@Thursday?$AA@ 0043424c     LIBCMT:strftime.obj
 0002:00001258       ??_C@_09PBIN@Wednesday?$AA@ 00434258     LIBCMT:strftime.obj
 0002:00001264       ??_C@_07BMBC@Tuesday?$AA@  00434264     LIBCMT:strftime.obj
 0002:0000126c       ??_C@_06CHLK@Monday?$AA@   0043426c     LIBCMT:strftime.obj
 0002:00001274       ??_C@_06OOEM@Sunday?$AA@   00434274     LIBCMT:strftime.obj
 0002:0000127c       ??_C@_03MPKK@Sat?$AA@      0043427c     LIBCMT:strftime.obj
 0002:00001280       ??_C@_03FINJ@Fri?$AA@      00434280     LIBCMT:strftime.obj
 0002:00001284       ??_C@_03HIKC@Thu?$AA@      00434284     LIBCMT:strftime.obj
 0002:00001288       ??_C@_03HECK@Wed?$AA@      00434288     LIBCMT:strftime.obj
 0002:0000128c       ??_C@_03ECCP@Tue?$AA@      0043428c     LIBCMT:strftime.obj
 0002:00001290       ??_C@_03PIEP@Mon?$AA@      00434290     LIBCMT:strftime.obj
 0002:00001294       ??_C@_03FHEP@Sun?$AA@      00434294     LIBCMT:strftime.obj
 0002:00001298       ??_C@_03MKGK@a?1p?$AA@     00434298     LIBCMT:strftime.obj
 0002:0000129c       ??_C@_05BDJK@am?1pm?$AA@   0043429c     LIBCMT:strftime.obj
 0002:000012a4       ??_C@_01A@?$AA?$AA@        004342a4     LIBCMT:a_map.obj
 0002:000012a8       ??_C@_13A@?$AA?$AA?$AA?$AA@ 004342a8     LIBCMT:a_map.obj
 0002:00001358       ??_C@_04LNMG@PATH?$AA@     00434358     LIBCMT:spawnvpe.obj
 0002:00001360       ??_C@_04GGNP@?4com?$AA@    00434360     LIBCMT:spawnve.obj
 0002:00001368       ??_C@_04NFOM@?4exe?$AA@    00434368     LIBCMT:spawnve.obj
 0002:00001370       ??_C@_04KBDN@?4bat?$AA@    00434370     LIBCMT:spawnve.obj
 0002:00001378       ??_C@_04LFKF@?4cmd?$AA@    00434378     LIBCMT:spawnve.obj
 0002:00001380       ??_C@_02OFKN@?4?2?$AA@     00434380     LIBCMT:spawnve.obj
 0002:00001384       ___lookuptable             00434384     LIBCMT:output.obj
 0002:000013e0       ??_C@_1O@POHA@?$AA?$CI?$AAn?$AAu?$AAl?$AAl?$AA?$CJ?$AA?$AA@ 004343e0     LIBCMT:output.obj
 0002:000013f0       ??_C@_06ONKE@?$CInull?$CJ?$AA@ 004343f0     LIBCMT:output.obj
 0002:000013f8       __real@8@3fff8000000000000000 004343f8     LIBCMT:testfdiv.obj
 0002:00001400       __real@8@4015800bf60000000000 00434400     LIBCMT:testfdiv.obj
 0002:00001408       __real@8@4014bffffc0000000000 00434408     LIBCMT:testfdiv.obj
 0002:00001410       ??_C@_0BK@JEGK@IsProcessorFeaturePresent?$AA@ 00434410     LIBCMT:testfdiv.obj
 0002:0000142c       ??_C@_08OBID@KERNEL32?$AA@ 0043442c     LIBCMT:testfdiv.obj
 0002:00001438       ??_C@_05OFLO@e?$CL000?$AA@ 00434438     LIBCMT:cvt.obj
 0002:00001440       ??_C@_0P@GGKG@runtime?5error?5?$AA@ 00434440     LIBCMT:crt0msg.obj
 0002:00001450       ??_C@_02PIMC@?$AN?6?$AA@   00434450     LIBCMT:crt0msg.obj
 0002:00001454       ??_C@_0O@DELO@TLOSS?5error?$AN?6?$AA@ 00434454     LIBCMT:crt0msg.obj
 0002:00001464       ??_C@_0N@OMLL@SING?5error?$AN?6?$AA@ 00434464     LIBCMT:crt0msg.obj
 0002:00001474       ??_C@_0P@OJAK@DOMAIN?5error?$AN?6?$AA@ 00434474     LIBCMT:crt0msg.obj
 0002:00001484       ??_C@_0CF@EANP@R6028?$AN?6?9?5unable?5to?5initialize?5he@ 00434484     LIBCMT:crt0msg.obj
 0002:000014ac       ??_C@_0DF@ECGN@R6027?$AN?6?9?5not?5enough?5space?5for?5lo@ 004344ac     LIBCMT:crt0msg.obj
 0002:000014e4       ??_C@_0DF@FKAC@R6026?$AN?6?9?5not?5enough?5space?5for?5st@ 004344e4     LIBCMT:crt0msg.obj
 0002:0000151c       ??_C@_0CG@DPMN@R6025?$AN?6?9?5pure?5virtual?5function?5c@ 0043451c     LIBCMT:crt0msg.obj
 0002:00001544       ??_C@_0DF@CKIP@R6024?$AN?6?9?5not?5enough?5space?5for?5_o@ 00434544     LIBCMT:crt0msg.obj
 0002:0000157c       ??_C@_0CJ@GGOE@R6019?$AN?6?9?5unable?5to?5open?5console?5@ 0043457c     LIBCMT:crt0msg.obj
 0002:000015a8       ??_C@_0CB@LBOB@R6018?$AN?6?9?5unexpected?5heap?5error?$AN?6@ 004345a8     LIBCMT:crt0msg.obj
 0002:000015cc       ??_C@_0CN@FPEG@R6017?$AN?6?9?5unexpected?5multithread?5@ 004345cc     LIBCMT:crt0msg.obj
 0002:000015fc       ??_C@_0CM@OBIC@R6016?$AN?6?9?5not?5enough?5space?5for?5th@ 004345fc     LIBCMT:crt0msg.obj
 0002:00001628       ??_C@_0CB@HPAL@?$AN?6abnormal?5program?5termination?$AN?6@ 00434628     LIBCMT:crt0msg.obj
 0002:0000164c       ??_C@_0CM@JOOB@R6009?$AN?6?9?5not?5enough?5space?5for?5en@ 0043464c     LIBCMT:crt0msg.obj
 0002:00001678       ??_C@_0CK@OIBL@R6008?$AN?6?9?5not?5enough?5space?5for?5ar@ 00434678     LIBCMT:crt0msg.obj
 0002:000016a4       ??_C@_0CF@LKPB@R6002?$AN?6?9?5floating?5point?5not?5load@ 004346a4     LIBCMT:crt0msg.obj
 0002:000016cc       ??_C@_0CF@JPDF@Microsoft?5Visual?5C?$CL?$CL?5Runtime?5Lib@ 004346cc     LIBCMT:crt0msg.obj
 0002:000016f4       ??_C@_02JJJH@?6?6?$AA@     004346f4     LIBCMT:crt0msg.obj
 0002:000016f8       ??_C@_0BK@DEOK@Runtime?5Error?$CB?6?6Program?3?5?$AA@ 004346f8     LIBCMT:crt0msg.obj
 0002:00001714       ??_C@_03NAME@?4?4?4?$AA@   00434714     LIBCMT:crt0msg.obj
 0002:00001718       ??_C@_0BH@NNCD@?$DMprogram?5name?5unknown?$DO?$AA@ 00434718     LIBCMT:crt0msg.obj
 0002:00001730       ??_C@_08OBJD@Paraguay?$AA@ 00434730     LIBCMT:getqloc.obj
 0002:0000173c       ??_C@_07GLKH@Uruguay?$AA@  0043473c     LIBCMT:getqloc.obj
 0002:00001744       ??_C@_05FPFC@Chile?$AA@    00434744     LIBCMT:getqloc.obj
 0002:0000174c       ??_C@_07IIGF@Ecuador?$AA@  0043474c     LIBCMT:getqloc.obj
 0002:00001754       ??_C@_09PKAL@Argentina?$AA@ 00434754     LIBCMT:getqloc.obj
 0002:00001760       ??_C@_04LKAH@Peru?$AA@     00434760     LIBCMT:getqloc.obj
 0002:00001768       ??_C@_08NEEM@Colombia?$AA@ 00434768     LIBCMT:getqloc.obj
 0002:00001774       ??_C@_09ODEB@Venezuela?$AA@ 00434774     LIBCMT:getqloc.obj
 0002:00001780       ??_C@_0BD@CLEL@Dominican?5Republic?$AA@ 00434780     LIBCMT:getqloc.obj
 0002:00001794       ??_C@_0N@MDGL@South?5Africa?$AA@ 00434794     LIBCMT:getqloc.obj
 0002:000017a4       ??_C@_06NKBG@Panama?$AA@   004347a4     LIBCMT:getqloc.obj
 0002:000017ac       ??_C@_0L@BMHO@Luxembourg?$AA@ 004347ac     LIBCMT:getqloc.obj
 0002:000017b8       ??_C@_0L@IMDK@Costa?5Rica?$AA@ 004347b8     LIBCMT:getqloc.obj
 0002:000017c4       ??_C@_0M@BLJF@Switzerland?$AA@ 004347c4     LIBCMT:getqloc.obj
 0002:000017d0       ??_C@_09KBOL@Guatemala?$AA@ 004347d0     LIBCMT:getqloc.obj
 0002:000017dc       ??_C@_06JNAK@Canada?$AA@   004347dc     LIBCMT:getqloc.obj
 0002:000017e4       ??_C@_0BG@OLLP@Spanish?5?9?5Modern?5Sort?$AA@ 004347e4     LIBCMT:getqloc.obj
 0002:000017fc       ??_C@_09IDKE@Australia?$AA@ 004347fc     LIBCMT:getqloc.obj
 0002:00001808       ??_C@_07JJJJ@English?$AA@  00434808     LIBCMT:getqloc.obj
 0002:00001810       ??_C@_07NMDO@Austria?$AA@  00434810     LIBCMT:getqloc.obj
 0002:00001818       ??_C@_06DEFE@German?$AA@   00434818     LIBCMT:getqloc.obj
 0002:00001820       ??_C@_07JAIH@Belgium?$AA@  00434820     LIBCMT:getqloc.obj
 0002:00001828       ??_C@_06BNLJ@Mexico?$AA@   00434828     LIBCMT:getqloc.obj
 0002:00001830       ??_C@_07JHAG@Spanish?$AA@  00434830     LIBCMT:getqloc.obj
 0002:00001838       ??_C@_06DADE@Basque?$AA@   00434838     LIBCMT:getqloc.obj
 0002:00001840       ??_C@_06ENFP@Sweden?$AA@   00434840     LIBCMT:getqloc.obj
 0002:00001848       ??_C@_07JPMH@Swedish?$AA@  00434848     LIBCMT:getqloc.obj
 0002:00001850       ??_C@_07IEKF@Iceland?$AA@  00434850     LIBCMT:getqloc.obj
 0002:00001858       ??_C@_09KNEA@Icelandic?$AA@ 00434858     LIBCMT:getqloc.obj
 0002:00001864       ??_C@_06IJOD@France?$AA@   00434864     LIBCMT:getqloc.obj
 0002:0000186c       ??_C@_06EINI@French?$AA@   0043486c     LIBCMT:getqloc.obj
 0002:00001874       ??_C@_07FOOE@Finland?$AA@  00434874     LIBCMT:getqloc.obj
 0002:0000187c       ??_C@_07OJOM@Finnish?$AA@  0043487c     LIBCMT:getqloc.obj
 0002:00001884       ??_C@_05FFAC@Spain?$AA@    00434884     LIBCMT:getqloc.obj
 0002:0000188c       ??_C@_0BL@BIHM@Spanish?5?9?5Traditional?5Sort?$AA@ 0043488c     LIBCMT:getqloc.obj
 0002:000018a8       ??_C@_0O@GLHB@united?9states?$AA@ 004348a8     LIBCMT:getqloc.obj
 0002:000018b8       ??_C@_0P@IIKK@united?9kingdom?$AA@ 004348b8     LIBCMT:getqloc.obj
 0002:000018c8       ??_C@_0BC@FHBO@trinidad?5?$CG?5tobago?$AA@ 004348c8     LIBCMT:getqloc.obj
 0002:000018dc       ??_C@_0M@BDFM@south?9korea?$AA@ 004348dc     LIBCMT:getqloc.obj
 0002:000018e8       ??_C@_0N@CKFA@south?9africa?$AA@ 004348e8     LIBCMT:getqloc.obj
 0002:000018f8       ??_C@_0M@HNHN@south?5korea?$AA@ 004348f8     LIBCMT:getqloc.obj
 0002:00001904       ??_C@_0N@MKDO@south?5africa?$AA@ 00434904     LIBCMT:getqloc.obj
 0002:00001914       ??_C@_06KFFJ@slovak?$AA@   00434914     LIBCMT:getqloc.obj
 0002:0000191c       ??_C@_0M@NMAC@puerto?9rico?$AA@ 0043491c     LIBCMT:getqloc.obj
 0002:00001928       ??_C@_08EJOH@pr?9china?$AA@ 00434928     LIBCMT:getqloc.obj
 0002:00001934       ??_C@_08CHMG@pr?5china?$AA@ 00434934     LIBCMT:getqloc.obj
 0002:00001940       ??_C@_02OCJK@nz?$AA@       00434940     LIBCMT:getqloc.obj
 0002:00001944       ??_C@_0M@MMKA@new?9zealand?$AA@ 00434944     LIBCMT:getqloc.obj
 0002:00001950       ??_C@_09MGEH@hong?9kong?$AA@ 00434950     LIBCMT:getqloc.obj
 0002:0000195c       ??_C@_07CCAK@holland?$AA@  0043495c     LIBCMT:getqloc.obj
 0002:00001964       ??_C@_0O@MEPL@great?5britain?$AA@ 00434964     LIBCMT:getqloc.obj
 0002:00001974       ??_C@_07LGIB@england?$AA@  00434974     LIBCMT:getqloc.obj
 0002:0000197c       ??_C@_05BMOA@czech?$AA@    0043497c     LIBCMT:getqloc.obj
 0002:00001984       ??_C@_05NMPB@china?$AA@    00434984     LIBCMT:getqloc.obj
 0002:0000198c       ??_C@_07GN@britain?$AA@    0043498c     LIBCMT:getqloc.obj
 0002:00001994       ??_C@_07DLAK@america?$AA@  00434994     LIBCMT:getqloc.obj
 0002:0000199c       ??_C@_03IPEP@usa?$AA@      0043499c     LIBCMT:getqloc.obj
 0002:000019a0       ??_C@_02PILH@us?$AA@       004349a0     LIBCMT:getqloc.obj
 0002:000019a4       ??_C@_02FHP@uk?$AA@        004349a4     LIBCMT:getqloc.obj
 0002:000019a8       ??_C@_05DEAI@swiss?$AA@    004349a8     LIBCMT:getqloc.obj
 0002:000019b0       ??_C@_0BA@LIAF@swedish?9finland?$AA@ 004349b0     LIBCMT:getqloc.obj
 0002:000019c0       ??_C@_0BC@FMEG@spanish?9venezuela?$AA@ 004349c0     LIBCMT:getqloc.obj
 0002:000019d4       ??_C@_0BA@BNMG@spanish?9uruguay?$AA@ 004349d4     LIBCMT:getqloc.obj
 0002:000019e4       ??_C@_0BE@BKDJ@spanish?9puerto?5rico?$AA@ 004349e4     LIBCMT:getqloc.obj
 0002:000019f8       ??_C@_0N@JIBL@spanish?9peru?$AA@ 004349f8     LIBCMT:getqloc.obj
 0002:00001a08       ??_C@_0BB@OGOF@spanish?9paraguay?$AA@ 00434a08     LIBCMT:getqloc.obj
 0002:00001a1c       ??_C@_0P@LLFA@spanish?9panama?$AA@ 00434a1c     LIBCMT:getqloc.obj
 0002:00001a2c       ??_C@_0BC@BBJM@spanish?9nicaragua?$AA@ 00434a2c     LIBCMT:getqloc.obj
 0002:00001a40       ??_C@_0P@NJBN@spanish?9modern?$AA@ 00434a40     LIBCMT:getqloc.obj
 0002:00001a50       ??_C@_0BA@NHDN@spanish?9mexican?$AA@ 00434a50     LIBCMT:getqloc.obj
 0002:00001a60       ??_C@_0BB@JHOJ@spanish?9honduras?$AA@ 00434a60     LIBCMT:getqloc.obj
 0002:00001a74       ??_C@_0BC@BOOM@spanish?9guatemala?$AA@ 00434a74     LIBCMT:getqloc.obj
 0002:00001a88       ??_C@_0BE@EELI@spanish?9el?5salvador?$AA@ 00434a88     LIBCMT:getqloc.obj
 0002:00001a9c       ??_C@_0BA@POAE@spanish?9ecuador?$AA@ 00434a9c     LIBCMT:getqloc.obj
 0002:00001aac       ??_C@_0BL@LDKN@spanish?9dominican?5republic?$AA@ 00434aac     LIBCMT:getqloc.obj
 0002:00001ac8       ??_C@_0BD@HPMH@spanish?9costa?5rica?$AA@ 00434ac8     LIBCMT:getqloc.obj
 0002:00001adc       ??_C@_0BB@NDDK@spanish?9colombia?$AA@ 00434adc     LIBCMT:getqloc.obj
 0002:00001af0       ??_C@_0O@BJHA@spanish?9chile?$AA@ 00434af0     LIBCMT:getqloc.obj
 0002:00001b00       ??_C@_0BA@OBNG@spanish?9bolivia?$AA@ 00434b00     LIBCMT:getqloc.obj
 0002:00001b10       ??_C@_0BC@EFAM@spanish?9argentina?$AA@ 00434b10     LIBCMT:getqloc.obj
 0002:00001b24       ??_C@_0BF@KMMM@portuguese?9brazilian?$AA@ 00434b24     LIBCMT:getqloc.obj
 0002:00001b3c       ??_C@_0BC@BAAE@norwegian?9nynorsk?$AA@ 00434b3c     LIBCMT:getqloc.obj
 0002:00001b50       ??_C@_0BB@PBHK@norwegian?9bokmal?$AA@ 00434b50     LIBCMT:getqloc.obj
 0002:00001b64       ??_C@_09EHKL@norwegian?$AA@ 00434b64     LIBCMT:getqloc.obj
 0002:00001b70       ??_C@_0O@BEAN@italian?9swiss?$AA@ 00434b70     LIBCMT:getqloc.obj
 0002:00001b80       ??_C@_0O@OIFK@irish?9english?$AA@ 00434b80     LIBCMT:getqloc.obj
 0002:00001b90       ??_C@_0N@NBPL@german?9swiss?$AA@ 00434b90     LIBCMT:getqloc.obj
 0002:00001ba0       ??_C@_0BC@ICFJ@german?9luxembourg?$AA@ 00434ba0     LIBCMT:getqloc.obj
 0002:00001bb4       ??_C@_0BE@GGPC@german?9lichtenstein?$AA@ 00434bb4     LIBCMT:getqloc.obj
 0002:00001bc8       ??_C@_0BA@MKDC@german?9austrian?$AA@ 00434bc8     LIBCMT:getqloc.obj
 0002:00001bd8       ??_C@_0N@ODNB@french?9swiss?$AA@ 00434bd8     LIBCMT:getqloc.obj
 0002:00001be8       ??_C@_0BC@MGCM@french?9luxembourg?$AA@ 00434be8     LIBCMT:getqloc.obj
 0002:00001bfc       ??_C@_0BA@NABK@french?9canadian?$AA@ 00434bfc     LIBCMT:getqloc.obj
 0002:00001c0c       ??_C@_0P@CJNO@french?9belgian?$AA@ 00434c0c     LIBCMT:getqloc.obj
 0002:00001c1c       ??_C@_0M@LJOL@english?9usa?$AA@ 00434c1c     LIBCMT:getqloc.obj
 0002:00001c28       ??_C@_0L@FMNC@english?9us?$AA@ 00434c28     LIBCMT:getqloc.obj
 0002:00001c34       ??_C@_0L@KBBK@english?9uk?$AA@ 00434c34     LIBCMT:getqloc.obj
 0002:00001c40       ??_C@_0BK@NDDE@english?9trinidad?5y?5tobago?$AA@ 00434c40     LIBCMT:getqloc.obj
 0002:00001c5c       ??_C@_0BF@LKML@english?9south?5africa?$AA@ 00434c5c     LIBCMT:getqloc.obj
 0002:00001c74       ??_C@_0L@EGPP@english?9nz?$AA@ 00434c74     LIBCMT:getqloc.obj
 0002:00001c80       ??_C@_0BA@HLH@english?9jamaica?$AA@ 00434c80     LIBCMT:getqloc.obj
 0002:00001c90       ??_C@_0M@PMJI@english?9ire?$AA@ 00434c90     LIBCMT:getqloc.obj
 0002:00001c9c       ??_C@_0BC@HINE@english?9caribbean?$AA@ 00434c9c     LIBCMT:getqloc.obj
 0002:00001cb0       ??_C@_0M@DCFH@english?9can?$AA@ 00434cb0     LIBCMT:getqloc.obj
 0002:00001cbc       ??_C@_0P@DGHK@english?9belize?$AA@ 00434cbc     LIBCMT:getqloc.obj
 0002:00001ccc       ??_C@_0M@FLHK@english?9aus?$AA@ 00434ccc     LIBCMT:getqloc.obj
 0002:00001cd8       ??_C@_0BB@HNCK@english?9american?$AA@ 00434cd8     LIBCMT:getqloc.obj
 0002:00001cec       ??_C@_0O@PAMI@dutch?9belgian?$AA@ 00434cec     LIBCMT:getqloc.obj
 0002:00001cfc       ??_C@_0BE@FPEJ@chinese?9traditional?$AA@ 00434cfc     LIBCMT:getqloc.obj
 0002:00001d10       ??_C@_0BC@CHFL@chinese?9singapore?$AA@ 00434d10     LIBCMT:getqloc.obj
 0002:00001d24       ??_C@_0BD@DCMH@chinese?9simplified?$AA@ 00434d24     LIBCMT:getqloc.obj
 0002:00001d38       ??_C@_0BB@JMOE@chinese?9hongkong?$AA@ 00434d38     LIBCMT:getqloc.obj
 0002:00001d4c       ??_C@_07NGFN@chinese?$AA@  00434d4c     LIBCMT:getqloc.obj
 0002:00001d54       ??_C@_03PCOI@chi?$AA@      00434d54     LIBCMT:getqloc.obj
 0002:00001d58       ??_C@_03FIHP@chh?$AA@      00434d58     LIBCMT:getqloc.obj
 0002:00001d5c       ??_C@_08HFLO@canadian?$AA@ 00434d5c     LIBCMT:getqloc.obj
 0002:00001d68       ??_C@_07INIJ@belgian?$AA@  00434d68     LIBCMT:getqloc.obj
 0002:00001d70       ??_C@_0L@LCCA@australian?$AA@ 00434d70     LIBCMT:getqloc.obj
 0002:00001d7c       ??_C@_0BB@BJIO@american?9english?$AA@ 00434d7c     LIBCMT:getqloc.obj
 0002:00001d90       ??_C@_0BB@DAGO@american?5english?$AA@ 00434d90     LIBCMT:getqloc.obj
 0002:00001da4       ??_C@_08HENB@american?$AA@ 00434da4     LIBCMT:getqloc.obj
 0002:00001db0       ??_C@_03DGJE@OCP?$AA@      00434db0     LIBCMT:getqloc.obj
 0002:00001db4       ??_C@_03EKFG@ACP?$AA@      00434db4     LIBCMT:getqloc.obj
 0002:00001db8       ___dnames                  00434db8     LIBCMT:timeset.obj
 0002:00001dd0       ___mnames                  00434dd0     LIBCMT:timeset.obj
 0002:00001df8       ??_C@_02JHIA@TZ?$AA@       00434df8     LIBCMT:tzset.obj
 0002:00001e0c       ??_C@_0BD@NJFP@GetLastActivePopup?$AA@ 00434e0c     LIBCMT:crtmbox.obj
 0002:00001e20       ??_C@_0BA@GILI@GetActiveWindow?$AA@ 00434e20     LIBCMT:crtmbox.obj
 0002:00001e30       ??_C@_0M@PKCK@MessageBoxA?$AA@ 00434e30     LIBCMT:crtmbox.obj
 0002:00001e3c       ??_C@_0L@HKL@user32?4dll?$AA@ 00434e3c     LIBCMT:crtmbox.obj
 0002:00001e60       ??_C@_06PAPI@1?$CDQNAN?$AA@ 00434e60     LIBCMT:x10fout.obj
 0002:00001e68       ??_C@_05BGNL@1?$CDINF?$AA@ 00434e68     LIBCMT:x10fout.obj
 0002:00001e70       ??_C@_05EDPF@1?$CDIND?$AA@ 00434e70     LIBCMT:x10fout.obj
 0002:00001e78       ??_C@_06LKFM@1?$CDSNAN?$AA@ 00434e78     LIBCMT:x10fout.obj
 0002:00001ea0       ??_R1A@?0A@A@exception@@8  00434ea0     libcpmt:ios.obj
 0002:00001eb8       ??_R1A@?0A@A@runtime_error@std@@8 00434eb8     libcpmt:ios.obj
 0002:00001ed0       ??_R1A@?0A@A@failure@ios_base@std@@8 00434ed0     libcpmt:ios.obj
 0002:00001ee8       ??_R2failure@ios_base@std@@8 00434ee8     libcpmt:ios.obj
 0002:00001ef8       ??_R3failure@ios_base@std@@8 00434ef8     libcpmt:ios.obj
 0002:00001f08       ??_R4failure@ios_base@std@@6B@ 00434f08     libcpmt:ios.obj
 0002:00001f20       ??_R2runtime_error@std@@8  00434f20     libcpmt:ios.obj
 0002:00001f30       ??_R3runtime_error@std@@8  00434f30     libcpmt:ios.obj
 0002:00001f40       ??_R4runtime_error@std@@6B@ 00434f40     libcpmt:ios.obj
 0002:00001f58       ??_R1A@?0A@A@ios_base@std@@8 00434f58     libcpmt:ios.obj
 0002:00001f70       ??_R2ios_base@std@@8       00434f70     libcpmt:ios.obj
 0002:00001f78       ??_R3ios_base@std@@8       00434f78     libcpmt:ios.obj
 0002:00001f88       ??_R4ios_base@std@@6B@     00434f88     libcpmt:ios.obj
 0002:00001f9c       ??_R2facet@locale@std@@8   00434f9c     libcpmt:locale0.obj
 0002:00001fa8       ??_R3facet@locale@std@@8   00434fa8     libcpmt:locale0.obj
 0002:00001fb8       ??_R4facet@locale@std@@6B@ 00434fb8     libcpmt:locale0.obj
 0002:00001fd0       ??_R1A@?0A@A@facet@locale@std@@8 00434fd0     libcpmt:locale0.obj
 0002:00001fe8       ??_R1A@?0A@A@_Locimp@locale@std@@8 00434fe8     libcpmt:locale0.obj
 0002:00002000       ??_R2_Locimp@locale@std@@8 00435000     libcpmt:locale0.obj
 0002:00002010       ??_R3_Locimp@locale@std@@8 00435010     libcpmt:locale0.obj
 0002:00002020       ??_R4_Locimp@locale@std@@6B@ 00435020     libcpmt:locale0.obj
 0002:00002038       ??_R1A@?0A@A@logic_error@std@@8 00435038     libcpmt:string.obj
 0002:00002050       ??_R1A@?0A@A@length_error@std@@8 00435050     libcpmt:string.obj
 0002:00002068       ??_R2length_error@std@@8   00435068     libcpmt:string.obj
 0002:00002078       ??_R3length_error@std@@8   00435078     libcpmt:string.obj
 0002:00002088       ??_R4length_error@std@@6B@ 00435088     libcpmt:string.obj
 0002:000020a0       ??_R2logic_error@std@@8    004350a0     libcpmt:string.obj
 0002:000020b0       ??_R3logic_error@std@@8    004350b0     libcpmt:string.obj
 0002:000020c0       ??_R4logic_error@std@@6B@  004350c0     libcpmt:string.obj
 0002:000020d8       ??_R1A@?0A@A@out_of_range@std@@8 004350d8     libcpmt:string.obj
 0002:000020f0       ??_R2out_of_range@std@@8   004350f0     libcpmt:string.obj
 0002:00002100       ??_R3out_of_range@std@@8   00435100     libcpmt:string.obj
 0002:00002110       ??_R4out_of_range@std@@6B@ 00435110     libcpmt:string.obj
 0002:00002128       ??_R1A@?0A@A@?$numpunct@D@std@@8 00435128     libcpmt:locale.obj
 0002:00002140       ??_R2?$numpunct@D@std@@8   00435140     libcpmt:locale.obj
 0002:00002150       ??_R3?$numpunct@D@std@@8   00435150     libcpmt:locale.obj
 0002:00002160       ??_R4?$numpunct@D@std@@6B@ 00435160     libcpmt:locale.obj
 0002:00002178       ??_R1A@?0A@A@codecvt_base@std@@8 00435178     libcpmt:locale.obj
 0002:00002190       ??_R1A@?0A@A@?$codecvt@DDH@std@@8 00435190     libcpmt:locale.obj
 0002:000021a8       ??_R2?$codecvt@DDH@std@@8  004351a8     libcpmt:locale.obj
 0002:000021b8       ??_R3?$codecvt@DDH@std@@8  004351b8     libcpmt:locale.obj
 0002:000021c8       ??_R4?$codecvt@DDH@std@@6B@ 004351c8     libcpmt:locale.obj
 0002:000021e0       ??_R1A@?0A@A@?$num_get@DV?$istreambuf_iterator@DU?$char_traits@D@std@@@std@@@std@@8 004351e0     libcpmt:locale.obj
 0002:000021f8       ??_R2?$num_get@DV?$istreambuf_iterator@DU?$char_traits@D@std@@@std@@@std@@8 004351f8     libcpmt:locale.obj
 0002:00002208       ??_R3?$num_get@DV?$istreambuf_iterator@DU?$char_traits@D@std@@@std@@@std@@8 00435208     libcpmt:locale.obj
 0002:00002218       ??_R4?$num_get@DV?$istreambuf_iterator@DU?$char_traits@D@std@@@std@@@std@@6B@ 00435218     libcpmt:locale.obj
 0002:00002230       ??_R1A@?0A@A@?$num_put@DV?$ostreambuf_iterator@DU?$char_traits@D@std@@@std@@@std@@8 00435230     libcpmt:locale.obj
 0002:00002248       ??_R2?$num_put@DV?$ostreambuf_iterator@DU?$char_traits@D@std@@@std@@@std@@8 00435248     libcpmt:locale.obj
 0002:00002258       ??_R3?$num_put@DV?$ostreambuf_iterator@DU?$char_traits@D@std@@@std@@@std@@8 00435258     libcpmt:locale.obj
 0002:00002268       ??_R4?$num_put@DV?$ostreambuf_iterator@DU?$char_traits@D@std@@@std@@@std@@6B@ 00435268     libcpmt:locale.obj
 0002:00002280       ??_R1A@?0A@A@ctype_base@std@@8 00435280     libcpmt:locale.obj
 0002:00002298       ??_R1A@?0A@A@?$ctype@D@std@@8 00435298     libcpmt:locale.obj
 0002:000022b0       ??_R2?$ctype@D@std@@8      004352b0     libcpmt:locale.obj
 0002:000022c0       ??_R3?$ctype@D@std@@8      004352c0     libcpmt:locale.obj
 0002:000022d0       ??_R4?$ctype@D@std@@6B@    004352d0     libcpmt:locale.obj
 0002:000022e8       ??_R1A@?0A@A@bad_cast@std@@8 004352e8     libcpmt:locale.obj
 0002:00002300       ??_R2bad_cast@std@@8       00435300     libcpmt:locale.obj
 0002:00002310       ??_R3bad_cast@std@@8       00435310     libcpmt:locale.obj
 0002:00002320       ??_R4bad_cast@std@@6B@     00435320     libcpmt:locale.obj
 0002:00002338       ??_R1A@A@3A@ios_base@std@@8 00435338     libcpmt:iostream.obj
 0002:00002350       ??_R1A@A@3BA@?$basic_ios@DU?$char_traits@D@std@@@std@@8 00435350     libcpmt:iostream.obj
 0002:00002368       ??_R1A@?0A@A@?$basic_istream@DU?$char_traits@D@std@@@std@@8 00435368     libcpmt:iostream.obj
 0002:00002380       ??_R2?$basic_istream@DU?$char_traits@D@std@@@std@@8 00435380     libcpmt:iostream.obj
 0002:00002390       ??_R3?$basic_istream@DU?$char_traits@D@std@@@std@@8 00435390     libcpmt:iostream.obj
 0002:000023a0       ??_R4?$basic_istream@DU?$char_traits@D@std@@@std@@6B@ 004353a0     libcpmt:iostream.obj
 0002:000023b8       ??_R1A@?0A@A@?$basic_ostream@DU?$char_traits@D@std@@@std@@8 004353b8     libcpmt:iostream.obj
 0002:000023d0       ??_R2?$basic_ostream@DU?$char_traits@D@std@@@std@@8 004353d0     libcpmt:iostream.obj
 0002:000023e0       ??_R3?$basic_ostream@DU?$char_traits@D@std@@@std@@8 004353e0     libcpmt:iostream.obj
 0002:000023f0       ??_R4?$basic_ostream@DU?$char_traits@D@std@@@std@@6B@ 004353f0     libcpmt:iostream.obj
 0002:00002408       ??_R1A@?0A@A@?$basic_ios@DU?$char_traits@D@std@@@std@@8 00435408     libcpmt:iostream.obj
 0002:00002420       ??_R2?$basic_ios@DU?$char_traits@D@std@@@std@@8 00435420     libcpmt:iostream.obj
 0002:00002430       ??_R3?$basic_ios@DU?$char_traits@D@std@@@std@@8 00435430     libcpmt:iostream.obj
 0002:00002440       ??_R4?$basic_ios@DU?$char_traits@D@std@@@std@@6B@ 00435440     libcpmt:iostream.obj
 0002:00002454       ??_R2?$basic_streambuf@DU?$char_traits@D@std@@@std@@8 00435454     libcpmt:iostream.obj
 0002:00002460       ??_R3?$basic_streambuf@DU?$char_traits@D@std@@@std@@8 00435460     libcpmt:iostream.obj
 0002:00002470       ??_R4?$basic_streambuf@DU?$char_traits@D@std@@@std@@6B@ 00435470     libcpmt:iostream.obj
 0002:00002488       ??_R1A@?0A@A@?$basic_streambuf@DU?$char_traits@D@std@@@std@@8 00435488     libcpmt:iostream.obj
 0002:000024a0       ??_R1A@?0A@A@?$basic_filebuf@DU?$char_traits@D@std@@@std@@8 004354a0     libcpmt:iostream.obj
 0002:000024b8       ??_R2?$basic_filebuf@DU?$char_traits@D@std@@@std@@8 004354b8     libcpmt:iostream.obj
 0002:000024c8       ??_R3?$basic_filebuf@DU?$char_traits@D@std@@@std@@8 004354c8     libcpmt:iostream.obj
 0002:000024d8       ??_R4?$basic_filebuf@DU?$char_traits@D@std@@@std@@6B@ 004354d8     libcpmt:iostream.obj
 0002:000024f0       ??_R1A@A@3BA@?$basic_ios@GU?$char_traits@G@std@@@std@@8 004354f0     libcpmt:wiostrea.obj
 0002:00002508       ??_R1A@?0A@A@?$basic_istream@GU?$char_traits@G@std@@@std@@8 00435508     libcpmt:wiostrea.obj
 0002:00002520       ??_R2?$basic_istream@GU?$char_traits@G@std@@@std@@8 00435520     libcpmt:wiostrea.obj
 0002:00002530       ??_R3?$basic_istream@GU?$char_traits@G@std@@@std@@8 00435530     libcpmt:wiostrea.obj
 0002:00002540       ??_R4?$basic_istream@GU?$char_traits@G@std@@@std@@6B@ 00435540     libcpmt:wiostrea.obj
 0002:00002558       ??_R1A@?0A@A@?$basic_ostream@GU?$char_traits@G@std@@@std@@8 00435558     libcpmt:wiostrea.obj
 0002:00002570       ??_R2?$basic_ostream@GU?$char_traits@G@std@@@std@@8 00435570     libcpmt:wiostrea.obj
 0002:00002580       ??_R3?$basic_ostream@GU?$char_traits@G@std@@@std@@8 00435580     libcpmt:wiostrea.obj
 0002:00002590       ??_R4?$basic_ostream@GU?$char_traits@G@std@@@std@@6B@ 00435590     libcpmt:wiostrea.obj
 0002:000025a8       ??_R1A@?0A@A@?$basic_ios@GU?$char_traits@G@std@@@std@@8 004355a8     libcpmt:wiostrea.obj
 0002:000025c0       ??_R2?$basic_ios@GU?$char_traits@G@std@@@std@@8 004355c0     libcpmt:wiostrea.obj
 0002:000025d0       ??_R3?$basic_ios@GU?$char_traits@G@std@@@std@@8 004355d0     libcpmt:wiostrea.obj
 0002:000025e0       ??_R4?$basic_ios@GU?$char_traits@G@std@@@std@@6B@ 004355e0     libcpmt:wiostrea.obj
 0002:000025f8       ??_R1A@?0A@A@?$basic_filebuf@GU?$char_traits@G@std@@@std@@8 004355f8     libcpmt:wiostrea.obj
 0002:00002610       ??_R2?$basic_filebuf@GU?$char_traits@G@std@@@std@@8 00435610     libcpmt:wiostrea.obj
 0002:00002620       ??_R3?$basic_filebuf@GU?$char_traits@G@std@@@std@@8 00435620     libcpmt:wiostrea.obj
 0002:00002630       ??_R4?$basic_filebuf@GU?$char_traits@G@std@@@std@@6B@ 00435630     libcpmt:wiostrea.obj
 0002:00002648       ??_R1A@?0A@A@?$basic_streambuf@GU?$char_traits@G@std@@@std@@8 00435648     libcpmt:wiostrea.obj
 0002:00002660       ??_R2?$basic_streambuf@GU?$char_traits@G@std@@@std@@8 00435660     libcpmt:wiostrea.obj
 0002:00002668       ??_R3?$basic_streambuf@GU?$char_traits@G@std@@@std@@8 00435668     libcpmt:wiostrea.obj
 0002:00002678       ??_R4?$basic_streambuf@GU?$char_traits@G@std@@@std@@6B@ 00435678     libcpmt:wiostrea.obj
 0002:00002690       ??_R1A@?0A@A@bad_alloc@std@@8 00435690     libcpmt:nomemory.obj
 0002:000026a8       ??_R2bad_alloc@std@@8      004356a8     libcpmt:nomemory.obj
 0002:000026b8       ??_R3bad_alloc@std@@8      004356b8     libcpmt:nomemory.obj
 0002:000026c8       ??_R4bad_alloc@std@@6B@    004356c8     libcpmt:nomemory.obj
 0002:000026e0       ??_R1A@?0A@A@?$num_put@GV?$ostreambuf_iterator@GU?$char_traits@G@std@@@std@@@std@@8 004356e0     libcpmt:wlocale.obj
 0002:000026f8       ??_R2?$num_put@GV?$ostreambuf_iterator@GU?$char_traits@G@std@@@std@@@std@@8 004356f8     libcpmt:wlocale.obj
 0002:00002708       ??_R3?$num_put@GV?$ostreambuf_iterator@GU?$char_traits@G@std@@@std@@@std@@8 00435708     libcpmt:wlocale.obj
 0002:00002718       ??_R4?$num_put@GV?$ostreambuf_iterator@GU?$char_traits@G@std@@@std@@@std@@6B@ 00435718     libcpmt:wlocale.obj
 0002:00002730       ??_R1A@?0A@A@?$num_get@GV?$istreambuf_iterator@GU?$char_traits@G@std@@@std@@@std@@8 00435730     libcpmt:wlocale.obj
 0002:00002748       ??_R2?$num_get@GV?$istreambuf_iterator@GU?$char_traits@G@std@@@std@@@std@@8 00435748     libcpmt:wlocale.obj
 0002:00002758       ??_R3?$num_get@GV?$istreambuf_iterator@GU?$char_traits@G@std@@@std@@@std@@8 00435758     libcpmt:wlocale.obj
 0002:00002768       ??_R4?$num_get@GV?$istreambuf_iterator@GU?$char_traits@G@std@@@std@@@std@@6B@ 00435768     libcpmt:wlocale.obj
 0002:00002780       ??_R1A@?0A@A@?$numpunct@G@std@@8 00435780     libcpmt:wlocale.obj
 0002:00002798       ??_R2?$numpunct@G@std@@8   00435798     libcpmt:wlocale.obj
 0002:000027a8       ??_R3?$numpunct@G@std@@8   004357a8     libcpmt:wlocale.obj
 0002:000027b8       ??_R4?$numpunct@G@std@@6B@ 004357b8     libcpmt:wlocale.obj
 0002:000027d0       ??_R1A@?0A@A@?$ctype@G@std@@8 004357d0     libcpmt:wlocale.obj
 0002:000027e8       ??_R2?$ctype@G@std@@8      004357e8     libcpmt:wlocale.obj
 0002:000027f8       ??_R3?$ctype@G@std@@8      004357f8     libcpmt:wlocale.obj
 0002:00002808       ??_R4?$ctype@G@std@@6B@    00435808     libcpmt:wlocale.obj
 0002:00002820       ??_R1A@?0A@A@?$time_put@GV?$ostreambuf_iterator@GU?$char_traits@G@std@@@std@@@std@@8 00435820     libcpmt:wlocale.obj
 0002:00002838       ??_R2?$time_put@GV?$ostreambuf_iterator@GU?$char_traits@G@std@@@std@@@std@@8 00435838     libcpmt:wlocale.obj
 0002:00002848       ??_R3?$time_put@GV?$ostreambuf_iterator@GU?$char_traits@G@std@@@std@@@std@@8 00435848     libcpmt:wlocale.obj
 0002:00002858       ??_R4?$time_put@GV?$ostreambuf_iterator@GU?$char_traits@G@std@@@std@@@std@@6B@ 00435858     libcpmt:wlocale.obj
 0002:00002870       ??_R1A@?0A@A@time_base@std@@8 00435870     libcpmt:wlocale.obj
 0002:00002888       ??_R1A@?0A@A@?$time_get@GV?$istreambuf_iterator@GU?$char_traits@G@std@@@std@@@std@@8 00435888     libcpmt:wlocale.obj
 0002:000028a0       ??_R2?$time_get@GV?$istreambuf_iterator@GU?$char_traits@G@std@@@std@@@std@@8 004358a0     libcpmt:wlocale.obj
 0002:000028b0       ??_R3?$time_get@GV?$istreambuf_iterator@GU?$char_traits@G@std@@@std@@@std@@8 004358b0     libcpmt:wlocale.obj
 0002:000028c0       ??_R4?$time_get@GV?$istreambuf_iterator@GU?$char_traits@G@std@@@std@@@std@@6B@ 004358c0     libcpmt:wlocale.obj
 0002:000028d8       ??_R1A@?0A@A@?$moneypunct@G$00@std@@8 004358d8     libcpmt:wlocale.obj
 0002:000028f0       ??_R2?$moneypunct@G$00@std@@8 004358f0     libcpmt:wlocale.obj
 0002:00002908       ??_R3?$moneypunct@G$00@std@@8 00435908     libcpmt:wlocale.obj
 0002:00002918       ??_R4?$moneypunct@G$00@std@@6B@ 00435918     libcpmt:wlocale.obj
 0002:00002930       ??_R1A@?0A@A@money_base@std@@8 00435930     libcpmt:wlocale.obj
 0002:00002948       ??_R1A@?0A@A@?$_Mpunct@G@std@@8 00435948     libcpmt:wlocale.obj
 0002:00002960       ??_R1A@?0A@A@?$moneypunct@G$0A@@std@@8 00435960     libcpmt:wlocale.obj
 0002:00002978       ??_R2?$moneypunct@G$0A@@std@@8 00435978     libcpmt:wlocale.obj
 0002:00002990       ??_R3?$moneypunct@G$0A@@std@@8 00435990     libcpmt:wlocale.obj
 0002:000029a0       ??_R4?$moneypunct@G$0A@@std@@6B@ 004359a0     libcpmt:wlocale.obj
 0002:000029b8       ??_R1A@?0A@A@?$money_put@GV?$ostreambuf_iterator@GU?$char_traits@G@std@@@std@@@std@@8 004359b8     libcpmt:wlocale.obj
 0002:000029d0       ??_R2?$money_put@GV?$ostreambuf_iterator@GU?$char_traits@G@std@@@std@@@std@@8 004359d0     libcpmt:wlocale.obj
 0002:000029e0       ??_R3?$money_put@GV?$ostreambuf_iterator@GU?$char_traits@G@std@@@std@@@std@@8 004359e0     libcpmt:wlocale.obj
 0002:000029f0       ??_R4?$money_put@GV?$ostreambuf_iterator@GU?$char_traits@G@std@@@std@@@std@@6B@ 004359f0     libcpmt:wlocale.obj
 0002:00002a08       ??_R1A@?0A@A@?$money_get@GV?$istreambuf_iterator@GU?$char_traits@G@std@@@std@@@std@@8 00435a08     libcpmt:wlocale.obj
 0002:00002a20       ??_R2?$money_get@GV?$istreambuf_iterator@GU?$char_traits@G@std@@@std@@@std@@8 00435a20     libcpmt:wlocale.obj
 0002:00002a30       ??_R3?$money_get@GV?$istreambuf_iterator@GU?$char_traits@G@std@@@std@@@std@@8 00435a30     libcpmt:wlocale.obj
 0002:00002a40       ??_R4?$money_get@GV?$istreambuf_iterator@GU?$char_traits@G@std@@@std@@@std@@6B@ 00435a40     libcpmt:wlocale.obj
 0002:00002a58       ??_R1A@?0A@A@messages_base@std@@8 00435a58     libcpmt:wlocale.obj
 0002:00002a70       ??_R1A@?0A@A@?$messages@G@std@@8 00435a70     libcpmt:wlocale.obj
 0002:00002a88       ??_R2?$messages@G@std@@8   00435a88     libcpmt:wlocale.obj
 0002:00002a98       ??_R3?$messages@G@std@@8   00435a98     libcpmt:wlocale.obj
 0002:00002aa8       ??_R4?$messages@G@std@@6B@ 00435aa8     libcpmt:wlocale.obj
 0002:00002ac0       ??_R1A@?0A@A@?$collate@G@std@@8 00435ac0     libcpmt:wlocale.obj
 0002:00002ad8       ??_R2?$collate@G@std@@8    00435ad8     libcpmt:wlocale.obj
 0002:00002ae8       ??_R3?$collate@G@std@@8    00435ae8     libcpmt:wlocale.obj
 0002:00002af8       ??_R4?$collate@G@std@@6B@  00435af8     libcpmt:wlocale.obj
 0002:00002b10       ??_R1A@?0A@A@?$codecvt@GDH@std@@8 00435b10     libcpmt:wlocale.obj
 0002:00002b28       ??_R2?$codecvt@GDH@std@@8  00435b28     libcpmt:wlocale.obj
 0002:00002b38       ??_R3?$codecvt@GDH@std@@8  00435b38     libcpmt:wlocale.obj
 0002:00002b48       ??_R4?$codecvt@GDH@std@@6B@ 00435b48     libcpmt:wlocale.obj
 0002:00002b60       ??_R2?$_Mpunct@G@std@@8    00435b60     libcpmt:wlocale.obj
 0002:00002b70       ??_R3?$_Mpunct@G@std@@8    00435b70     libcpmt:wlocale.obj
 0002:00002b80       ??_R4?$_Mpunct@G@std@@6B@  00435b80     libcpmt:wlocale.obj
 0002:00002b98       ??_R1A@?0A@A@?$time_put@DV?$ostreambuf_iterator@DU?$char_traits@D@std@@@std@@@std@@8 00435b98     libcpmt:xlocale.obj
 0002:00002bb0       ??_R2?$time_put@DV?$ostreambuf_iterator@DU?$char_traits@D@std@@@std@@@std@@8 00435bb0     libcpmt:xlocale.obj
 0002:00002bc0       ??_R3?$time_put@DV?$ostreambuf_iterator@DU?$char_traits@D@std@@@std@@@std@@8 00435bc0     libcpmt:xlocale.obj
 0002:00002bd0       ??_R4?$time_put@DV?$ostreambuf_iterator@DU?$char_traits@D@std@@@std@@@std@@6B@ 00435bd0     libcpmt:xlocale.obj
 0002:00002be8       ??_R1A@?0A@A@?$time_get@DV?$istreambuf_iterator@DU?$char_traits@D@std@@@std@@@std@@8 00435be8     libcpmt:xlocale.obj
 0002:00002c00       ??_R2?$time_get@DV?$istreambuf_iterator@DU?$char_traits@D@std@@@std@@@std@@8 00435c00     libcpmt:xlocale.obj
 0002:00002c10       ??_R3?$time_get@DV?$istreambuf_iterator@DU?$char_traits@D@std@@@std@@@std@@8 00435c10     libcpmt:xlocale.obj
 0002:00002c20       ??_R4?$time_get@DV?$istreambuf_iterator@DU?$char_traits@D@std@@@std@@@std@@6B@ 00435c20     libcpmt:xlocale.obj
 0002:00002c38       ??_R1A@?0A@A@?$moneypunct@D$00@std@@8 00435c38     libcpmt:xlocale.obj
 0002:00002c50       ??_R2?$moneypunct@D$00@std@@8 00435c50     libcpmt:xlocale.obj
 0002:00002c68       ??_R3?$moneypunct@D$00@std@@8 00435c68     libcpmt:xlocale.obj
 0002:00002c78       ??_R4?$moneypunct@D$00@std@@6B@ 00435c78     libcpmt:xlocale.obj
 0002:00002c90       ??_R1A@?0A@A@?$_Mpunct@D@std@@8 00435c90     libcpmt:xlocale.obj
 0002:00002ca8       ??_R1A@?0A@A@?$moneypunct@D$0A@@std@@8 00435ca8     libcpmt:xlocale.obj
 0002:00002cc0       ??_R2?$moneypunct@D$0A@@std@@8 00435cc0     libcpmt:xlocale.obj
 0002:00002cd8       ??_R3?$moneypunct@D$0A@@std@@8 00435cd8     libcpmt:xlocale.obj
 0002:00002ce8       ??_R4?$moneypunct@D$0A@@std@@6B@ 00435ce8     libcpmt:xlocale.obj
 0002:00002d00       ??_R1A@?0A@A@?$money_put@DV?$ostreambuf_iterator@DU?$char_traits@D@std@@@std@@@std@@8 00435d00     libcpmt:xlocale.obj
 0002:00002d18       ??_R2?$money_put@DV?$ostreambuf_iterator@DU?$char_traits@D@std@@@std@@@std@@8 00435d18     libcpmt:xlocale.obj
 0002:00002d28       ??_R3?$money_put@DV?$ostreambuf_iterator@DU?$char_traits@D@std@@@std@@@std@@8 00435d28     libcpmt:xlocale.obj
 0002:00002d38       ??_R4?$money_put@DV?$ostreambuf_iterator@DU?$char_traits@D@std@@@std@@@std@@6B@ 00435d38     libcpmt:xlocale.obj
 0002:00002d50       ??_R1A@?0A@A@?$money_get@DV?$istreambuf_iterator@DU?$char_traits@D@std@@@std@@@std@@8 00435d50     libcpmt:xlocale.obj
 0002:00002d68       ??_R2?$money_get@DV?$istreambuf_iterator@DU?$char_traits@D@std@@@std@@@std@@8 00435d68     libcpmt:xlocale.obj
 0002:00002d78       ??_R3?$money_get@DV?$istreambuf_iterator@DU?$char_traits@D@std@@@std@@@std@@8 00435d78     libcpmt:xlocale.obj
 0002:00002d88       ??_R4?$money_get@DV?$istreambuf_iterator@DU?$char_traits@D@std@@@std@@@std@@6B@ 00435d88     libcpmt:xlocale.obj
 0002:00002da0       ??_R1A@?0A@A@?$messages@D@std@@8 00435da0     libcpmt:xlocale.obj
 0002:00002db8       ??_R2?$messages@D@std@@8   00435db8     libcpmt:xlocale.obj
 0002:00002dc8       ??_R3?$messages@D@std@@8   00435dc8     libcpmt:xlocale.obj
 0002:00002dd8       ??_R4?$messages@D@std@@6B@ 00435dd8     libcpmt:xlocale.obj
 0002:00002df0       ??_R1A@?0A@A@?$collate@D@std@@8 00435df0     libcpmt:xlocale.obj
 0002:00002e08       ??_R2?$collate@D@std@@8    00435e08     libcpmt:xlocale.obj
 0002:00002e18       ??_R3?$collate@D@std@@8    00435e18     libcpmt:xlocale.obj
 0002:00002e28       ??_R4?$collate@D@std@@6B@  00435e28     libcpmt:xlocale.obj
 0002:00002e40       ??_R2?$_Mpunct@D@std@@8    00435e40     libcpmt:xlocale.obj
 0002:00002e50       ??_R3?$_Mpunct@D@std@@8    00435e50     libcpmt:xlocale.obj
 0002:00002e60       ??_R4?$_Mpunct@D@std@@6B@  00435e60     libcpmt:xlocale.obj
 0002:00002e78       ??_R1A@?0A@A@type_info@@8  00435e78     LIBCMT:typinfo.obj
 0002:00002e90       ??_R2type_info@@8          00435e90     LIBCMT:typinfo.obj
 0002:00002e98       ??_R3type_info@@8          00435e98     LIBCMT:typinfo.obj
 0002:00002ea8       ??_R4type_info@@6B@        00435ea8     LIBCMT:typinfo.obj
 0002:00002ebc       ??_R2exception@@8          00435ebc     LIBCMT:stdexcpt.obj
 0002:00002ec8       ??_R3exception@@8          00435ec8     LIBCMT:stdexcpt.obj
 0002:00002ed8       ??_R4exception@@6B@        00435ed8     LIBCMT:stdexcpt.obj
 0002:00002ef0       __CT??_R0?AVCException@Win32@OnlineGameLib@@@8??0CException@Win32@OnlineGameLib@@QAE@ABV012@@Z36 00435ef0     GameServer.obj
 0002:00002f10       __CTA1?AVCException@Win32@OnlineGameLib@@ 00435f10     GameServer.obj
 0002:00002f18       __TI1?AVCException@Win32@OnlineGameLib@@ 00435f18     GameServer.obj
 0002:00003018       __CT??_R0?AVexception@@@8??0exception@@QAE@ABV0@@Z12 00436018     GameServer.obj
 0002:00003038       __CT??_R0?AVbad_cast@std@@@8??0bad_cast@std@@QAE@ABV01@@Z12 00436038     GameServer.obj
 0002:00003058       __CTA2?AVbad_cast@std@@    00436058     GameServer.obj
 0002:00003068       __TI2?AVbad_cast@std@@     00436068     GameServer.obj
 0002:000039d0       __CT??_R0?AVCWin32Exception@Win32@OnlineGameLib@@@8??0CWin32Exception@Win32@OnlineGameLib@@QAE@ABV012@@Z40 004369d0     common:UsesWinsock.obj
 0002:000039f0       __CTA2?AVCWin32Exception@Win32@OnlineGameLib@@ 004369f0     common:UsesWinsock.obj
 0002:00003a00       __TI2?AVCWin32Exception@Win32@OnlineGameLib@@ 00436a00     common:UsesWinsock.obj
 0002:00004270       __CT??_R0?AVruntime_error@std@@@8??0runtime_error@std@@QAE@ABV01@@Z28 00437270     libcpmt:ios.obj
 0002:00004290       __CT??_R0?AVfailure@ios_base@std@@@8??0failure@ios_base@std@@QAE@ABV012@@Z28 00437290     libcpmt:ios.obj
 0002:000042b0       __CTA3?AVfailure@ios_base@std@@ 004372b0     libcpmt:ios.obj
 0002:000042c0       __TI3?AVfailure@ios_base@std@@ 004372c0     libcpmt:ios.obj
 0002:00004320       __CTA2?AVruntime_error@std@@ 00437320     libcpmt:ios.obj
 0002:00004330       __TI2?AVruntime_error@std@@ 00437330     libcpmt:ios.obj
 0002:00004548       __CT??_R0?AVlogic_error@std@@@8??0logic_error@std@@QAE@ABV01@@Z28 00437548     libcpmt:string.obj
 0002:00004568       __CT??_R0?AVlength_error@std@@@8??0length_error@std@@QAE@ABV01@@Z28 00437568     libcpmt:string.obj
 0002:00004588       __CTA3?AVlength_error@std@@ 00437588     libcpmt:string.obj
 0002:00004598       __TI3?AVlength_error@std@@ 00437598     libcpmt:string.obj
 0002:000045f8       __CTA2?AVlogic_error@std@@ 004375f8     libcpmt:string.obj
 0002:00004608       __TI2?AVlogic_error@std@@  00437608     libcpmt:string.obj
 0002:00004690       __CT??_R0?AVout_of_range@std@@@8??0out_of_range@std@@QAE@ABV01@@Z28 00437690     libcpmt:string.obj
 0002:000046b0       __CTA3?AVout_of_range@std@@ 004376b0     libcpmt:string.obj
 0002:000046c0       __TI3?AVout_of_range@std@@ 004376c0     libcpmt:string.obj
 0002:00005048       __CT??_R0?AVbad_alloc@std@@@8??0bad_alloc@std@@QAE@ABV01@@Z12 00438048     libcpmt:nomemory.obj
 0002:00005068       __CTA2?AVbad_alloc@std@@   00438068     libcpmt:nomemory.obj
 0002:00005078       __TI2?AVbad_alloc@std@@    00438078     libcpmt:nomemory.obj
 0002:000065a0       __IMPORT_DESCRIPTOR_KERNEL32 004395a0     kernel32:KERNEL32.dll
 0002:000065b4       __IMPORT_DESCRIPTOR_ADVAPI32 004395b4     advapi32:ADVAPI32.dll
 0002:000065c8       __IMPORT_DESCRIPTOR_Engine 004395c8     engine:Engine.dll
 0002:000065dc       __IMPORT_DESCRIPTOR_CoreServer 004395dc     CoreServer:CoreServer.dll
 0002:000065f0       __IMPORT_DESCRIPTOR_WS2_32 004395f0     ws2_32:WS2_32.dll
 0002:00006604       __IMPORT_DESCRIPTOR_VERSION 00439604     Version:VERSION.dll
 0002:00006618       __IMPORT_DESCRIPTOR_USER32 00439618     user32:USER32.dll
 0002:0000662c       __NULL_IMPORT_DESCRIPTOR   0043962c     kernel32:KERNEL32.dll
 0003:00000000       ___xc_a                    0043b000     LIBCMT:crt0init.obj
 0003:000000c4       ___xc_z                    0043b0c4     LIBCMT:crt0init.obj
 0003:000000c8       ___xi_a                    0043b0c8     LIBCMT:crt0init.obj
 0003:000000dc       ___xi_z                    0043b0dc     LIBCMT:crt0init.obj
 0003:000000e0       ___xp_a                    0043b0e0     LIBCMT:crt0init.obj
 0003:000000e8       ___xp_z                    0043b0e8     LIBCMT:crt0init.obj
 0003:000000ec       ___xt_a                    0043b0ec     LIBCMT:crt0init.obj
 0003:000000f4       ___xt_z                    0043b0f4     LIBCMT:crt0init.obj
 0003:00000100       ?GUID_ATLVer30@ATL@@3U_GUID@@A 0043b100     GameServer.obj
 0003:00000110       ??_R0?AVCException@Win32@OnlineGameLib@@@8 0043b110     GameServer.obj
 0003:00000140       ??_C@_0BG@EJMD@GetCurrentDirectory?$CI?$CJ?$AA@ 0043b140     GameServer.obj
 0003:00000158       ??_C@_0CA@OFN@Failed?5to?5get?5current?5directory?$AA@ 0043b158     GameServer.obj
 0003:00000178       ??_C@_0BB@NFLK@Err_Not_Elevated?$AA@ 0043b178     GameServer.obj
 0003:0000018c       ??_C@_03KGDP@C?3?2?$AA@    0043b18c     GameServer.obj
 0003:00000190       ??_C@_0BB@JGGB@Err_StringIsNull?$AA@ 0043b190     GameServer.obj
 0003:000001a4       ??_C@_07FICC@color?5B?$AA@ 0043b1a4     GameServer.obj
 0003:000001b0       ??_R0?AVexception@@@8      0043b1b0     GameServer.obj
 0003:000001c8       ??_R0?AVbad_cast@std@@@8   0043b1c8     GameServer.obj
 0003:000001e4       ??_C@_0BF@MMAA@missing?5locale?5facet?$AA@ 0043b1e4     GameServer.obj
 0003:000001fc       ??_C@_01FKHJ@C?$AA@        0043b1fc     GameServer.obj
 0003:00000200       ??_C@_02MHAC@?$CFp?$AA@    0043b200     GameServer.obj
 0003:00000204       ??_C@_01PHOL@e?$AA@        0043b204     GameServer.obj
 0003:00000208       ??_C@_01KFAL@E?$AA@        0043b208     GameServer.obj
 0003:0000020c       ??_C@_01KMAE@?0?$AA@       0043b20c     GameServer.obj
 0003:00000210       ??_C@_04NCCD@true?$AA@     0043b210     GameServer.obj
 0003:00000218       ??_C@_05NAGO@false?$AA@    0043b218     GameServer.obj
 0003:00000220       ?g_nTongPCSize@@3PAHA      0043b220     KSOServer.obj
 0003:0000061c       ??_C@_0L@MDPN@heaven?4dll?$AA@ 0043b61c     KSOServer.obj
 0003:00000628       ??_C@_0M@GJAN@rainbow?4dll?$AA@ 0043b628     KSOServer.obj
 0003:00000634       ??_C@_0O@DMMO@GateWay?5lost?6?$AA@ 0043b634     KSOServer.obj
 0003:00000644       ??_C@_0BB@CIOC@Chat?5disconnect?6?$AA@ 0043b644     KSOServer.obj
 0003:00000658       ??_C@_0BB@BKLB@Tong?5disconnect?6?$AA@ 0043b658     KSOServer.obj
 0003:0000066c       ??_C@_0P@NIB@DataBase?5lost?6?$AA@ 0043b66c     KSOServer.obj
 0003:0000067c       ??_C@_0BM@NMEJ@Connect?5gateway?5successful?$CB?$AA@ 0043b67c     KSOServer.obj
 0003:00000698       ??_C@_0BO@IGBG@Connect?5to?5gateway?5is?5failed?$CB?$AA@ 0043b698     KSOServer.obj
 0003:000006b8       ??_C@_0O@BHBP@Gateway?5IP?5?3?5?$AA@ 0043b6b8     KSOServer.obj
 0003:000006c8       ??_C@_0CK@PIJJ@Can?8t?5not?5startup?5gateway?5client@ 0043b6c8     KSOServer.obj
 0003:000006f4       ??_C@_0BJ@MLBF@Connect?5tong?5successful?$CB?$AA@ 0043b6f4     KSOServer.obj
 0003:00000710       ??_C@_0BL@JOJG@Connect?5to?5tong?5is?5failed?$CB?$AA@ 0043b710     KSOServer.obj
 0003:0000072c       ??_C@_0L@NOOM@Tong?5IP?5?3?5?$AA@ 0043b72c     KSOServer.obj
 0003:00000738       ??_C@_0CH@DLGH@Can?8t?5not?5startup?5tong?5client?5se@ 0043b738     KSOServer.obj
 0003:00000760       ??_C@_0BJ@PJEG@Connect?5chat?5successful?$CB?$AA@ 0043b760     KSOServer.obj
 0003:0000077c       ??_C@_0BL@MNLN@Connect?5to?5chat?5is?5failed?$CB?$AA@ 0043b77c     KSOServer.obj
 0003:00000798       ??_C@_0L@OBCG@Chat?5IP?5?3?5?$AA@ 0043b798     KSOServer.obj
 0003:000007a4       ??_C@_0CH@KNAG@Can?8t?5not?5startup?5chat?5client?5se@ 0043b7a4     KSOServer.obj
 0003:000007cc       ??_C@_0BN@EOJI@Connect?5transfer?5successful?$CB?$AA@ 0043b7cc     KSOServer.obj
 0003:000007ec       ??_C@_0BP@BEEB@Connect?5to?5transfer?5is?5failed?$CB?$AA@ 0043b7ec     KSOServer.obj
 0003:0000080c       ??_C@_0P@JMPJ@Transfer?5IP?5?3?5?$AA@ 0043b80c     KSOServer.obj
 0003:0000081c       ??_C@_0CL@MIHO@Can?8t?5not?5startup?5transfer?5clien@ 0043b81c     KSOServer.obj
 0003:00000848       ??_C@_0BN@PGDC@Connect?5database?5successful?$CB?$AA@ 0043b848     KSOServer.obj
 0003:00000868       ??_C@_0BP@LODO@Connect?5to?5database?5is?5failed?$CB?$AA@ 0043b868     KSOServer.obj
 0003:00000888       ??_C@_0P@JHBM@Database?5IP?5?3?5?$AA@ 0043b888     KSOServer.obj
 0003:00000898       ??_C@_0L@POGJ@?5?9?5Port?5?3?5?$AA@ 0043b898     KSOServer.obj
 0003:000008a4       ??_C@_0CL@LOHB@Can?8t?5not?5startup?5database?5clien@ 0043b8a4     KSOServer.obj
 0003:000008d0       ??_C@_0DI@HPMI@Initialization?5failed?$CB?5Don?8t?5fin@ 0043b8d0     KSOServer.obj
 0003:00000908       ??_C@_0CF@DBMO@?5?5?5?5?5?5?5?5?5?5?5?5?5?5?5?5?5?5?5?5?5?5?5?5Internet@ 0043b908     KSOServer.obj
 0003:00000930       ??_C@_0CF@CO@?5?5?5?5?5?5?5?5?5?5?5?5?5?5?5?5?5?5?5?5?5?5?5?5Intranet@ 0043b930     KSOServer.obj
 0003:00000958       ??_C@_0BE@HBLE@Can?8t?5get?5server?5ip?$AA@ 0043b958     KSOServer.obj
 0003:0000096c       ??_C@_0DH@GKG@Initialization?5failed?$CB?5Don?8t?5fin@ 0043b96c     KSOServer.obj
 0003:000009a4       ??_C@_0BA@PKLD@CreateInterface?$AA@ 0043b9a4     KSOServer.obj
 0003:000009b4       ??_C@_0BM@GDEK@Maximal?5player?5number?5?$DM?$DN?50?$CB?$AA@ 0043b9b4     KSOServer.obj
 0003:000009d0       ??_C@_09LBJJ@Precision?$AA@ 0043b9d0     KSOServer.obj
 0003:000009dc       ??_C@_08HLK@Overload?$AA@  0043b9dc     KSOServer.obj
 0003:000009e8       ??_C@_09JOLA@MaxPlayer?$AA@ 0043b9e8     KSOServer.obj
 0003:000009f4       ??_C@_04GCNO@Tong?$AA@     0043b9f4     KSOServer.obj
 0003:000009fc       ??_C@_04PBOI@Chat?$AA@     0043b9fc     KSOServer.obj
 0003:00000a04       ??_C@_08DIGM@Transfer?$AA@ 0043ba04     KSOServer.obj
 0003:00000a10       ??_C@_08PHEC@Database?$AA@ 0043ba10     KSOServer.obj
 0003:00000a1c       ??_C@_07HFJI@Gateway?$AA@  0043ba1c     KSOServer.obj
 0003:00000a24       ??_C@_02FHAL@Ip?$AA@       0043ba24     KSOServer.obj
 0003:00000a28       ??_C@_0BA@IKHB@222?4189?4237?4112?$AA@ 0043ba28     KSOServer.obj
 0003:00000a38       ??_C@_0L@PABP@GameServer?$AA@ 0043ba38     KSOServer.obj
 0003:00000a44       ??_C@_04CEAI@Port?$AA@     0043ba44     KSOServer.obj
 0003:00000a4c       ??_C@_0N@FGF@?2package?4ini?$AA@ 0043ba4c     KSOServer.obj
 0003:00000a5c       ??_C@_0O@DC@ServerCfg?4ini?$AA@ 0043ba5c     KSOServer.obj
 0003:00000a6c       ??_C@_0P@KIDF@ServerCfg4?4ini?$AA@ 0043ba6c     KSOServer.obj
 0003:00000a7c       ??_C@_07NFFN@gs4?4exe?$AA@ 0043ba7c     KSOServer.obj
 0003:00000a84       ??_C@_0P@MIMP@ServerCfg3?4ini?$AA@ 0043ba84     KSOServer.obj
 0003:00000a94       ??_C@_07LFKH@gs3?4exe?$AA@ 0043ba94     KSOServer.obj
 0003:00000a9c       ??_C@_0P@GIOK@ServerCfg2?4ini?$AA@ 0043ba9c     KSOServer.obj
 0003:00000aac       ??_C@_07BFIC@gs2?4exe?$AA@ 0043baac     KSOServer.obj
 0003:00000ab4       ??_C@_0P@IIIF@ServerCfg1?4ini?$AA@ 0043bab4     KSOServer.obj
 0003:00000ac4       ??_C@_07PFON@gs1?4exe?$AA@ 0043bac4     KSOServer.obj
 0003:00000acc       ??_C@_01PCFE@?2?$AA@       0043bacc     KSOServer.obj
 0003:00000ad0       ??_C@_0BC@JAAP@main?5thread?5exit?6?$AA@ 0043bad0     KSOServer.obj
 0003:00000ae4       ??_C@_0CA@LOCE@Protocol?3?$CI?$CFd?$CJ?5?9?9?5database?5error?$AA@ 0043bae4     KSOServer.obj
 0003:00000b04       ??_C@_0L@EFMJ@?$AN?6?$CFs?$AN?$AI?$CFs?$AN?6?$AA@ 0043bb04     KSOServer.obj
 0003:00000b10       ??_C@_0BD@MOHI@crc_transfer_error?$AA@ 0043bb10     KSOServer.obj
 0003:00000b24       ??_C@_03GMJO@a?$CLb?$AA@   0043bb24     KSOServer.obj
 0003:00000b28       ??_C@_0L@EHNE@?5?9?5Name?5?3?5?$AA@ 0043bb28     KSOServer.obj
 0003:00000b34       ??_C@_0L@BOOB@AccName?5?3?5?$AA@ 0043bb34     KSOServer.obj
 0003:00000b40       ??_C@_0N@NAGH@crc_db_error?$AA@ 0043bb40     KSOServer.obj
 0003:00000b50       ??_C@_0BB@CCCJ@ALL_PLAYER_QUIT?6?$AA@ 0043bb50     KSOServer.obj
 0003:00000b64       ??_C@_0BD@CDKH@Safe?5close?5server?6?$AA@ 0043bb64     KSOServer.obj
 0003:00000b78       ??_C@_0EJ@CL@?$FLPING?9TIMEOUT?$FN?5lnID?$DN?$CFd?5playerIdx@ 0043bb78     KSOServer.obj
 0003:00000bc4       ??_C@_0DF@HLGF@?$FLPING?9RETRY?9AFTER?$FN?5lnID?$DN?$CFd?5sendT@ 0043bbc4     KSOServer.obj
 0003:00000bfc       ??_C@_0FH@LCBF@?$FLPING?9RETRY?$FN?5lnID?$DN?$CFd?5elapsed?$DN?$CFd?5@ 0043bbfc     KSOServer.obj
 0003:00000c54       ??_C@_0EB@OBJ@?$FLFIX?9APPLIED?$FN?5Timers?5reset?5for?5l@ 0043bc54     KSOServer.obj
 0003:00000c98       ??_C@_0EF@FNJF@?$FLFIX?9APPLIED?$FN?5Resetting?5timers?5f@ 0043bc98     KSOServer.obj
 0003:00000ce0       ??_C@_0EO@MDIJ@?$FLWARNING?$FN?5PingClient?3?5Player?5lnI@ 0043bce0     KSOServer.obj
 0003:00000d30       ??_C@_0DL@MMDN@?$FLWARNING?$FN?5PingClient?3?5Invalid?5ln@ 0043bd30     KSOServer.obj
 0003:00000d6c       ??_C@_0GD@CIMC@?$FLWARNING?$FN?5ProcessPingReply?3?5Play@ 0043bd6c     KSOServer.obj
 0003:00000dd0       ??_C@_0DC@HEBC@?$FLPING?9OK?$FN?5ID?$DN?$CFlu?5RTT?$DN?$CFd?5ticks?5?$CIs@ 0043bdd0     KSOServer.obj
 0003:00000e04       ??_C@_0CD@ILKD@ping?5cmd?5size?5not?5correct?0?5ignor@ 0043be04     KSOServer.obj
 0003:00000e28       ??_C@_0EB@MHIA@?$FLWARNING?$FN?5ProcessPingReply?3?5Inva@ 0043be28     KSOServer.obj
 0003:00000e6c       ??_C@_0FN@KLJL@?$FLEXCHANGE?9TIMEOUT?$FN?5Player?5?$CFd?5stu@ 0043be6c     KSOServer.obj
 0003:00000ecc       ??_C@_0BM@INLB@?5Lixian?5game?$CB?5?9?5?$FLQuit?5Game?$FN?$AA@ 0043becc     KSOServer.obj
 0003:00000ee8       ??_C@_06GCNB@?$DM?1?1?5?9?9?$AA@ 0043bee8     KSOServer.obj
 0003:00000ef0       ??_C@_0BL@PNIO@?5leave?5game?$CB?5?9?5?$FLQuit?5Game?$FN?$AA@ 0043bef0     KSOServer.obj
 0003:00000f0c       ??_C@_04CIPL@?$DM?5?9?9?$AA@ 0043bf0c     KSOServer.obj
 0003:00000f14       ??_C@_0CA@CFJB@?5leave?5game?5?9?5?$FLLogin?5Time?5Out?$FN?$CB?$AA@ 0043bf14     KSOServer.obj
 0003:00000f34       ??_C@_0BM@LLLH@Packing?5failed?4?5?$CFd?0?5?$CFd?0?5?$CFd?6?$AA@ 0043bf34     KSOServer.obj
 0003:00000f50       ??_C@_0BJ@KHI@PlayerDbLoading?5failed?4?6?$AA@ 0043bf50     KSOServer.obj
 0003:00000f6c       ??_C@_0BA@NLGN@GetAdaptersInfo?$AA@ 0043bf6c     KSOServer.obj
 0003:00000f7c       ??_C@_0N@JPOB@iphlpapi?4dll?$AA@ 0043bf7c     KSOServer.obj
 0003:00000f90       ??_R0?AVCWin32Exception@Win32@OnlineGameLib@@@8 0043bf90     common:UsesWinsock.obj
 0003:00000fc4       ??_C@_0BN@CJDO@CUsesWinsock?3?3CUsesWinsock?$CI?$CJ?$AA@ 0043bfc4     common:UsesWinsock.obj
 0003:00000fe4       ??_C@_0BB@BJC@CBuffer?3?3AddData?$AA@ 0043bfe4     common:Buffer.obj
 0003:00000ff8       ??_C@_0BL@HPMM@Not?5enough?5space?5in?5buffer?$AA@ 0043bff8     common:Buffer.obj
 0003:00001014       ??_C@_0BD@MKLK@CBuffer?3?3Release?$CI?$CJ?$AA@ 0043c014     common:Buffer.obj
 0003:00001028       ??_C@_0BG@EBOE@m_ref?5is?5already?5zero?$AA@ 0043c028     common:Buffer.obj
 0003:00001040       ??_C@_0BP@ONCE@CBuffer?3?3Allocator?3?3Allocate?$CI?$CJ?$AA@ 0043c040     common:Buffer.obj
 0003:00001060       ??_C@_0O@MNOP@Out?5of?5memory?$AA@ 0043c060     common:Buffer.obj
 0003:00001070       ??_C@_0BO@NDNG@CBuffer?3?3Allocator?3?3Release?$CI?$CJ?$AA@ 0043c070     common:Buffer.obj
 0003:00001090       ??_C@_0BA@GJNE@pBuffer?5is?5null?$AA@ 0043c090     common:Buffer.obj
 0003:000010a4       ??_C@_0M@EHLI@?2common?4log?$AA@ 0043c0a4     common:Utils.obj
 0003:000010b0       ??_C@_04BOIP@Info?$AA@     0043c0b0     common:Utils.obj
 0003:000010b8       ??_C@_0M@EGHG@?$CFu?4?$CFu?4?$CFu?4?$CFu?$AA@ 0043c0b8     common:Utils.obj
 0003:000010c4       ??_C@_0N@PPGC@?$CF02d?$CF02d?$CF02d?$AA@ 0043c0c4     common:Utils.obj
 0003:000010d4       ??_C@_0P@INAO@?$CF02d?3?$CF02d?3?$CF02d?$AA@ 0043c0d4     common:Utils.obj
 0003:000010e4       ??_C@_04LDEB@?$CF02X?$AA@  0043c0e4     common:Utils.obj
 0003:000010ec       ??_C@_01BJG@?6?$AA@        0043c0ec     common:Utils.obj
 0003:000010f0       ??_C@_03DMDD@?5?9?5?$AA@   0043c0f0     common:Utils.obj
 0003:000010f4       ??_C@_03MFGH@?5?5?5?$AA@   0043c0f4     common:Utils.obj
 0003:000010f8       ??_C@_01FCOA@?5?$AA@       0043c0f8     common:Utils.obj
 0003:000010fc       ??_C@_0M@GPOH@UNAVAILABLE?$AA@ 0043c0fc     common:Utils.obj
 0003:00001108       ??_C@_0CF@HLGK@?2StringFileInfo?2?$CF04x?$CF04x?2FileVer@ 0043c108     common:Utils.obj
 0003:00001130       ??_C@_0BJ@KCFH@?2VarFileInfo?2Translation?$AA@ 0043c130     common:Utils.obj
 0003:0000114c       ?_Sync@ios_base@std@@0_NA  0043c14c     libcpmt:ios.obj
 0003:00001150       ??_R0?AVruntime_error@std@@@8 0043c150     libcpmt:ios.obj
 0003:00001170       ??_R0?AVfailure@ios_base@std@@@8 0043c170     libcpmt:ios.obj
 0003:00001198       ??_R0?AVios_base@std@@@8   0043c198     libcpmt:ios.obj
 0003:000011b8       ??_R0?AVfacet@locale@std@@@8 0043c1b8     libcpmt:locale0.obj
 0003:000011d8       ??_R0?AV_Locimp@locale@std@@@8 0043c1d8     libcpmt:locale0.obj
 0003:00001200       ??_R0?AVlogic_error@std@@@8 0043c200     libcpmt:string.obj
 0003:00001220       ??_R0?AVlength_error@std@@@8 0043c220     libcpmt:string.obj
 0003:00001240       ??_R0?AVout_of_range@std@@@8 0043c240     libcpmt:string.obj
 0003:00001260       ??_R0?AV?$numpunct@D@std@@@8 0043c260     libcpmt:locale.obj
 0003:00001280       ??_R0?AVcodecvt_base@std@@@8 0043c280     libcpmt:locale.obj
 0003:000012a0       ??_R0?AV?$codecvt@DDH@std@@@8 0043c2a0     libcpmt:locale.obj
 0003:000012c0       ??_R0?AV?$num_get@DV?$istreambuf_iterator@DU?$char_traits@D@std@@@std@@@std@@@8 0043c2c0     libcpmt:locale.obj
 0003:00001318       ??_R0?AV?$num_put@DV?$ostreambuf_iterator@DU?$char_traits@D@std@@@std@@@std@@@8 0043c318     libcpmt:locale.obj
 0003:00001370       ??_R0?AUctype_base@std@@@8 0043c370     libcpmt:locale.obj
 0003:00001390       ??_R0?AV?$ctype@D@std@@@8  0043c390     libcpmt:locale.obj
 0003:000013ac       ?_Init_cnt@Init@ios_base@std@@0HA 0043c3ac     libcpmt:iostream.obj
 0003:000013b0       ??_R0?AV?$basic_ios@DU?$char_traits@D@std@@@std@@@8 0043c3b0     libcpmt:iostream.obj
 0003:000013e8       ??_R0?AV?$basic_istream@DU?$char_traits@D@std@@@std@@@8 0043c3e8     libcpmt:iostream.obj
 0003:00001428       ??_R0?AV?$basic_ostream@DU?$char_traits@D@std@@@std@@@8 0043c428     libcpmt:iostream.obj
 0003:00001468       ??_R0?AV?$basic_streambuf@DU?$char_traits@D@std@@@std@@@8 0043c468     libcpmt:iostream.obj
 0003:000014a8       ??_R0?AV?$basic_filebuf@DU?$char_traits@D@std@@@std@@@8 0043c4a8     libcpmt:iostream.obj
 0003:000014e4       ?_Init_cnt@_Winit@std@@0HA 0043c4e4     libcpmt:wiostrea.obj
 0003:000014e8       ??_R0?AV?$basic_ios@GU?$char_traits@G@std@@@std@@@8 0043c4e8     libcpmt:wiostrea.obj
 0003:00001520       ??_R0?AV?$basic_istream@GU?$char_traits@G@std@@@std@@@8 0043c520     libcpmt:wiostrea.obj
 0003:00001560       ??_R0?AV?$basic_ostream@GU?$char_traits@G@std@@@std@@@8 0043c560     libcpmt:wiostrea.obj
 0003:000015a0       ??_R0?AV?$basic_filebuf@GU?$char_traits@G@std@@@std@@@8 0043c5a0     libcpmt:wiostrea.obj
 0003:000015e0       ??_R0?AV?$basic_streambuf@GU?$char_traits@G@std@@@std@@@8 0043c5e0     libcpmt:wiostrea.obj
 0003:00001620       ??_R0?AVbad_alloc@std@@@8  0043c620     libcpmt:nomemory.obj
 0003:00001640       ??_R0?AV?$num_put@GV?$ostreambuf_iterator@GU?$char_traits@G@std@@@std@@@std@@@8 0043c640     libcpmt:wlocale.obj
 0003:00001698       ??_R0?AV?$num_get@GV?$istreambuf_iterator@GU?$char_traits@G@std@@@std@@@std@@@8 0043c698     libcpmt:wlocale.obj
 0003:000016f0       ??_R0?AV?$numpunct@G@std@@@8 0043c6f0     libcpmt:wlocale.obj
 0003:00001710       ??_R0?AV?$ctype@G@std@@@8  0043c710     libcpmt:wlocale.obj
 0003:00001730       ??_R0?AV?$time_put@GV?$ostreambuf_iterator@GU?$char_traits@G@std@@@std@@@std@@@8 0043c730     libcpmt:wlocale.obj
 0003:00001788       ??_R0?AUtime_base@std@@@8  0043c788     libcpmt:wlocale.obj
 0003:000017a8       ??_R0?AV?$time_get@GV?$istreambuf_iterator@GU?$char_traits@G@std@@@std@@@std@@@8 0043c7a8     libcpmt:wlocale.obj
 0003:00001800       ??_R0?AV?$moneypunct@G$00@std@@@8 0043c800     libcpmt:wlocale.obj
 0003:00001828       ??_R0?AUmoney_base@std@@@8 0043c828     libcpmt:wlocale.obj
 0003:00001848       ??_R0?AV?$_Mpunct@G@std@@@8 0043c848     libcpmt:wlocale.obj
 0003:00001868       ??_R0?AV?$moneypunct@G$0A@@std@@@8 0043c868     libcpmt:wlocale.obj
 0003:00001890       ??_R0?AV?$money_put@GV?$ostreambuf_iterator@GU?$char_traits@G@std@@@std@@@std@@@8 0043c890     libcpmt:wlocale.obj
 0003:000018e8       ??_R0?AV?$money_get@GV?$istreambuf_iterator@GU?$char_traits@G@std@@@std@@@std@@@8 0043c8e8     libcpmt:wlocale.obj
 0003:00001940       ??_R0?AUmessages_base@std@@@8 0043c940     libcpmt:wlocale.obj
 0003:00001960       ??_R0?AV?$messages@G@std@@@8 0043c960     libcpmt:wlocale.obj
 0003:00001980       ??_R0?AV?$collate@G@std@@@8 0043c980     libcpmt:wlocale.obj
 0003:000019a0       ??_R0?AV?$codecvt@GDH@std@@@8 0043c9a0     libcpmt:wlocale.obj
 0003:000019c0       ??_R0?AV?$time_put@DV?$ostreambuf_iterator@DU?$char_traits@D@std@@@std@@@std@@@8 0043c9c0     libcpmt:xlocale.obj
 0003:00001a18       ??_R0?AV?$time_get@DV?$istreambuf_iterator@DU?$char_traits@D@std@@@std@@@std@@@8 0043ca18     libcpmt:xlocale.obj
 0003:00001a70       ??_R0?AV?$moneypunct@D$00@std@@@8 0043ca70     libcpmt:xlocale.obj
 0003:00001a98       ??_R0?AV?$_Mpunct@D@std@@@8 0043ca98     libcpmt:xlocale.obj
 0003:00001ab8       ??_R0?AV?$moneypunct@D$0A@@std@@@8 0043cab8     libcpmt:xlocale.obj
 0003:00001ae0       ??_R0?AV?$money_put@DV?$ostreambuf_iterator@DU?$char_traits@D@std@@@std@@@std@@@8 0043cae0     libcpmt:xlocale.obj
 0003:00001b38       ??_R0?AV?$money_get@DV?$istreambuf_iterator@DU?$char_traits@D@std@@@std@@@std@@@8 0043cb38     libcpmt:xlocale.obj
 0003:00001b90       ??_R0?AV?$messages@D@std@@@8 0043cb90     libcpmt:xlocale.obj
 0003:00001bb0       ??_R0?AV?$collate@D@std@@@8 0043cbb0     libcpmt:xlocale.obj
 0003:00001bd0       ??_R0?AVtype_info@@@8      0043cbd0     LIBCMT:typinfo.obj
 0003:00001be8       __NLG_Destination          0043cbe8     LIBCMT:exsup.obj
 0003:00001bf8       ?__pMyUnhandledExceptionFilter@@3PAXA 0043cbf8     LIBCMT:throw.obj
 0003:00001c00       __fltused                  0043cc00     LIBCMT:fpinit.obj
 0003:00001c04       __ldused                   0043cc04     LIBCMT:fpinit.obj
 0003:00001c08       __FPinit                   0043cc08     LIBCMT:fpinit.obj
 0003:00001c0c       __FPmtinit                 0043cc0c     LIBCMT:fpinit.obj
 0003:00001c10       __FPmtterm                 0043cc10     LIBCMT:fpinit.obj
 0003:00001c20       ___lconv_static_decimal    0043cc20     LIBCMT:lconv.obj
 0003:00001c28       ___lconv_c                 0043cc28     LIBCMT:lconv.obj
 0003:00001c58       ___lconv                   0043cc58     LIBCMT:lconv.obj
 0003:00001c60       __aexit_rtn                0043cc60     LIBCMT:crt0.obj
 0003:00001c64       ___app_type                0043cc64     LIBCMT:crt0.obj
 0003:00001d80       ___lc_category             0043cd80     LIBCMT:setlocal.obj
 0003:00001f30       __iob                      0043cf30     LIBCMT:_file.obj
 0003:000021b0       ___mb_cur_max              0043d1b0     LIBCMT:nlsdata1.obj
 0003:000021b4       ___decimal_point           0043d1b4     LIBCMT:nlsdata1.obj
 0003:000021b8       ___decimal_point_length    0043d1b8     LIBCMT:nlsdata1.obj
 0003:000021bc       ___lc_time_curr            0043d1bc     LIBCMT:strftime.obj
 0003:000021c0       ___lc_time_c               0043d1c0     LIBCMT:strftime.obj
 0003:0000226c       __locktable                0043d26c     LIBCMT:mlock.obj
 0003:0000232c       __pctype                   0043d32c     LIBCMT:ctype.obj
 0003:00002330       __pwctype                  0043d330     LIBCMT:ctype.obj
 0003:00002334       __ctype                    0043d334     LIBCMT:ctype.obj
 0003:00002550       ___tlsindex                0043d550     LIBCMT:tidtable.obj
 0003:00002554       ?__pInconsistency@@3P6AXXZA 0043d554     LIBCMT:hooks.obj
 0003:00002570       ___nullstring              0043d570     LIBCMT:output.obj
 0003:00002574       ___wnullstring             0043d574     LIBCMT:output.obj
 0003:00002578       __cfltcvt_tab              0043d578     LIBCMT:cmiscdat.obj
 0003:00002590       __XcptActTab               0043d590     LIBCMT:winxfltr.obj
 0003:00002608       __First_FPE_Indx           0043d608     LIBCMT:winxfltr.obj
 0003:0000260c       __Num_FPE                  0043d60c     LIBCMT:winxfltr.obj
 0003:00002610       __XcptActTabSize           0043d610     LIBCMT:winxfltr.obj
 0003:00002614       __XcptActTabCount          0043d614     LIBCMT:winxfltr.obj
 0003:00002618       ___badioinfo               0043d618     LIBCMT:ioinit.obj
 0003:0000263c       __amblksiz                 0043d63c     LIBCMT:heapinit.obj
 0003:000026d0       ___sbh_threshold           0043d6d0     LIBCMT:sbheap.obj
 0003:000026e0       ___rgLocInfo               0043d6e0     LIBCMT:getqloc.obj
 0003:00002b84       ___rglangidNotDefault      0043db84     LIBCMT:getqloc.obj
 0003:00002b98       ___rg_country              0043db98     LIBCMT:getqloc.obj
 0003:00002c50       ___rg_language             0043dc50     LIBCMT:getqloc.obj
 0003:00002e58       __timezone                 0043de58     LIBCMT:timeset.obj
 0003:00002e5c       __daylight                 0043de5c     LIBCMT:timeset.obj
 0003:00002e60       __dstbias                  0043de60     LIBCMT:timeset.obj
 0003:00002ee4       __tzname                   0043dee4     LIBCMT:timeset.obj
 0003:00002f10       __HUGE                     0043df10     LIBCMT:huge.obj
 0003:00002f18       __p_overlay                0043df18     LIBCMT:dospawn.obj
 0003:00003050       __lpdays                   0043e050     LIBCMT:days.obj
 0003:00003084       __days                     0043e084     LIBCMT:days.obj
 0003:000030c0       __pow10pos                 0043e0c0     LIBCMT:constpow.obj
 0003:00003220       __pow10neg                 0043e220     LIBCMT:constpow.obj
 0003:00003380       ?g_nPort@@3HA              0043e380     GameServer.obj
 0003:00003384       ?ATL_CREATE_OBJECT@CComApartment@ATL@@2IA 0043e384     GameServer.obj
 0003:00003388       ?m_libid@CComModule@ATL@@2U_GUID@@A 0043e388     GameServer.obj
 0003:00003398       ?_pModule@ATL@@3PAVCComModule@1@A 0043e398     GameServer.obj
 0003:0000339c       ?_Psave@?1??use_facet@std@@YAABV?$num_put@DV?$ostreambuf_iterator@DU?$char_traits@D@std@@@std@@@2@ABVlocale@2@PBV32@_N@Z@4PBVfacet@42@B 0043e39c     GameServer.obj
 0003:000033a0       ?_Psave@?1??use_facet@std@@YAABV?$numpunct@D@2@ABVlocale@2@PBV32@_N@Z@4PBVfacet@42@B 0043e3a0     GameServer.obj
 0003:000033a4       ?_Facsav@?$_Tidyfac@V?$num_put@DV?$ostreambuf_iterator@DU?$char_traits@D@std@@@std@@@std@@@std@@0PAV?$num_put@DV?$ostreambuf_iterator@DU?$char_traits@D@std@@@std@@@2@A 0043e3a4     GameServer.obj
 0003:000033a8       ?_Facsav@?$_Tidyfac@V?$numpunct@D@std@@@std@@0PAV?$numpunct@D@2@A 0043e3a8     GameServer.obj
 0003:000033b0       ?g_SOServer@@3VKSwordOnLineSever@@A 0043e3b0     KSOServer.obj
 0003:00003528       ?m_theSend@@3VCPackager@Win32@OnlineGameLib@@A 0043e528     KSOServer.obj
 0003:000035b0       ?m_theRecv@@3VCPackager@Win32@OnlineGameLib@@A 0043e5b0     KSOServer.obj
 0003:00003638       ?g_csFlow@@3VCCriticalSection@Win32@OnlineGameLib@@A 0043e638     KSOServer.obj
 0003:00003650       ?g_SocketInit@@3VCUsesWinsock@Win32@OnlineGameLib@@A 0043e650     KSOServer.obj
 0003:000037e0       ?g_theRainbowLibrary@@3VCLibrary@Win32@OnlineGameLib@@A 0043e7e0     KSOServer.obj
 0003:000037f8       ?g_theHeavenLibrary@@3VCLibrary@Win32@OnlineGameLib@@A 0043e7f8     KSOServer.obj
 0003:00003810       ?g_pGSLicense@@3VKLicense@@A 0043e810     KSOServer.obj
 0003:00003818       ?_Nilrefs@?$_Tree@KU?$pair@$$CBKPAVKTransferUnit@@@std@@U_Kfn@?$map@KPAVKTransferUnit@@U?$less@K@std@@V?$allocator@PAVKTransferUnit@@@3@@2@U?$less@K@2@V?$allocator@PAVKTransferUnit@@@2@@std@@1IA 0043e818     KSOServer.obj
 0003:0000381c       ?_Nil@?$_Tree@KU?$pair@$$CBKPAVKTransferUnit@@@std@@U_Kfn@?$map@KPAVKTransferUnit@@U?$less@K@std@@V?$allocator@PAVKTransferUnit@@@3@@2@U?$less@K@2@V?$allocator@PAVKTransferUnit@@@2@@std@@1PAU_Node@12@A 0043e81c     KSOServer.obj
 0003:00003820       ?_Nilrefs@?$_Tree@EU?$pair@$$CBEPAVCBuffer@Win32@OnlineGameLib@@@std@@U_Kfn@?$map@EPAVCBuffer@Win32@OnlineGameLib@@U?$less@E@std@@V?$allocator@PAVCBuffer@Win32@OnlineGameLib@@@5@@2@U?$less@E@2@V?$allocator@PAVCBuffer@Win32@OnlineGameLib@@@2@@std@@1IA 0043e820     common:Buffer.obj
 0003:00003824       ?_Nil@?$_Tree@EU?$pair@$$CBEPAVCBuffer@Win32@OnlineGameLib@@@std@@U_Kfn@?$map@EPAVCBuffer@Win32@OnlineGameLib@@U?$less@E@std@@V?$allocator@PAVCBuffer@Win32@OnlineGameLib@@@5@@2@U?$less@E@2@V?$allocator@PAVCBuffer@Win32@OnlineGameLib@@@2@@std@@1PAU_Node@12@A 0043e824     common:Buffer.obj
 0003:00003978       ?s_criticalSection@Win32@OnlineGameLib@@3VCCriticalSection@12@A 0043e978     common:Utils.obj
 0003:00003998       ??_C@_00A@?$AA@            0043e998     common:Utils.obj
 0003:0000399c       ?_Index@ios_base@std@@0HA  0043e99c     libcpmt:ios.obj
 0003:000039f0       ?_Clocptr@_Locimp@locale@std@@0PAV123@A 0043e9f0     libcpmt:locale0.obj
 0003:000039f4       ?_Global@_Locimp@locale@std@@0PAV123@A 0043e9f4     libcpmt:locale0.obj
 0003:000039f8       ?_Id_cnt@id@locale@std@@0HA 0043e9f8     libcpmt:locale0.obj
 0003:000039fc       ?_Cltab@?$ctype@D@std@@0PBFB 0043e9fc     libcpmt:locale0.obj
 0003:00003a00       ?id@?$codecvt@DDH@std@@2V0locale@2@A 0043ea00     libcpmt:locale.obj
 0003:00003a04       ?id@?$num_get@DV?$istreambuf_iterator@DU?$char_traits@D@std@@@std@@@std@@2V0locale@2@A 0043ea04     libcpmt:locale.obj
 0003:00003a08       ?id@?$ctype@D@std@@2V0locale@2@A 0043ea08     libcpmt:locale.obj
 0003:00003a0c       ?id@?$numpunct@D@std@@2V0locale@2@A 0043ea0c     libcpmt:locale.obj
 0003:00003a10       ?id@?$num_put@DV?$ostreambuf_iterator@DU?$char_traits@D@std@@@std@@@std@@2V0locale@2@A 0043ea10     libcpmt:locale.obj
 0003:00003a14       ?_Psave@?1??use_facet@std@@YAABV?$ctype@D@2@ABVlocale@2@PBV32@_N@Z@4PBVfacet@42@B 0043ea14     libcpmt:locale.obj
 0003:00003a18       ?_Psave@?1??use_facet@std@@YAABV?$num_get@DV?$istreambuf_iterator@DU?$char_traits@D@std@@@std@@@2@ABVlocale@2@PBV32@_N@Z@4PBVfacet@42@B 0043ea18     libcpmt:locale.obj
 0003:00003a1c       ?_Psave@?1??use_facet@std@@YAABV?$codecvt@DDH@2@ABVlocale@2@PBV32@_N@Z@4PBVfacet@42@B 0043ea1c     libcpmt:locale.obj
 0003:00003a20       ?_Facsav@?$_Tidyfac@V?$ctype@D@std@@@std@@0PAV?$ctype@D@2@A 0043ea20     libcpmt:locale.obj
 0003:00003a24       ?_Facsav@?$_Tidyfac@V?$num_get@DV?$istreambuf_iterator@DU?$char_traits@D@std@@@std@@@std@@@std@@0PAV?$num_get@DV?$istreambuf_iterator@DU?$char_traits@D@std@@@std@@@2@A 0043ea24     libcpmt:locale.obj
 0003:00003a28       ?_Facsav@?$_Tidyfac@V?$codecvt@DDH@std@@@std@@0PAV?$codecvt@DDH@2@A 0043ea28     libcpmt:locale.obj
 0003:00003a30       ?clog@std@@3V?$basic_ostream@DU?$char_traits@D@std@@@1@A 0043ea30     libcpmt:iostream.obj
 0003:00003ac0       ?cout@std@@3V?$basic_ostream@DU?$char_traits@D@std@@@1@A 0043eac0     libcpmt:iostream.obj
 0003:00003b50       ?cin@std@@3V?$basic_istream@DU?$char_traits@D@std@@@1@A 0043eb50     libcpmt:iostream.obj
 0003:00003be8       ?cerr@std@@3V?$basic_ostream@DU?$char_traits@D@std@@@1@A 0043ebe8     libcpmt:iostream.obj
 0003:00003c20       ?wcerr@std@@3V?$basic_ostream@GU?$char_traits@G@std@@@1@A 0043ec20     libcpmt:wiostrea.obj
 0003:00003c60       ?wclog@std@@3V?$basic_ostream@GU?$char_traits@G@std@@@1@A 0043ec60     libcpmt:wiostrea.obj
 0003:00003c98       ?wcin@std@@3V?$basic_istream@GU?$char_traits@G@std@@@1@A 0043ec98     libcpmt:wiostrea.obj
 0003:00003d88       ?wcout@std@@3V?$basic_ostream@GU?$char_traits@G@std@@@1@A 0043ed88     libcpmt:wiostrea.obj
 0003:00003e2c       ?id@?$numpunct@G@std@@2V0locale@2@A 0043ee2c     libcpmt:wlocale.obj
 0003:00003e30       ?id@?$money_get@GV?$istreambuf_iterator@GU?$char_traits@G@std@@@std@@@std@@2V0locale@2@A 0043ee30     libcpmt:wlocale.obj
 0003:00003e34       ?id@?$messages@G@std@@2V0locale@2@A 0043ee34     libcpmt:wlocale.obj
 0003:00003e38       ?id@?$moneypunct@G$00@std@@2V0locale@2@A 0043ee38     libcpmt:wlocale.obj
 0003:00003e3c       ?id@?$num_put@GV?$ostreambuf_iterator@GU?$char_traits@G@std@@@std@@@std@@2V0locale@2@A 0043ee3c     libcpmt:wlocale.obj
 0003:00003e40       ?id@?$collate@G@std@@2V0locale@2@A 0043ee40     libcpmt:wlocale.obj
 0003:00003e44       ?id@?$time_get@GV?$istreambuf_iterator@GU?$char_traits@G@std@@@std@@@std@@2V0locale@2@A 0043ee44     libcpmt:wlocale.obj
 0003:00003e48       ?id@?$ctype@G@std@@2V0locale@2@A 0043ee48     libcpmt:wlocale.obj
 0003:00003e4c       ?id@?$num_get@GV?$istreambuf_iterator@GU?$char_traits@G@std@@@std@@@std@@2V0locale@2@A 0043ee4c     libcpmt:wlocale.obj
 0003:00003e50       ?id@?$codecvt@GDH@std@@2V0locale@2@A 0043ee50     libcpmt:wlocale.obj
 0003:00003e54       ?id@?$time_put@GV?$ostreambuf_iterator@GU?$char_traits@G@std@@@std@@@std@@2V0locale@2@A 0043ee54     libcpmt:wlocale.obj
 0003:00003e58       ?id@?$moneypunct@G$0A@@std@@2V0locale@2@A 0043ee58     libcpmt:wlocale.obj
 0003:00003e5c       ?id@?$money_put@GV?$ostreambuf_iterator@GU?$char_traits@G@std@@@std@@@std@@2V0locale@2@A 0043ee5c     libcpmt:wlocale.obj
 0003:00003e60       ?_Psave@?1??use_facet@std@@YAABV?$ctype@G@2@ABVlocale@2@PBV32@_N@Z@4PBVfacet@42@B 0043ee60     libcpmt:wlocale.obj
 0003:00003e64       ?_Psave@?1??use_facet@std@@YAABV?$num_get@GV?$istreambuf_iterator@GU?$char_traits@G@std@@@std@@@2@ABVlocale@2@PBV32@_N@Z@4PBVfacet@42@B 0043ee64     libcpmt:wlocale.obj
 0003:00003e68       ?_Psave@?1??use_facet@std@@YAABV?$num_put@GV?$ostreambuf_iterator@GU?$char_traits@G@std@@@std@@@2@ABVlocale@2@PBV32@_N@Z@4PBVfacet@42@B 0043ee68     libcpmt:wlocale.obj
 0003:00003e6c       ?_Psave@?1??use_facet@std@@YAABV?$numpunct@G@2@ABVlocale@2@PBV32@_N@Z@4PBVfacet@42@B 0043ee6c     libcpmt:wlocale.obj
 0003:00003e70       ?_Psave@?1??use_facet@std@@YAABV?$collate@G@2@ABVlocale@2@PBV32@_N@Z@4PBVfacet@42@B 0043ee70     libcpmt:wlocale.obj
 0003:00003e74       ?_Psave@?1??use_facet@std@@YAABV?$messages@G@2@ABVlocale@2@PBV32@_N@Z@4PBVfacet@42@B 0043ee74     libcpmt:wlocale.obj
 0003:00003e78       ?_Psave@?1??use_facet@std@@YAABV?$money_get@GV?$istreambuf_iterator@GU?$char_traits@G@std@@@std@@@2@ABVlocale@2@PBV32@_N@Z@4PBVfacet@42@B 0043ee78     libcpmt:wlocale.obj
 0003:00003e7c       ?_Psave@?1??use_facet@std@@YAABV?$money_put@GV?$ostreambuf_iterator@GU?$char_traits@G@std@@@std@@@2@ABVlocale@2@PBV32@_N@Z@4PBVfacet@42@B 0043ee7c     libcpmt:wlocale.obj
 0003:00003e80       ?_Psave@?1??use_facet@std@@YAABV?$moneypunct@G$0A@@2@ABVlocale@2@PBV32@_N@Z@4PBVfacet@42@B 0043ee80     libcpmt:wlocale.obj
 0003:00003e84       ?_Psave@?1??use_facet@std@@YAABV?$moneypunct@G$00@2@ABVlocale@2@PBV32@_N@Z@4PBVfacet@42@B 0043ee84     libcpmt:wlocale.obj
 0003:00003e88       ?_Psave@?1??use_facet@std@@YAABV?$time_get@GV?$istreambuf_iterator@GU?$char_traits@G@std@@@std@@@2@ABVlocale@2@PBV32@_N@Z@4PBVfacet@42@B 0043ee88     libcpmt:wlocale.obj
 0003:00003e8c       ?_Psave@?1??use_facet@std@@YAABV?$time_put@GV?$ostreambuf_iterator@GU?$char_traits@G@std@@@std@@@2@ABVlocale@2@PBV32@_N@Z@4PBVfacet@42@B 0043ee8c     libcpmt:wlocale.obj
 0003:00003e90       ?_Psave@?1??use_facet@std@@YAABV?$codecvt@GDH@2@ABVlocale@2@PBV32@_N@Z@4PBVfacet@42@B 0043ee90     libcpmt:wlocale.obj
 0003:00003e94       ?_Facsav@?$_Tidyfac@V?$ctype@G@std@@@std@@0PAV?$ctype@G@2@A 0043ee94     libcpmt:wlocale.obj
 0003:00003e98       ?_Facsav@?$_Tidyfac@V?$num_get@GV?$istreambuf_iterator@GU?$char_traits@G@std@@@std@@@std@@@std@@0PAV?$num_get@GV?$istreambuf_iterator@GU?$char_traits@G@std@@@std@@@2@A 0043ee98     libcpmt:wlocale.obj
 0003:00003e9c       ?_Facsav@?$_Tidyfac@V?$num_put@GV?$ostreambuf_iterator@GU?$char_traits@G@std@@@std@@@std@@@std@@0PAV?$num_put@GV?$ostreambuf_iterator@GU?$char_traits@G@std@@@std@@@2@A 0043ee9c     libcpmt:wlocale.obj
 0003:00003ea0       ?_Facsav@?$_Tidyfac@V?$numpunct@G@std@@@std@@0PAV?$numpunct@G@2@A 0043eea0     libcpmt:wlocale.obj
 0003:00003ea4       ?_Facsav@?$_Tidyfac@V?$collate@G@std@@@std@@0PAV?$collate@G@2@A 0043eea4     libcpmt:wlocale.obj
 0003:00003ea8       ?_Facsav@?$_Tidyfac@V?$messages@G@std@@@std@@0PAV?$messages@G@2@A 0043eea8     libcpmt:wlocale.obj
 0003:00003eac       ?_Facsav@?$_Tidyfac@V?$money_get@GV?$istreambuf_iterator@GU?$char_traits@G@std@@@std@@@std@@@std@@0PAV?$money_get@GV?$istreambuf_iterator@GU?$char_traits@G@std@@@std@@@2@A 0043eeac     libcpmt:wlocale.obj
 0003:00003eb0       ?_Facsav@?$_Tidyfac@V?$money_put@GV?$ostreambuf_iterator@GU?$char_traits@G@std@@@std@@@std@@@std@@0PAV?$money_put@GV?$ostreambuf_iterator@GU?$char_traits@G@std@@@std@@@2@A 0043eeb0     libcpmt:wlocale.obj
 0003:00003eb4       ?_Facsav@?$_Tidyfac@V?$moneypunct@G$0A@@std@@@std@@0PAV?$moneypunct@G$0A@@2@A 0043eeb4     libcpmt:wlocale.obj
 0003:00003eb8       ?_Facsav@?$_Tidyfac@V?$moneypunct@G$00@std@@@std@@0PAV?$moneypunct@G$00@2@A 0043eeb8     libcpmt:wlocale.obj
 0003:00003ebc       ?_Facsav@?$_Tidyfac@V?$time_get@GV?$istreambuf_iterator@GU?$char_traits@G@std@@@std@@@std@@@std@@0PAV?$time_get@GV?$istreambuf_iterator@GU?$char_traits@G@std@@@std@@@2@A 0043eebc     libcpmt:wlocale.obj
 0003:00003ec0       ?_Facsav@?$_Tidyfac@V?$time_put@GV?$ostreambuf_iterator@GU?$char_traits@G@std@@@std@@@std@@@std@@0PAV?$time_put@GV?$ostreambuf_iterator@GU?$char_traits@G@std@@@std@@@2@A 0043eec0     libcpmt:wlocale.obj
 0003:00003ec4       ?_Facsav@?$_Tidyfac@V?$codecvt@GDH@std@@@std@@0PAV?$codecvt@GDH@2@A 0043eec4     libcpmt:wlocale.obj
 0003:00003ec8       ?id@?$money_put@DV?$ostreambuf_iterator@DU?$char_traits@D@std@@@std@@@std@@2V0locale@2@A 0043eec8     libcpmt:xlocale.obj
 0003:00003ecc       ?id@?$moneypunct@D$00@std@@2V0locale@2@A 0043eecc     libcpmt:xlocale.obj
 0003:00003ed0       ?id@?$time_get@DV?$istreambuf_iterator@DU?$char_traits@D@std@@@std@@@std@@2V0locale@2@A 0043eed0     libcpmt:xlocale.obj
 0003:00003ed4       ?id@?$time_put@DV?$ostreambuf_iterator@DU?$char_traits@D@std@@@std@@@std@@2V0locale@2@A 0043eed4     libcpmt:xlocale.obj
 0003:00003ed8       ?id@?$messages@D@std@@2V0locale@2@A 0043eed8     libcpmt:xlocale.obj
 0003:00003edc       ?id@?$moneypunct@D$0A@@std@@2V0locale@2@A 0043eedc     libcpmt:xlocale.obj
 0003:00003ee0       ?id@?$money_get@DV?$istreambuf_iterator@DU?$char_traits@D@std@@@std@@@std@@2V0locale@2@A 0043eee0     libcpmt:xlocale.obj
 0003:00003ee4       ?id@?$collate@D@std@@2V0locale@2@A 0043eee4     libcpmt:xlocale.obj
 0003:00003ee8       ?_Psave@?1??use_facet@std@@YAABV?$collate@D@2@ABVlocale@2@PBV32@_N@Z@4PBVfacet@42@B 0043eee8     libcpmt:xlocale.obj
 0003:00003eec       ?_Psave@?1??use_facet@std@@YAABV?$messages@D@2@ABVlocale@2@PBV32@_N@Z@4PBVfacet@42@B 0043eeec     libcpmt:xlocale.obj
 0003:00003ef0       ?_Psave@?1??use_facet@std@@YAABV?$money_get@DV?$istreambuf_iterator@DU?$char_traits@D@std@@@std@@@2@ABVlocale@2@PBV32@_N@Z@4PBVfacet@42@B 0043eef0     libcpmt:xlocale.obj
 0003:00003ef4       ?_Psave@?1??use_facet@std@@YAABV?$money_put@DV?$ostreambuf_iterator@DU?$char_traits@D@std@@@std@@@2@ABVlocale@2@PBV32@_N@Z@4PBVfacet@42@B 0043eef4     libcpmt:xlocale.obj
 0003:00003ef8       ?_Psave@?1??use_facet@std@@YAABV?$moneypunct@D$0A@@2@ABVlocale@2@PBV32@_N@Z@4PBVfacet@42@B 0043eef8     libcpmt:xlocale.obj
 0003:00003efc       ?_Psave@?1??use_facet@std@@YAABV?$moneypunct@D$00@2@ABVlocale@2@PBV32@_N@Z@4PBVfacet@42@B 0043eefc     libcpmt:xlocale.obj
 0003:00003f00       ?_Psave@?1??use_facet@std@@YAABV?$time_get@DV?$istreambuf_iterator@DU?$char_traits@D@std@@@std@@@2@ABVlocale@2@PBV32@_N@Z@4PBVfacet@42@B 0043ef00     libcpmt:xlocale.obj
 0003:00003f04       ?_Psave@?1??use_facet@std@@YAABV?$time_put@DV?$ostreambuf_iterator@DU?$char_traits@D@std@@@std@@@2@ABVlocale@2@PBV32@_N@Z@4PBVfacet@42@B 0043ef04     libcpmt:xlocale.obj
 0003:00003f08       ?_Facsav@?$_Tidyfac@V?$collate@D@std@@@std@@0PAV?$collate@D@2@A 0043ef08     libcpmt:xlocale.obj
 0003:00003f0c       ?_Facsav@?$_Tidyfac@V?$messages@D@std@@@std@@0PAV?$messages@D@2@A 0043ef0c     libcpmt:xlocale.obj
 0003:00003f10       ?_Facsav@?$_Tidyfac@V?$money_get@DV?$istreambuf_iterator@DU?$char_traits@D@std@@@std@@@std@@@std@@0PAV?$money_get@DV?$istreambuf_iterator@DU?$char_traits@D@std@@@std@@@2@A 0043ef10     libcpmt:xlocale.obj
 0003:00003f14       ?_Facsav@?$_Tidyfac@V?$money_put@DV?$ostreambuf_iterator@DU?$char_traits@D@std@@@std@@@std@@@std@@0PAV?$money_put@DV?$ostreambuf_iterator@DU?$char_traits@D@std@@@std@@@2@A 0043ef14     libcpmt:xlocale.obj
 0003:00003f18       ?_Facsav@?$_Tidyfac@V?$moneypunct@D$0A@@std@@@std@@0PAV?$moneypunct@D$0A@@2@A 0043ef18     libcpmt:xlocale.obj
 0003:00003f1c       ?_Facsav@?$_Tidyfac@V?$moneypunct@D$00@std@@@std@@0PAV?$moneypunct@D$00@2@A 0043ef1c     libcpmt:xlocale.obj
 0003:00003f20       ?_Facsav@?$_Tidyfac@V?$time_get@DV?$istreambuf_iterator@DU?$char_traits@D@std@@@std@@@std@@@std@@0PAV?$time_get@DV?$istreambuf_iterator@DU?$char_traits@D@std@@@std@@@2@A 0043ef20     libcpmt:xlocale.obj
 0003:00003f24       ?_Facsav@?$_Tidyfac@V?$time_put@DV?$ostreambuf_iterator@DU?$char_traits@D@std@@@std@@@std@@@std@@0PAV?$time_put@DV?$ostreambuf_iterator@DU?$char_traits@D@std@@@std@@@2@A 0043ef24     libcpmt:xlocale.obj
 0003:00003f34       ___fastflag                0043ef34     LIBCMT:fpinit.obj
 0003:00003f38       __adjust_fdiv              0043ef38     LIBCMT:fpinit.obj
 0003:00003f3c       ___lconv_static_null       0043ef3c     LIBCMT:lconv.obj
 0003:00003f40       __aenvptr                  0043ef40     LIBCMT:crt0.obj
 0003:00003f44       __wenvptr                  0043ef44     LIBCMT:crt0.obj
 0003:00003f48       ___error_mode              0043ef48     LIBCMT:crt0.obj
 0003:00003f58       __cflush                   0043ef58     LIBCMT:_file.obj
 0003:00003fc0       ___lc_handle               0043efc0     LIBCMT:nlsdata2.obj
 0003:00003fd8       ___lc_codepage             0043efd8     LIBCMT:nlsdata2.obj
 0003:00003fdc       ___lc_collate_cp           0043efdc     LIBCMT:nlsdata2.obj
 0003:00003fec       __umaskval                 0043efec     LIBCMT:crt0dat.obj
 0003:00003ff0       __osver                    0043eff0     LIBCMT:crt0dat.obj
 0003:00003ff4       __winver                   0043eff4     LIBCMT:crt0dat.obj
 0003:00003ff8       __winmajor                 0043eff8     LIBCMT:crt0dat.obj
 0003:00003ffc       __winminor                 0043effc     LIBCMT:crt0dat.obj
 0003:00004000       ___argc                    0043f000     LIBCMT:crt0dat.obj
 0003:00004004       ___argv                    0043f004     LIBCMT:crt0dat.obj
 0003:00004008       ___wargv                   0043f008     LIBCMT:crt0dat.obj
 0003:0000400c       __environ                  0043f00c     LIBCMT:crt0dat.obj
 0003:00004010       ___initenv                 0043f010     LIBCMT:crt0dat.obj
 0003:00004014       __wenviron                 0043f014     LIBCMT:crt0dat.obj
 0003:00004018       ___winitenv                0043f018     LIBCMT:crt0dat.obj
 0003:0000401c       __pgmptr                   0043f01c     LIBCMT:crt0dat.obj
 0003:00004020       __wpgmptr                  0043f020     LIBCMT:crt0dat.obj
 0003:00004024       __exitflag                 0043f024     LIBCMT:crt0dat.obj
 0003:00004028       __C_Termination_Done       0043f028     LIBCMT:crt0dat.obj
 0003:0000402c       __C_Exit_Done              0043f02c     LIBCMT:crt0dat.obj
 0003:00004030       __stdbuf                   0043f030     LIBCMT:_sftbuf.obj
 0003:00004140       __adbgmsg                  0043f140     LIBCMT:crt0msg.obj
 0003:00004144       ___lc_time_intl            0043f144     LIBCMT:inittime.obj
 0003:00004160       ___lc_id                   0043f160     LIBCMT:nlsdata3.obj
 0003:000041a8       __newmode                  0043f1a8     LIBCMT:_newmode.obj
 0003:000041ac       ?_pnhHeap@@3P6AHI@ZA       0043f1ac     LIBCMT:handler.obj
 0003:00004270       __commode                  0043f270     LIBCMT:ncommode.obj
 0003:000042a4       __fmode                    0043f2a4     LIBCMT:txtmode.obj
 0003:000042b0       ??_B?1???id@?$ctype@G@std@@$D@@9@51 0043f2b0     <common>
 0003:000042b1       ??_B?1???id@?$num_put@DV?$ostreambuf_iterator@DU?$char_traits@D@std@@@$D@@9@51 0043f2b1     <common>
 0003:000042b2       ??_B?1???id@?$numpunct@D@std@@$D@@9@51 0043f2b2     <common>
 0003:000042b4       ?_Stz@?$fpos@H@std@@0HA    0043f2b4     <common>
 0003:000042b8       ?_Stinit@?1??_Init@?$basic_filebuf@DU?$char_traits@D@std@@@std@@IAEXPAU_iobuf@@W4_Initfl@23@@Z@4HA 0043f2b8     <common>
 0003:000042bc       ?_Stinit@?1??_Init@?$basic_filebuf@GU?$char_traits@G@std@@@std@@IAEXPAU_iobuf@@W4_Initfl@23@@Z@4HA 0043f2bc     <common>
 0003:000042c0       ??_B?1???id@?$collate@D@std@@$D@@9@51 0043f2c0     <common>
 0003:000042c4       ___mbcodepage              0043f2c4     <common>
 0003:000042d0       ___mbulinfo                0043f2d0     <common>
 0003:000042dc       ___ismbcodepage            0043f2dc     <common>
 0003:000042e0       __mbcasemap                0043f2e0     <common>
 0003:000043e0       __mbctype                  0043f3e0     <common>
 0003:000044e4       ___mblcid                  0043f4e4     <common>
 0003:000044e8       ___sbh_sizeHeaderList      0043f4e8     <common>
 0003:000044ec       ___sbh_indGroupDefer       0043f4ec     <common>
 0003:000044f0       ___sbh_pHeaderScan         0043f4f0     <common>
 0003:000044f4       ___sbh_pHeaderDefer        0043f4f4     <common>
 0003:000044f8       ___sbh_cntHeaderList       0043f4f8     <common>
 0003:000044fc       ___sbh_pHeaderList         0043f4fc     <common>
 0003:00004500       __crtheap                  0043f500     <common>
 0003:00004520       ___pioinfo                 0043f520     <common>
 0003:00004620       __nhandle                  0043f620     <common>
 0003:00004624       ___env_initialized         0043f624     <common>
 0003:00004628       ___mbctype_initialized     0043f628     <common>
 0003:0000462c       ___onexitend               0043f62c     <common>
 0003:00004630       ___onexitbegin             0043f630     <common>
 0003:00004634       ___alternate_form          0043f634     <common>
 0003:00004638       ___no_lead_zeros           0043f638     <common>
 0003:0000463c       ___piob                    0043f63c     <common>
 0003:00004640       __bufin                    0043f640     <common>
 0003:00005640       __nstream                  00440640     <common>
 0003:00005644       ___setlc_active            00440644     <common>
 0003:00005648       ___unguarded_readlc_active 00440648     <common>
 0003:0000564c       __acmdln                   0044064c     <common>

 entry point at        0001:0002202f

 Static symbols

 0001:0000bf80       _$E25                      0040cf80 f   KTransferUnit.obj
 0001:0000bfa0       _$E24                      0040cfa0 f   KTransferUnit.obj
 0001:00003ec0       _$E19                      00404ec0 f   KSOServer.obj
 0001:00003ed0       _$E16                      00404ed0 f   KSOServer.obj
 0001:00003ee0       _$E18                      00404ee0 f   KSOServer.obj
 0001:00003ef0       _$E17                      00404ef0 f   KSOServer.obj
 0001:00003f00       _$E25                      00404f00 f   KSOServer.obj
 0001:00003f10       _$E22                      00404f10 f   KSOServer.obj
 0001:00003f20       _$E24                      00404f20 f   KSOServer.obj
 0001:00003f30       _$E23                      00404f30 f   KSOServer.obj
 0001:00003f40       _$E38                      00404f40 f   KSOServer.obj
 0001:00003f50       _$E35                      00404f50 f   KSOServer.obj
 0001:00003f60       _$E37                      00404f60 f   KSOServer.obj
 0001:00003f70       _$E36                      00404f70 f   KSOServer.obj
 0001:00003f80       _$E43                      00404f80 f   KSOServer.obj
 0001:00003f90       _$E40                      00404f90 f   KSOServer.obj
 0001:00003fa0       _$E42                      00404fa0 f   KSOServer.obj
 0001:00003fb0       _$E41                      00404fb0 f   KSOServer.obj
 0001:00003fc0       _$E48                      00404fc0 f   KSOServer.obj
 0001:00003fd0       _$E45                      00404fd0 f   KSOServer.obj
 0001:00003fe0       _$E47                      00404fe0 f   KSOServer.obj
 0001:00003ff0       _$E46                      00404ff0 f   KSOServer.obj
 0001:00004000       _$E53                      00405000 f   KSOServer.obj
 0001:00004010       _$E50                      00405010 f   KSOServer.obj
 0001:00004020       _$E52                      00405020 f   KSOServer.obj
 0001:00004030       _$E51                      00405030 f   KSOServer.obj
 0001:00004040       _$E58                      00405040 f   KSOServer.obj
 0001:00004050       _$E55                      00405050 f   KSOServer.obj
 0001:00004060       _$E57                      00405060 f   KSOServer.obj
 0001:00004070       _$E56                      00405070 f   KSOServer.obj
 0001:00004080       _$E63                      00405080 f   KSOServer.obj
 0001:00004090       _$E60                      00405090 f   KSOServer.obj
 0001:000040b0       _$E62                      004050b0 f   KSOServer.obj
 0001:000040c0       _$E61                      004050c0 f   KSOServer.obj
 0001:000040d0       _$E68                      004050d0 f   KSOServer.obj
 0001:000040e0       _$E65                      004050e0 f   KSOServer.obj
 0001:00004100       _$E67                      00405100 f   KSOServer.obj
 0001:00004110       _$E66                      00405110 f   KSOServer.obj
 0001:00004120       _$E73                      00405120 f   KSOServer.obj
 0001:00004130       _$E70                      00405130 f   KSOServer.obj
 0001:00004140       _$E72                      00405140 f   KSOServer.obj
 0001:00004150       _$E71                      00405150 f   KSOServer.obj
 0001:0000be90       _$E91                      0040ce90 f   KSOServer.obj
 0001:0000bee0       _$E84                      0040cee0 f   KSOServer.obj
 0001:0000bef0       _$E87                      0040cef0 f   KSOServer.obj
 0001:0000bf00       _$E90                      0040cf00 f   KSOServer.obj
 0001:00003e10       _$E49                      00404e10 f   GameServer.obj
 0001:00003e60       _$E42                      00404e60 f   GameServer.obj
 0001:00003e70       _$E45                      00404e70 f   GameServer.obj
 0001:00003e80       _$E48                      00404e80 f   GameServer.obj
 0001:0000f110       _$E19                      00410110 f   common:Utils.obj
 0001:0000f120       _$E16                      00410120 f   common:Utils.obj
 0001:0000f130       _$E18                      00410130 f   common:Utils.obj
 0001:0000f140       _$E17                      00410140 f   common:Utils.obj
 0001:0000f150       _$E25                      00410150 f   common:Utils.obj
 0001:0000f160       _$E22                      00410160 f   common:Utils.obj
 0001:0000f170       _$E24                      00410170 f   common:Utils.obj
 0001:0000f180       _$E23                      00410180 f   common:Utils.obj
 0001:0000f190       _$E30                      00410190 f   common:Utils.obj
 0001:0000f1a0       _$E27                      004101a0 f   common:Utils.obj
 0001:0000f1b0       _$E29                      004101b0 f   common:Utils.obj
 0001:0000f1c0       _$E28                      004101c0 f   common:Utils.obj
 0001:0000f1d0       _$E35                      004101d0 f   common:Utils.obj
 0001:0000f1e0       _$E32                      004101e0 f   common:Utils.obj
 0001:0000f1f0       _$E34                      004101f0 f   common:Utils.obj
 0001:0000f200       _$E33                      00410200 f   common:Utils.obj
 0001:0000f220       _$E40                      00410220 f   common:Utils.obj
 0001:0000f230       _$E37                      00410230 f   common:Utils.obj
 0001:0000f310       _$E39                      00410310 f   common:Utils.obj
 0001:0000f320       _$E38                      00410320 f   common:Utils.obj
 0001:0000fd50       _$E43                      00410d50 f   common:Utils.obj
 0001:00010650       _$E45                      00411650 f   common:Utils.obj
 0001:000108b0       _$E47                      004118b0 f   common:Utils.obj
 0001:00010b10       _$E49                      00411b10 f   common:Utils.obj
 0001:00010f20       _$E51                      00411f20 f   common:Utils.obj
 0001:000127b0       _$E58                      004137b0 f   common:Utils.obj
 0001:000127d0       _$E57                      004137d0 f   common:Utils.obj
 0001:0000efa0       _$E21                      0040ffa0 f   common:Win32Exception.obj
 0001:0000efc0       _$E20                      0040ffc0 f   common:Win32Exception.obj
 0001:0000ec90       _$E23                      0040fc90 f   common:Buffer.obj
 0001:0000ecb0       _$E22                      0040fcb0 f   common:Buffer.obj
 0001:0000ca00       _$E19                      0040da00 f   common:UsesWinsock.obj
 0001:0000ca20       _$E18                      0040da20 f   common:UsesWinsock.obj
 0001:0000c710       _$E19                      0040d710 f   common:Library.obj
 0001:0000c730       _$E18                      0040d730 f   common:Library.obj
 0001:0000c4f0       _$E19                      0040d4f0 f   common:Exception.obj
 0001:0000c510       _$E18                      0040d510 f   common:Exception.obj
 0001:00020a0d       __Mbrtowc_lk               00421a0d f   libcpmt:xmbtowc.obj
 0001:000202d9       _$E37                      004212d9 f   libcpmt:xlocale.obj
 0001:000202ee       _$E36                      004212ee f   libcpmt:xlocale.obj
 0001:0001d410       _$E47                      0041e410 f   libcpmt:wlocale.obj
 0001:0001d425       _$E46                      0041e425 f   libcpmt:wlocale.obj
 0001:00017222       _$E2                       00418222 f   libcpmt:nomemory.obj
 0001:0001629b       _$E18                      0041729b f   libcpmt:wiostrea.obj
 0001:000162a5       _$E15                      004172a5 f   libcpmt:wiostrea.obj
 0001:000162af       _$E17                      004172af f   libcpmt:wiostrea.obj
 0001:000162bb       _$E16                      004172bb f   libcpmt:wiostrea.obj
 0001:000162c5       _$E24                      004172c5 f   libcpmt:wiostrea.obj
 0001:000162cf       _$E21                      004172cf f   libcpmt:wiostrea.obj
 0001:000162d9       _$E23                      004172d9 f   libcpmt:wiostrea.obj
 0001:000162e5       _$E22                      004172e5 f   libcpmt:wiostrea.obj
 0001:000162ef       _$E29                      004172ef f   libcpmt:wiostrea.obj
 0001:000162f9       _$E26                      004172f9 f   libcpmt:wiostrea.obj
 0001:00016306       _$E28                      00417306 f   libcpmt:wiostrea.obj
 0001:00016312       _$E27                      00417312 f   libcpmt:wiostrea.obj
 0001:0001631c       _$E34                      0041731c f   libcpmt:wiostrea.obj
 0001:00016326       _$E31                      00417326 f   libcpmt:wiostrea.obj
 0001:00016333       _$E33                      00417333 f   libcpmt:wiostrea.obj
 0001:0001633f       _$E32                      0041733f f   libcpmt:wiostrea.obj
 0001:00016349       _$E39                      00417349 f   libcpmt:wiostrea.obj
 0001:00016353       _$E36                      00417353 f   libcpmt:wiostrea.obj
 0001:00016360       _$E38                      00417360 f   libcpmt:wiostrea.obj
 0001:0001636c       _$E37                      0041736c f   libcpmt:wiostrea.obj
 0001:00016376       _$E44                      00417376 f   libcpmt:wiostrea.obj
 0001:00016380       _$E41                      00417380 f   libcpmt:wiostrea.obj
 0001:0001638f       _$E43                      0041738f f   libcpmt:wiostrea.obj
 0001:0001639b       _$E42                      0041739b f   libcpmt:wiostrea.obj
 0001:000163ba       _$E49                      004173ba f   libcpmt:wiostrea.obj
 0001:000163c4       _$E46                      004173c4 f   libcpmt:wiostrea.obj
 0001:000163d3       _$E48                      004173d3 f   libcpmt:wiostrea.obj
 0001:000163df       _$E47                      004173df f   libcpmt:wiostrea.obj
 0001:000163fe       _$E54                      004173fe f   libcpmt:wiostrea.obj
 0001:00016408       _$E51                      00417408 f   libcpmt:wiostrea.obj
 0001:00016417       _$E53                      00417417 f   libcpmt:wiostrea.obj
 0001:00016423       _$E52                      00417423 f   libcpmt:wiostrea.obj
 0001:0001642d       _$E59                      0041742d f   libcpmt:wiostrea.obj
 0001:00016437       _$E56                      00417437 f   libcpmt:wiostrea.obj
 0001:00016446       _$E58                      00417446 f   libcpmt:wiostrea.obj
 0001:00016452       _$E57                      00417452 f   libcpmt:wiostrea.obj
 0001:00017120       _$E70                      00418120 f   libcpmt:wiostrea.obj
 0001:0001714a       _$E66                      0041814a f   libcpmt:wiostrea.obj
 0001:00017156       _$E69                      00418156 f   libcpmt:wiostrea.obj
 0001:00015cca       _$E18                      00416cca f   libcpmt:iostream.obj
 0001:00015cd4       _$E15                      00416cd4 f   libcpmt:iostream.obj
 0001:00015ce1       _$E17                      00416ce1 f   libcpmt:iostream.obj
 0001:00015ced       _$E16                      00416ced f   libcpmt:iostream.obj
 0001:00015cf7       _$E23                      00416cf7 f   libcpmt:iostream.obj
 0001:00015d01       _$E20                      00416d01 f   libcpmt:iostream.obj
 0001:00015d0e       _$E22                      00416d0e f   libcpmt:iostream.obj
 0001:00015d1a       _$E21                      00416d1a f   libcpmt:iostream.obj
 0001:00015d24       _$E28                      00416d24 f   libcpmt:iostream.obj
 0001:00015d2e       _$E25                      00416d2e f   libcpmt:iostream.obj
 0001:00015d3d       _$E27                      00416d3d f   libcpmt:iostream.obj
 0001:00015d49       _$E26                      00416d49 f   libcpmt:iostream.obj
 0001:00015d68       _$E33                      00416d68 f   libcpmt:iostream.obj
 0001:00015d72       _$E30                      00416d72 f   libcpmt:iostream.obj
 0001:00015d81       _$E32                      00416d81 f   libcpmt:iostream.obj
 0001:00015d8d       _$E31                      00416d8d f   libcpmt:iostream.obj
 0001:00015dac       _$E38                      00416dac f   libcpmt:iostream.obj
 0001:00015db6       _$E35                      00416db6 f   libcpmt:iostream.obj
 0001:00015dc3       _$E37                      00416dc3 f   libcpmt:iostream.obj
 0001:00015dcf       _$E36                      00416dcf f   libcpmt:iostream.obj
 0001:00015dd9       _$E43                      00416dd9 f   libcpmt:iostream.obj
 0001:00015de3       _$E40                      00416de3 f   libcpmt:iostream.obj
 0001:00015df2       _$E42                      00416df2 f   libcpmt:iostream.obj
 0001:00015dfe       _$E41                      00416dfe f   libcpmt:iostream.obj
 0001:00015e08       _$E48                      00416e08 f   libcpmt:iostream.obj
 0001:00015e12       _$E45                      00416e12 f   libcpmt:iostream.obj
 0001:00015e21       _$E47                      00416e21 f   libcpmt:iostream.obj
 0001:00015e2d       _$E46                      00416e2d f   libcpmt:iostream.obj
 0001:00016259       _$E60                      00417259 f   libcpmt:iostream.obj
 0001:00016283       _$E56                      00417283 f   libcpmt:iostream.obj
 0001:0001628f       _$E59                      0041728f f   libcpmt:iostream.obj
 0001:00015c88       _$E32                      00416c88 f   libcpmt:locale.obj
 0001:00015cb2       _$E28                      00416cb2 f   libcpmt:locale.obj
 0001:00015cbe       _$E31                      00416cbe f   libcpmt:locale.obj
 0001:00013692       _$E24                      00414692 f   libcpmt:string.obj
 0001:000136bc       _$E20                      004146bc f   libcpmt:string.obj
 0001:000136c8       _$E23                      004146c8 f   libcpmt:string.obj
 0001:00012e6d       _$E18                      00413e6d f   libcpmt:locale0.obj
 0001:00012e77       _$E15                      00413e77 f   libcpmt:locale0.obj
 0001:00012e78       _$E17                      00413e78 f   libcpmt:locale0.obj
 0001:00012e84       _$E16                      00413e84 f   libcpmt:locale0.obj
 0001:0001333b       _$E29                      0041433b f   libcpmt:locale0.obj
 0001:00013365       _$E25                      00414365 f   libcpmt:locale0.obj
 0001:00013371       _$E28                      00414371 f   libcpmt:locale0.obj
 0001:00012e3a       ?_CleanUp@std@@YAXXZ       00413e3a f   libcpmt:xlock.obj
 0001:0002ec6e       _findenv                   0042fc6e f   LIBCMT:setenv.obj
 0001:0002ecc6       _copy_environ              0042fcc6 f   LIBCMT:setenv.obj
 0001:0002e880       _ctrlevent_capture@4       0042f880 f   LIBCMT:winsig.obj
 0001:0002ea64       _siglookup                 0042fa64 f   LIBCMT:winsig.obj
 0001:0002df73       _xtoa                      0042ef73 f   LIBCMT:xtoa.obj
 0001:0002e045       _x64toa@20                 0042f045 f   LIBCMT:xtoa.obj
 0001:0002d635       _getSystemCP               0042e635 f   LIBCMT:mbctype.obj
 0001:0002d67f       _CPtoLCID                  0042e67f f   LIBCMT:mbctype.obj
 0001:0002d6b2       _setSBCS                   0042e6b2 f   LIBCMT:mbctype.obj
 0001:0002d6db       _setSBUpLow                0042e6db f   LIBCMT:mbctype.obj
 0001:0002c562       __abstract_cw              0042d562 f   LIBCMT:ieee87.obj
 0001:0002c5f4       __hw_cw                    0042d5f4 f   LIBCMT:ieee87.obj
 0001:0002c67d       __abstract_sw              0042d67d f   LIBCMT:ieee87.obj
 0001:0002b4ee       __tzset_lk                 0042c4ee f   LIBCMT:tzset.obj
 0001:0002b796       __isindst_lk               0042c796 f   LIBCMT:tzset.obj
 0001:0002b942       _cvtdate                   0042c942 f   LIBCMT:tzset.obj
 0001:0002a837       _TranslateName             0042b837 f   LIBCMT:getqloc.obj
 0001:0002a88f       _GetLcidFromLangCountry    0042b88f f   LIBCMT:getqloc.obj
 0001:0002a916       _LangCountryEnumProc@4     0042b916 f   LIBCMT:getqloc.obj
 0001:0002ab1a       _GetLcidFromLanguage       0042bb1a f   LIBCMT:getqloc.obj
 0001:0002ab70       _LanguageEnumProc@4        0042bb70 f   LIBCMT:getqloc.obj
 0001:0002ac2d       _GetLcidFromCountry        0042bc2d f   LIBCMT:getqloc.obj
 0001:0002ac64       _CountryEnumProc@4         0042bc64 f   LIBCMT:getqloc.obj
 0001:0002acea       _GetLcidFromDefault        0042bcea f   LIBCMT:getqloc.obj
 0001:0002ad04       _ProcessCodePage           0042bd04 f   LIBCMT:getqloc.obj
 0001:0002ad6a       _TestDefaultCountry        0042bd6a f   LIBCMT:getqloc.obj
 0001:0002ad89       _TestDefaultLanguage       0042bd89 f   LIBCMT:getqloc.obj
 0001:0002adeb       _IsThisWindowsNT           0042bdeb f   LIBCMT:getqloc.obj
 0001:0002ae21       _crtGetLocaleInfoA@16      0042be21 f   LIBCMT:getqloc.obj
 0001:0002af07       _LcidFromHexString         0042bf07 f   LIBCMT:getqloc.obj
 0001:0002af40       _GetPrimaryLen             0042bf40 f   LIBCMT:getqloc.obj
 0001:0002a245       __get_lc_lconv             0042b245 f   LIBCMT:initmon.obj
 0001:0002a367       _fix_grouping              0042b367 f   LIBCMT:initmon.obj
 0001:0002a39e       __free_lc_lconv            0042b39e f   LIBCMT:initmon.obj
 0001:0002a143       _fix_grouping              0042b143 f   LIBCMT:initnum.obj
 0001:00029a90       __get_lc_time              0042aa90 f   LIBCMT:inittime.obj
 0001:00029dde       __free_lc_time             0042adde f   LIBCMT:inittime.obj
 0001:00027bd9       _parse_cmdline             00428bd9 f   LIBCMT:stdargv.obj
 0001:00027a4d       _xcptlookup                00428a4d f   LIBCMT:winxfltr.obj
 0001:00026f4a       __cftoe2                   00427f4a f   LIBCMT:cvt.obj
 0001:00027061       __cftof2                   00428061 f   LIBCMT:cvt.obj
 0001:000271ec       __shift                    004281ec f   LIBCMT:cvt.obj
 0001:00026ca9       _write_char                00427ca9 f   LIBCMT:output.obj
 0001:00026cde       _write_multi_char          00427cde f   LIBCMT:output.obj
 0001:00026d0f       _write_string              00427d0f f   LIBCMT:output.obj
 0001:00026d47       _get_int_arg               00427d47 f   LIBCMT:output.obj
 0001:00026d54       _get_int64_arg             00427d54 f   LIBCMT:output.obj
 0001:00026d64       _get_short_arg             00427d64 f   LIBCMT:output.obj
 0001:00026220       _comexecmd                 00427220 f   LIBCMT:spawnve.obj
 0001:00026006       _doexit                    00427006 f   LIBCMT:crt0dat.obj
 0001:000260bd       __initterm                 004270bd f   LIBCMT:crt0dat.obj
 0001:0002535f       ?FindHandler@@YAXPAUEHExceptionRecord@@PAUEHRegistrationNode@@PAU_CONTEXT@@PAXPBU_s_FuncInfo@@EH1@Z 0042635f f   LIBCMT:frame.obj
 0001:00025512       ?FindHandlerForForeignException@@YAXPAUEHExceptionRecord@@PAUEHRegistrationNode@@PAU_CONTEXT@@PAXPBU_s_FuncInfo@@HH1@Z 00426512 f   LIBCMT:frame.obj
 0001:000255bc       ?TypeMatch@@YAHPBU_s_HandlerType@@PBU_s_CatchableType@@PBU_s_ThrowInfo@@@Z 004265bc f   LIBCMT:frame.obj
 0001:000256b7       ?FrameUnwindFilter@@YAHPAU_EXCEPTION_POINTERS@@@Z 004266b7 f   LIBCMT:frame.obj
 0001:000256cd       ?CatchIt@@YAXPAUEHExceptionRecord@@PAUEHRegistrationNode@@PAU_CONTEXT@@PAXPBU_s_FuncInfo@@PBU_s_HandlerType@@PBU_s_CatchableType@@PBU_s_TryBlockMapEntry@@H1E@Z 004266cd f   LIBCMT:frame.obj
 0001:00025748       ?CallCatchBlock@@YAPAXPAUEHExceptionRecord@@PAUEHRegistrationNode@@PAU_CONTEXT@@PBU_s_FuncInfo@@PAXHK@Z 00426748 f   LIBCMT:frame.obj
 0001:00025863       ?ExFilterRethrow@@YAHPAU_EXCEPTION_POINTERS@@@Z 00426863 f   LIBCMT:frame.obj
 0001:0002588d       ?BuildCatchObject@@YAXPAUEHExceptionRecord@@PAUEHRegistrationNode@@PBU_s_HandlerType@@PBU_s_CatchableType@@@Z 0042688d f   LIBCMT:frame.obj
 0001:00025ab8       ?AdjustPointer@@YAPAXPAXABUPMD@@@Z 00426ab8 f   LIBCMT:frame.obj
 0001:00025214       _strncnt                   00426214 f   LIBCMT:a_cmp.obj
 0001:00024e4d       _strncnt                   00425e4d f   LIBCMT:a_map.obj
 0001:0002434c       __expandtime               0042534c f   LIBCMT:strftime.obj
 0001:0002473b       __store_str                0042573b f   LIBCMT:strftime.obj
 0001:00024762       __store_num                00425762 f   LIBCMT:strftime.obj
 0001:000247d1       __store_number             004257d1 f   LIBCMT:strftime.obj
 0001:0002481a       __store_winword            0042581a f   LIBCMT:strftime.obj
 0001:00023710       _strtoxl                   00424710 f   LIBCMT:strtol.obj
 0001:00023102       __setlocale_set_cat        00424102 f   LIBCMT:setlocal.obj
 0001:0002321d       __setlocale_get_all        0042421d f   LIBCMT:setlocal.obj
 0001:00022b40       LeadUp1                    00423b40 f   LIBCMT:memcpy.obj
 0001:00022b6c       LeadUp2                    00423b6c f   LIBCMT:memcpy.obj
 0001:00022b90       LeadUp3                    00423b90 f   LIBCMT:memcpy.obj
 0001:00022c0f       UnwindUp0                  00423c0f f   LIBCMT:memcpy.obj
 0001:00022bfc       UnwindUp1                  00423bfc f   LIBCMT:memcpy.obj
 0001:00022bf4       UnwindUp2                  00423bf4 f   LIBCMT:memcpy.obj
 0001:00022bec       UnwindUp3                  00423bec f   LIBCMT:memcpy.obj
 0001:00022be4       UnwindUp4                  00423be4 f   LIBCMT:memcpy.obj
 0001:00022bdc       UnwindUp5                  00423bdc f   LIBCMT:memcpy.obj
 0001:00022bd4       UnwindUp6                  00423bd4 f   LIBCMT:memcpy.obj
 0001:00022bcc       UnwindUp7                  00423bcc f   LIBCMT:memcpy.obj
 0001:00022c28       TrailUp0                   00423c28 f   LIBCMT:memcpy.obj
 0001:00022c30       TrailUp1                   00423c30 f   LIBCMT:memcpy.obj
 0001:00022c3c       TrailUp2                   00423c3c f   LIBCMT:memcpy.obj
 0001:00022c50       TrailUp3                   00423c50 f   LIBCMT:memcpy.obj
 0001:00022cc8       LeadDown1                  00423cc8 f   LIBCMT:memcpy.obj
 0001:00022ce8       LeadDown2                  00423ce8 f   LIBCMT:memcpy.obj
 0001:00022d10       LeadDown3                  00423d10 f   LIBCMT:memcpy.obj
 0001:00022d64       UnwindDown7                00423d64 f   LIBCMT:memcpy.obj
 0001:00022d6c       UnwindDown6                00423d6c f   LIBCMT:memcpy.obj
 0001:00022d74       UnwindDown5                00423d74 f   LIBCMT:memcpy.obj
 0001:00022d7c       UnwindDown4                00423d7c f   LIBCMT:memcpy.obj
 0001:00022d84       UnwindDown3                00423d84 f   LIBCMT:memcpy.obj
 0001:00022d8c       UnwindDown2                00423d8c f   LIBCMT:memcpy.obj
 0001:00022d94       UnwindDown1                00423d94 f   LIBCMT:memcpy.obj
 0001:00022da7       UnwindDown0                00423da7 f   LIBCMT:memcpy.obj
 0001:00022dc0       TrailDown0                 00423dc0 f   LIBCMT:memcpy.obj
 0001:00022dc8       TrailDown1                 00423dc8 f   LIBCMT:memcpy.obj
 0001:00022dd8       TrailDown2                 00423dd8 f   LIBCMT:memcpy.obj
 0001:00022dec       TrailDown3                 00423dec f   LIBCMT:memcpy.obj
 0001:00022935       _flsall                    00423935 f   LIBCMT:fflush.obj
 0001:00022144       _fast_error_exit           00423144 f   LIBCMT:crt0.obj
 0001:00021710       LeadUp1                    00422710 f   LIBCMT:memmove.obj
 0001:0002173c       LeadUp2                    0042273c f   LIBCMT:memmove.obj
 0001:00021760       LeadUp3                    00422760 f   LIBCMT:memmove.obj
 0001:000217df       UnwindUp0                  004227df f   LIBCMT:memmove.obj
 0001:000217cc       UnwindUp1                  004227cc f   LIBCMT:memmove.obj
 0001:000217c4       UnwindUp2                  004227c4 f   LIBCMT:memmove.obj
 0001:000217bc       UnwindUp3                  004227bc f   LIBCMT:memmove.obj
 0001:000217b4       UnwindUp4                  004227b4 f   LIBCMT:memmove.obj
 0001:000217ac       UnwindUp5                  004227ac f   LIBCMT:memmove.obj
 0001:000217a4       UnwindUp6                  004227a4 f   LIBCMT:memmove.obj
 0001:0002179c       UnwindUp7                  0042279c f   LIBCMT:memmove.obj
 0001:000217f8       TrailUp0                   004227f8 f   LIBCMT:memmove.obj
 0001:00021800       TrailUp1                   00422800 f   LIBCMT:memmove.obj
 0001:0002180c       TrailUp2                   0042280c f   LIBCMT:memmove.obj
 0001:00021820       TrailUp3                   00422820 f   LIBCMT:memmove.obj
 0001:00021898       LeadDown1                  00422898 f   LIBCMT:memmove.obj
 0001:000218b8       LeadDown2                  004228b8 f   LIBCMT:memmove.obj
 0001:000218e0       LeadDown3                  004228e0 f   LIBCMT:memmove.obj
 0001:00021934       UnwindDown7                00422934 f   LIBCMT:memmove.obj
 0001:0002193c       UnwindDown6                0042293c f   LIBCMT:memmove.obj
 0001:00021944       UnwindDown5                00422944 f   LIBCMT:memmove.obj
 0001:0002194c       UnwindDown4                0042294c f   LIBCMT:memmove.obj
 0001:00021954       UnwindDown3                00422954 f   LIBCMT:memmove.obj
 0001:0002195c       UnwindDown2                0042295c f   LIBCMT:memmove.obj
 0001:00021964       UnwindDown1                00422964 f   LIBCMT:memmove.obj
 0001:00021977       UnwindDown0                00422977 f   LIBCMT:memmove.obj
 0001:00021990       TrailDown0                 00422990 f   LIBCMT:memmove.obj
 0001:00021998       TrailDown1                 00422998 f   LIBCMT:memmove.obj
 0001:000219a8       TrailDown2                 004229a8 f   LIBCMT:memmove.obj
 0001:000219bc       TrailDown3                 004229bc f   LIBCMT:memmove.obj
 0001:000212a0       _gu_return                 004222a0 f   LIBCMT:exsup.obj
 0001:000212a8       __unwind_handler           004222a8 f   LIBCMT:exsup.obj
 0001:000210bd       ?CatchGuardHandler@@YA?AW4_EXCEPTION_DISPOSITION@@PAUEHExceptionRecord@@PAUCatchGuardRN@@PAX2@Z 004220bd f   LIBCMT:trnsctrl.obj
 0001:00021198       ?TranslatorGuardHandler@@YA?AW4_EXCEPTION_DISPOSITION@@PAUEHExceptionRecord@@PAUTranslatorGuardRN@@PAX2@Z 00422198 f   LIBCMT:trnsctrl.obj
