 Game

 Timestamp is 6927148a (Wed Nov 26 09:54:02 2025)

 Preferred load address is 00400000

 Start         Length     Name                   Class
 0001:00000000 0008e22aH .text                   CODE
 0001:0008e230 0000bcacH .text$x                 CODE
 0002:00000000 00000434H .idata$5                DATA
 0002:00000438 00002684H .rdata                  DATA
 0002:00002ac0 0000a208H .xdata$x                DATA
 0002:0000ccc8 000000b4H .idata$2                DATA
 0002:0000cd7c 00000014H .idata$3                DATA
 0002:0000cd90 00000434H .idata$4                DATA
 0002:0000d1c4 00001d98H .idata$6                DATA
 0002:0000ef5c 00000000H .edata                  DATA
 0003:00000000 00000004H .CRT$XCA                DATA
 0003:00000004 0000007cH .CRT$XCU                DATA
 0003:00000080 00000004H .CRT$XCZ                DATA
 0003:00000084 00000004H .CRT$XIA                DATA
 0003:00000088 00000004H .CRT$XIZ                DATA
 0003:00000090 0000a785H .data                   DATA
 0003:0000a818 00004d10H .bss                    DATA
 0004:00000000 000000e8H .rsrc$01                DATA
 0004:000000f0 000013e8H .rsrc$02                DATA

  Address         Publics by Value              Rva+Base     Lib:Object

 0001:00000000       ?ALW_GetWndPosition@@YAXAAH0HH_N1@Z 00401000 f   AutoLocateWnd.obj
 0001:000000d0       ?gGetComClassFactory@@YAPAVKComClassFactory@@XZ 004010d0 f   ComWindow.obj
 0001:000000e0       ??0KComClassFactory@@QAE@XZ 004010e0 f   ComWindow.obj
 0001:000000f0       ?FindComClass@KComClassFactory@@QAEPAUKComClassInfo@@PBD@Z 004010f0 f   ComWindow.obj
 0001:00000160       ?FindComClass@KComClassFactory@@QAEPAUKComClassInfo@@PBU2@@Z 00401160 f   ComWindow.obj
 0001:00000180       ?RegisterComClass@KComClassFactory@@QAEHABUKComClassInfo@@@Z 00401180 f   ComWindow.obj
 0001:000001c0       ?CreateComObject@KComClassFactory@@QAEPAVKWndWindow@@PBD@Z 004011c0 f   ComWindow.obj
 0001:000001e0       ?get_VS_ColorRGB@@YAPAHPAH0HH@Z 004011e0 f   LightLoop.obj
 0001:000002b0       ?_Draw_Light@@YAXPAUKRUPoint@@HAAHAAEHHHHH@Z 004012b0 f   LightLoop.obj
 0001:000004c0       ?_SwapPos@@YAXAAHAAEHHHH@Z 004014c0 f   LightLoop.obj
 0001:00000540       ?DrawLight@@YAXAAHAAE1HHHHHH@Z 00401540 f   LightLoop.obj
 0001:00000e60       ?DrawBorder@@YAXAAHAAGAAKHHHHH@Z 00401e60 f   LightLoop.obj
 0001:00000fb0       ??_H@YGXPAXIHP6EX0@Z@Z     00401fb0 f i MouseHover.obj
 0001:00001000       ?SetHoverObjDescColor@@YAXI@Z 00402000 f   MouseHover.obj
 0001:00001010       ?SetMouseHoverObjectDesc@@YAXPAXHIIHHH@Z 00402010 f   MouseHover.obj
 0001:00001240       ?DrawDraggingGameObjFunc@@YAHHHABUKUiDraggedObject@@H@Z 00402240 f   MouseHover.obj
 0001:00001270       ??0KMouseOver@@QAE@XZ      00402270 f   MouseHover.obj
 0001:00001320       ?IsMoseHoverWndObj@KMouseOver@@QAEHPAXH@Z 00402320 f   MouseHover.obj
 0001:00001350       ?CancelMouseHoverInfo@KMouseOver@@QAEXXZ 00402350 f   MouseHover.obj
 0001:000013c0       ?SetMouseHoverInfo@KMouseOver@@QAEXPAXHHH_N1@Z 004023c0 f   MouseHover.obj
 0001:00001430       ?SetMouseHoverImage@KMouseOver@@QAEX_N@Z 00402430 f   MouseHover.obj
 0001:00001520       ?SetMouseHoverTitle@KMouseOver@@QAEXPBDHI@Z 00402520 f   MouseHover.obj
 0001:00001590       ?SetMouseHoverProp@KMouseOver@@QAEXPBDHI@Z 00402590 f   MouseHover.obj
 0001:00001600       ?SetMouseHoverDesc@KMouseOver@@QAEXPBDHI@Z 00402600 f   MouseHover.obj
 0001:00001670       ?SetMouseHoverIcon@KMouseOver@@QAEXPBD@Z 00402670 f   MouseHover.obj
 0001:00001730       ?Update@KMouseOver@@AAEXHH@Z 00402730 f   MouseHover.obj
 0001:000018c0       ?UpdateCursorPos@KMouseOver@@QAEXHH@Z 004028c0 f   MouseHover.obj
 0001:000018f0       ?OnWndClosed@KMouseOver@@QAEXPAX@Z 004028f0 f   MouseHover.obj
 0001:00001910       ?LoadScheme@KMouseOver@@QAEXPBD@Z 00402910 f   MouseHover.obj
 0001:00001c10       ?PaintMouseHoverInfo@KMouseOver@@QAEXXZ 00402c10 f   MouseHover.obj
 0001:00002110       ?OnWndDelete@KPopupMenu@@SAXPAVKWndWindow@@@Z 00403110 f   PopupMenu.obj
 0001:00002130       ?Popup@KPopupMenu@@SAXPAUKPopupMenuData@@PAVKWndWindow@@I@Z 00403130 f   PopupMenu.obj
 0001:00002430       ?PaintMenu@KPopupMenu@@SAXXZ 00403430 f   PopupMenu.obj
 0001:00002af0       ?HandleInput@KPopupMenu@@SAHIIH@Z 00403af0 f   PopupMenu.obj
 0001:00002bd0       ?SelectItem@KPopupMenu@@CA_NH_N@Z 00403bd0 f   PopupMenu.obj
 0001:00002c60       ?SelectItem@KPopupMenu@@CA_NHH_N@Z 00403c60 f   PopupMenu.obj
 0001:00002d80       ?Cancel@KPopupMenu@@SAXXZ  00403d80 f   PopupMenu.obj
 0001:00002db0       ?InitMenuData@KPopupMenu@@SAXPAUKPopupMenuData@@H@Z 00403db0 f   PopupMenu.obj
 0001:00002e80       ?LoadTheme@KPopupMenu@@SAXPBD@Z 00403e80 f   PopupMenu.obj
 0001:000031c0       ?SetSpaceOverObjDescColor@@YAXI@Z 004041c0 f   SpaceOver.obj
 0001:000031d0       ?SetSpaceOverObjectDesc@@YAXPAXHIIHHHI_N@Z 004041d0 f   SpaceOver.obj
 0001:00003300       ??0KSpaceOver@@QAE@XZ      00404300 f   SpaceOver.obj
 0001:000033a0       ?IsSpaceOverWndObj@KSpaceOver@@QAEHPAXH@Z 004043a0 f   SpaceOver.obj
 0001:000033d0       ?CancelSpaceOverInfo@KSpaceOver@@QAEXXZ 004043d0 f   SpaceOver.obj
 0001:00003410       ?SetSpaceOverInfo@KSpaceOver@@QAEXPAXHHHI_N1@Z 00404410 f   SpaceOver.obj
 0001:00003480       ?SetSpaceOverImage@KSpaceOver@@QAEX_N@Z 00404480 f   SpaceOver.obj
 0001:00003560       ?SetSpaceOverDesc@KSpaceOver@@QAEXPBDHI@Z 00404560 f   SpaceOver.obj
 0001:000035d0       ?Update@KSpaceOver@@AAEXHH@Z 004045d0 f   SpaceOver.obj
 0001:000036e0       ?UpdateCursorPos@KSpaceOver@@QAEXHH@Z 004046e0 f   SpaceOver.obj
 0001:00003710       ?OnWndClosed@KSpaceOver@@QAEXPAX@Z 00404710 f   SpaceOver.obj
 0001:00003730       ?LoadScheme@KSpaceOver@@QAEXPBD@Z 00404730 f   SpaceOver.obj
 0001:000038f0       ?PaintSpaceOverInfo@KSpaceOver@@QAEXXZ 004048f0 f   SpaceOver.obj
 0001:00003bd0       ?OutputTabSplitText@@YAHPBDHHHPAUKOutputTextParam@@@Z 00404bd0 f   SpecialFuncs.obj
 0001:00003d50       ?SetScrPicPath@@YA_NPBD@Z  00404d50 f   SpecialFuncs.obj
 0001:00003e10       ?GetSrcPicPath@@YAPADXZ    00404e10 f   SpecialFuncs.obj
 0001:00003e30       ?GetAPrintScreenFileName@@YA_NPADH@Z 00404e30 f   SpecialFuncs.obj
 0001:00003e70       ?SaveScreenToFile@@YAXW4ScreenFileType@@I@Z 00404e70 f   SpecialFuncs.obj
 0001:00003f60       ??0KInlinePicSink@@QAE@XZ  00404f60 f   TextPic.obj
 0001:00003fb0       ?Init@KInlinePicSink@@QAEHPAUiRepresentShell@@@Z 00404fb0 f   TextPic.obj
 0001:000044a0       ?UnInit@KInlinePicSink@@QAEHXZ 004054a0 f   TextPic.obj
 0001:000044d0       ?GetPicSize@KInlinePicSink@@UAEJGAAH0@Z 004054d0 f   TextPic.obj
 0001:000045e0       ?DrawPic@KInlinePicSink@@UAEJGHH@Z 004055e0 f   TextPic.obj
 0001:000046e0       ?AddCustomInlinePic@KInlinePicSink@@UAEJAAGPBD@Z 004056e0 f   TextPic.obj
 0001:00004a70       ?RemoveCustomInlinePic@KInlinePicSink@@UAEJG@Z 00405a70 f   TextPic.obj
 0001:00004af0       ?_Destroy@?$vector@UKImageParam@@V?$allocator@UKImageParam@@@std@@@std@@IAEXPAUKImageParam@@0@Z 00405af0 f i TextPic.obj
 0001:00004b00       ?insert@?$vector@UKUiImageRef@@V?$allocator@UKUiImageRef@@@std@@@std@@QAEXPAUKUiImageRef@@IABU3@@Z 00405b00 f i TextPic.obj
 0001:00004e20       ?size@?$vector@UKImageParam@@V?$allocator@UKImageParam@@@std@@@std@@QBEIXZ 00405e20 f i TextPic.obj
 0001:00004e50       ?_Ucopy@?$vector@UKImageParam@@V?$allocator@UKImageParam@@@std@@@std@@IAEPAUKImageParam@@PBU3@0PAU3@@Z 00405e50 f i TextPic.obj
 0001:00004ea0       ?_Ufill@?$vector@UKImageParam@@V?$allocator@UKImageParam@@@std@@@std@@IAEXPAUKImageParam@@IABU3@@Z 00405ea0 f i TextPic.obj
 0001:00004ef0       ?_Construct@std@@YAXPAUKImageParam@@ABU2@@Z 00405ef0 f i TextPic.obj
 0001:00004f20       ??0KUiCursor@@QAE@XZ       00405f20 f   UiCursor.obj
 0001:00004f50       ?Cleanup@KUiCursor@@QAEXXZ 00405f50 f   UiCursor.obj
 0001:00004f80       ??1KUiCursor@@QAE@XZ       00405f80 f   UiCursor.obj
 0001:00004f90       ?SetPosition@KUiCursor@@QAEXHH@Z 00405f90 f   UiCursor.obj
 0001:00004fb0       ?GetPosition@KUiCursor@@QAEXAAH0@Z 00405fb0 f   UiCursor.obj
 0001:00004fd0       ?KUiLoadCursor@@YAHPBDAAPAUHICON__@@@Z 00405fd0 f   UiCursor.obj
 0001:000051c0       ?SetImage@KUiCursor@@QAEXHPBD@Z 004061c0 f   UiCursor.obj
 0001:00005200       ?SwitchImage@KUiCursor@@QAEHH@Z 00406200 f   UiCursor.obj
 0001:00005240       ?RestoreCursor@KUiCursor@@QAEXXZ 00406240 f   UiCursor.obj
 0001:00005250       ?Paint@KUiCursor@@QAEXXZ   00406250 f   UiCursor.obj
 0001:00005260       ?Show@KUiCursor@@QAEXH@Z   00406260 f   UiCursor.obj
 0001:00005270       ?IR_GetCurrentTime@@YAIXZ  00406270 f   UiImage.obj
 0001:00005280       ?IR_UpdateTime@@YAXXZ      00406280 f   UiImage.obj
 0001:00005290       ?IR_InitUiImageRef@@YAXAAUKUiImageRef@@@Z 00406290 f   UiImage.obj
 0001:000052b0       ?IR_InitUiImagePartRef@@YAXAAUKUiImagePartRef@@@Z 004062b0 f   UiImage.obj
 0001:000052d0       ?IR_IsTimePassed@@YAHIAAI@Z 004062d0 f   UiImage.obj
 0001:00005300       ?IR_GetRemainTime@@YAIII@Z 00406300 f   UiImage.obj
 0001:00005320       ?IR_NextFrame@@YAHAAUKUiImageRef@@@Z 00406320 f   UiImage.obj
 0001:00005400       ?IR_UpdateImagePart@@YAXAAUKUiImagePartRef@@HH@Z 00406400 f   UiImage.obj
 0001:000055d0       ?IR_DrawImage@@YAXPAUKUiImageRef@@@Z 004065d0 f   UiImage.obj
 0001:000055f0       ?IR_DrawImagePart@@YAXPAUKUiImagePartRef@@@Z 004065f0 f   UiImage.obj
 0001:00005610       ?IR_GetSpritePixcelAlpha@@YAHAAUKUiImageRef@@HH@Z 00406610 f   UiImage.obj
 0001:00005650       ?IR_GetReferenceSpot@@YAXAAUKUiImageRef@@AAH1@Z 00406650 f   UiImage.obj
 0001:000056b0       ?IR_GetCurFrame@@YAHAAUKUiImageRef@@@Z 004066b0 f   UiImage.obj
 0001:000056d0       ?IR_GetNumFrames@@YAHAAUKUiImageRef@@@Z 004066d0 f   UiImage.obj
 0001:00005760       ?SetAllButtonTipTextColor@KWndButton@@SAXI@Z 00406760 f   WndButton.obj
 0001:00005770       ?EnableAllButtonTip@KWndButton@@SAXH@Z 00406770 f   WndButton.obj
 0001:00005790       ??0KWndButton@@QAE@XZ      00406790 f   WndButton.obj
 0001:000057e0       ?UpdateData@KWndWindow@@UAEXXZ 004067e0 f i WndButton.obj
 0001:000057f0       ?CloseWindow@KWndWindow@@UAEH_N@Z 004067f0 f i WndButton.obj
 0001:00005800       ?Breathe@KWndWindow@@EAEXXZ 00406800 f i WndButton.obj
 0001:00005810       ?GetShortKey@KWndButton@@UAEPBDXZ 00406810 f i WndButton.obj
 0001:00005820       ?OnButtonClick@KWndButton@@UAEXXZ 00406820 f i WndButton.obj
 0001:00005830       ??_GKWndButton@@UAEPAXI@Z  00406830 f i WndButton.obj
 0001:00005830       ??_EKWndButton@@UAEPAXI@Z  00406830 f i WndButton.obj
 0001:00005850       ??1KWndButton@@UAE@XZ      00406850 f i WndButton.obj
 0001:00005860       ?Clone@KWndButton@@QAEXPAV1@@Z 00406860 f   WndButton.obj
 0001:00005900       ?Init@KWndButton@@UAEHPAVKIniFile@@PBD@Z 00406900 f   WndButton.obj
 0001:00005b00       ?IsButtonChecked@KWndButton@@QAEHXZ 00406b00 f   WndButton.obj
 0001:00005b10       ?CheckButton@KWndButton@@QAEXH@Z 00406b10 f   WndButton.obj
 0001:00005b50       ?IsButtonActive@KWndButton@@QAEHXZ 00406b50 f   WndButton.obj
 0001:00005b60       ?WndProc@KWndButton@@UAEHIIH@Z 00406b60 f   WndButton.obj
 0001:00005e10       ?GetToolTipInfo@KWndButton@@UAEHPADH@Z 00406e10 f   WndButton.obj
 0001:00005ec0       ?SetToolTipInfo@KWndButton@@QAEHPADH@Z 00406ec0 f   WndButton.obj
 0001:00005f30       ?PaintWindow@KWndButton@@UAEXXZ 00406f30 f   WndButton.obj
 0001:00005f70       ?OnLBtnDown@KWndButton@@AAEX_N@Z 00406f70 f   WndButton.obj
 0001:00006060       ?OnLBtnUp@KWndButton@@AAEXXZ 00407060 f   WndButton.obj
 0001:000060c0       ?OnLBtnDownMove@KWndButton@@AAEXXZ 004070c0 f   WndButton.obj
 0001:000060f0       ?Enable@KWndButton@@UAEXH@Z 004070f0 f   WndButton.obj
 0001:00006160       ??0KWndImageTextButton@@QAE@XZ 00407160 f   WndButton.obj
 0001:000061e0       ??_EKWndImageTextButton@@UAEPAXI@Z 004071e0 f i WndButton.obj
 0001:000061e0       ??_GKWndImageTextButton@@UAEPAXI@Z 004071e0 f i WndButton.obj
 0001:00006200       ??1KWndMovingImage@@UAE@XZ 00407200 f i WndButton.obj
 0001:00006210       ??1KWndImagePart@@UAE@XZ   00407210 f i WndButton.obj
 0001:00006220       ??1KWndImageTextButton@@UAE@XZ 00407220 f i WndButton.obj
 0001:00006290       ?Init@KWndImageTextButton@@UAEHPAVKIniFile@@PBD@Z 00407290 f   WndButton.obj
 0001:00006390       ?Set2IntText@KWndImageTextButton@@QAEXHHD@Z 00407390 f   WndButton.obj
 0001:000063b0       ?SetIntText@KWndImageTextButton@@QAEXHD@Z 004073b0 f   WndButton.obj
 0001:000063d0       ?SetWorldRankText@KWndImageTextButton@@QAEXHD@Z 004073d0 f   WndButton.obj
 0001:000063f0       ?SetText@KWndImageTextButton@@QAEXPBDH@Z 004073f0 f   WndButton.obj
 0001:00006410       ?GetText@KWndImageTextButton@@QAEHPADH@Z 00407410 f   WndButton.obj
 0001:00006430       ?Set2IntValue@KWndImageTextButton@@QAEXHH@Z 00407430 f   WndButton.obj
 0001:00006460       ??0KWndChessPanel@@AAE@XZ  00407460 f   WndChessPanel.obj
 0001:00006480       ??_EKWndChessPanel@@EAEPAXI@Z 00407480 f i WndChessPanel.obj
 0001:00006480       ??_GKWndChessPanel@@EAEPAXI@Z 00407480 f i WndChessPanel.obj
 0001:000064a0       ??1KWndChessPanel@@EAE@XZ  004074a0 f   WndChessPanel.obj
 0001:000064b0       ?OpenWindow@KWndChessPanel@@SAPAV1@_N@Z 004074b0 f   WndChessPanel.obj
 0001:00006570       ?CloseWindow@KWndChessPanel@@SAX_N@Z 00407570 f   WndChessPanel.obj
 0001:000065b0       ?Clear@KWndChessPanel@@SAXXZ 004075b0 f   WndChessPanel.obj
 0001:000065c0       ?GetIfVisible@KWndChessPanel@@SAPAV1@XZ 004075c0 f   WndChessPanel.obj
 0001:000065e0       ?PaintWindow@KWndChessPanel@@UAEXXZ 004075e0 f   WndChessPanel.obj
 0001:00006700       ?PtInWindow@KWndChessPanel@@UAEHHH@Z 00407700 f   WndChessPanel.obj
 0001:00006710       ?WndProc@KWndChessPanel@@UAEHIIH@Z 00407710 f   WndChessPanel.obj
 0001:00006720       ?Initialize@KWndChessPanel@@AAEXXZ 00407720 f   WndChessPanel.obj
 0001:00006730       ?Init@KWndChessPanel@@UAEHPAVKIniFile@@PBD@Z 00407730 f   WndChessPanel.obj
 0001:00006780       ??0KWndEdit@@QAE@XZ        00407780 f   WndEdit.obj
 0001:000067c0       ??_EKWndEdit@@UAEPAXI@Z    004077c0 f i WndEdit.obj
 0001:000067c0       ??_GKWndEdit@@UAEPAXI@Z    004077c0 f i WndEdit.obj
 0001:000067e0       ??1KWndEdit@@UAE@XZ        004077e0 f   WndEdit.obj
 0001:000067f0       ?Clone@KWndEdit@@QAEXPAV1@@Z 004077f0 f   WndEdit.obj
 0001:00006840       ?Init@KWndEdit@@UAEHPAVKIniFile@@PBD@Z 00407840 f   WndEdit.obj
 0001:00006a80       ?Enable@KWndEdit@@UAEXH@Z  00407a80 f   WndEdit.obj
 0001:00006ac0       ?WndProc@KWndEdit@@UAEHIIH@Z 00407ac0 f   WndEdit.obj
 0001:00006d10       ?SetColor@KWndEdit@@QAEXI@Z 00407d10 f   WndEdit.obj
 0001:00006d20       ?InsertString@KWndEdit@@QAEHPBDH@Z 00407d20 f   WndEdit.obj
 0001:00006de0       ?Copy@KWndEdit@@AAEHXZ     00407de0 f   WndEdit.obj
 0001:00006e60       ?Paste@KWndEdit@@AAEHXZ    00407e60 f   WndEdit.obj
 0001:00006ea0       ?OnKeyDown@KWndEdit@@IAEHHH@Z 00407ea0 f   WndEdit.obj
 0001:000072d0       ?InsertChar@KWndEdit@@QAEHH@Z 004082d0 f   WndEdit.obj
 0001:00007380       ?InsertChar@KWndEdit@@IAEHDD@Z 00408380 f   WndEdit.obj
 0001:00007430       ?UpdateData@KWndEdit@@EAEXXZ 00408430 f   WndEdit.obj
 0001:00007450       ?FmtForShow@KWndEdit@@AAEXXZ 00408450 f   WndEdit.obj
 0001:00007610       ?SplitStringLine@@YAHPADHH@Z 00408610 f   WndEdit.obj
 0001:00007670       ?PaintWindow@KWndEdit@@UAEXXZ 00408670 f   WndEdit.obj
 0001:00007990       ?SetTextPtr@KWndEdit@@IAEXPADH@Z 00408990 f   WndEdit.obj
 0001:000079c0       ?SetText@KWndEdit@@QAEXPBD@Z 004089c0 f   WndEdit.obj
 0001:00007a30       ?ClearText@KWndEdit@@QAEX_N@Z 00408a30 f   WndEdit.obj
 0001:00007a80       ?SetIntText@KWndEdit@@QAEXH@Z 00408a80 f   WndEdit.obj
 0001:00007ac0       ?GetIntNumber@KWndEdit@@QAEHXZ 00408ac0 f   WndEdit.obj
 0001:00007ae0       ?GetTextString@KWndEdit@@QAEPADXZ 00408ae0 f   WndEdit.obj
 0001:00007af0       ?GetText@KWndEdit@@QAEHPADH_N@Z 00408af0 f   WndEdit.obj
 0001:00007b70       ?GetCaretPosition@KWndEdit@@QAEXPAH0@Z 00408b70 f   WndEdit.obj
 0001:00007bb0       ??0KWndEdit06@@QAE@XZ      00408bb0 f   WndEdit.obj
 0001:00007be0       ??_EKWndEdit06@@UAEPAXI@Z  00408be0 f i WndEdit.obj
 0001:00007be0       ??_GKWndEdit06@@UAEPAXI@Z  00408be0 f i WndEdit.obj
 0001:00007c00       ??1KWndEdit06@@UAE@XZ      00408c00 f i WndEdit.obj
 0001:00007c10       ??0KWndEdit32@@QAE@XZ      00408c10 f   WndEdit.obj
 0001:00007c40       ??_EKWndEdit32@@UAEPAXI@Z  00408c40 f i WndEdit.obj
 0001:00007c40       ??_GKWndEdit32@@UAEPAXI@Z  00408c40 f i WndEdit.obj
 0001:00007c60       ??1KWndEdit32@@UAE@XZ      00408c60 f i WndEdit.obj
 0001:00007c70       ??0KWndEdit80@@QAE@XZ      00408c70 f   WndEdit.obj
 0001:00007ca0       ??_EKWndEdit80@@UAEPAXI@Z  00408ca0 f i WndEdit.obj
 0001:00007ca0       ??_GKWndEdit80@@UAEPAXI@Z  00408ca0 f i WndEdit.obj
 0001:00007cc0       ??1KWndEdit80@@UAE@XZ      00408cc0 f i WndEdit.obj
 0001:00007cd0       ??0KWndEdit128@@QAE@XZ     00408cd0 f   WndEdit.obj
 0001:00007d00       ??_EKWndEdit128@@UAEPAXI@Z 00408d00 f i WndEdit.obj
 0001:00007d00       ??_GKWndEdit128@@UAEPAXI@Z 00408d00 f i WndEdit.obj
 0001:00007d20       ??1KWndEdit128@@UAE@XZ     00408d20 f i WndEdit.obj
 0001:00007d30       ??0KWndEdit512@@QAE@XZ     00408d30 f   WndEdit.obj
 0001:00007d60       ??_EKWndEdit512@@UAEPAXI@Z 00408d60 f i WndEdit.obj
 0001:00007d60       ??_GKWndEdit512@@UAEPAXI@Z 00408d60 f i WndEdit.obj
 0001:00007d80       ??1KWndEdit512@@UAE@XZ     00408d80 f i WndEdit.obj
 0001:00007d90       ??0KWndImage@@QAE@XZ       00408d90 f   WndImage.obj
 0001:00007de0       ??_EKWndImage@@UAEPAXI@Z   00408de0 f i WndImage.obj
 0001:00007de0       ??_GKWndImage@@UAEPAXI@Z   00408de0 f i WndImage.obj
 0001:00007e00       ??1KWndImage@@UAE@XZ       00408e00 f i WndImage.obj
 0001:00007e10       ?Clone@KWndImage@@QAEXPAV1@@Z 00408e10 f   WndImage.obj
 0001:00007e40       ?Init@KWndImage@@UAEHPAVKIniFile@@PBD@Z 00408e40 f   WndImage.obj
 0001:00007fb0       ?PtInWindow@KWndImage@@UAEHHH@Z 00408fb0 f   WndImage.obj
 0001:00008030       ?SetFrame@KWndImage@@QAEXH@Z 00409030 f   WndImage.obj
 0001:00008040       ?SetImage@KWndImage@@QAEXFPBD_N@Z 00409040 f   WndImage.obj
 0001:000080d0       ?UpdateTimer@KWndImage@@QAEXXZ 004090d0 f   WndImage.obj
 0001:000080e0       ?NextFrame@KWndImage@@QAEHXZ 004090e0 f   WndImage.obj
 0001:000080f0       ?PaintWindow@KWndImage@@UAEXXZ 004090f0 f   WndImage.obj
 0001:00008130       ?GetCurFrame@KWndImage@@QAEHXZ 00409130 f   WndImage.obj
 0001:00008140       ?GetNumFrames@KWndImage@@QAEHXZ 00409140 f   WndImage.obj
 0001:00008150       ?GetMaxFrame@KCanGetNumImage@@QAEHXZ 00409150 f   WndImage.obj
 0001:00008160       ?GetCurrentFrame@KCanGetNumImage@@QAEHXZ 00409160 f   WndImage.obj
 0001:00008170       ??0KWndImage2@@QAE@XZ      00409170 f   WndImage2.obj
 0001:000081e0       ??_EKWndImage2@@UAEPAXI@Z  004091e0 f i WndImage2.obj
 0001:000081e0       ??_GKWndImage2@@UAEPAXI@Z  004091e0 f i WndImage2.obj
 0001:00008200       ??1KWndImage2@@UAE@XZ      00409200 f i WndImage2.obj
 0001:00008210       ?Clone@KWndImage2@@QAEXPAV1@@Z 00409210 f   WndImage2.obj
 0001:00008290       ?Init@KWndImage2@@UAEHPAVKIniFile@@PBD@Z 00409290 f   WndImage2.obj
 0001:00008410       ?WndProc@KWndImage2@@UAEHIIH@Z 00409410 f   WndImage2.obj
 0001:000084c0       ?PtInWindow@KWndImage2@@UAEHHH@Z 004094c0 f   WndImage2.obj
 0001:00008540       ?SetFrame@KWndImage2@@QAEXH@Z 00409540 f   WndImage2.obj
 0001:00008550       ?SetImage@KWndImage2@@QAEXFPBD_N@Z 00409550 f   WndImage2.obj
 0001:000085f0       ?UpdateTimer@KWndImage2@@QAEXXZ 004095f0 f   WndImage2.obj
 0001:00008600       ?NextFrame@KWndImage2@@QAEHXZ 00409600 f   WndImage2.obj
 0001:00008610       ?PaintWindow@KWndImage2@@UAEXXZ 00409610 f   WndImage2.obj
 0001:00008650       ?GetCurFrame@KWndImage2@@QAEHXZ 00409650 f   WndImage2.obj
 0001:00008660       ?GetNumFrames@KWndImage2@@QAEHXZ 00409660 f   WndImage2.obj
 0001:00008670       ?SetToolTipInfo@KWndImage2@@QAEHPADH@Z 00409670 f   WndImage2.obj
 0001:000086e0       ?SetData@KWndImage2@@QAEXHH@Z 004096e0 f   WndImage2.obj
 0001:00008700       ??0KWndImagePart@@QAE@XZ   00409700 f   WndImagePart.obj
 0001:00008750       ??_EKWndImagePart@@UAEPAXI@Z 00409750 f i WndImagePart.obj
 0001:00008750       ??_GKWndImagePart@@UAEPAXI@Z 00409750 f i WndImagePart.obj
 0001:00008770       ?Clone@KWndImagePart@@IAEXPAV1@@Z 00409770 f   WndImagePart.obj
 0001:000087b0       ?Init@KWndImagePart@@UAEHPAVKIniFile@@PBD@Z 004097b0 f   WndImagePart.obj
 0001:00008870       ?PaintWindow@KWndImagePart@@UAEXXZ 00409870 f   WndImagePart.obj
 0001:000088b0       ?SetPart@KWndImagePart@@QAEXHH@Z 004098b0 f   WndImagePart.obj
 0001:000088d0       ??0KWndLabeledButton@@QAE@XZ 004098d0 f   WndLabeledButton.obj
 0001:00008910       ??_EKWndLabeledButton@@UAEPAXI@Z 00409910 f i WndLabeledButton.obj
 0001:00008910       ??_GKWndLabeledButton@@UAEPAXI@Z 00409910 f i WndLabeledButton.obj
 0001:00008930       ??1KWndLabeledButton@@UAE@XZ 00409930 f i WndLabeledButton.obj
 0001:00008940       ?Clone@KWndLabeledButton@@QAEXPAV1@@Z 00409940 f   WndLabeledButton.obj
 0001:00008a10       ?Init@KWndLabeledButton@@UAEHPAVKIniFile@@PBD@Z 00409a10 f   WndLabeledButton.obj
 0001:00008c60       ?SetLabel@KWndLabeledButton@@QAEXPBD@Z 00409c60 f   WndLabeledButton.obj
 0001:00008cc0       ?GetLabel@KWndLabeledButton@@QAEHPADH@Z 00409cc0 f   WndLabeledButton.obj
 0001:00008d10       ?SetLabelColor@KWndLabeledButton@@QAEXI@Z 00409d10 f   WndLabeledButton.obj
 0001:00008d20       ?PaintWindow@KWndLabeledButton@@UAEXXZ 00409d20 f   WndLabeledButton.obj
 0001:00008e20       ?Init@KWndRichLabeledButton@@UAEHPAVKIniFile@@PBD@Z 00409e20 f   WndLabeledButton.obj
 0001:00008e90       ?SetLabel@KWndRichLabeledButton@@QAEXPBDH@Z 00409e90 f   WndLabeledButton.obj
 0001:00008eb0       ?SetMoneyLabel@KWndRichLabeledButton@@QAEXK@Z 00409eb0 f   WndLabeledButton.obj
 0001:00008f40       ?SetLabelColor@KWndRichLabeledButton@@QAEXI@Z 00409f40 f   WndLabeledButton.obj
 0001:00008f60       ?GetLabel@KWndRichLabeledButton@@QAEHPAD@Z 00409f60 f   WndLabeledButton.obj
 0001:00008f80       ?PaintWindow@KWndRichLabeledButton@@UAEXXZ 00409f80 f   WndLabeledButton.obj
 0001:00008fb0       ??0KWndList@@QAE@XZ        00409fb0 f   WndList.obj
 0001:00009040       ??_EKWndList@@UAEPAXI@Z    0040a040 f i WndList.obj
 0001:00009040       ??_GKWndList@@UAEPAXI@Z    0040a040 f i WndList.obj
 0001:00009060       ?Clone@KWndList@@IAEXPAV1@@Z 0040a060 f   WndList.obj
 0001:00009140       ??1KWndList@@UAE@XZ        0040a140 f   WndList.obj
 0001:000091a0       ?SetScrollbar@KWndList@@QAEXPAVKWndScrollBar@@@Z 0040a1a0 f   WndList.obj
 0001:00009200       ?Init@KWndList@@UAEHPAVKIniFile@@PBD@Z 0040a200 f   WndList.obj
 0001:00009490       ?EnableMultiSel@KWndList@@QAEXH@Z 0040a490 f   WndList.obj
 0001:00009560       ?SetCustomColorOffset@KWndList@@QAEXH@Z 0040a560 f   WndList.obj
 0001:00009580       ?WndProc@KWndList@@UAEHIIH@Z 0040a580 f   WndList.obj
 0001:000096a0       ?GetIemIndexAtPoint@KWndList@@AAEHHH@Z 0040a6a0 f   WndList.obj
 0001:00009730       ?OnLButtonDown@KWndList@@AAEXHH@Z 0040a730 f   WndList.obj
 0001:000097d0       ?IsItemSel@KWndList@@QAEHH@Z 0040a7d0 f   WndList.obj
 0001:00009840       ?OnRButtonDown@KWndList@@AAEXHH@Z 0040a840 f   WndList.obj
 0001:00009870       ?OnLButtonDClick@KWndList@@AAEXHH@Z 0040a870 f   WndList.obj
 0001:000098a0       ?SetCurSel@KWndList@@QAEHH@Z 0040a8a0 f   WndList.obj
 0001:00009950       ?UpdateData@KWndList@@EAEXXZ 0040a950 f   WndList.obj
 0001:000099a0       ?OnMouseMove@KWndList@@AAEXHH@Z 0040a9a0 f   WndList.obj
 0001:000099e0       ?PaintWindow@KWndList@@UAEXXZ 0040a9e0 f   WndList.obj
 0001:00009f20       ?SetContent@KWndList@@QAEXPAEHHH@Z 0040af20 f   WndList.obj
 0001:0000a000       ?FindString@KWndList@@QAEHHPBD@Z 0040b000 f   WndList.obj
 0001:0000a080       ?GetItemDataInt@KWndList@@QAEHHH@Z 0040b080 f   WndList.obj
 0001:0000a0c0       ?GetString@KWndList@@QAEXHPAD@Z 0040b0c0 f   WndList.obj
 0001:0000a110       ?GetStrignLen@KWndList@@QAEHH@Z 0040b110 f   WndList.obj
 0001:0000a150       ?SetTopItemIndex@KWndList@@QAEXH@Z 0040b150 f   WndList.obj
 0001:0000a170       ?GetVisibleItemCount@KWndList@@QBEHXZ 0040b170 f   WndList.obj
 0001:0000a190       ?SetImage@KWndList@@QAEXPBDFF@Z 0040b190 f   WndList.obj
 0001:0000a1f0       ??0KWndList2@@QAE@XZ       0040b1f0 f   WndList2.obj
 0001:0000a250       ??_EKWndList2@@UAEPAXI@Z   0040b250 f i WndList2.obj
 0001:0000a250       ??_GKWndList2@@UAEPAXI@Z   0040b250 f i WndList2.obj
 0001:0000a270       ??1KWndList2@@UAE@XZ       0040b270 f   WndList2.obj
 0001:0000a2c0       ?Clone@KWndList2@@IAEXPAV1@@Z 0040b2c0 f   WndList2.obj
 0001:0000a310       ?Init@KWndList2@@UAEHPAVKIniFile@@PBD@Z 0040b310 f   WndList2.obj
 0001:0000a5a0       ?SetScrollbar@KWndList2@@QAEXPAVKWndScrollBar@@@Z 0040b5a0 f   WndList2.obj
 0001:0000a5f0       ?WndProc@KWndList2@@UAEHIIH@Z 0040b5f0 f   WndList2.obj
 0001:0000a690       ?SetCurSel@KWndList2@@QAEHH@Z 0040b690 f   WndList2.obj
 0001:0000a710       ?IsItemSel@KWndList2@@QAEHH@Z 0040b710 f   WndList2.obj
 0001:0000a730       ?OnLButtonDown@KWndList2@@AAEXHH@Z 0040b730 f   WndList2.obj
 0001:0000a780       ?OnMouseMove@KWndList2@@AAEXHH@Z 0040b780 f   WndList2.obj
 0001:0000a7d0       ?AddString@KWndList2@@QAEHHPBD00_N@Z 0040b7d0 f   WndList2.obj
 0001:0000a9c0       ?DeleteString@KWndList2@@QAEHH@Z 0040b9c0 f   WndList2.obj
 0001:0000aac0       ?ResetContent@KWndList2@@QAEXXZ 0040bac0 f   WndList2.obj
 0001:0000ab70       ?PaintWindow@KWndList2@@UAEXXZ 0040bb70 f   WndList2.obj
 0001:0000adc0       ?FindString@KWndList2@@QAEHHPBD@Z 0040bdc0 f   WndList2.obj
 0001:0000ae40       ?SetItemData@KWndList2@@QAEHHH@Z 0040be40 f   WndList2.obj
 0001:0000ae70       ?GetItemData@KWndList2@@QAEHH@Z 0040be70 f   WndList2.obj
 0001:0000ae90       ?GetString@KWndList2@@QAEHHPADI@Z 0040be90 f   WndList2.obj
 0001:0000aef0       ?SetTopItemIndex@KWndList2@@QAEXH@Z 0040bef0 f   WndList2.obj
 0001:0000af10       ?GetVisibleLineCount@KWndList2@@QBEHXZ 0040bf10 f   WndList2.obj
 0001:0000af20       ??0KWndListFilterItem@@QAE@XZ 0040bf20 f   WndListFilterItem.obj
 0001:0000af60       ??_GKWndListFilterItem@@UAEPAXI@Z 0040bf60 f i WndListFilterItem.obj
 0001:0000af60       ??_EKWndListFilterItem@@UAEPAXI@Z 0040bf60 f i WndListFilterItem.obj
 0001:0000af80       ??1KWndListFilterItem@@UAE@XZ 0040bf80 f   WndListFilterItem.obj
 0001:0000afd0       ?Clone@KWndListFilterItem@@IAEXPAV1@@Z 0040bfd0 f   WndListFilterItem.obj
 0001:0000b010       ?Init@KWndListFilterItem@@UAEHPAVKIniFile@@PBD@Z 0040c010 f   WndListFilterItem.obj
 0001:0000b190       ?SetScrollbar@KWndListFilterItem@@QAEXPAVKWndScrollBar@@@Z 0040c190 f   WndListFilterItem.obj
 0001:0000b1e0       ?WndProc@KWndListFilterItem@@UAEHIIH@Z 0040c1e0 f   WndListFilterItem.obj
 0001:0000b280       ?SetCurSel@KWndListFilterItem@@QAEHH@Z 0040c280 f   WndListFilterItem.obj
 0001:0000b300       ?OnLButtonDown@KWndListFilterItem@@AAEXHH@Z 0040c300 f   WndListFilterItem.obj
 0001:0000b350       ?OnMouseMove@KWndListFilterItem@@AAEXHH@Z 0040c350 f   WndListFilterItem.obj
 0001:0000b3a0       ?AddString@KWndListFilterItem@@QAEHHPBDHHH@Z 0040c3a0 f   WndListFilterItem.obj
 0001:0000b530       ?DeleteString@KWndListFilterItem@@QAEHH@Z 0040c530 f   WndListFilterItem.obj
 0001:0000b620       ?ResetContent@KWndListFilterItem@@QAEXXZ 0040c620 f   WndListFilterItem.obj
 0001:0000b6c0       ?PaintWindow@KWndListFilterItem@@UAEXXZ 0040c6c0 f   WndListFilterItem.obj
 0001:0000b7f0       ?FindOptionIndex@KWndListFilterItem@@QAEHH@Z 0040c7f0 f   WndListFilterItem.obj
 0001:0000b820       ?SetItemValue@KWndListFilterItem@@QAEHHH@Z 0040c820 f   WndListFilterItem.obj
 0001:0000b850       ?GetItemValue@KWndListFilterItem@@QAEHH@Z 0040c850 f   WndListFilterItem.obj
 0001:0000b870       ?GetItemOption@KWndListFilterItem@@QAEHH@Z 0040c870 f   WndListFilterItem.obj
 0001:0000b890       ?GetString@KWndListFilterItem@@QAEHHPADI@Z 0040c890 f   WndListFilterItem.obj
 0001:0000b900       ?SetTopItemIndex@KWndListFilterItem@@QAEXH@Z 0040c900 f   WndListFilterItem.obj
 0001:0000b920       ?GetVisibleLineCount@KWndListFilterItem@@QBEHXZ 0040c920 f   WndListFilterItem.obj
 0001:0000b930       ??0KWndListPoint@@QAE@XZ   0040c930 f   WndListPoint.obj
 0001:0000b970       ??_GKWndListPoint@@UAEPAXI@Z 0040c970 f i WndListPoint.obj
 0001:0000b970       ??_EKWndListPoint@@UAEPAXI@Z 0040c970 f i WndListPoint.obj
 0001:0000b990       ??1KWndListPoint@@UAE@XZ   0040c990 f   WndListPoint.obj
 0001:0000b9e0       ?Clone@KWndListPoint@@IAEXPAV1@@Z 0040c9e0 f   WndListPoint.obj
 0001:0000ba20       ?Init@KWndListPoint@@UAEHPAVKIniFile@@PBD@Z 0040ca20 f   WndListPoint.obj
 0001:0000bba0       ?SetScrollbar@KWndListPoint@@QAEXPAVKWndScrollBar@@@Z 0040cba0 f   WndListPoint.obj
 0001:0000bbf0       ?WndProc@KWndListPoint@@UAEHIIH@Z 0040cbf0 f   WndListPoint.obj
 0001:0000bc90       ?SetCurSel@KWndListPoint@@QAEHH@Z 0040cc90 f   WndListPoint.obj
 0001:0000bd10       ?OnLButtonDown@KWndListPoint@@AAEXHH@Z 0040cd10 f   WndListPoint.obj
 0001:0000bd60       ?OnMouseMove@KWndListPoint@@AAEXHH@Z 0040cd60 f   WndListPoint.obj
 0001:0000bdb0       ?AddValue@KWndListPoint@@QAEHHHHH@Z 0040cdb0 f   WndListPoint.obj
 0001:0000bf00       ?DeleteString@KWndListPoint@@QAEHH@Z 0040cf00 f   WndListPoint.obj
 0001:0000bff0       ?ResetContent@KWndListPoint@@QAEXXZ 0040cff0 f   WndListPoint.obj
 0001:0000c090       ?PaintWindow@KWndListPoint@@UAEXXZ 0040d090 f   WndListPoint.obj
 0001:0000c180       ?FindString@KWndListPoint@@QAEHHPBD@Z 0040d180 f   WndListPoint.obj
 0001:0000c190       ?SetItemValue1@KWndListPoint@@QAEHHH@Z 0040d190 f   WndListPoint.obj
 0001:0000c1c0       ?GetItemValue1@KWndListPoint@@QAEHH@Z 0040d1c0 f   WndListPoint.obj
 0001:0000c1e0       ?SetItemValue2@KWndListPoint@@QAEHHH@Z 0040d1e0 f   WndListPoint.obj
 0001:0000c210       ?GetItemValue2@KWndListPoint@@QAEHH@Z 0040d210 f   WndListPoint.obj
 0001:0000c230       ?GetString@KWndListPoint@@QAEHHPAD0I@Z 0040d230 f   WndListPoint.obj
 0001:0000c240       ?SetTopItemIndex@KWndListPoint@@QAEXH@Z 0040d240 f   WndListPoint.obj
 0001:0000c260       ?GetVisibleLineCount@KWndListPoint@@QBEHXZ 0040d260 f   WndListPoint.obj
 0001:0000c270       ??0KWndMessageListBox@@QAE@XZ 0040d270 f   WndMessageListBox.obj
 0001:0000c2d0       ??_GKWndMessageListBox@@UAEPAXI@Z 0040d2d0 f i WndMessageListBox.obj
 0001:0000c2d0       ??_EKWndMessageListBox@@UAEPAXI@Z 0040d2d0 f i WndMessageListBox.obj
 0001:0000c2f0       ??1KWndMessageListBox@@UAE@XZ 0040d2f0 f   WndMessageListBox.obj
 0001:0000c350       ?SetCapability@KWndMessageListBox@@QAEHH@Z 0040d350 f   WndMessageListBox.obj
 0001:0000c490       ?SetScrollbar@KWndMessageListBox@@QAEXPAVKWndScrollBar@@@Z 0040d490 f   WndMessageListBox.obj
 0001:0000c4b0       ?AddOneMessage@KWndMessageListBox@@QAEHPBDH00HHHI@Z 0040d4b0 f   WndMessageListBox.obj
 0001:0000c700       ?RemoveAMessage@KWndMessageListBox@@QAEXH@Z 0040d700 f   WndMessageListBox.obj
 0001:0000c7e0       ?Clear@KWndMessageListBox@@QAEXXZ 0040d7e0 f   WndMessageListBox.obj
 0001:0000c820       ?Clone@KWndMessageListBox@@QAEXPAV1@@Z 0040d820 f   WndMessageListBox.obj
 0001:0000c8a0       ?Init@KWndMessageListBox@@UAEHPAVKIniFile@@PBD@Z 0040d8a0 f   WndMessageListBox.obj
 0001:0000cc10       ?SetSize@KWndMessageListBox@@UAEXHH@Z 0040dc10 f   WndMessageListBox.obj
 0001:0000cd50       ?SetFontSize@KWndMessageListBox@@QAEXH@Z 0040dd50 f   WndMessageListBox.obj
 0001:0000cd80       ?UpdateData@KWndMessageListBox@@EAEXXZ 0040dd80 f   WndMessageListBox.obj
 0001:0000cdf0       ?GetFirstShowLine@KWndMessageListBox@@QAEHXZ 0040ddf0 f   WndMessageListBox.obj
 0001:0000ce20       ?SetFirstShowLine@KWndMessageListBox@@QAEXH@Z 0040de20 f   WndMessageListBox.obj
 0001:0000cee0       ?GetItemLineCount@KWndMessageListBox@@QAEHH@Z 0040dee0 f   WndMessageListBox.obj
 0001:0000cf10       ?PaintWindow@KWndMessageListBox@@EAEXXZ 0040df10 f   WndMessageListBox.obj
 0001:0000d2a0       ?WndProc@KWndMessageListBox@@EAEHIIH@Z 0040e2a0 f   WndMessageListBox.obj
 0001:0000d3b0       ?GetMsgAtPoint@KWndMessageListBox@@AAEHHH@Z 0040e3b0 f   WndMessageListBox.obj
 0001:0000d420       ?HitTextAtPoint@KWndMessageListBox@@QAEHHH@Z 0040e420 f   WndMessageListBox.obj
 0001:0000d4e0       ?OnLButtonDown@KWndMessageListBox@@AAEXHH@Z 0040e4e0 f   WndMessageListBox.obj
 0001:0000d520       ?OnLButtonDClick@KWndMessageListBox@@AAEXHH@Z 0040e520 f   WndMessageListBox.obj
 0001:0000d550       ?SetCurSel@KWndMessageListBox@@QAEHH@Z 0040e550 f   WndMessageListBox.obj
 0001:0000d590       ?OnMouseMove@KWndMessageListBox@@AAEXHH@Z 0040e590 f   WndMessageListBox.obj
 0001:0000d5d0       ?GetOneMessage@KWndMessageListBox@@QAEHHPADH_N@Z 0040e5d0 f   WndMessageListBox.obj
 0001:0000d650       ?SplitData@KWndMessageListBox@@QAEIXZ 0040e650 f   WndMessageListBox.obj
 0001:0000d700       ?BindData@KWndMessageListBox@@QAEII@Z 0040e700 f   WndMessageListBox.obj
 0001:0000d830       ?FreeData@KWndMessageListBox@@SAXI@Z 0040e830 f   WndMessageListBox.obj
 0001:0000d860       ?GetOffsetTextHeight@KWndMessageListBox@@AAEIXZ 0040e860 f   WndMessageListBox.obj
 0001:0000d880       ?PtInWindow@KWndMessageListBox@@UAEHHH@Z 0040e880 f   WndMessageListBox.obj
 0001:0000d8c0       ?ClearHideLine@KWndMessageListBox@@QAEXXZ 0040e8c0 f   WndMessageListBox.obj
 0001:0000d8d0       ?HideNextLine@KWndMessageListBox@@QAEXXZ 0040e8d0 f   WndMessageListBox.obj
 0001:0000d940       ?HideAllLine@KWndMessageListBox@@QAEXXZ 0040e940 f   WndMessageListBox.obj
 0001:0000d950       ?GetMinHeight@KWndMessageListBox@@QAEHXZ 0040e950 f   WndMessageListBox.obj
 0001:0000d970       ?UpdateChatItem@KWndMessageListBox@@QAEXXZ 0040e970 f   WndMessageListBox.obj
 0001:0000d9c0       ??0KScrollMessageListBox@@QAE@XZ 0040e9c0 f   WndMessageListBox.obj
 0001:0000da60       ??1KWndScrollBar@@UAE@XZ   0040ea60 f i WndMessageListBox.obj
 0001:0000dab0       ??_EKScrollMessageListBox@@UAEPAXI@Z 0040eab0 f i WndMessageListBox.obj
 0001:0000dab0       ??_GKScrollMessageListBox@@UAEPAXI@Z 0040eab0 f i WndMessageListBox.obj
 0001:0000dad0       ??1KScrollMessageListBox@@UAE@XZ 0040ead0 f i WndMessageListBox.obj
 0001:0000db50       ?Init@KScrollMessageListBox@@UAEHPAVKIniFile@@PBD@Z 0040eb50 f   WndMessageListBox.obj
 0001:0000dc80       ?WndProc@KScrollMessageListBox@@UAEHIIH@Z 0040ec80 f   WndMessageListBox.obj
 0001:0000ddb0       ?InitMinMaxLineCount@KScrollMessageListBox@@IAEXHH@Z 0040edb0 f   WndMessageListBox.obj
 0001:0000ddf0       ?HeightToLineHeight@KScrollMessageListBox@@QAEHH@Z 0040edf0 f   WndMessageListBox.obj
 0001:0000de10       ?WidthToCharWidth@KScrollMessageListBox@@QAEHH@Z 0040ee10 f   WndMessageListBox.obj
 0001:0000de30       ?GetMinHeight@KScrollMessageListBox@@QAEHXZ 0040ee30 f   WndMessageListBox.obj
 0001:0000de70       ?MsgListBox_LoadContent@@YA_NPAVKWndMessageListBox@@PAVKIniFile@@PBD@Z 0040ee70 f   WndMessageListBox.obj
 0001:0000df90       ??0KWndMovingImage@@QAE@XZ 0040ef90 f   WndMovingImage.obj
 0001:0000dfc0       ??_GKWndMovingImage@@UAEPAXI@Z 0040efc0 f i WndMovingImage.obj
 0001:0000dfc0       ??_EKWndMovingImage@@UAEPAXI@Z 0040efc0 f i WndMovingImage.obj
 0001:0000dfe0       ?Clone@KWndMovingImage@@IAEXPAV1@@Z 0040efe0 f   WndMovingImage.obj
 0001:0000e040       ?Init@KWndMovingImage@@UAEHPAVKIniFile@@PBD@Z 0040f040 f   WndMovingImage.obj
 0001:0000e0d0       ?SetMoveValue@KWndMovingImage@@QAEXHH@Z 0040f0d0 f   WndMovingImage.obj
 0001:0000e150       ?WndObjContainerInit@@YAXPAVKIniFile@@@Z 0040f150 f   WndObjContainer.obj
 0001:0000e300       ??0KWndObjectBox@@QAE@XZ   0040f300 f   WndObjContainer.obj
 0001:0000e340       ??_EKWndObjectBox@@UAEPAXI@Z 0040f340 f i WndObjContainer.obj
 0001:0000e340       ??_GKWndObjectBox@@UAEPAXI@Z 0040f340 f i WndObjContainer.obj
 0001:0000e360       ??1KWndObjectBox@@UAE@XZ   0040f360 f i WndObjContainer.obj
 0001:0000e370       ?SetContainerId@KWndObjectBox@@QAEXH@Z 0040f370 f   WndObjContainer.obj
 0001:0000e380       ?SetObjectGenre@KWndObjectBox@@QAEXI@Z 0040f380 f   WndObjContainer.obj
 0001:0000e390       ?Clear@KWndObjectBox@@QAEXXZ 0040f390 f   WndObjContainer.obj
 0001:0000e3a0       ?GetObjectA@KWndObjectBox@@QBEHAAUKUiDraggedObject@@@Z 0040f3a0 f   WndObjContainer.obj
 0001:0000e3d0       ?HoldObject@KWndObjectBox@@QAEXIIHH@Z 0040f3d0 f   WndObjContainer.obj
 0001:0000e450       ?PaintWindow@KWndObjectBox@@MAEXXZ 0040f450 f   WndObjContainer.obj
 0001:0000e6a0       ?Clone@KWndObjectBox@@QAEXPAV1@@Z 0040f6a0 f   WndObjContainer.obj
 0001:0000e6c0       ?Init@KWndObjectBox@@UAEHPAVKIniFile@@PBD@Z 0040f6c0 f   WndObjContainer.obj
 0001:0000e750       ?EnablePickPut@KWndObjectBox@@QAEX_N@Z 0040f750 f   WndObjContainer.obj
 0001:0000e770       ?WndProc@KWndObjectBox@@MAEHIIH@Z 0040f770 f   WndObjContainer.obj
 0001:0000eb10       ?DropObject@KWndObjectBox@@IAEH_N@Z 0040fb10 f   WndObjContainer.obj
 0001:0000ebd0       ??0KWndObjectMatrix@@QAE@XZ 0040fbd0 f   WndObjContainer.obj
 0001:0000ec20       ??_GKWndObjectMatrix@@UAEPAXI@Z 0040fc20 f i WndObjContainer.obj
 0001:0000ec20       ??_EKWndObjectMatrix@@UAEPAXI@Z 0040fc20 f i WndObjContainer.obj
 0001:0000ec40       ?SetContainerId@KWndObjectMatrix@@QAEXH@Z 0040fc40 f   WndObjContainer.obj
 0001:0000ec50       ??1KWndObjectMatrix@@UAE@XZ 0040fc50 f   WndObjContainer.obj
 0001:0000eca0       ?Clone@KWndObjectMatrix@@IAEXPAV1@@Z 0040fca0 f   WndObjContainer.obj
 0001:0000ecd0       ?Init@KWndObjectMatrix@@UAEHPAVKIniFile@@PBD@Z 0040fcd0 f   WndObjContainer.obj
 0001:0000edf0       ?PaintWindow@KWndObjectMatrix@@EAEXXZ 0040fdf0 f   WndObjContainer.obj
 0001:0000f1c0       ?AddObject@KWndObjectMatrix@@QAEHPAUKUiDraggedObject@@H@Z 004101c0 f   WndObjContainer.obj
 0001:0000f290       ?RemoveObject@KWndObjectMatrix@@QAEHPAUKUiDraggedObject@@@Z 00410290 f   WndObjContainer.obj
 0001:0000f330       ?GetObjectA@KWndObjectMatrix@@QBEHAAUKUiDraggedObject@@HH@Z 00410330 f   WndObjContainer.obj
 0001:0000f380       ?Clear@KWndObjectMatrix@@QAEXXZ 00410380 f   WndObjContainer.obj
 0001:0000f3b0       ?WndProc@KWndObjectMatrix@@EAEHIIH@Z 004103b0 f   WndObjContainer.obj
 0001:0000f780       ?GetObjectAt@KWndObjectMatrix@@AAEHHH@Z 00410780 f   WndObjContainer.obj
 0001:0000f7f0       ?PickUpObjectAt@KWndObjectMatrix@@AAEHHH@Z 004107f0 f   WndObjContainer.obj
 0001:0000f850       ?DropObject@KWndObjectMatrix@@AAEHHH_N@Z 00410850 f   WndObjContainer.obj
 0001:0000fac0       ?TryDropObjAtPos@KWndObjectMatrix@@AAEHABUtagRECT@@AAPAUKUiDraggedObject@@@Z 00410ac0 f   WndObjContainer.obj
 0001:0000fb40       ?DropObject@KWndObjectMatrix@@AAEXHHPAUKUiDraggedObject@@@Z 00410b40 f   WndObjContainer.obj
 0001:0000fbb0       ?EnableTracePutPos@KWndObjectMatrix@@QAEX_N@Z 00410bb0 f   WndObjContainer.obj
 0001:0000fbd0       ?EnablePickPut@KWndObjectMatrix@@QAEX_N@Z 00410bd0 f   WndObjContainer.obj
 0001:0000fbf0       ?WndProc@KWndPage@@UAEHIIH@Z 00410bf0 f   WndPage.obj
 0001:0000fc50       ??0KWndPageSet@@QAE@XZ     00410c50 f   WndPage.obj
 0001:0000fc80       ??_GKWndPageSet@@UAEPAXI@Z 00410c80 f i WndPage.obj
 0001:0000fc80       ??_EKWndPageSet@@UAEPAXI@Z 00410c80 f i WndPage.obj
 0001:0000fca0       ??1KWndPageSet@@UAE@XZ     00410ca0 f   WndPage.obj
 0001:0000fce0       ?WndProc@KWndPageSet@@UAEHIIH@Z 00410ce0 f   WndPage.obj
 0001:0000fd10       ?AddPage@KWndPageSet@@QAE_NPAVKWndPage@@PAVKWndButton@@@Z 00410d10 f   WndPage.obj
 0001:0000fdd0       ?ActivePage@KWndPageSet@@QAE_NH@Z 00410dd0 f   WndPage.obj
 0001:0000fe90       ?OnPageBtnClick@KWndPageSet@@AAEXPAVKWndWindow@@@Z 00410e90 f   WndPage.obj
 0001:0000ff10       ?GetActivePage@KWndPageSet@@QAEPAVKWndPage@@XZ 00410f10 f   WndPage.obj
 0001:0000ff30       ??0KWndPureTextBtn@@QAE@XZ 00410f30 f   WndPureTextBtn.obj
 0001:0000ff90       ??_GKWndPureTextBtn@@UAEPAXI@Z 00410f90 f i WndPureTextBtn.obj
 0001:0000ff90       ??_EKWndPureTextBtn@@UAEPAXI@Z 00410f90 f i WndPureTextBtn.obj
 0001:0000ffb0       ??1KWndPureTextBtn@@UAE@XZ 00410fb0 f i WndPureTextBtn.obj
 0001:0000ffc0       ?Clone@KWndPureTextBtn@@QAEXPAV1@@Z 00410fc0 f   WndPureTextBtn.obj
 0001:00010030       ?Init@KWndPureTextBtn@@UAEHPAVKIniFile@@PBD@Z 00411030 f   WndPureTextBtn.obj
 0001:000101e0       ?AdjustPosition@KWndPureTextBtn@@AAEXXZ 004111e0 f   WndPureTextBtn.obj
 0001:00010230       ?PaintWindow@KWndPureTextBtn@@UAEXXZ 00411230 f   WndPureTextBtn.obj
 0001:00010310       ?SetText@KWndPureTextBtn@@QAEXPBDH@Z 00411310 f   WndPureTextBtn.obj
 0001:00010370       ?SetColor@KWndPureTextBtn@@QAEXIIIIII@Z 00411370 f   WndPureTextBtn.obj
 0001:000103b0       ?CheckButton@KWndPureTextBtn@@QAEXH@Z 004113b0 f   WndPureTextBtn.obj
 0001:000103d0       ?WndProc@KWndPureTextBtn@@UAEHIIH@Z 004113d0 f   WndPureTextBtn.obj
 0001:000104d0       ?GenChatItem@KWndPureTextBtn@@AAEXPAD@Z 004114d0 f   WndPureTextBtn.obj
 0001:00010920       ??0KWndStation@@QAE@XZ     00411920 f i Wnds.obj
 0001:00010a20       ??1KWndStation@@QAE@XZ     00411a20 f i Wnds.obj
 0001:00010a90       ?Wnd_Cleanup@@YAXXZ        00411a90 f   Wnds.obj
 0001:00010ae0       ?Wnd_RenderWindows@@YAXXZ  00411ae0 f   Wnds.obj
 0001:00010bb0       ?Wnd_Heartbeat@@YAXXZ      00411bb0 f   Wnds.obj
 0001:00010be0       ?Wnd_AddWindow@@YAXPAVKWndWindow@@W4WND_LAYER_LIST@@@Z 00411be0 f   Wnds.obj
 0001:00010c20       ?Wnd_SetGameSpaceWnd@@YAXPAVKWndWindow@@@Z 00411c20 f   Wnds.obj
 0001:00010c30       ?Wnd_GameSpaceHandleInput@@YAX_N@Z 00411c30 f   Wnds.obj
 0001:00010c40       ?Wnd_ShowHideGameSpace@@YAX_N@Z 00411c40 f   Wnds.obj
 0001:00010c50       ?Wnd_OnWindowDelete@@YAXPAVKWndWindow@@@Z 00411c50 f   Wnds.obj
 0001:00010cf0       ?Wnd_DragBegin@@YAHPBUKUiDraggedObject@@P6AHHHABU1@H@Z@Z 00411cf0 f   Wnds.obj
 0001:00010d30       ?Wnd_GetDragObj@@YAHPAUKUiDraggedObject@@@Z 00411d30 f   Wnds.obj
 0001:00010d70       ?Wnd_DragFinished@@YAXXZ   00411d70 f   Wnds.obj
 0001:00010d80       ?Wnd_ProcessInput@@YAXIIH@Z 00411d80 f   Wnds.obj
 0001:000111e0       ?Wnd_TransmitInputToGameSpace@@YAXIIH@Z 004121e0 f   Wnds.obj
 0001:00011280       ?Wnd_ShowCursor@@YAXH@Z    00412280 f   Wnds.obj
 0001:00011290       ?Wnd_SetCursorPos@@YAXHH@Z 00412290 f   Wnds.obj
 0001:000112e0       ?Wnd_GetCursorPos@@YAXPAH0@Z 004122e0 f   Wnds.obj
 0001:00011320       ?Wnd_GetFocusWnd@@YAPAVKWndWindow@@XZ 00412320 f   Wnds.obj
 0001:00011330       ?Wnd_SetFocusWnd@@YAXPAVKWndWindow@@@Z 00412330 f   Wnds.obj
 0001:00011380       ?Wnd_SetCapture@@YAXPAVKWndWindow@@@Z 00412380 f   Wnds.obj
 0001:000113a0       ?Wnd_ReleaseCapture@@YAXXZ 004123a0 f   Wnds.obj
 0001:000113d0       ?Wnd_SetExclusive@@YAXPAVKWndWindow@@@Z 004123d0 f   Wnds.obj
 0001:00011460       ?Wnd_ReleaseExclusive@@YAXPAVKWndWindow@@@Z 00412460 f   Wnds.obj
 0001:000114b0       ?Wnd_LoadCursor@@YAXHPBD@Z 004124b0 f   Wnds.obj
 0001:000114d0       ?Wnd_SwitchCursor@@YAHH@Z  004124d0 f   Wnds.obj
 0001:000114e0       ?Wnd_SetScreenSize@@YAXHH@Z 004124e0 f   Wnds.obj
 0001:00011500       ?Wnd_GetScreenSize@@YAXAAH0@Z 00412500 f   Wnds.obj
 0001:00011520       ?Wnd_RestoreCursor@@YAXXZ  00412520 f   Wnds.obj
 0001:00011530       ??0KWndScrollBar@@QAE@XZ   00412530 f   WndScrollBar.obj
 0001:000115c0       ??_EKWndScrollBar@@UAEPAXI@Z 004125c0 f i WndScrollBar.obj
 0001:000115c0       ??_GKWndScrollBar@@UAEPAXI@Z 004125c0 f i WndScrollBar.obj
 0001:000115e0       ?Clone@KWndScrollBar@@QAEXPAV1@@Z 004125e0 f   WndScrollBar.obj
 0001:00011680       ?Init@KWndScrollBar@@UAEHPAVKIniFile@@PBD@Z 00412680 f   WndScrollBar.obj
 0001:00011800       ?SetSize@KWndScrollBar@@UAEXHH@Z 00412800 f   WndScrollBar.obj
 0001:00011860       ?WndProc@KWndScrollBar@@UAEHIIH@Z 00412860 f   WndScrollBar.obj
 0001:00011970       ?PaintWindow@KWndScrollBar@@UAEXXZ 00412970 f   WndScrollBar.obj
 0001:00011a00       ?SetValueRange@KWndScrollBar@@QAEXHH@Z 00412a00 f   WndScrollBar.obj
 0001:00011a30       ?SetScrollPos@KWndScrollBar@@QAEXH@Z 00412a30 f   WndScrollBar.obj
 0001:00011a90       ?SetSlideBtnPos@KWndScrollBar@@AAEXXZ 00412a90 f   WndScrollBar.obj
 0001:00011b50       ?OnLButtonDown@KWndScrollBar@@AAEXHH@Z 00412b50 f   WndScrollBar.obj
 0001:00011c30       ?ScrollLine@KWndScrollBar@@QAEH_N@Z 00412c30 f   WndScrollBar.obj
 0001:00011c60       ?ScrollPage@KWndScrollBar@@QAEH_N@Z 00412c60 f   WndScrollBar.obj
 0001:00011c90       ?OnSlideBtnPressed@KWndScrollBar@@AAEXXZ 00412c90 f   WndScrollBar.obj
 0001:00011cb0       ?OnDraggingSlide@KWndScrollBar@@AAEXHH@Z 00412cb0 f   WndScrollBar.obj
 0001:00011d30       ?GetMinHeight@KWndScrollBar@@QAEHXZ 00412d30 f   WndScrollBar.obj
 0001:00011d70       ?SetParentWnd@KWndScrollBar@@QAEXPAVKWndWindow@@@Z 00412d70 f   WndScrollBar.obj
 0001:00011d80       ?Clone@KWndShadow@@QAEXPAV1@@Z 00412d80 f   WndShadow.obj
 0001:00011da0       ?Init@KWndShadow@@UAEHPAVKIniFile@@PBD@Z 00412da0 f   WndShadow.obj
 0001:00011e60       ?PaintWindow@KWndShadow@@MAEXXZ 00412e60 f   WndShadow.obj
 0001:00011ec0       ?PtInWindow@KWndShadow@@UAEHHH@Z 00412ec0 f   WndShadow.obj
 0001:00011ed0       ?SetColor@KWndShadow@@QAEXI@Z 00412ed0 f   WndShadow.obj
 0001:00011ee0       ??0KWndShowAnimate@@QAE@XZ 00412ee0 f   WndShowAnimate.obj
 0001:00011f00       ??_EKWndShowAnimate@@UAEPAXI@Z 00412f00 f i WndShowAnimate.obj
 0001:00011f00       ??_GKWndShowAnimate@@UAEPAXI@Z 00412f00 f i WndShowAnimate.obj
 0001:00011f20       ??1KWndShowAnimate@@UAE@XZ 00412f20 f i WndShowAnimate.obj
 0001:00011f30       ?Clone@KWndShowAnimate@@QAEXPAV1@@Z 00412f30 f   WndShowAnimate.obj
 0001:00011f80       ?Init@KWndShowAnimate@@UAEHPAVKIniFile@@PBD@Z 00412f80 f   WndShowAnimate.obj
 0001:00012020       ?Show@KWndShowAnimate@@UAEXXZ 00413020 f   WndShowAnimate.obj
 0001:000120d0       ?Hide@KWndShowAnimate@@UAEXXZ 004130d0 f   WndShowAnimate.obj
 0001:00012160       ?SetMoveSpeed@KWndShowAnimate@@SAXHH@Z 00413160 f   WndShowAnimate.obj
 0001:000121a0       ?SetInterval@KWndShowAnimate@@SAXI@Z 004131a0 f   WndShowAnimate.obj
 0001:000121c0       ?ShowCompleted@KWndShowAnimate@@UAEXXZ 004131c0 f   WndShowAnimate.obj
 0001:000121d0       ?PaintWindow@KWndShowAnimate@@MAEXXZ 004131d0 f   WndShowAnimate.obj
 0001:000122b0       ??0KWndText@@QAE@XZ        004132b0 f   WndText.obj
 0001:000122e0       ??_GKWndText@@UAEPAXI@Z    004132e0 f i WndText.obj
 0001:000122e0       ??_EKWndText@@UAEPAXI@Z    004132e0 f i WndText.obj
 0001:00012300       ??1KWndText@@UAE@XZ        00413300 f i WndText.obj
 0001:00012310       ?SetText@KWndText@@QAEXPBDH@Z 00413310 f   WndText.obj
 0001:000123e0       ?GetText@KWndText@@QAEHPADH@Z 004133e0 f   WndText.obj
 0001:00012420       ?SetTopLine@KWndText@@QAEHH@Z 00413420 f   WndText.obj
 0001:00012440       ?SetTextPtr@KWndText@@IAEXPADH@Z 00413440 f   WndText.obj
 0001:00012460       ?Clone@KWndText@@QAEXPAV1@@Z 00413460 f   WndText.obj
 0001:00012490       ?Init@KWndText@@UAEHPAVKIniFile@@PBD@Z 00413490 f   WndText.obj
 0001:00012690       ?PaintWindow@KWndText@@UAEXXZ 00413690 f   WndText.obj
 0001:000127d0       ?SetTextColor@KWndText@@QAEXI@Z 004137d0 f   WndText.obj
 0001:000127e0       ?SetIntText@KWndText@@QAEXHD@Z 004137e0 f   WndText.obj
 0001:00012840       ?Set2IntText@KWndText@@QAEXHHD@Z 00413840 f   WndText.obj
 0001:00012890       ?SetCharText@KWndText@@QAEXDD@Z 00413890 f   WndText.obj
 0001:00012900       ?SetByteText@KWndText@@QAEXED@Z 00413900 f   WndText.obj
 0001:00012970       ?SetShortText@KWndText@@QAEXFD@Z 00413970 f   WndText.obj
 0001:000129e0       ?Set2ShortText@KWndText@@QAEXFFD@Z 004139e0 f   WndText.obj
 0001:00012a30       ?SetMoneyText@KWndText@@QAEXHD@Z 00413a30 f   WndText.obj
 0001:00012b00       ?SetJbCoinText@KWndText@@QAEXHD@Z 00413b00 f   WndText.obj
 0001:00012bc0       ?SetWorldRankText@KWndText@@QAEXHD@Z 00413bc0 f   WndText.obj
 0001:00012c60       ?SetTransLifeText@KWndText@@QAEXDD@Z 00413c60 f   WndText.obj
 0001:00012ce0       ?Set2UIntText@KWndText@@QAEXIID@Z 00413ce0 f   WndText.obj
 0001:00012d30       ?SetStackText@KWndText@@QAEXHD@Z 00413d30 f   WndText.obj
 0001:00012da0       ?SetDefText@KWndText@@QAEXH_N@Z 00413da0 f   WndText.obj
 0001:00012e30       ?Set2IntTextPlus@KWndText@@QAEXHHD@Z 00413e30 f   WndText.obj
 0001:00012ee0       ?Set3IntText@KWndText@@QAEXHHHDD@Z 00413ee0 f   WndText.obj
 0001:00012f30       ??0KWndText32@@QAE@XZ      00413f30 f   WndText.obj
 0001:00012f60       ??_EKWndText32@@UAEPAXI@Z  00413f60 f i WndText.obj
 0001:00012f60       ??_GKWndText32@@UAEPAXI@Z  00413f60 f i WndText.obj
 0001:00012f80       ??1KWndText32@@UAE@XZ      00413f80 f i WndText.obj
 0001:00012f90       ??0KWndText80@@QAE@XZ      00413f90 f   WndText.obj
 0001:00012fc0       ??_GKWndText80@@UAEPAXI@Z  00413fc0 f i WndText.obj
 0001:00012fc0       ??_EKWndText80@@UAEPAXI@Z  00413fc0 f i WndText.obj
 0001:00012fe0       ??1KWndText80@@UAE@XZ      00413fe0 f i WndText.obj
 0001:00012ff0       ??0KWndText128@@QAE@XZ     00413ff0 f   WndText.obj
 0001:00013020       ??_EKWndText128@@UAEPAXI@Z 00414020 f i WndText.obj
 0001:00013020       ??_GKWndText128@@UAEPAXI@Z 00414020 f i WndText.obj
 0001:00013040       ??1KWndText128@@UAE@XZ     00414040 f i WndText.obj
 0001:00013050       ??0KWndText256@@QAE@XZ     00414050 f   WndText.obj
 0001:00013080       ??_EKWndText256@@UAEPAXI@Z 00414080 f i WndText.obj
 0001:00013080       ??_GKWndText256@@UAEPAXI@Z 00414080 f i WndText.obj
 0001:000130a0       ??1KWndText256@@UAE@XZ     004140a0 f i WndText.obj
 0001:000130b0       ??0KWndText512@@QAE@XZ     004140b0 f   WndText.obj
 0001:000130e0       ??_EKWndText512@@UAEPAXI@Z 004140e0 f i WndText.obj
 0001:000130e0       ??_GKWndText512@@UAEPAXI@Z 004140e0 f i WndText.obj
 0001:00013100       ??1KWndText512@@UAE@XZ     00414100 f i WndText.obj
 0001:00013110       ??0KWndToolBar@@QAE@XZ     00414110 f   WndToolBar.obj
 0001:00013130       ??_EKWndToolBar@@UAEPAXI@Z 00414130 f i WndToolBar.obj
 0001:00013130       ??_GKWndToolBar@@UAEPAXI@Z 00414130 f i WndToolBar.obj
 0001:00013150       ??1KWndToolBar@@UAE@XZ     00414150 f   WndToolBar.obj
 0001:000131a0       ?Clone@KWndToolBar@@QAEXPAV1@@Z 004141a0 f   WndToolBar.obj
 0001:000131e0       ?Init@KWndToolBar@@UAEHPAVKIniFile@@PBD@Z 004141e0 f   WndToolBar.obj
 0001:00013270       ?WndProc@KWndToolBar@@UAEHIIH@Z 00414270 f   WndToolBar.obj
 0001:000132b0       ?PaintWindow@KWndToolBar@@UAEXXZ 004142b0 f   WndToolBar.obj
 0001:000132c0       ?AddOneWindow@KWndToolBar@@IAEXPAVKIniFile@@PBD@Z 004142c0 f   WndToolBar.obj
 0001:000133c0       ?FreeAllWindow@KWndToolBar@@IAEXXZ 004143c0 f   WndToolBar.obj
 0001:00013430       ?UpdateData@KWndToolBar@@UAEXXZ 00414430 f   WndToolBar.obj
 0001:00013470       ??0KWndValueImage@@QAE@XZ  00414470 f   WndValueImage.obj
 0001:000134a0       ??_GKWndValueImage@@UAEPAXI@Z 004144a0 f i WndValueImage.obj
 0001:000134a0       ??_EKWndValueImage@@UAEPAXI@Z 004144a0 f i WndValueImage.obj
 0001:000134c0       ??1KWndValueImage@@UAE@XZ  004144c0 f i WndValueImage.obj
 0001:000134d0       ?Clone@KWndValueImage@@QAEXPAV1@@Z 004144d0 f   WndValueImage.obj
 0001:00013510       ?Init@KWndValueImage@@UAEHPAVKIniFile@@PBD@Z 00414510 f   WndValueImage.obj
 0001:00013590       ?SetValue@KWndValueImage@@QAEXHH@Z 00414590 f   WndValueImage.obj
 0001:000135e0       ??0KWndWindow@@QAE@XZ      004145e0 f   WndWindow.obj
 0001:00013620       ??_GKWndWindow@@UAEPAXI@Z  00414620 f i WndWindow.obj
 0001:00013620       ??_EKWndWindow@@UAEPAXI@Z  00414620 f i WndWindow.obj
 0001:00013640       ??1KWndWindow@@UAE@XZ      00414640 f   WndWindow.obj
 0001:00013670       ?BringToTop@KWndWindow@@QAEXXZ 00414670 f   WndWindow.obj
 0001:000136d0       ?GetPosition@KWndWindow@@QAEXPAH0@Z 004146d0 f   WndWindow.obj
 0001:000136f0       ?SetPosition@KWndWindow@@QAEXHH@Z 004146f0 f   WndWindow.obj
 0001:00013720       ?GetAbsolutePos@KWndWindow@@QAEXPAH0@Z 00414720 f   WndWindow.obj
 0001:00013740       ?GetSize@KWndWindow@@QAEXPAH0@Z 00414740 f   WndWindow.obj
 0001:00013760       ?SetSize@KWndWindow@@UAEXHH@Z 00414760 f   WndWindow.obj
 0001:00013860       ?AbsoluteMove@KWndWindow@@AAEXHH@Z 00414860 f   WndWindow.obj
 0001:000138a0       ?Show@KWndWindow@@UAEXXZ   004148a0 f   WndWindow.obj
 0001:000138b0       ?Hide@KWndWindow@@UAEXXZ   004148b0 f   WndWindow.obj
 0001:00013900       ?IsVisible@KWndWindow@@QAEHXZ 00414900 f   WndWindow.obj
 0001:00013910       ?Enable@KWndWindow@@UAEXH@Z 00414910 f   WndWindow.obj
 0001:00013940       ?Destroy@KWndWindow@@QAEXXZ 00414940 f   WndWindow.obj
 0001:00013950       ?Clone@KWndWindow@@IAEXPAV1@@Z 00414950 f   WndWindow.obj
 0001:00013980       ?Init@KWndWindow@@UAEHPAVKIniFile@@PBD@Z 00414980 f   WndWindow.obj
 0001:00013b50       ?PtInWindow@KWndWindow@@UAEHHH@Z 00414b50 f   WndWindow.obj
 0001:00013bd0       ?Paint@KWndWindow@@QAEXXZ  00414bd0 f   WndWindow.obj
 0001:00013c00       ?LetMeBreathe@KWndWindow@@QAEXXZ 00414c00 f   WndWindow.obj
 0001:00013c40       ?AddChild@KWndWindow@@QAEXPAV1@@Z 00414c40 f   WndWindow.obj
 0001:00013cb0       ?AddBrother@KWndWindow@@QAEXPAV1@@Z 00414cb0 f   WndWindow.obj
 0001:00013d20       ?LeaveAlone@KWndWindow@@QAEXXZ 00414d20 f   WndWindow.obj
 0001:00013d50       ?SplitSmaleFamily@KWndWindow@@QAEXXZ 00414d50 f   WndWindow.obj
 0001:00013da0       ?WndProc@KWndWindow@@UAEHIIH@Z 00414da0 f   WndWindow.obj
 0001:00013e70       ?OnLBtnDown@KWndWindow@@AAEXHH@Z 00414e70 f   WndWindow.obj
 0001:00013ea0       ?OnMoveWnd@KWndWindow@@AAEXXZ 00414ea0 f   WndWindow.obj
 0001:00013f30       ?TopChildFromPoint@KWndWindow@@UAEPAV1@HH@Z 00414f30 f   WndWindow.obj
 0001:00013fa0       ?GetOwner@KWndWindow@@QAEPAV1@XZ 00414fa0 f   WndWindow.obj
 0001:00013fc0       ?PaintDebugInfo@KWndWindow@@QAEXXZ 00414fc0 f   WndWindow.obj
 0001:000140f0       ?PaintWindow@KWndWindow@@UAEXXZ 004150f0 f   WndWindow.obj
 0001:00014240       ?GetColor@@YAIPBD@Z        00415240 f   WndWindow.obj
 0001:00014370       ?GetColorString@@YAPBDI@Z  00415370 f   WndWindow.obj
 0001:000143b0       ?SetCursorAbove@KWndWindow@@QAEXXZ 004153b0 f   WndWindow.obj
 0001:000143e0       ?GetAllChildLayoutRect@KWndWindow@@QAEXPAUtagRECT@@@Z 004153e0 f   WndWindow.obj
 0001:000144e0       ??0KUiConnectInfo@@AAE@XZ  004154e0 f   UiConnectInfo.obj
 0001:000145b0       ??_EKUiConnectInfo@@EAEPAXI@Z 004155b0 f i UiConnectInfo.obj
 0001:000145b0       ??_GKUiConnectInfo@@EAEPAXI@Z 004155b0 f i UiConnectInfo.obj
 0001:000145d0       ??1KUiConnectInfo@@EAE@XZ  004155d0 f i UiConnectInfo.obj
 0001:00014670       ?OpenWindow@KUiConnectInfo@@SAPAV1@W4LOGIN_BG_INFO_MSG_INDEX@@HH@Z 00415670 f   UiConnectInfo.obj
 0001:00014740       ?CloseWindow@KUiConnectInfo@@SAX_N@Z 00415740 f   UiConnectInfo.obj
 0001:00014780       ?Initialize@KUiConnectInfo@@AAEXXZ 00415780 f   UiConnectInfo.obj
 0001:000147c0       ?LoadScheme@KUiConnectInfo@@AAEXPBD@Z 004157c0 f   UiConnectInfo.obj
 0001:00014a60       ?OnClickConfirmBtn@KUiConnectInfo@@AAEXXZ 00415a60 f   UiConnectInfo.obj
 0001:00014b40       ?WndProc@KUiConnectInfo@@EAEHIIH@Z 00415b40 f   UiConnectInfo.obj
 0001:00014c10       ?OnDelRole@KUiConnectInfo@@AAE_NXZ 00415c10 f   UiConnectInfo.obj
 0001:00014cd0       ?OnCancelDelRole@KUiConnectInfo@@AAEXXZ 00415cd0 f   UiConnectInfo.obj
 0001:00014cf0       ?SetInfoMsg@KUiConnectInfo@@AAEXW4LOGIN_BG_INFO_MSG_INDEX@@@Z 00415cf0 f   UiConnectInfo.obj
 0001:00014e50       ?GotoNextStep@KUiConnectInfo@@AAEXXZ 00415e50 f   UiConnectInfo.obj
 0001:00014ee0       ?Breathe@KUiConnectInfo@@EAEXXZ 00415ee0 f   UiConnectInfo.obj
 0001:000150c0       ?PaintWindow@KUiConnectInfo@@EAEXXZ 004160c0 f   UiConnectInfo.obj
 0001:000153e0       ??0KUiLogin@@AAE@XZ        004163e0 f   UiLogin.obj
 0001:000154a0       ??_EKUiLogin@@EAEPAXI@Z    004164a0 f i UiLogin.obj
 0001:000154a0       ??_GKUiLogin@@EAEPAXI@Z    004164a0 f i UiLogin.obj
 0001:000154c0       ??1KUiLogin@@EAE@XZ        004164c0 f   UiLogin.obj
 0001:00015580       ?OpenWindow@KUiLogin@@SAPAV1@XZ 00416580 f   UiLogin.obj
 0001:00015620       ?CloseWindow@KUiLogin@@SAX_N@Z 00416620 f   UiLogin.obj
 0001:00015680       ?Show@KUiLogin@@EAEXXZ     00416680 f   UiLogin.obj
 0001:00015720       ?Initialize@KUiLogin@@AAEXXZ 00416720 f   UiLogin.obj
 0001:000157b0       ?LoadScheme@KUiLogin@@AAEXPBD@Z 004167b0 f   UiLogin.obj
 0001:00015910       ?WndProc@KUiLogin@@EAEHIIH@Z 00416910 f   UiLogin.obj
 0001:00015c60       ?OnEnableAutoLogin@KUiLogin@@AAEXXZ 00416c60 f   UiLogin.obj
 0001:00015cd0       ?OnKeyDown@KUiLogin@@AAEXI@Z 00416cd0 f   UiLogin.obj
 0001:00015f10       ?OnLogin@KUiLogin@@AAEXXZ  00416f10 f   UiLogin.obj
 0001:00015f90       ?OnCancel@KUiLogin@@AAEXXZ 00416f90 f   UiLogin.obj
 0001:00015fb0       ?GetInputInfo@KUiLogin@@AAEHPAD0@Z 00416fb0 f   UiLogin.obj
 0001:00016070       ?IsValidPassword@KUiLogin@@SA_NPBDH@Z 00417070 f   UiLogin.obj
 0001:00016080       ?OnFocusAccount@KUiLogin@@AAEX_N@Z 00417080 f   UiLogin.obj
 0001:00016090       ?OpenWindow@KUiLoginBackGround@@SAPAV1@PBD@Z 00417090 f   UiLoginBg.obj
 0001:00016160       ??_EKUiLoginBackGround@@EAEPAXI@Z 00417160 f i UiLoginBg.obj
 0001:00016160       ??_GKUiLoginBackGround@@EAEPAXI@Z 00417160 f i UiLoginBg.obj
 0001:00016180       ??1KUiLoginBackGround@@EAE@XZ 00417180 f i UiLoginBg.obj
 0001:000161f0       ?CloseWindow@KUiLoginBackGround@@SAX_N@Z 004171f0 f   UiLoginBg.obj
 0001:00016220       ?Initialize@KUiLoginBackGround@@AAEXXZ 00417220 f   UiLoginBg.obj
 0001:00016270       ?SetConfig@KUiLoginBackGround@@SAXPBD@Z 00417270 f   UiLoginBg.obj
 0001:000163e0       ?LoadScheme@KUiLoginBackGround@@AAEXPAVKIniFile@@@Z 004173e0 f   UiLoginBg.obj
 0001:000164d0       ?Breathe@KUiLoginBackGround@@EAEXXZ 004174d0 f   UiLoginBg.obj
 0001:00016560       ??0KUiSelServer@@AAE@XZ    00417560 f   UiSelServer.obj
 0001:00016620       ??_GKUiSelServer@@EAEPAXI@Z 00417620 f i UiSelServer.obj
 0001:00016620       ??_EKUiSelServer@@EAEPAXI@Z 00417620 f i UiSelServer.obj
 0001:00016640       ??1KUiSelServer@@EAE@XZ    00417640 f   UiSelServer.obj
 0001:00016770       ?OpenWindow@KUiSelServer@@SAPAV1@XZ 00417770 f   UiSelServer.obj
 0001:00016820       ?CloseWindow@KUiSelServer@@SAX_N@Z 00417820 f   UiSelServer.obj
 0001:00016850       ?Initialize@KUiSelServer@@AAEXXZ 00417850 f   UiSelServer.obj
 0001:00016900       ?GetList@KUiSelServer@@AAEXXZ 00417900 f   UiSelServer.obj
 0001:00016a80       ?LoadScheme@KUiSelServer@@AAEXPBD@Z 00417a80 f   UiSelServer.obj
 0001:00016c70       ?WndProc@KUiSelServer@@EAEHIIH@Z 00417c70 f   UiSelServer.obj
 0001:00016d50       ?OnKeyDown@KUiSelServer@@AAEHI@Z 00417d50 f   UiSelServer.obj
 0001:00016f60       ?OnClickButton@KUiSelServer@@AAEXPAVKWndButton@@@Z 00417f60 f   UiSelServer.obj
 0001:00016f90       ?OnSelRegion@KUiSelServer@@AAEXH@Z 00417f90 f   UiSelServer.obj
 0001:000170a0       ?OnLogin@KUiSelServer@@AAEXXZ 004180a0 f   UiSelServer.obj
 0001:00017110       ?OnCancel@KUiSelServer@@AAEXXZ 00418110 f   UiSelServer.obj
 0001:00017130       ?GetIfVisible@KUiChooseFace@@SAPAV1@XZ 00418130 f   UiChooseFace.obj
 0001:00017150       ?OpenWindow@KUiChooseFace@@SAPAV1@H@Z 00418150 f   UiChooseFace.obj
 0001:00017410       ??_GKUiChooseFace@@UAEPAXI@Z 00418410 f i UiChooseFace.obj
 0001:00017410       ??_EKUiChooseFace@@UAEPAXI@Z 00418410 f i UiChooseFace.obj
 0001:00017430       ??1KUiChooseFace@@UAE@XZ   00418430 f i UiChooseFace.obj
 0001:00017680       ?CloseWindow@KUiChooseFace@@SAXXZ 00418680 f   UiChooseFace.obj
 0001:000176b0       ?Initialize@KUiChooseFace@@AAEXXZ 004186b0 f   UiChooseFace.obj
 0001:000178b0       ?LoadScheme@KUiChooseFace@@AAEXPBD@Z 004188b0 f   UiChooseFace.obj
 0001:00017ca0       ?ShowWindow@KUiChooseFace@@AAEXH@Z 00418ca0 f   UiChooseFace.obj
 0001:000180f0       ?WndProc@KUiChooseFace@@EAEHIIH@Z 004190f0 f   UiChooseFace.obj
 0001:00018430       ?OnOK@KUiChooseFace@@AAEXXZ 00419430 f   UiChooseFace.obj
 0001:000184d0       ?PaintWindow@KUiChooseFace@@EAEXXZ 004194d0 f   UiChooseFace.obj
 0001:00018b70       ??0KUiFaceSelector@@AAE@XZ 00419b70 f   UiFaceSelector.obj
 0001:00018c20       ??_EKUiFaceSelector@@EAEPAXI@Z 00419c20 f i UiFaceSelector.obj
 0001:00018c20       ??_GKUiFaceSelector@@EAEPAXI@Z 00419c20 f i UiFaceSelector.obj
 0001:00018c40       ??1KUiFaceSelector@@EAE@XZ 00419c40 f i UiFaceSelector.obj
 0001:00018cb0       ?OpenWindow@KUiFaceSelector@@SAPAV1@PAVKWndWindow@@PAX@Z 00419cb0 f   UiFaceSelector.obj
 0001:00018d70       ?CloseWindow@KUiFaceSelector@@SAX_N@Z 00419d70 f   UiFaceSelector.obj
 0001:00018da0       ?GetIfVisible@KUiFaceSelector@@SAPAV1@XZ 00419da0 f   UiFaceSelector.obj
 0001:00018dc0       ?ConvertFaceText@KUiFaceSelector@@SAHPADPBDH@Z 00419dc0 f   UiFaceSelector.obj
 0001:00018ec0       ?ConvertFace@KUiFaceSelector@@CAHPADAAHPBDH1@Z 00419ec0 f   UiFaceSelector.obj
 0001:00018f60       ?Initialize@KUiFaceSelector@@AAEXXZ 00419f60 f   UiFaceSelector.obj
 0001:00018fc0       ?LoadFaceList@KUiFaceSelector@@SAXXZ 00419fc0 f   UiFaceSelector.obj
 0001:00019110       ?Clear@KUiFaceSelector@@SAXXZ 0041a110 f   UiFaceSelector.obj
 0001:00019150       ?OnSelFace@KUiFaceSelector@@AAEXXZ 0041a150 f   UiFaceSelector.obj
 0001:000191a0       ?WndProc@KUiFaceSelector@@EAEHIIH@Z 0041a1a0 f   UiFaceSelector.obj
 0001:000192b0       ?OnExpandWnd@KUiFaceSelector@@AAEXXZ 0041a2b0 f   UiFaceSelector.obj
 0001:00019310       ?OnUnExpandWnd@KUiFaceSelector@@AAEXXZ 0041a310 f   UiFaceSelector.obj
 0001:00019360       ?LoadScheme@KUiFaceSelector@@QAEXPBD@Z 0041a360 f   UiFaceSelector.obj
 0001:00019650       ?UpdateFaceTip@KUiFaceSelector@@AAEXHH@Z 0041a650 f   UiFaceSelector.obj
 0001:00019700       ?PaintWindow@KUiFaceSelector@@EAEXXZ 0041a700 f   UiFaceSelector.obj
 0001:00019a10       ?Show@KUiFaceSelector@@EAEXXZ 0041aa10 f   UiFaceSelector.obj
 0001:00019a30       ?Hide@KUiFaceSelector@@EAEXXZ 0041aa30 f   UiFaceSelector.obj
 0001:00019a50       ?GetFaceAtPos@KUiFaceSelector@@AAEHHH@Z 0041aa50 f   UiFaceSelector.obj
 0001:00019ae0       ?CreateObject@GameWorld_DateTime@@SAPAVKWndWindow@@XZ 0041aae0 f i UiPlayerBar.obj
 0001:00019b40       ?GetFormatedTimeString@@YAHHPAD@Z 0041ab40 f   UiPlayerBar.obj
 0001:00019bc0       ?GetFormatedTimeString@@YAHPAUtm@@PAD@Z 0041abc0 f   UiPlayerBar.obj
 0001:00019c00       ??0GameWorld_DateTime@@QAE@XZ 0041ac00 f   UiPlayerBar.obj
 0001:00019c60       ??_GGameWorld_DateTime@@UAEPAXI@Z 0041ac60 f i UiPlayerBar.obj
 0001:00019c60       ??_EGameWorld_DateTime@@UAEPAXI@Z 0041ac60 f i UiPlayerBar.obj
 0001:00019c80       ??1GameWorld_DateTime@@UAE@XZ 0041ac80 f i UiPlayerBar.obj
 0001:00019c90       ?OnButtonClick@GameWorld_DateTime@@EAEXXZ 0041ac90 f   UiPlayerBar.obj
 0001:00019cb0       ?Init@GameWorld_DateTime@@UAEHPAVKIniFile@@PBD@Z 0041acb0 f   UiPlayerBar.obj
 0001:00019e50       ?UpdateData@GameWorld_DateTime@@UAEXXZ 0041ae50 f   UiPlayerBar.obj
 0001:00019f80       ?UpdateNetStatus@GameWorld_DateTime@@AAEXXZ 0041af80 f   UiPlayerBar.obj
 0001:0001a0f0       ?Init@KImmediaItem@@UAEHPAVKIniFile@@PBD@Z 0041b0f0 f   UiPlayerBar.obj
 0001:0001a150       ?PaintWindow@KImmediaItem@@UAEXXZ 0041b150 f   UiPlayerBar.obj
 0001:0001a250       ??0KUiPlayerBar@@AAE@XZ    0041b250 f   UiPlayerBar.obj
 0001:0001a480       ??0KImmediaItem@@QAE@XZ    0041b480 f i UiPlayerBar.obj
 0001:0001a4a0       ??_GKImmediaItem@@UAEPAXI@Z 0041b4a0 f i UiPlayerBar.obj
 0001:0001a4a0       ??_EKImmediaItem@@UAEPAXI@Z 0041b4a0 f i UiPlayerBar.obj
 0001:0001a4c0       ??1KImmediaItem@@UAE@XZ    0041b4c0 f i UiPlayerBar.obj
 0001:0001a4d0       ??_GKUiPlayerBar@@EAEPAXI@Z 0041b4d0 f i UiPlayerBar.obj
 0001:0001a4d0       ??_EKUiPlayerBar@@EAEPAXI@Z 0041b4d0 f i UiPlayerBar.obj
 0001:0001a4f0       ??1KUiPlayerBar@@EAE@XZ    0041b4f0 f   UiPlayerBar.obj
 0001:0001a6a0       ?GetIfVisible@KUiPlayerBar@@SAPAV1@XZ 0041b6a0 f   UiPlayerBar.obj
 0001:0001a6c0       ?OpenWindow@KUiPlayerBar@@SAPAV1@XZ 0041b6c0 f   UiPlayerBar.obj
 0001:0001a780       ?UpdateData@KUiPlayerBar@@EAEXXZ 0041b780 f   UiPlayerBar.obj
 0001:0001a880       ?CloseWindow@KUiPlayerBar@@SAX_N@Z 0041b880 f   UiPlayerBar.obj
 0001:0001a8e0       ?LoadScheme@KUiPlayerBar@@SAXPBD@Z 0041b8e0 f   UiPlayerBar.obj
 0001:0001a990       ?LoadScheme@KUiPlayerBar@@AAEXPAVKIniFile@@PBD@Z 0041b990 f   UiPlayerBar.obj
 0001:0001ade0       ?Initialize@KUiPlayerBar@@AAEXXZ 0041bde0 f   UiPlayerBar.obj
 0001:0001afb0       ?WndProc@KUiPlayerBar@@EAEHIIH@Z 0041bfb0 f   UiPlayerBar.obj
 0001:0001b810       ?PaintWindow@KUiPlayerBar@@EAEXXZ 0041c810 f   UiPlayerBar.obj
 0001:0001b8f0       ?PopupChannelMenu@KUiPlayerBar@@AAEXHH@Z 0041c8f0 f   UiPlayerBar.obj
 0001:0001bc70       ?PopupPhraseMenu@KUiPlayerBar@@AAEXHH_N@Z 0041cc70 f   UiPlayerBar.obj
 0001:0001bd30       ?OnSend@KUiPlayerBar@@AAEXH@Z 0041cd30 f   UiPlayerBar.obj
 0001:0001c220       ?IsCanSendMessage@KUiPlayerBar@@SAHPBDHPADH@Z 0041d220 f   UiPlayerBar.obj
 0001:0001c2d0       ?OnSendChannelMessage@KUiPlayerBar@@SAXKPBDH@Z 0041d2d0 f   UiPlayerBar.obj
 0001:0001c390       ?OnDirectSendChannelMessage@KUiPlayerBar@@AAEXKEPBDH@Z 0041d390 f   UiPlayerBar.obj
 0001:0001c440       ?OnSendSomeoneMessage@KUiPlayerBar@@SAXPBD0H@Z 0041d440 f   UiPlayerBar.obj
 0001:0001c520       ?InputRecentMsg@KUiPlayerBar@@AAEX_N@Z 0041d520 f   UiPlayerBar.obj
 0001:0001c5a0       ?OnObjPickedDropped@KUiPlayerBar@@AAEXPAUITEM_PICKDROP_PLACE@@0@Z 0041d5a0 f   UiPlayerBar.obj
 0001:0001c820       ?CanDragObj@KUiPlayerBar@@AAEHI@Z 0041d820 f   UiPlayerBar.obj
 0001:0001c8e0       ?OnUseItem@KUiPlayerBar@@SAXH@Z 0041d8e0 f   UiPlayerBar.obj
 0001:0001c9d0       ?GetChannelIndex@KUiPlayerBar@@AAEHPBD@Z 0041d9d0 f   UiPlayerBar.obj
 0001:0001ca90       ?SetCurrentChannel@KUiPlayerBar@@SAXH@Z 0041da90 f   UiPlayerBar.obj
 0001:0001cbd0       ?InputCurrentChannel@KUiPlayerBar@@AAEXH_N@Z 0041dbd0 f   UiPlayerBar.obj
 0001:0001cc40       ?SwitchChannel@KUiPlayerBar@@SAXH@Z 0041dc40 f   UiPlayerBar.obj
 0001:0001cca0       ?GetCurChannel@KUiPlayerBar@@SAHXZ 0041dca0 f   UiPlayerBar.obj
 0001:0001ccc0       ?UpdateXXXNumber@KUiPlayerBar@@AAEXAAH0@Z 0041dcc0 f   UiPlayerBar.obj
 0001:0001cd80       ?UpdateRuntimeAttribute@KUiPlayerBar@@AAEXAAH0@Z 0041dd80 f   UiPlayerBar.obj
 0001:0001cdf0       ?UpdateItem@KUiPlayerBar@@QAEXHII@Z 0041ddf0 f   UiPlayerBar.obj
 0001:0001ce80       ?UpdateSkill@KUiPlayerBar@@QAEXHII@Z 0041de80 f   UiPlayerBar.obj
 0001:0001ceb0       ?Breathe@KUiPlayerBar@@EAEXXZ 0041deb0 f   UiPlayerBar.obj
 0001:0001d230       ?IsHasCost@KUiPlayerBar@@AAEHEHHHHAAH00@Z 0041e230 f   UiPlayerBar.obj
 0001:0001d390       ?InputNameMsg@KUiPlayerBar@@SAXDPBD_N@Z 0041e390 f   UiPlayerBar.obj
 0001:0001d600       ??Rstring_iless@@QBE_NABV?$basic_string@DU?$char_traits@D@std@@V?$allocator@D@2@@std@@0@Z 0041e600 f i UiPlayerBar.obj
 0001:0001d660       ?FindRecentPlayer@KUiPlayerBar@@SAHPBD@Z 0041e660 f   UiPlayerBar.obj
 0001:0001d6e0       ?GetRecentPlayerName@KUiPlayerBar@@SAPADH@Z 0041e6e0 f   UiPlayerBar.obj
 0001:0001d720       ?AddRecentPlayer@KUiPlayerBar@@SAHPBD@Z 0041e720 f   UiPlayerBar.obj
 0001:0001d830       ?ReplaceSpecialName@KUiPlayerBar@@AAEXPADI0@Z 0041e830 f   UiPlayerBar.obj
 0001:0001d850       ?GetExp@KUiPlayerBar@@SA_NAAH00@Z 0041e850 f   UiPlayerBar.obj
 0001:0001d890       ?LoadPrivateSetting@KUiPlayerBar@@SAHPAVKIniFile@@@Z 0041e890 f   UiPlayerBar.obj
 0001:0001da50       ?SavePrivateSetting@KUiPlayerBar@@SAHPAVKIniFile@@@Z 0041ea50 f   UiPlayerBar.obj
 0001:0001dbb0       ?SetChatItemInfo@KUiPlayerBar@@SAXUKUiChatItemParam@@I@Z 0041ebb0 f   UiPlayerBar.obj
 0001:0001e210       ?SetChatItemInfo@KUiPlayerBar@@SAXFPAD0@Z 0041f210 f   UiPlayerBar.obj
 0001:0001e460       ?SetChatItemPosition@KUiPlayerBar@@SAXFFF_N@Z 0041f460 f   UiPlayerBar.obj
 0001:0001e530       ?ClearChatItem@KUiPlayerBar@@SAXXZ 0041f530 f   UiPlayerBar.obj
 0001:0001e590       ?EncodeChatItemInfo@KUiPlayerBar@@SAXPBDIPAD1@Z 0041f590 f   UiPlayerBar.obj
 0001:0001e950       ?PopupPKMenu@KUiPlayerBar@@SAXFF@Z 0041f950 f   UiPlayerBar.obj
 0001:0001ea50       ?OnChoosePKMenu@KUiPlayerBar@@AAEXE@Z 0041fa50 f   UiPlayerBar.obj
 0001:0001ea70       ?MyMessage@KUiPlayerBar@@SAXPAD@Z 0041fa70 f   UiPlayerBar.obj
 0001:0001eb00       ?_Lbound@?$_Tree@V?$basic_string@DU?$char_traits@D@std@@V?$allocator@D@2@@std@@U?$pair@$$CBV?$basic_string@DU?$char_traits@D@std@@V?$allocator@D@2@@std@@UShortFuncInfo@@@2@U_Kfn@?$map@V?$basic_string@DU?$char_traits@D@std@@V?$allocator@D@2@@std@@UShortFuncInfo@@Ustring_iless@@V?$allocator@UShortFuncInfo@@@2@@2@Ustring_iless@@V?$allocator@UShortFuncInfo@@@2@@std@@IBEPAU_Node@12@ABV?$basic_string@DU?$char_traits@D@std@@V?$allocator@D@2@@2@@Z 0041fb00 f i UiPlayerBar.obj
 0001:0001eb90       ?GetIfVisible@KUiStatus@@SAPAV1@XZ 0041fb90 f   UiStatus.obj
 0001:0001ebb0       ?OpenWindow@KUiStatus@@SAPAV1@XZ 0041fbb0 f   UiStatus.obj
 0001:0001ec70       ??0KUiStatus@@AAE@XZ       0041fc70 f i UiStatus.obj
 0001:0001ef70       ??_GKUiStatus@@EAEPAXI@Z   0041ff70 f i UiStatus.obj
 0001:0001ef70       ??_EKUiStatus@@EAEPAXI@Z   0041ff70 f i UiStatus.obj
 0001:0001ef90       ??1KUiStatus@@EAE@XZ       0041ff90 f i UiStatus.obj
 0001:0001f290       ?CloseWindow@KUiStatus@@SAX_N@Z 00420290 f   UiStatus.obj
 0001:0001f2c0       ?Initialize@KUiStatus@@AAEXXZ 004202c0 f   UiStatus.obj
 0001:0001f580       ?LoadScheme@KUiStatus@@SAXPBD@Z 00420580 f   UiStatus.obj
 0001:0001f630       ?LoadScheme@KUiStatus@@AAEXPAVKIniFile@@@Z 00420630 f   UiStatus.obj
 0001:0001fa20       ?Breathe@KUiStatus@@EAEXXZ 00420a20 f   UiStatus.obj
 0001:000200e0       ?WndProc@KUiStatus@@EAEHIIH@Z 004210e0 f   UiStatus.obj
 0001:00020460       ?UseRemainPoint@KUiStatus@@AAEXW4UI_PLAYER_ATTRIBUTE@@H@Z 00421460 f   UiStatus.obj
 0001:00020520       ?OnDirectAddPoint@KUiStatus@@AAEXH@Z 00421520 f   UiStatus.obj
 0001:000205d0       ?UpdateBaseData@KUiStatus@@QAEXXZ 004215d0 f   UiStatus.obj
 0001:00020640       ?UpdateRuntimeInfo@KUiStatus@@QAEXPAUKUiPlayerRuntimeInfo@@@Z 00421640 f   UiStatus.obj
 0001:000206b0       ?UpdateClientDaTa@KUiStatus@@SAXXZ 004216b0 f   UiStatus.obj
 0001:000206c0       ?UpdateData@KUiStatus@@UAEXXZ 004216c0 f   UiStatus.obj
 0001:00020740       ?UpdateAllEquips@KUiStatus@@QAEXXZ 00421740 f   UiStatus.obj
 0001:000207b0       ?UpdateRuntimeAttribute@KUiStatus@@QAEXPAUKUiPlayerAttribute@@@Z 004217b0 f   UiStatus.obj
 0001:00020a30       ?OnEquiptChanged@KUiStatus@@AAEXPAUITEM_PICKDROP_PLACE@@0@Z 00421a30 f   UiStatus.obj
 0001:00020c50       ?UpdateEquip@KUiStatus@@QAEXPAUKUiObjAtRegion@@H@Z 00421c50 f   UiStatus.obj
 0001:00020cd0       ?OnNpcTradeMode@KUiStatus@@QAEX_N@Z 00421cd0 f   UiStatus.obj
 0001:00020d00       ?UpdateButton@KUiStatus@@SAX_N@Z 00421d00 f   UiStatus.obj
 0001:00020da0       ?OnClickLockBtn@KUiStatus@@AAEXXZ 00421da0 f   UiStatus.obj
 0001:00020e20       ?OnClickUnLockBtn@KUiStatus@@AAEXXZ 00421e20 f   UiStatus.obj
 0001:00020ea0       ?OnClickBindBtn@KUiStatus@@AAEXXZ 00421ea0 f   UiStatus.obj
 0001:00020f80       ?OnClickUnBindBtn@KUiStatus@@AAEXXZ 00421f80 f   UiStatus.obj
 0001:00021060       ?OnBindItem@KUiStatus@@AAEXPAUKUiDraggedObject@@@Z 00422060 f   UiStatus.obj
 0001:000210f0       ?OnUnBindItem@KUiStatus@@AAEXPAUKUiDraggedObject@@@Z 004220f0 f   UiStatus.obj
 0001:00021180       ?OnRepairItem@KUiStatus@@AAEXPAUKUiDraggedObject@@@Z 00422180 f   UiStatus.obj
 0001:00021220       ??0KUiOptions@@AAE@XZ      00422220 f   UiOptions.obj
 0001:00021410       ??_EKUiOptions@@EAEPAXI@Z  00422410 f i UiOptions.obj
 0001:00021410       ??_GKUiOptions@@EAEPAXI@Z  00422410 f i UiOptions.obj
 0001:00021430       ??1KUiOptions@@EAE@XZ      00422430 f i UiOptions.obj
 0001:000215f0       ?GetIfVisible@KUiOptions@@SAPAV1@XZ 004225f0 f   UiOptions.obj
 0001:00021610       ?OpenWindow@KUiOptions@@SAPAV1@PAVKWndWindow@@@Z 00422610 f   UiOptions.obj
 0001:000216c0       ?CloseWindow@KUiOptions@@SAXXZ 004226c0 f   UiOptions.obj
 0001:00021700       ?Initialize@KUiOptions@@AAEXXZ 00422700 f   UiOptions.obj
 0001:00021830       ?LoadScheme@KUiOptions@@SAXPBD@Z 00422830 f   UiOptions.obj
 0001:000218e0       ?LoadScheme@KUiOptions@@AAEXPAVKIniFile@@@Z 004228e0 f   UiOptions.obj
 0001:00021ca0       ?WndProc@KUiOptions@@EAEHIIH@Z 00422ca0 f   UiOptions.obj
 0001:00021e60       ?UpdateSettingSet@KUiOptions@@AAEXH_N@Z 00422e60 f   UiOptions.obj
 0001:00021f70       ?PopupSeleteSetMenu@KUiOptions@@AAEXHH@Z 00422f70 f   UiOptions.obj
 0001:00022080       ?OnScrollBarPosChanged@KUiOptions@@AAEXPAVKWndWindow@@H@Z 00423080 f   UiOptions.obj
 0001:000220d0       ?UpdateAllToggleBtn@KUiOptions@@AAEXXZ 004230d0 f   UiOptions.obj
 0001:000221f0       ?UpdateAllStatusImg@KUiOptions@@AAEXXZ 004231f0 f   UiOptions.obj
 0001:00022260       ?LoadSetting@KUiOptions@@SAX_N0@Z 00423260 f   UiOptions.obj
 0001:00022530       ?StoreSetting@KUiOptions@@AAEXXZ 00423530 f   UiOptions.obj
 0001:000225f0       ?ToggleOption@KUiOptions@@QAEXH@Z 004235f0 f   UiOptions.obj
 0001:000226c0       ?SetMusicValue@KUiOptions@@QAEXH@Z 004236c0 f   UiOptions.obj
 0001:000226f0       ?SetSoundValue@KUiOptions@@QAEXH@Z 004236f0 f   UiOptions.obj
 0001:00022720       ?SetBrightness@KUiOptions@@QAEXH@Z 00423720 f   UiOptions.obj
 0001:00022750       ?OpenWindow@KUiInit@@SAPAV1@_N0@Z 00423750 f   UiInit.obj
 0001:000228f0       ??_GKUiInit@@EAEPAXI@Z     004238f0 f i UiInit.obj
 0001:000228f0       ??_EKUiInit@@EAEPAXI@Z     004238f0 f i UiInit.obj
 0001:00022910       ??1KUiInit@@EAE@XZ         00423910 f i UiInit.obj
 0001:000229f0       ?CloseWindow@KUiInit@@SAXXZ 004239f0 f   UiInit.obj
 0001:00022a20       ?PlayTitleMusic@KUiInit@@SAXXZ 00423a20 f   UiInit.obj
 0001:00022b50       ?StopTitleMusic@KUiInit@@SAXXZ 00423b50 f   UiInit.obj
 0001:00022b70       ?LoadScheme@KUiInit@@AAEXPBD@Z 00423b70 f   UiInit.obj
 0001:00022d10       ?Initialize@KUiInit@@AAEXXZ 00423d10 f   UiInit.obj
 0001:00022dd0       ?WndProc@KUiInit@@EAEHIIH@Z 00423dd0 f   UiInit.obj
 0001:00022e20       ?OnKeyDown@KUiInit@@AAEHI@Z 00423e20 f   UiInit.obj
 0001:00022ef0       ?OnClickButton@KUiInit@@AAEXPAVKWndButton@@@Z 00423ef0 f   UiInit.obj
 0001:00022f80       ?GetActiveBtn@KUiInit@@AAEPAVKWndButton@@XZ 00423f80 f   UiInit.obj
 0001:00022ff0       ?ShowCompleted@KUiInit@@EAEXXZ 00423ff0 f   UiInit.obj
 0001:00023000       ??0KUiTeamBuild@@AAE@XZ    00424000 f   UiTeamBuild.obj
 0001:00023090       ??_GKUiTeamBuild@@EAEPAXI@Z 00424090 f i UiTeamBuild.obj
 0001:00023090       ??_EKUiTeamBuild@@EAEPAXI@Z 00424090 f i UiTeamBuild.obj
 0001:000230b0       ??1KUiTeamBuild@@EAE@XZ    004240b0 f i UiTeamBuild.obj
 0001:00023150       ?OpenWindow@KUiTeamBuild@@SAPAV1@XZ 00424150 f   UiTeamBuild.obj
 0001:000231e0       ?CloseWindow@KUiTeamBuild@@SAX_N@Z 004241e0 f   UiTeamBuild.obj
 0001:00023220       ?Initialize@KUiTeamBuild@@AAEXXZ 00424220 f   UiTeamBuild.obj
 0001:000232b0       ?LoadScheme@KUiTeamBuild@@AAEXPBD@Z 004242b0 f   UiTeamBuild.obj
 0001:00023400       ?OnClickConfirmBtn@KUiTeamBuild@@AAEXXZ 00424400 f   UiTeamBuild.obj
 0001:00023420       ?OnClickCancelBtn@KUiTeamBuild@@AAEXXZ 00424420 f   UiTeamBuild.obj
 0001:00023440       ?WndProc@KUiTeamBuild@@EAEHIIH@Z 00424440 f   UiTeamBuild.obj
 0001:000234d0       ?GetIfVisible@KUiChaPW@@SAPAV1@XZ 004244d0 f   UiChaPW.obj
 0001:000234f0       ?OpenWindow@KUiChaPW@@SAPAV1@XZ 004244f0 f   UiChaPW.obj
 0001:00023630       ??_EKUiChaPW@@EAEPAXI@Z    00424630 f i UiChaPW.obj
 0001:00023630       ??_GKUiChaPW@@EAEPAXI@Z    00424630 f i UiChaPW.obj
 0001:00023650       ??1KUiChaPW@@EAE@XZ        00424650 f i UiChaPW.obj
 0001:00023720       ?CloseWindow@KUiChaPW@@SAXXZ 00424720 f   UiChaPW.obj
 0001:00023750       ?Initialize@KUiChaPW@@AAEXXZ 00424750 f   UiChaPW.obj
 0001:00023800       ?LoadScheme@KUiChaPW@@SAXPBD@Z 00424800 f   UiChaPW.obj
 0001:00023990       ?WndProc@KUiChaPW@@EAEHIIH@Z 00424990 f   UiChaPW.obj
 0001:00023b00       ?OnOk@KUiChaPW@@AAEXXZ     00424b00 f   UiChaPW.obj
 0001:00023b40       ?OnCheckInput@KUiChaPW@@AAEHXZ 00424b40 f   UiChaPW.obj
 0001:00023c50       ?GetIfVisible@KUiCreatPW@@SAPAV1@XZ 00424c50 f   UiCreatPW.obj
 0001:00023c70       ?OpenWindow@KUiCreatPW@@SAPAV1@XZ 00424c70 f   UiCreatPW.obj
 0001:00023d90       ??_EKUiCreatPW@@EAEPAXI@Z  00424d90 f i UiCreatPW.obj
 0001:00023d90       ??_GKUiCreatPW@@EAEPAXI@Z  00424d90 f i UiCreatPW.obj
 0001:00023db0       ??1KUiCreatPW@@EAE@XZ      00424db0 f i UiCreatPW.obj
 0001:00023e60       ?CloseWindow@KUiCreatPW@@SAXXZ 00424e60 f   UiCreatPW.obj
 0001:00023e90       ?Initialize@KUiCreatPW@@AAEXXZ 00424e90 f   UiCreatPW.obj
 0001:00023f20       ?LoadScheme@KUiCreatPW@@SAXPBD@Z 00424f20 f   UiCreatPW.obj
 0001:00024080       ?WndProc@KUiCreatPW@@EAEHIIH@Z 00425080 f   UiCreatPW.obj
 0001:000241a0       ?OnOk@KUiCreatPW@@AAEXXZ   004251a0 f   UiCreatPW.obj
 0001:000241d0       ?OnCheckInput@KUiCreatPW@@AAEHXZ 004251d0 f   UiCreatPW.obj
 0001:000242c0       ?GetIfVisible@KUiExpandItem@@SAPAV1@XZ 004252c0 f   UiExpandItem.obj
 0001:000242e0       ?OpenWindow@KUiExpandItem@@SAPAV1@XZ 004252e0 f   UiExpandItem.obj
 0001:000243c0       ??_EKUiExpandItem@@EAEPAXI@Z 004253c0 f i UiExpandItem.obj
 0001:000243c0       ??_GKUiExpandItem@@EAEPAXI@Z 004253c0 f i UiExpandItem.obj
 0001:000243e0       ??1KUiExpandItem@@EAE@XZ   004253e0 f i UiExpandItem.obj
 0001:00024450       ?CloseWindow@KUiExpandItem@@SAXXZ 00425450 f   UiExpandItem.obj
 0001:00024470       ?Initialize@KUiExpandItem@@AAEXXZ 00425470 f   UiExpandItem.obj
 0001:000244d0       ?UpdateData@KUiExpandItem@@EAEXXZ 004254d0 f   UiExpandItem.obj
 0001:00024550       ?UpdateItem@KUiExpandItem@@QAEXPAUKUiObjAtRegion@@H@Z 00425550 f   UiExpandItem.obj
 0001:000245d0       ?LoadScheme@KUiExpandItem@@SAXPBD@Z 004255d0 f   UiExpandItem.obj
 0001:000246d0       ?WndProc@KUiExpandItem@@EAEHIIH@Z 004256d0 f   UiExpandItem.obj
 0001:00024740       ?PaintWindow@KUiExpandItem@@EAEXXZ 00425740 f   UiExpandItem.obj
 0001:000247d0       ?OnClickItem@KUiExpandItem@@AAEXPAUKUiDraggedObject@@@Z 004257d0 f   UiExpandItem.obj
 0001:000247e0       ?OnItemPickDrop@KUiExpandItem@@AAEXPAUITEM_PICKDROP_PLACE@@0@Z 004257e0 f   UiExpandItem.obj
 0001:000248b0       ??0KUiGetMoney@@AAE@XZ     004258b0 f   UiGetMoney.obj
 0001:00024950       ??_GKUiGetMoney@@EAEPAXI@Z 00425950 f i UiGetMoney.obj
 0001:00024950       ??_EKUiGetMoney@@EAEPAXI@Z 00425950 f i UiGetMoney.obj
 0001:00024970       ??1KUiGetMoney@@EAE@XZ     00425970 f i UiGetMoney.obj
 0001:00024a00       ?OpenWindow@KUiGetMoney@@SAPAV1@HHPAVKWndWindow@@I0@Z 00425a00 f   UiGetMoney.obj
 0001:00024b10       ?CloseWindow@KUiGetMoney@@SAX_N@Z 00425b10 f   UiGetMoney.obj
 0001:00024b50       ?GetIfVisible@KUiGetMoney@@SAPAV1@XZ 00425b50 f   UiGetMoney.obj
 0001:00024b70       ?Show@KUiGetMoney@@AAEXPAVKWndWindow@@@Z 00425b70 f   UiGetMoney.obj
 0001:00024c20       ?Hide@KUiGetMoney@@EAEXXZ  00425c20 f   UiGetMoney.obj
 0001:00024c40       ?Initialize@KUiGetMoney@@AAEHXZ 00425c40 f   UiGetMoney.obj
 0001:00024cc0       ?LoadScheme@KUiGetMoney@@SAXPBD@Z 00425cc0 f   UiGetMoney.obj
 0001:00024df0       ?WndProc@KUiGetMoney@@EAEHIIH@Z 00425df0 f   UiGetMoney.obj
 0001:00024eb0       ?OnOk@KUiGetMoney@@AAEXXZ  00425eb0 f   UiGetMoney.obj
 0001:00024ef0       ?OnCheckInput@KUiGetMoney@@AAEXXZ 00425ef0 f   UiGetMoney.obj
 0001:00024f90       ?OnCancel@KUiGetMoney@@AAEXXZ 00425f90 f   UiGetMoney.obj
 0001:00024fc0       ??0KUiGiveBox@@AAE@XZ      00425fc0 f   UiGiveBox.obj
 0001:00025060       ??_EKUiGiveBox@@EAEPAXI@Z  00426060 f i UiGiveBox.obj
 0001:00025060       ??_GKUiGiveBox@@EAEPAXI@Z  00426060 f i UiGiveBox.obj
 0001:00025080       ??1KUiGiveBox@@EAE@XZ      00426080 f i UiGiveBox.obj
 0001:00025140       ?OpenWindow@KUiGiveBox@@SAPAV1@PBD0PAD@Z 00426140 f   UiGiveBox.obj
 0001:000252a0       ?CloseWindow@KUiGiveBox@@SAX_N@Z 004262a0 f   UiGiveBox.obj
 0001:000252f0       ?GetIfVisible@KUiGiveBox@@SAPAV1@XZ 004262f0 f   UiGiveBox.obj
 0001:00025310       ?Initialize@KUiGiveBox@@AAEXXZ 00426310 f   UiGiveBox.obj
 0001:000253c0       ?LoadScheme@KUiGiveBox@@SAXPBD@Z 004263c0 f   UiGiveBox.obj
 0001:00025540       ?WndProc@KUiGiveBox@@EAEHIIH@Z 00426540 f   UiGiveBox.obj
 0001:00025630       ?OnOk@KUiGiveBox@@AAEXXZ   00426630 f   UiGiveBox.obj
 0001:00025660       ?OnCancel@KUiGiveBox@@AAEXXZ 00426660 f   UiGiveBox.obj
 0001:00025690       ?UpdateItem@KUiGiveBox@@QAEXPAUKUiObjAtRegion@@H@Z 00426690 f   UiGiveBox.obj
 0001:00025720       ?UpdateData@KUiGiveBox@@UAEXXZ 00426720 f   UiGiveBox.obj
 0001:000257a0       ?OnItemPickDrop@KUiGiveBox@@QAEXPAUITEM_PICKDROP_PLACE@@0@Z 004267a0 f   UiGiveBox.obj
 0001:000258a0       ?GetIfVisible@KUiItem@@SAPAV1@XZ 004268a0 f   UiItem.obj
 0001:000258c0       ?OpenWindow@KUiItem@@SAPAV1@XZ 004268c0 f   UiItem.obj
 0001:00025a40       ??_GKUiItem@@EAEPAXI@Z     00426a40 f i UiItem.obj
 0001:00025a40       ??_EKUiItem@@EAEPAXI@Z     00426a40 f i UiItem.obj
 0001:00025a60       ??1KUiItem@@EAE@XZ         00426a60 f i UiItem.obj
 0001:00025b70       ?CloseWindow@KUiItem@@SAX_N@Z 00426b70 f   UiItem.obj
 0001:00025bb0       ?Initialize@KUiItem@@AAEXXZ 00426bb0 f   UiItem.obj
 0001:00025c90       ?Breathe@KUiItem@@UAEXXZ   00426c90 f   UiItem.obj
 0001:00025ce0       ?OnNpcTradeMode@KUiItem@@SAX_N@Z 00426ce0 f   UiItem.obj
 0001:00025d00       ?UpdateData@KUiItem@@EAEXXZ 00426d00 f   UiItem.obj
 0001:00025dd0       ?UpdateItem@KUiItem@@QAEXPAUKUiObjAtRegion@@H@Z 00426dd0 f   UiItem.obj
 0001:00025e60       ?LoadScheme@KUiItem@@SAXPBD@Z 00426e60 f   UiItem.obj
 0001:00026040       ?OnClickItem@KUiItem@@AAEXPAUKUiDraggedObject@@_N@Z 00427040 f   UiItem.obj
 0001:000262a0       ?OnRepairItem@KUiItem@@AAEXPAUKUiDraggedObject@@@Z 004272a0 f   UiItem.obj
 0001:00026340       ?OnBindItem@KUiItem@@AAEXPAUKUiDraggedObject@@@Z 00427340 f   UiItem.obj
 0001:000263d0       ?OnUnBindItem@KUiItem@@AAEXPAUKUiDraggedObject@@@Z 004273d0 f   UiItem.obj
 0001:00026460       ?WndProc@KUiItem@@EAEHIIH@Z 00427460 f   UiItem.obj
 0001:000266c0       ?OnGetMoney@KUiItem@@AAEXH@Z 004276c0 f   UiItem.obj
 0001:000266f0       ?OnClickMarkPriceBtn@KUiItem@@AAEXXZ 004276f0 f   UiItem.obj
 0001:000267d0       ?OnClickMakeAdvBtn@KUiItem@@AAEXXZ 004277d0 f   UiItem.obj
 0001:00026820       ?OnClickMakeStallBtn@KUiItem@@AAEXXZ 00427820 f   UiItem.obj
 0001:00026950       ?OnMarkPriceItem@KUiItem@@AAEXPAUKUiDraggedObject@@@Z 00427950 f   UiItem.obj
 0001:000269e0       ?OnItemPickDrop@KUiItem@@AAEXPAUITEM_PICKDROP_PLACE@@0@Z 004279e0 f   UiItem.obj
 0001:00026b70       ?MoveItemToRepository@KUiItem@@SAXPAUKUiDraggedObject@@@Z 00427b70 f   UiItem.obj
 0001:00026d20       ?MoveItemToInventory@KUiItem@@SAXPAUKUiDraggedObject@@@Z 00427d20 f   UiItem.obj
 0001:00026f10       ??0KUiKeyBoard@@AAE@XZ     00427f10 f   UiKeyBoard.obj
 0001:00026fc0       ??_GKUiKeyBoard@@UAEPAXI@Z 00427fc0 f i UiKeyBoard.obj
 0001:00026fc0       ??_EKUiKeyBoard@@UAEPAXI@Z 00427fc0 f i UiKeyBoard.obj
 0001:00026fe0       ??1KUiKeyBoard@@UAE@XZ     00427fe0 f i UiKeyBoard.obj
 0001:00027080       ?GetIfVisible@KUiKeyBoard@@SAPAV1@XZ 00428080 f   UiKeyBoard.obj
 0001:000270a0       ?OpenWindow@KUiKeyBoard@@SAPAV1@PAVKWndWindow@@I@Z 004280a0 f   UiKeyBoard.obj
 0001:00027170       ?CloseWindow@KUiKeyBoard@@SAXXZ 00428170 f   UiKeyBoard.obj
 0001:000271b0       ?Initialize@KUiKeyBoard@@AAEXXZ 004281b0 f   UiKeyBoard.obj
 0001:00027240       ?LoadScheme@KUiKeyBoard@@SAXPBD@Z 00428240 f   UiKeyBoard.obj
 0001:00027800       ?WndProc@KUiKeyBoard@@EAEHIIH@Z 00428800 f   UiKeyBoard.obj
 0001:00027b80       ?OnOk@KUiKeyBoard@@AAEXXZ  00428b80 f   UiKeyBoard.obj
 0001:00027bc0       ?OnCancel@KUiKeyBoard@@AAEXXZ 00428bc0 f   UiKeyBoard.obj
 0001:00027bf0       ?OnCheckInput@KUiKeyBoard@@AAEXXZ 00428bf0 f   UiKeyBoard.obj
 0001:00027e30       ?GetIfVisible@KUiLoginPW@@SAPAV1@XZ 00428e30 f   UiLoginPW.obj
 0001:00027e50       ?OpenWindow@KUiLoginPW@@SAPAV1@XZ 00428e50 f   UiLoginPW.obj
 0001:00027f50       ??_GKUiLoginPW@@EAEPAXI@Z  00428f50 f i UiLoginPW.obj
 0001:00027f50       ??_EKUiLoginPW@@EAEPAXI@Z  00428f50 f i UiLoginPW.obj
 0001:00027f70       ??1KUiLoginPW@@EAE@XZ      00428f70 f i UiLoginPW.obj
 0001:00028000       ?CloseWindow@KUiLoginPW@@SAXXZ 00429000 f   UiLoginPW.obj
 0001:00028030       ?Initialize@KUiLoginPW@@AAEXXZ 00429030 f   UiLoginPW.obj
 0001:000280a0       ?LoadScheme@KUiLoginPW@@SAXPBD@Z 004290a0 f   UiLoginPW.obj
 0001:000281d0       ?WndProc@KUiLoginPW@@EAEHIIH@Z 004291d0 f   UiLoginPW.obj
 0001:00028290       ?OnOk@KUiLoginPW@@AAEXXZ   00429290 f   UiLoginPW.obj
 0001:000282e0       ?OnCheckInput@KUiLoginPW@@AAEHXZ 004292e0 f   UiLoginPW.obj
 0001:00028370       ?OpenWindow@KUiReWard@@SAPAV1@PBD000@Z 00429370 f   UiReWard.obj
 0001:00028530       ??_GKUiReWard@@UAEPAXI@Z   00429530 f i UiReWard.obj
 0001:00028530       ??_EKUiReWard@@UAEPAXI@Z   00429530 f i UiReWard.obj
 0001:00028550       ??1KUiReWard@@UAE@XZ       00429550 f i UiReWard.obj
 0001:000285e0       ?GetIfVisible@KUiReWard@@SAPAV1@XZ 004295e0 f   UiReWard.obj
 0001:00028600       ?CloseWindow@KUiReWard@@SAX_N@Z 00429600 f   UiReWard.obj
 0001:00028630       ?Initialize@KUiReWard@@AAEXXZ 00429630 f   UiReWard.obj
 0001:000286b0       ?LoadScheme@KUiReWard@@AAEXPBD@Z 004296b0 f   UiReWard.obj
 0001:00028a00       ?ShowButton@KUiReWard@@AAEXXZ 00429a00 f   UiReWard.obj
 0001:00029030       ?WndProc@KUiReWard@@EAEHIIH@Z 0042a030 f   UiReWard.obj
 0001:00029120       ??0KUiFightSkillSubPage@@QAE@XZ 0042a120 f   UiSkills.obj
 0001:000291c0       ?MyBreathe@KWndPage@@UAEXXZ 0042a1c0 f i UiSkills.obj
 0001:000291d0       ??1KWndPage@@UAE@XZ        0042a1d0 f i UiSkills.obj
 0001:000291e0       ??_EKWndPage@@UAEPAXI@Z    0042a1e0 f i UiSkills.obj
 0001:000291e0       ??_GKWndPage@@UAEPAXI@Z    0042a1e0 f i UiSkills.obj
 0001:00029200       ??_EKUiFightSkillSubPage@@UAEPAXI@Z 0042a200 f i UiSkills.obj
 0001:00029200       ??_GKUiFightSkillSubPage@@UAEPAXI@Z 0042a200 f i UiSkills.obj
 0001:00029220       ??1KUiFightSkillSubPage@@UAE@XZ 0042a220 f i UiSkills.obj
 0001:000292a0       ?Initialize@KUiFightSkillSubPage@@QAEXXZ 0042a2a0 f   UiSkills.obj
 0001:000292f0       ?LoadScheme@KUiFightSkillSubPage@@QAEXPBD@Z 0042a2f0 f   UiSkills.obj
 0001:00029480       ?UpdateRemainPoint@KUiFightSkillSubPage@@QAEXH@Z 0042a480 f   UiSkills.obj
 0001:000294e0       ?UpdateSkill@KUiFightSkillSubPage@@QAEXPAUKUiSkillData@@H@Z 0042a4e0 f   UiSkills.obj
 0001:00029530       ?UpdateData@KUiFightSkillSubPage@@QAEXPAUKUiSkillData@@@Z 0042a530 f   UiSkills.obj
 0001:000295e0       ?WndProc@KUiFightSkillSubPage@@EAEHIIH@Z 0042a5e0 f   UiSkills.obj
 0001:000297a0       ?PaintWindow@KUiFightSkillSubPage@@EAEXXZ 0042a7a0 f   UiSkills.obj
 0001:00029930       ?Initialize@KUiFightSkillSub@@QAEXXZ 0042a930 f   UiSkills.obj
 0001:00029970       ?LoadScheme@KUiFightSkillSub@@QAEXPBD@Z 0042a970 f   UiSkills.obj
 0001:00029a90       ?UpdateRemainPoint@KUiFightSkillSub@@QAEXH@Z 0042aa90 f   UiSkills.obj
 0001:00029ac0       ?UpdateSkill@KUiFightSkillSub@@QAEXPAUKUiSkillData@@H@Z 0042aac0 f   UiSkills.obj
 0001:00029b10       ?UpdateData@KUiFightSkillSub@@UAEXXZ 0042ab10 f   UiSkills.obj
 0001:00029b60       ?Initialize@KUiFightSkill@@QAEXXZ 0042ab60 f   UiSkills.obj
 0001:00029b90       ?LoadScheme@KUiFightSkill@@QAEXPBD@Z 0042ab90 f   UiSkills.obj
 0001:00029c60       ?UpdateData@KUiFightSkill@@UAEXXZ 0042ac60 f   UiSkills.obj
 0001:00029cb0       ?UpdateSkill@KUiFightSkill@@QAEXPAUKUiSkillData@@H@Z 0042acb0 f   UiSkills.obj
 0001:00029cd0       ?UpdateRemainPoint@KUiFightSkill@@QAEXH@Z 0042acd0 f   UiSkills.obj
 0001:00029d00       ??0KUiLiveSkill@@QAE@XZ    0042ad00 f   UiSkills.obj
 0001:00029d80       ??_GKUiLiveSkill@@UAEPAXI@Z 0042ad80 f i UiSkills.obj
 0001:00029d80       ??_EKUiLiveSkill@@UAEPAXI@Z 0042ad80 f i UiSkills.obj
 0001:00029da0       ??1KUiLiveSkill@@UAE@XZ    0042ada0 f i UiSkills.obj
 0001:00029e10       ?Initialize@KUiLiveSkill@@QAEXXZ 0042ae10 f   UiSkills.obj
 0001:00029e50       ?LoadScheme@KUiLiveSkill@@QAEXPBD@Z 0042ae50 f   UiSkills.obj
 0001:00029fd0       ?WndProc@KUiLiveSkill@@EAEHIIH@Z 0042afd0 f   UiSkills.obj
 0001:0002a030       ?PaintWindow@KUiLiveSkill@@EAEXXZ 0042b030 f   UiSkills.obj
 0001:0002a170       ?UpdateBaseData@KUiLiveSkill@@QAEXXZ 0042b170 f   UiSkills.obj
 0001:0002a1b0       ?UpdateSkill@KUiLiveSkill@@QAEXPAUKUiSkillData@@H@Z 0042b1b0 f   UiSkills.obj
 0001:0002a1f0       ?UpdateData@KUiLiveSkill@@UAEXXZ 0042b1f0 f   UiSkills.obj
 0001:0002a250       ?OpenWindow@KUiSkills@@SAPAV1@XZ 0042b250 f   UiSkills.obj
 0001:0002a400       ??_GKUiSkills@@EAEPAXI@Z   0042b400 f i UiSkills.obj
 0001:0002a400       ??_EKUiSkills@@EAEPAXI@Z   0042b400 f i UiSkills.obj
 0001:0002a420       ??1KUiSkills@@EAE@XZ       0042b420 f i UiSkills.obj
 0001:0002a560       ??1KUiFightSkill@@UAE@XZ   0042b560 f i UiSkills.obj
 0001:0002a610       ??_EKUiFightSkill@@UAEPAXI@Z 0042b610 f i UiSkills.obj
 0001:0002a610       ??_GKUiFightSkill@@UAEPAXI@Z 0042b610 f i UiSkills.obj
 0001:0002a630       ??_EKUiFightSkillSub@@UAEPAXI@Z 0042b630 f i UiSkills.obj
 0001:0002a630       ??_GKUiFightSkillSub@@UAEPAXI@Z 0042b630 f i UiSkills.obj
 0001:0002a650       ??1KUiFightSkillSub@@UAE@XZ 0042b650 f i UiSkills.obj
 0001:0002a6d0       ?GetIfVisible@KUiSkills@@SAPAV1@XZ 0042b6d0 f   UiSkills.obj
 0001:0002a6f0       ?CloseWindow@KUiSkills@@SAX_N@Z 0042b6f0 f   UiSkills.obj
 0001:0002a720       ?Initialize@KUiSkills@@AAEXXZ 0042b720 f   UiSkills.obj
 0001:0002a7b0       ?LoadScheme@KUiSkills@@SAXPBD@Z 0042b7b0 f   UiSkills.obj
 0001:0002a8e0       ?UpdateSkill@KUiSkills@@SAXPAUKUiSkillData@@H@Z 0042b8e0 f   UiSkills.obj
 0001:0002aa10       ?UpdateFightRemainPoint@KUiSkills@@QAEXH@Z 0042ba10 f   UiSkills.obj
 0001:0002aa30       ?UpdateLiveBaseData@KUiSkills@@QAEXXZ 0042ba30 f   UiSkills.obj
 0001:0002aa40       ?UpdateFightSkillData@KUiSkills@@QAEXXZ 0042ba40 f   UiSkills.obj
 0001:0002aa50       ?WndProc@KUiSkills@@EAEHIIH@Z 0042ba50 f   UiSkills.obj
 0001:0002aa90       ??0KUiSkillTree@@AAE@XZ    0042ba90 f   UiSkillTree.obj
 0001:0002aac0       ??_EKUiSkillTree@@EAEPAXI@Z 0042bac0 f i UiSkillTree.obj
 0001:0002aac0       ??_GKUiSkillTree@@EAEPAXI@Z 0042bac0 f i UiSkillTree.obj
 0001:0002aae0       ??1KUiSkillTree@@EAE@XZ    0042bae0 f i UiSkillTree.obj
 0001:0002aaf0       ?GetIfVisible@KUiSkillTree@@SAPAV1@XZ 0042baf0 f   UiSkillTree.obj
 0001:0002ab10       ?OpenWindow@KUiSkillTree@@SAPAV1@H@Z 0042bb10 f   UiSkillTree.obj
 0001:0002abe0       ?CloseWindow@KUiSkillTree@@SAX_N@Z 0042bbe0 f   UiSkillTree.obj
 0001:0002ac10       ?Hide@KUiSkillTree@@EAEXXZ 0042bc10 f   UiSkillTree.obj
 0001:0002ac30       ?LoadConfig@KUiSkillTree@@SAXPAVKIniFile@@@Z 0042bc30 f   UiSkillTree.obj
 0001:0002ae10       ?SaveConfig@KUiSkillTree@@SAXPAVKIniFile@@@Z 0042be10 f   UiSkillTree.obj
 0001:0002af10       ?Initialize@KUiSkillTree@@AAEXXZ 0042bf10 f   UiSkillTree.obj
 0001:0002af50       ?UpdateWndRect@KUiSkillTree@@AAEXXZ 0042bf50 f   UiSkillTree.obj
 0001:0002aff0       ?UpdateData@KUiSkillTree@@EAEXXZ 0042bff0 f   UiSkillTree.obj
 0001:0002b090       ?PtInWindow@KUiSkillTree@@EAEHHH@Z 0042c090 f   UiSkillTree.obj
 0001:0002b0d0       ?GetSkillAtPos@KUiSkillTree@@AAEHFF@Z 0042c0d0 f   UiSkillTree.obj
 0001:0002b170       ?LoadScheme@KUiSkillTree@@SAXPBD@Z 0042c170 f   UiSkillTree.obj
 0001:0002b340       ?WndProc@KUiSkillTree@@EAEHIIH@Z 0042c340 f   UiSkillTree.obj
 0001:0002b5e0       ?HandleShortcutKey@KUiSkillTree@@SAXH@Z 0042c5e0 f   UiSkillTree.obj
 0001:0002b700       ?DirectHandleShortcutKey@KUiSkillTree@@SAXH@Z 0042c700 f   UiSkillTree.obj
 0001:0002b810       ?PaintWindow@KUiSkillTree@@EAEXXZ 0042c810 f   UiSkillTree.obj
 0001:0002b9d0       ?GetIfVisible@KUiStoreBox@@SAPAV1@XZ 0042c9d0 f   UiStoreBox.obj
 0001:0002b9f0       ?OpenWindow@KUiStoreBox@@SAPAV1@H@Z 0042c9f0 f   UiStoreBox.obj
 0001:0002bb80       ??_GKUiStoreBox@@EAEPAXI@Z 0042cb80 f i UiStoreBox.obj
 0001:0002bb80       ??_EKUiStoreBox@@EAEPAXI@Z 0042cb80 f i UiStoreBox.obj
 0001:0002bba0       ??1KUiStoreBox@@EAE@XZ     0042cba0 f i UiStoreBox.obj
 0001:0002bca0       ?CloseWindow@KUiStoreBox@@SAXXZ 0042cca0 f   UiStoreBox.obj
 0001:0002bcd0       ?Initialize@KUiStoreBox@@AAEXXZ 0042ccd0 f   UiStoreBox.obj
 0001:0002bdd0       ?UpdateClientData@KUiStoreBox@@SAXXZ 0042cdd0 f   UiStoreBox.obj
 0001:0002bdf0       ?UpdateData@KUiStoreBox@@AAEXH@Z 0042cdf0 f   UiStoreBox.obj
 0001:0002c050       ?UpdateItem@KUiStoreBox@@QAEXHPAUKUiObjAtRegion@@H@Z 0042d050 f   UiStoreBox.obj
 0001:0002c130       ?LoadScheme@KUiStoreBox@@SAXPBD@Z 0042d130 f   UiStoreBox.obj
 0001:0002c330       ?WndProc@KUiStoreBox@@EAEHIIH@Z 0042d330 f   UiStoreBox.obj
 0001:0002c670       ?OnGetMoney@KUiStoreBox@@AAEXH@Z 0042d670 f   UiStoreBox.obj
 0001:0002c690       ?OnClickItem@KUiStoreBox@@AAEXPAUKUiDraggedObject@@@Z 0042d690 f   UiStoreBox.obj
 0001:0002c6a0       ?OnItemPickDrop@KUiStoreBox@@AAEXPAUITEM_PICKDROP_PLACE@@0@Z 0042d6a0 f   UiStoreBox.obj
 0001:0002c850       ?PaintWindow@KUiStoreBox@@EAEXXZ 0042d850 f   UiStoreBox.obj
 0001:0002c8e0       ?GetCurrentContainerID@KUiStoreBox@@QAEHXZ 0042d8e0 f   UiStoreBox.obj
 0001:0002c930       ?OpenWindow@KUiTimeBox@@SAPAV1@PBDHPADH@Z 0042d930 f   UiTimeBox.obj
 0001:0002caa0       ??_GKUiTimeBox@@EAEPAXI@Z  0042daa0 f i UiTimeBox.obj
 0001:0002caa0       ??_EKUiTimeBox@@EAEPAXI@Z  0042daa0 f i UiTimeBox.obj
 0001:0002cac0       ??1KUiTimeBox@@EAE@XZ      0042dac0 f i UiTimeBox.obj
 0001:0002cb80       ?Show@KUiTimeBox@@EAEXXZ   0042db80 f   UiTimeBox.obj
 0001:0002cba0       ?CloseWindow@KUiTimeBox@@SAX_N@Z 0042dba0 f   UiTimeBox.obj
 0001:0002cbd0       ?GetIfVisible@KUiTimeBox@@SAPAV1@XZ 0042dbd0 f   UiTimeBox.obj
 0001:0002cbf0       ?Initialize@KUiTimeBox@@AAEXXZ 0042dbf0 f   UiTimeBox.obj
 0001:0002cc60       ?LoadScheme@KUiTimeBox@@SAXPBD@Z 0042dc60 f   UiTimeBox.obj
 0001:0002cd70       ?OnOk@KUiTimeBox@@SAXXZ    0042dd70 f   UiTimeBox.obj
 0001:0002cda0       ?WndProc@KUiTimeBox@@EAEHIIH@Z 0042dda0 f   UiTimeBox.obj
 0001:0002cdd0       ?Breathe@KUiTimeBox@@EAEXXZ 0042ddd0 f   UiTimeBox.obj
 0001:0002ce70       ?OpenWindow@KUiESCDlg@@SAPAV1@XZ 0042de70 f   UiESCDlg.obj
 0001:0002cf10       ??1KUiESCDlg@@EAE@XZ       0042df10 f   UiESCDlg.obj
 0001:0002cfb0       ??_EKUiESCDlg@@EAEPAXI@Z   0042dfb0 f i UiESCDlg.obj
 0001:0002cfb0       ??_GKUiESCDlg@@EAEPAXI@Z   0042dfb0 f i UiESCDlg.obj
 0001:0002cfd0       ?CloseWindow@KUiESCDlg@@SAX_N@Z 0042dfd0 f   UiESCDlg.obj
 0001:0002d000       ?GetIfVisible@KUiESCDlg@@SAPAV1@XZ 0042e000 f   UiESCDlg.obj
 0001:0002d020       ?Show@KUiESCDlg@@EAEXXZ    0042e020 f   UiESCDlg.obj
 0001:0002d040       ?Hide@KUiESCDlg@@EAEXXZ    0042e040 f   UiESCDlg.obj
 0001:0002d060       ??0KUiESCDlg@@AAE@XZ       0042e060 f   UiESCDlg.obj
 0001:0002d100       ?Initialize@KUiESCDlg@@AAEHXZ 0042e100 f   UiESCDlg.obj
 0001:0002d190       ?LoadScheme@KUiESCDlg@@AAEXPBD@Z 0042e190 f   UiESCDlg.obj
 0001:0002d2c0       ?WndProc@KUiESCDlg@@EAEHIIH@Z 0042e2c0 f   UiESCDlg.obj
 0001:0002d310       ?OnKeyDown@KUiESCDlg@@AAEHI@Z 0042e310 f   UiESCDlg.obj
 0001:0002d480       ?OnClickButton@KUiESCDlg@@AAEXPAVKWndWindow@@@Z 0042e480 f   UiESCDlg.obj
 0001:0002d570       ?LixianOut@KUiESCDlg@@SAXXZ 0042e570 f   UiESCDlg.obj
 0001:0002d590       ?Breathe@KUiESCDlg@@EAEXXZ 0042e590 f   UiESCDlg.obj
 0001:0002d600       ?GetActiveBtn@KUiESCDlg@@AAEPAVKWndButton@@XZ 0042e600 f   UiESCDlg.obj
 0001:0002d680       ??0KUiGetNumber@@AAE@XZ    0042e680 f   UiGetNumber.obj
 0001:0002d720       ??_GKUiGetNumber@@EAEPAXI@Z 0042e720 f i UiGetNumber.obj
 0001:0002d720       ??_EKUiGetNumber@@EAEPAXI@Z 0042e720 f i UiGetNumber.obj
 0001:0002d740       ??1KUiGetNumber@@EAE@XZ    0042e740 f i UiGetNumber.obj
 0001:0002d7d0       ?OpenWindow@KUiGetNumber@@SAPAV1@PBDHHPAVKWndWindow@@I@Z 0042e7d0 f   UiGetNumber.obj
 0001:0002d8f0       ?CloseWindow@KUiGetNumber@@SAX_N@Z 0042e8f0 f   UiGetNumber.obj
 0001:0002d930       ?GetIfVisible@KUiGetNumber@@SAPAV1@XZ 0042e930 f   UiGetNumber.obj
 0001:0002d950       ?Show@KUiGetNumber@@EAEXXZ 0042e950 f   UiGetNumber.obj
 0001:0002d9b0       ?Hide@KUiGetNumber@@EAEXXZ 0042e9b0 f   UiGetNumber.obj
 0001:0002d9d0       ?Initialize@KUiGetNumber@@AAEXXZ 0042e9d0 f   UiGetNumber.obj
 0001:0002da40       ?LoadScheme@KUiGetNumber@@SAXPBD@Z 0042ea40 f   UiGetNumber.obj
 0001:0002db70       ?WndProc@KUiGetNumber@@EAEHIIH@Z 0042eb70 f   UiGetNumber.obj
 0001:0002dc20       ?OnOk@KUiGetNumber@@AAEXXZ 0042ec20 f   UiGetNumber.obj
 0001:0002dca0       ?OnCancel@KUiGetNumber@@AAEXXZ 0042eca0 f   UiGetNumber.obj
 0001:0002dcd0       ?OnCheckInput@KUiGetNumber@@AAEXXZ 0042ecd0 f   UiGetNumber.obj
 0001:0002dd70       ??0KUiGetString@@AAE@XZ    0042ed70 f   UiGetString.obj
 0001:0002de00       ??_GKUiGetString@@EAEPAXI@Z 0042ee00 f i UiGetString.obj
 0001:0002de00       ??_EKUiGetString@@EAEPAXI@Z 0042ee00 f i UiGetString.obj
 0001:0002de20       ??1KUiGetString@@EAE@XZ    0042ee20 f i UiGetString.obj
 0001:0002deb0       ?OpenWindow@KUiGetString@@SAPAV1@PBD0PAVKWndWindow@@IHH@Z 0042eeb0 f   UiGetString.obj
 0001:0002e000       ?CloseWindow@KUiGetString@@SAX_N@Z 0042f000 f   UiGetString.obj
 0001:0002e040       ?GetIfVisible@KUiGetString@@SAPAV1@XZ 0042f040 f   UiGetString.obj
 0001:0002e060       ?Show@KUiGetString@@EAEXXZ 0042f060 f   UiGetString.obj
 0001:0002e0c0       ?Hide@KUiGetString@@EAEXXZ 0042f0c0 f   UiGetString.obj
 0001:0002e0e0       ?Initialize@KUiGetString@@AAEXXZ 0042f0e0 f   UiGetString.obj
 0001:0002e150       ?LoadScheme@KUiGetString@@SAXPBD@Z 0042f150 f   UiGetString.obj
 0001:0002e280       ?WndProc@KUiGetString@@EAEHIIH@Z 0042f280 f   UiGetString.obj
 0001:0002e320       ?OnOk@KUiGetString@@AAEXXZ 0042f320 f   UiGetString.obj
 0001:0002e3d0       ?OnCancel@KUiGetString@@AAEXXZ 0042f3d0 f   UiGetString.obj
 0001:0002e400       ?OpenWindow@KUiMsgSel@@SAPAV1@PAUKUiQuestionAndAnswer@@@Z 0042f400 f   UiMsgSel.obj
 0001:0002e4d0       ??_GKUiMsgSel@@EAEPAXI@Z   0042f4d0 f i UiMsgSel.obj
 0001:0002e4d0       ??_EKUiMsgSel@@EAEPAXI@Z   0042f4d0 f i UiMsgSel.obj
 0001:0002e4f0       ??1KUiMsgSel@@EAE@XZ       0042f4f0 f i UiMsgSel.obj
 0001:0002e5a0       ?CloseWindow@KUiMsgSel@@SAX_N@Z 0042f5a0 f   UiMsgSel.obj
 0001:0002e5f0       ?Initialize@KUiMsgSel@@AAEHXZ 0042f5f0 f   UiMsgSel.obj
 0001:0002e660       ?LoadScheme@KUiMsgSel@@SAXPBD@Z 0042f660 f   UiMsgSel.obj
 0001:0002e750       ?WndProc@KUiMsgSel@@EAEHIIH@Z 0042f750 f   UiMsgSel.obj
 0001:0002e8e0       ?OnClickMsg@KUiMsgSel@@AAEXH@Z 0042f8e0 f   UiMsgSel.obj
 0001:0002e910       ?ChangeCurSel@KUiMsgSel@@AAEX_N@Z 0042f910 f   UiMsgSel.obj
 0001:0002e950       ?Show@KUiMsgSel@@AAEXPAUKUiQuestionAndAnswer@@@Z 0042f950 f   UiMsgSel.obj
 0001:0002ea50       ?Breathe@KUiMsgSel@@EAEXXZ 0042fa50 f   UiMsgSel.obj
 0001:0002eac0       ?OpenWindow@KUiMsgSel2@@SAPAV1@PAUKUiQuestionAndAnswer@@@Z 0042fac0 f   UiMsgSel2.obj
 0001:0002ebc0       ??_GKUiMsgSel2@@EAEPAXI@Z  0042fbc0 f i UiMsgSel2.obj
 0001:0002ebc0       ??_EKUiMsgSel2@@EAEPAXI@Z  0042fbc0 f i UiMsgSel2.obj
 0001:0002ebe0       ??1KUiMsgSel2@@EAE@XZ      0042fbe0 f i UiMsgSel2.obj
 0001:0002ecc0       ?CloseWindow@KUiMsgSel2@@SAX_N@Z 0042fcc0 f   UiMsgSel2.obj
 0001:0002ed10       ?Initialize@KUiMsgSel2@@AAEHXZ 0042fd10 f   UiMsgSel2.obj
 0001:0002eda0       ?LoadScheme@KUiMsgSel2@@SAXPBD@Z 0042fda0 f   UiMsgSel2.obj
 0001:0002eed0       ?WndProc@KUiMsgSel2@@EAEHIIH@Z 0042fed0 f   UiMsgSel2.obj
 0001:0002f0a0       ?OnClickMsg@KUiMsgSel2@@AAEXH@Z 004300a0 f   UiMsgSel2.obj
 0001:0002f0d0       ?ChangeCurSel@KUiMsgSel2@@AAEX_N@Z 004300d0 f   UiMsgSel2.obj
 0001:0002f110       ?Show@KUiMsgSel2@@AAEXPAUKUiQuestionAndAnswer@@@Z 00430110 f   UiMsgSel2.obj
 0001:0002f240       ?Breathe@KUiMsgSel2@@EAEXXZ 00430240 f   UiMsgSel2.obj
 0001:0002f2e0       ?InitImage@KUiMsgSel2@@AAEXPBD@Z 004302e0 f   UiMsgSel2.obj
 0001:0002f450       ?GetIfVisible@KUiParadeItem@@SAPAV1@XZ 00430450 f   UiParadeItem.obj
 0001:0002f470       ?OpenWindow@KUiParadeItem@@SAPAV1@PAUKUiPlayerItem@@@Z 00430470 f   UiParadeItem.obj
 0001:0002f580       ??_EKUiParadeItem@@EAEPAXI@Z 00430580 f i UiParadeItem.obj
 0001:0002f580       ??_GKUiParadeItem@@EAEPAXI@Z 00430580 f i UiParadeItem.obj
 0001:0002f5a0       ??1KUiParadeItem@@EAE@XZ   004305a0 f i UiParadeItem.obj
 0001:0002f8c0       ??1KUiParadeItemAttrib@@UAE@XZ 004308c0 f i UiParadeItem.obj
 0001:0002fb00       ??1KUiParadeItemEquip@@UAE@XZ 00430b00 f i UiParadeItem.obj
 0001:0002fbc0       ?Show@KUiParadeItem@@EAEXXZ 00430bc0 f   UiParadeItem.obj
 0001:0002fbe0       ?CloseWindow@KUiParadeItem@@SAX_N@Z 00430be0 f   UiParadeItem.obj
 0001:0002fc20       ?Initialize@KUiParadeItem@@AAEXXZ 00430c20 f   UiParadeItem.obj
 0001:0002fcc0       ?LoadScheme@KUiParadeItem@@SAXPBD@Z 00430cc0 f   UiParadeItem.obj
 0001:0002fd70       ?LoadScheme@KUiParadeItem@@AAEXPAVKIniFile@@@Z 00430d70 f   UiParadeItem.obj
 0001:0002fdd0       ?WndProc@KUiParadeItem@@EAEHIIH@Z 00430dd0 f   UiParadeItem.obj
 0001:0002fe40       ?ShowPage@KUiParadeItem@@AAEXD@Z 00430e40 f   UiParadeItem.obj
 0001:0002fed0       ?UpdateData@KUiParadeItem@@QAEXPAUKUiPlayerItem@@@Z 00430ed0 f   UiParadeItem.obj
 0001:0002ff30       ?UpdateEquip@KUiParadeItem@@AAEXPAUKUiObjAtRegion@@H@Z 00430f30 f   UiParadeItem.obj
 0001:0002ff50       ??0KUiParadeItemAttrib@@QAE@XZ 00430f50 f   UiParadeItem.obj
 0001:000301a0       ??_EKUiParadeItemAttrib@@UAEPAXI@Z 004311a0 f i UiParadeItem.obj
 0001:000301a0       ??_GKUiParadeItemAttrib@@UAEPAXI@Z 004311a0 f i UiParadeItem.obj
 0001:000301c0       ?Initialize@KUiParadeItemAttrib@@QAEXXZ 004311c0 f   UiParadeItem.obj
 0001:000303c0       ?LoadScheme@KUiParadeItemAttrib@@AAEXPBD@Z 004313c0 f   UiParadeItem.obj
 0001:00030790       ?UpdateBaseData@KUiParadeItemAttrib@@QAEXPAUKUiPlayerItem@@@Z 00431790 f   UiParadeItem.obj
 0001:00030b70       ?UpdateRuntimeInfo@KUiParadeItemAttrib@@QAEXPAUKUiPlayerItem@@@Z 00431b70 f   UiParadeItem.obj
 0001:00030c00       ?UpdateRuntimeAttribute@KUiParadeItemAttrib@@QAEXPAUKUiPlayerItem@@@Z 00431c00 f   UiParadeItem.obj
 0001:00030df0       ??0KUiParadeItemEquip@@QAE@XZ 00431df0 f   UiParadeItem.obj
 0001:00030ec0       ??_EKUiParadeItemEquip@@UAEPAXI@Z 00431ec0 f i UiParadeItem.obj
 0001:00030ec0       ??_GKUiParadeItemEquip@@UAEPAXI@Z 00431ec0 f i UiParadeItem.obj
 0001:00030ee0       ?Initialize@KUiParadeItemEquip@@QAEXXZ 00431ee0 f   UiParadeItem.obj
 0001:00030f80       ?Show@KUiParadeItemEquip@@QAEXPAUKUiPlayerItem@@@Z 00431f80 f   UiParadeItem.obj
 0001:00030fc0       ?LoadScheme@KUiParadeItemEquip@@AAEXPBDPAUKUiPlayerItem@@@Z 00431fc0 f   UiParadeItem.obj
 0001:00031160       ?UpdateBaseData@KUiParadeItemEquip@@QAEXPAUKUiPlayerItem@@@Z 00432160 f   UiParadeItem.obj
 0001:000311f0       ?UpdateRuntimeAttribute@KUiParadeItemEquip@@QAEXPAUKUiPlayerItem@@@Z 004321f0 f   UiParadeItem.obj
 0001:00031250       ?UpdateAllEquips@KUiParadeItemEquip@@QAEXPAUKUiPlayerItem@@@Z 00432250 f   UiParadeItem.obj
 0001:000312c0       ?UpdateEquip@KUiParadeItemEquip@@QAEXPAUKUiObjAtRegion@@H@Z 004322c0 f   UiParadeItem.obj
 0001:00031340       ?OpenWindow@KUiSelPlayerNearby@@SAPAV1@XZ 00432340 f   UiSelPlayerNearby.obj
 0001:000313f0       ??0KUiSelPlayerNearby@@AAE@XZ 004323f0 f   UiSelPlayerNearby.obj
 0001:000314c0       ??_EKUiSelPlayerNearby@@EAEPAXI@Z 004324c0 f i UiSelPlayerNearby.obj
 0001:000314c0       ??_GKUiSelPlayerNearby@@EAEPAXI@Z 004324c0 f i UiSelPlayerNearby.obj
 0001:000314e0       ??1KUiSelPlayerNearby@@EAE@XZ 004324e0 f i UiSelPlayerNearby.obj
 0001:000315b0       ?DoesHaveVisibleWnd@KUiSelPlayerNearby@@SAHXZ 004325b0 f   UiSelPlayerNearby.obj
 0001:000315d0       ?Initialize@KUiSelPlayerNearby@@AAEXXZ 004325d0 f   UiSelPlayerNearby.obj
 0001:000316f0       ?LoadActionList@KUiSelPlayerNearby@@AAEXPAVKIniFile@@@Z 004326f0 f   UiSelPlayerNearby.obj
 0001:00031840       ?CloseWindow@KUiSelPlayerNearby@@SAX_N@Z 00432840 f   UiSelPlayerNearby.obj
 0001:00031880       ?LoadScheme@KUiSelPlayerNearby@@SAXPBD@Z 00432880 f   UiSelPlayerNearby.obj
 0001:00031930       ?LoadScheme@KUiSelPlayerNearby@@AAEXPAVKIniFile@@@Z 00432930 f   UiSelPlayerNearby.obj
 0001:00031a10       ?WndProc@KUiSelPlayerNearby@@EAEHIIH@Z 00432a10 f   UiSelPlayerNearby.obj
 0001:00031b70       ?OnClickXButton@KUiSelPlayerNearby@@AAEXH@Z 00432b70 f   UiSelPlayerNearby.obj
 0001:00031cb0       ?UpdateData@KUiSelPlayerNearby@@EAEXXZ 00432cb0 f   UiSelPlayerNearby.obj
 0001:00031d20       ?Clear@KUiSelPlayerNearby@@AAEXXZ 00432d20 f   UiSelPlayerNearby.obj
 0001:00031d70       ?PROP_GetTitleString@@YAPBDW4OBJ_ATTRIBYTE_TYPE@@@Z 00432d70 f   UiNewPlayer.obj
 0001:00031d80       ??0KUiNewPlayer@@AAE@XZ    00432d80 f   UiNewPlayer.obj
 0001:00031ef0       ??_GKUiNewPlayer@@EAEPAXI@Z 00432ef0 f i UiNewPlayer.obj
 0001:00031ef0       ??_EKUiNewPlayer@@EAEPAXI@Z 00432ef0 f i UiNewPlayer.obj
 0001:00031f10       ?OpenWindow@KUiNewPlayer@@SAPAV1@H@Z 00432f10 f   UiNewPlayer.obj
 0001:00031fd0       ??1KUiNewPlayer@@EAE@XZ    00432fd0 f   UiNewPlayer.obj
 0001:000320f0       ?CloseWindow@KUiNewPlayer@@SAX_N@Z 004330f0 f   UiNewPlayer.obj
 0001:00032130       ?Initialize@KUiNewPlayer@@AAEXXZ 00433130 f   UiNewPlayer.obj
 0001:00032350       ?SelGender@KUiNewPlayer@@AAEXXZ 00433350 f   UiNewPlayer.obj
 0001:00032490       ?LoadScheme@KUiNewPlayer@@AAEXPBD@Z 00433490 f   UiNewPlayer.obj
 0001:000326c0       ?WndProc@KUiNewPlayer@@EAEHIIH@Z 004336c0 f   UiNewPlayer.obj
 0001:00032730       ?OnClickButton@KUiNewPlayer@@AAEXPAVKWndWindow@@@Z 00433730 f   UiNewPlayer.obj
 0001:000327f0       ?UpdateProperty@KUiNewPlayer@@AAEXXZ 004337f0 f   UiNewPlayer.obj
 0001:000328f0       ?OnOk@KUiNewPlayer@@AAEXXZ 004338f0 f   UiNewPlayer.obj
 0001:00032930       ?OnCancel@KUiNewPlayer@@AAEXXZ 00433930 f   UiNewPlayer.obj
 0001:00032950       ?GetInputInfo@KUiNewPlayer@@AAEHXZ 00433950 f   UiNewPlayer.obj
 0001:00032a00       ?Breathe@KUiNewPlayer@@EAEXXZ 00433a00 f   UiNewPlayer.obj
 0001:00032aa0       ??0KUiSelNativePlace@@AAE@XZ 00433aa0 f   UiSelNativePlace.obj
 0001:00032b40       ??_EKUiSelNativePlace@@EAEPAXI@Z 00433b40 f i UiSelNativePlace.obj
 0001:00032b40       ??_GKUiSelNativePlace@@EAEPAXI@Z 00433b40 f i UiSelNativePlace.obj
 0001:00032b60       ??1KUiSelNativePlace@@EAE@XZ 00433b60 f   UiSelNativePlace.obj
 0001:00032c30       ?OpenWindow@KUiSelNativePlace@@SAPAV1@H@Z 00433c30 f   UiSelNativePlace.obj
 0001:00032cf0       ?CloseWindow@KUiSelNativePlace@@SAX_N@Z 00433cf0 f   UiSelNativePlace.obj
 0001:00032d20       ?Initialize@KUiSelNativePlace@@AAEXXZ 00433d20 f   UiSelNativePlace.obj
 0001:00032da0       ?LoadList@KUiSelNativePlace@@AAEXH@Z 00433da0 f   UiSelNativePlace.obj
 0001:000330e0       ?LoadScheme@KUiSelNativePlace@@AAEXPBD@Z 004340e0 f   UiSelNativePlace.obj
 0001:00033230       ?WndProc@KUiSelNativePlace@@EAEHIIH@Z 00434230 f   UiSelNativePlace.obj
 0001:00033390       ?OnOk@KUiSelNativePlace@@AAEXXZ 00434390 f   UiSelNativePlace.obj
 0001:000333d0       ?OnCancel@KUiSelNativePlace@@AAEXXZ 004343d0 f   UiSelNativePlace.obj
 0001:000333e0       ?UpdateData@KUiSelNativePlace@@EAEXXZ 004343e0 f   UiSelNativePlace.obj
 0001:00033460       ??0KUiSelPlayer@@AAE@XZ    00434460 f   UiSelPlayer.obj
 0001:000335c0       ??_EKUiSelPlayer@@EAEPAXI@Z 004345c0 f i UiSelPlayer.obj
 0001:000335c0       ??_GKUiSelPlayer@@EAEPAXI@Z 004345c0 f i UiSelPlayer.obj
 0001:000335e0       ??1KUiSelPlayer@@EAE@XZ    004345e0 f i UiSelPlayer.obj
 0001:00033700       ?OpenWindow@KUiSelPlayer@@SAPAV1@XZ 00434700 f   UiSelPlayer.obj
 0001:000337c0       ?CloseWindow@KUiSelPlayer@@SAXXZ 004347c0 f   UiSelPlayer.obj
 0001:000337f0       ?Hide@KUiSelPlayer@@EAEXXZ 004347f0 f   UiSelPlayer.obj
 0001:00033810       ?Initialize@KUiSelPlayer@@AAEXXZ 00434810 f   UiSelPlayer.obj
 0001:000338a0       ?LoadScheme@KUiSelPlayer@@AAEXPBD@Z 004348a0 f   UiSelPlayer.obj
 0001:00033c10       ?PaintWindow@KUiSelPlayer@@EAEXXZ 00434c10 f   UiSelPlayer.obj
 0001:00033d00       ?UpdateData@KUiSelPlayer@@EAEXXZ 00434d00 f   UiSelPlayer.obj
 0001:00034710       ?GetRoleImageName@KUiSelPlayer@@SAXPADPBDEEH@Z 00435710 f   UiSelPlayer.obj
 0001:00034760       ?WndProc@KUiSelPlayer@@EAEHIIH@Z 00435760 f   UiSelPlayer.obj
 0001:000347d0       ?OnKeyDown@KUiSelPlayer@@AAEHI@Z 004357d0 f   UiSelPlayer.obj
 0001:00034980       ?OnSelectPlayer@KUiSelPlayer@@AAEXH_N@Z 00435980 f   UiSelPlayer.obj
 0001:00034ae0       ?OnClickButton@KUiSelPlayer@@AAEXPAVKWndButton@@_N@Z 00435ae0 f   UiSelPlayer.obj
 0001:00034b90       ?OnEnterGame@KUiSelPlayer@@AAEXXZ 00435b90 f   UiSelPlayer.obj
 0001:00034bd0       ?OnNew@KUiSelPlayer@@AAEXXZ 00435bd0 f   UiSelPlayer.obj
 0001:00034c00       ?OnDel@KUiSelPlayer@@AAEXXZ 00435c00 f   UiSelPlayer.obj
 0001:00034c30       ?OnCancel@KUiSelPlayer@@AAEXXZ 00435c30 f   UiSelPlayer.obj
 0001:00034c50       ?GetActiveBtn@KUiSelPlayer@@AAEPAVKWndButton@@XZ 00435c50 f   UiSelPlayer.obj
 0001:00034cc0       ??0KUiChannelSubscibe@@QAE@XZ 00435cc0 f   UiChannelSubscibe.obj
 0001:00034cd0       ??1KUiChannelSubscibe@@QAE@XZ 00435cd0 f   UiChannelSubscibe.obj
 0001:00034d00       ?CreateUnit@ServerNotify@@UAEHPBD@Z 00435d00 f   UiChatCentre.obj
 0001:00034d20       ?RenameUnitGroup@ServerNotify@@UAEHPBD00ABV?$list@V?$basic_string@DU?$char_traits@D@std@@V?$allocator@D@2@@std@@V?$allocator@V?$basic_string@DU?$char_traits@D@std@@V?$allocator@D@2@@std@@@2@@std@@@Z 00435d20 f   UiChatCentre.obj
 0001:00034e20       ?DeleteUnitGroup@ServerNotify@@UAEHPBD0ABV?$list@V?$basic_string@DU?$char_traits@D@std@@V?$allocator@D@2@@std@@V?$allocator@V?$basic_string@DU?$char_traits@D@std@@V?$allocator@D@2@@std@@@2@@std@@@Z 00435e20 f   UiChatCentre.obj
 0001:00034f20       ?MoveUnitGroup@ServerNotify@@UAEHPBD00ABV?$list@V?$basic_string@DU?$char_traits@D@std@@V?$allocator@D@2@@std@@V?$allocator@V?$basic_string@DU?$char_traits@D@std@@V?$allocator@D@2@@std@@@2@@std@@@Z 00435f20 f   UiChatCentre.obj
 0001:00035020       ?DeleteUnitMember@ServerNotify@@UAEHPBD0@Z 00436020 f   UiChatCentre.obj
 0001:00035050       ?MoveUnitMember@ServerNotify@@UAEHPBD00@Z 00436050 f   UiChatCentre.obj
 0001:00035240       ?SendSyncData@ServerNotify@@QAEXPBD@Z 00436240 f   UiChatCentre.obj
 0001:000352b0       ?SendNotifyGroupFriend@ServerNotify@@QAEXPBDABV?$basic_string@DU?$char_traits@D@std@@V?$allocator@D@2@@std@@ABV?$list@V?$basic_string@DU?$char_traits@D@std@@V?$allocator@D@2@@std@@V?$allocator@V?$basic_string@DU?$char_traits@D@std@@V?$allocator@D@2@@std@@@2@@3@@Z 004362b0 f   UiChatCentre.obj
 0001:00035540       ?SendNotifyDeleteFriend@ServerNotify@@QAEXPBD0@Z 00436540 f   UiChatCentre.obj
 0001:000355b0       ??0KUiChatCentre@@AAE@XZ   004365b0 f   UiChatCentre.obj
 0001:00035a60       ??_EKUiChatCentre@@EAEPAXI@Z 00436a60 f i UiChatCentre.obj
 0001:00035a60       ??_GKUiChatCentre@@EAEPAXI@Z 00436a60 f i UiChatCentre.obj
 0001:00035a80       ??1KUiChatCentre@@EAE@XZ   00436a80 f i UiChatCentre.obj
 0001:00035ba0       ??1FriendUnit@KUiChatCentre@@QAE@XZ 00436ba0 f i UiChatCentre.obj
 0001:00035cf0       ??1?$map@V?$basic_string@DU?$char_traits@D@std@@V?$allocator@D@2@@std@@V12@U?$less@V?$basic_string@DU?$char_traits@D@std@@V?$allocator@D@2@@std@@@2@V?$allocator@V?$basic_string@DU?$char_traits@D@std@@V?$allocator@D@2@@std@@@2@@std@@QAE@XZ 00436cf0 f i UiChatCentre.obj
 0001:00035d60       ??1?$map@V?$basic_string@DU?$char_traits@D@std@@V?$allocator@D@2@@std@@EU?$less@V?$basic_string@DU?$char_traits@D@std@@V?$allocator@D@2@@std@@@2@V?$allocator@E@2@@std@@QAE@XZ 00436d60 f i UiChatCentre.obj
 0001:00035dd0       ??1GROUPINFO@KUiChatCentre@@QAE@XZ 00436dd0 f i UiChatCentre.obj
 0001:00035e10       ??0FriendUnit@KUiChatCentre@@QAE@XZ 00436e10 f i UiChatCentre.obj
 0001:00035f90       ??0GROUPINFO@KUiChatCentre@@QAE@XZ 00436f90 f i UiChatCentre.obj
 0001:00035fb0       ?GetIfVisible@KUiChatCentre@@SAPAV1@XZ 00436fb0 f   UiChatCentre.obj
 0001:00035fd0       ?OpenWindow@KUiChatCentre@@SAPAV1@_N@Z 00436fd0 f   UiChatCentre.obj
 0001:000360a0       ?Initialize@KUiChatCentre@@AAEXXZ 004370a0 f   UiChatCentre.obj
 0001:00036190       ?CloseWindow@KUiChatCentre@@SAX_N@Z 00437190 f   UiChatCentre.obj
 0001:000361d0       ?LoadScheme@KUiChatCentre@@SAXPBD@Z 004371d0 f   UiChatCentre.obj
 0001:00036280       ?LoadScheme@KUiChatCentre@@AAEXPAVKIniFile@@@Z 00437280 f   UiChatCentre.obj
 0001:000365e0       ?CreateSeverUnit@KUiChatCentre@@SAXXZ 004375e0 f   UiChatCentre.obj
 0001:00036660       ?LoadPrivateSetting@KUiChatCentre@@SAHPAVKIniFile@@@Z 00437660 f   UiChatCentre.obj
 0001:00036800       ?SavePrivateSetting@KUiChatCentre@@SAHPAVKIniFile@@@Z 00437800 f   UiChatCentre.obj
 0001:000368d0       ?WndProc@KUiChatCentre@@EAEHIIH@Z 004378d0 f   UiChatCentre.obj
 0001:00036b40       ?OnMoveFriendToGroup@KUiChatCentre@@AAEXHH@Z 00437b40 f   UiChatCentre.obj
 0001:00036be0       ?OnSelGroupMenu@KUiChatCentre@@AAEXHH@Z 00437be0 f   UiChatCentre.obj
 0001:00036cf0       ?DragWndSize@KUiChatCentre@@AAEXH@Z 00437cf0 f   UiChatCentre.obj
 0001:00036dc0       ?OnSelFriendMenu@KUiChatCentre@@AAEXHH@Z 00437dc0 f   UiChatCentre.obj
 0001:00036e50       ?OnClickGroupBtn@KUiChatCentre@@AAE_NPAVKWndWindow@@_N@Z 00437e50 f   UiChatCentre.obj
 0001:00036ec0       ?SendFriendMsg@KUiChatCentre@@AAEXH_N@Z 00437ec0 f   UiChatCentre.obj
 0001:00036f00       ?UpdateData@KUiChatCentre@@SAXW4UICHATCENTRE_UPDATE@@IH@Z 00437f00 f   UiChatCentre.obj
 0001:00036f70       ?IsMyFriend@KUiChatCentre@@SA_NPAD@Z 00437f70 f   UiChatCentre.obj
 0001:000370e0       ?AddFriendInfo@KUiChatCentre@@SA_NHPAD0@Z 004380e0 f   UiChatCentre.obj
 0001:000375d0       ?FriendStatus@KUiChatCentre@@SA_NHPADE@Z 004385d0 f   UiChatCentre.obj
 0001:00037890       ?NewGroup@KUiChatCentre@@SAXHPBD@Z 00438890 f   UiChatCentre.obj
 0001:00037a90       ?ReplaceGroupName@KUiChatCentre@@SAXHPBD0@Z 00438a90 f   UiChatCentre.obj
 0001:00037e40       ?MoveFriendToGroup@KUiChatCentre@@SAXHPBD0@Z 00438e40 f   UiChatCentre.obj
 0001:000380e0       ?MoveGroupToGroup@KUiChatCentre@@SAXHPBD0_N@Z 004390e0 f   UiChatCentre.obj
 0001:00038570       ?FindUnitIndex@KUiChatCentre@@SAHPBD@Z 00439570 f   UiChatCentre.obj
 0001:000385e0       ?FindUnitIndexByRoleNameAtServerUnit@KUiChatCentre@@SAHPAD@Z 004395e0 f   UiChatCentre.obj
 0001:00038770       ?FindAddinUnitIndex@KUiChatCentre@@SAHPBD@Z 00439770 f   UiChatCentre.obj
 0001:000387f0       ?AddAddinUnit@KUiChatCentre@@SAHPBDPAUFriendNotify@@@Z 004397f0 f   UiChatCentre.obj
 0001:00038940       ?RemoveAddinUnit@KUiChatCentre@@SAHPBD@Z 00439940 f   UiChatCentre.obj
 0001:00038c60       ?DeleteFriend@KUiChatCentre@@SAXHPAD_N@Z 00439c60 f   UiChatCentre.obj
 0001:00038e40       ?OnClickButton@KUiChatCentre@@AAEXPAVKWndWindow@@@Z 00439e40 f   UiChatCentre.obj
 0001:00038ef0       ?OnSelUnit@KUiChatCentre@@AAEXH@Z 00439ef0 f   UiChatCentre.obj
 0001:00038f30       ?OnScrollList@KUiChatCentre@@AAEX_N@Z 00439f30 f   UiChatCentre.obj
 0001:00038f60       ?CancelMenu@KUiChatCentre@@AAEXXZ 00439f60 f   UiChatCentre.obj
 0001:00038fa0       ?PopupupGroupMenu@KUiChatCentre@@AAEXH@Z 00439fa0 f   UiChatCentre.obj
 0001:00039010       ?PopupFriendMenu@KUiChatCentre@@AAEXH@Z 0043a010 f   UiChatCentre.obj
 0001:00039080       ?PopupSelGroupMenu@KUiChatCentre@@AAEXH@Z 0043a080 f   UiChatCentre.obj
 0001:00039180       ?PopupSelUnitMenu@KUiChatCentre@@AAEXXZ 0043a180 f   UiChatCentre.obj
 0001:00039260       ?ClearInterface@KUiChatCentre@@AAEXXZ 0043a260 f   UiChatCentre.obj
 0001:000392a0       ?ClearFriendList@KUiChatCentre@@AAEXXZ 0043a2a0 f   UiChatCentre.obj
 0001:000392e0       ?ClearUnitData@KUiChatCentre@@AAEXH@Z 0043a2e0 f   UiChatCentre.obj
 0001:00039410       ?UpdateAll@KUiChatCentre@@AAEXH@Z 0043a410 f   UiChatCentre.obj
 0001:000395f0       ?UpdateGroup@KUiChatCentre@@AAEXH@Z 0043a5f0 f   UiChatCentre.obj
 0001:00039c70       ?UpdateFriend@KUiChatCentre@@AAEXPAUKUiPlayerItem@@H@Z 0043ac70 f   UiChatCentre.obj
 0001:00039cb0       ?FindGroupIndex@FriendUnit@KUiChatCentre@@QAEHABV?$basic_string@DU?$char_traits@D@std@@V?$allocator@D@2@@std@@@Z 0043acb0 f   UiChatCentre.obj
 0001:00039d10       ?UpdateInterface@KUiChatCentre@@AAEXXZ 0043ad10 f   UiChatCentre.obj
 0001:0003a0e0       ?PaintWindow@KUiChatCentre@@EAEXXZ 0043b0e0 f   UiChatCentre.obj
 0001:0003a160       ?AdjustSize@KUiChatCentre@@AAEXH@Z 0043b160 f   UiChatCentre.obj
 0001:0003a2c0       ?PtInWindow@KUiChatCentre@@EAEHHH@Z 0043b2c0 f   UiChatCentre.obj
 0001:0003a360       ??1?$list@V?$basic_string@DU?$char_traits@D@std@@V?$allocator@D@2@@std@@V?$allocator@V?$basic_string@DU?$char_traits@D@std@@V?$allocator@D@2@@std@@@2@@std@@QAE@XZ 0043b360 f i UiChatCentre.obj
 0001:0003a3c0       ??1?$pair@$$CBV?$basic_string@DU?$char_traits@D@std@@V?$allocator@D@2@@std@@V12@@std@@QAE@XZ 0043b3c0 f i UiChatCentre.obj
 0001:0003a430       ??1?$pair@$$CBV?$basic_string@DU?$char_traits@D@std@@V?$allocator@D@2@@std@@E@std@@QAE@XZ 0043b430 f i UiChatCentre.obj
 0001:0003a470       ?insert@?$map@V?$basic_string@DU?$char_traits@D@std@@V?$allocator@D@2@@std@@V12@U?$less@V?$basic_string@DU?$char_traits@D@std@@V?$allocator@D@2@@std@@@2@V?$allocator@V?$basic_string@DU?$char_traits@D@std@@V?$allocator@D@2@@std@@@2@@std@@QAE?AU?$pair@Viterator@?$_Tree@V?$basic_string@DU?$char_traits@D@std@@V?$allocator@D@2@@std@@U?$pair@$$CBV?$basic_string@DU?$char_traits@D@std@@V?$allocator@D@2@@std@@V12@@2@U_Kfn@?$map@V?$basic_string@DU?$char_traits@D@std@@V?$allocator@D@2@@std@@V12@U?$less@V?$basic_string@DU?$char_traits@D@std@@V?$allocator@D@2@@std@@@2@V?$allocator@V?$basic_string@DU?$char_traits@D@std@@V?$allocator@D@2@@std@@@2@@2@U?$less@V?$basic_string@DU?$char_traits@D@std@@V?$allocator@D@2@@std@@@2@V?$allocator@V?$basic_string@DU?$char_traits@D@std@@V?$allocator@D@2@@std@@@2@@std@@_N@2@ABU?$pair@$$CBV?$basic_string@DU?$char_traits@D@std@@V?$allocator@D@2@@std@@V12@@2@@Z 0043b470 f i UiChatCentre.obj
 0001:0003a4a0       ??0?$_Tree@V?$basic_string@DU?$char_traits@D@std@@V?$allocator@D@2@@std@@U?$pair@$$CBV?$basic_string@DU?$char_traits@D@std@@V?$allocator@D@2@@std@@V12@@2@U_Kfn@?$map@V?$basic_string@DU?$char_traits@D@std@@V?$allocator@D@2@@std@@V12@U?$less@V?$basic_string@DU?$char_traits@D@std@@V?$allocator@D@2@@std@@@2@V?$allocator@V?$basic_string@DU?$char_traits@D@std@@V?$allocator@D@2@@std@@@2@@2@U?$less@V?$basic_string@DU?$char_traits@D@std@@V?$allocator@D@2@@std@@@2@V?$allocator@V?$basic_string@DU?$char_traits@D@std@@V?$allocator@D@2@@std@@@2@@std@@QAE@ABU?$less@V?$basic_string@DU?$char_traits@D@std@@V?$allocator@D@2@@std@@@1@_NABV?$allocator@V?$basic_string@DU?$char_traits@D@std@@V?$allocator@D@2@@std@@@1@@Z 0043b4a0 f i UiChatCentre.obj
 0001:0003a4d0       ?erase@?$_Tree@V?$basic_string@DU?$char_traits@D@std@@V?$allocator@D@2@@std@@U?$pair@$$CBV?$basic_string@DU?$char_traits@D@std@@V?$allocator@D@2@@std@@V12@@2@U_Kfn@?$map@V?$basic_string@DU?$char_traits@D@std@@V?$allocator@D@2@@std@@V12@U?$less@V?$basic_string@DU?$char_traits@D@std@@V?$allocator@D@2@@std@@@2@V?$allocator@V?$basic_string@DU?$char_traits@D@std@@V?$allocator@D@2@@std@@@2@@2@U?$less@V?$basic_string@DU?$char_traits@D@std@@V?$allocator@D@2@@std@@@2@V?$allocator@V?$basic_string@DU?$char_traits@D@std@@V?$allocator@D@2@@std@@@2@@std@@QAE?AViterator@12@V312@@Z 0043b4d0 f i UiChatCentre.obj
 0001:0003aa70       ?erase@?$_Tree@V?$basic_string@DU?$char_traits@D@std@@V?$allocator@D@2@@std@@U?$pair@$$CBV?$basic_string@DU?$char_traits@D@std@@V?$allocator@D@2@@std@@V12@@2@U_Kfn@?$map@V?$basic_string@DU?$char_traits@D@std@@V?$allocator@D@2@@std@@V12@U?$less@V?$basic_string@DU?$char_traits@D@std@@V?$allocator@D@2@@std@@@2@V?$allocator@V?$basic_string@DU?$char_traits@D@std@@V?$allocator@D@2@@std@@@2@@2@U?$less@V?$basic_string@DU?$char_traits@D@std@@V?$allocator@D@2@@std@@@2@V?$allocator@V?$basic_string@DU?$char_traits@D@std@@V?$allocator@D@2@@std@@@2@@std@@QAE?AViterator@12@V312@0@Z 0043ba70 f i UiChatCentre.obj
 0001:0003ab90       ?find@?$_Tree@V?$basic_string@DU?$char_traits@D@std@@V?$allocator@D@2@@std@@U?$pair@$$CBV?$basic_string@DU?$char_traits@D@std@@V?$allocator@D@2@@std@@V12@@2@U_Kfn@?$map@V?$basic_string@DU?$char_traits@D@std@@V?$allocator@D@2@@std@@V12@U?$less@V?$basic_string@DU?$char_traits@D@std@@V?$allocator@D@2@@std@@@2@V?$allocator@V?$basic_string@DU?$char_traits@D@std@@V?$allocator@D@2@@std@@@2@@2@U?$less@V?$basic_string@DU?$char_traits@D@std@@V?$allocator@D@2@@std@@@2@V?$allocator@V?$basic_string@DU?$char_traits@D@std@@V?$allocator@D@2@@std@@@2@@std@@QAE?AViterator@12@ABV?$basic_string@DU?$char_traits@D@std@@V?$allocator@D@2@@2@@Z 0043bb90 f i UiChatCentre.obj
 0001:0003abf0       ??0?$pair@$$CBV?$basic_string@DU?$char_traits@D@std@@V?$allocator@D@2@@std@@V12@@std@@QAE@ABV?$basic_string@DU?$char_traits@D@std@@V?$allocator@D@2@@1@0@Z 0043bbf0 f i UiChatCentre.obj
 0001:0003ad20       ?insert@?$map@V?$basic_string@DU?$char_traits@D@std@@V?$allocator@D@2@@std@@EU?$less@V?$basic_string@DU?$char_traits@D@std@@V?$allocator@D@2@@std@@@2@V?$allocator@E@2@@std@@QAE?AU?$pair@Viterator@?$_Tree@V?$basic_string@DU?$char_traits@D@std@@V?$allocator@D@2@@std@@U?$pair@$$CBV?$basic_string@DU?$char_traits@D@std@@V?$allocator@D@2@@std@@E@2@U_Kfn@?$map@V?$basic_string@DU?$char_traits@D@std@@V?$allocator@D@2@@std@@EU?$less@V?$basic_string@DU?$char_traits@D@std@@V?$allocator@D@2@@std@@@2@V?$allocator@E@2@@2@U?$less@V?$basic_string@DU?$char_traits@D@std@@V?$allocator@D@2@@std@@@2@V?$allocator@E@2@@std@@_N@2@ABU?$pair@$$CBV?$basic_string@DU?$char_traits@D@std@@V?$allocator@D@2@@std@@E@2@@Z 0043bd20 f i UiChatCentre.obj
 0001:0003ad50       ?erase@?$_Tree@V?$basic_string@DU?$char_traits@D@std@@V?$allocator@D@2@@std@@U?$pair@$$CBV?$basic_string@DU?$char_traits@D@std@@V?$allocator@D@2@@std@@E@2@U_Kfn@?$map@V?$basic_string@DU?$char_traits@D@std@@V?$allocator@D@2@@std@@EU?$less@V?$basic_string@DU?$char_traits@D@std@@V?$allocator@D@2@@std@@@2@V?$allocator@E@2@@2@U?$less@V?$basic_string@DU?$char_traits@D@std@@V?$allocator@D@2@@std@@@2@V?$allocator@E@2@@std@@QAE?AViterator@12@V312@0@Z 0043bd50 f i UiChatCentre.obj
 0001:0003ae80       ?find@?$_Tree@V?$basic_string@DU?$char_traits@D@std@@V?$allocator@D@2@@std@@U?$pair@$$CBV?$basic_string@DU?$char_traits@D@std@@V?$allocator@D@2@@std@@E@2@U_Kfn@?$map@V?$basic_string@DU?$char_traits@D@std@@V?$allocator@D@2@@std@@EU?$less@V?$basic_string@DU?$char_traits@D@std@@V?$allocator@D@2@@std@@@2@V?$allocator@E@2@@2@U?$less@V?$basic_string@DU?$char_traits@D@std@@V?$allocator@D@2@@std@@@2@V?$allocator@E@2@@std@@QAE?AViterator@12@ABV?$basic_string@DU?$char_traits@D@std@@V?$allocator@D@2@@2@@Z 0043be80 f i UiChatCentre.obj
 0001:0003aee0       ??0?$pair@$$CBV?$basic_string@DU?$char_traits@D@std@@V?$allocator@D@2@@std@@E@std@@QAE@ABV?$basic_string@DU?$char_traits@D@std@@V?$allocator@D@2@@1@ABE@Z 0043bee0 f i UiChatCentre.obj
 0001:0003b030       ?insert@?$list@V?$basic_string@DU?$char_traits@D@std@@V?$allocator@D@2@@std@@V?$allocator@V?$basic_string@DU?$char_traits@D@std@@V?$allocator@D@2@@std@@@2@@std@@QAE?AViterator@12@V312@ABV?$basic_string@DU?$char_traits@D@std@@V?$allocator@D@2@@2@@Z 0043c030 f i UiChatCentre.obj
 0001:0003b090       ?erase@?$list@V?$basic_string@DU?$char_traits@D@std@@V?$allocator@D@2@@std@@V?$allocator@V?$basic_string@DU?$char_traits@D@std@@V?$allocator@D@2@@std@@@2@@std@@QAE?AViterator@12@V312@0@Z 0043c090 f i UiChatCentre.obj
 0001:0003b120       ?_Buynode@?$list@V?$basic_string@DU?$char_traits@D@std@@V?$allocator@D@2@@std@@V?$allocator@V?$basic_string@DU?$char_traits@D@std@@V?$allocator@D@2@@std@@@2@@std@@IAEPAU_Node@12@PAU312@0@Z 0043c120 f i UiChatCentre.obj
 0001:0003b150       ?insert@?$_Tree@V?$basic_string@DU?$char_traits@D@std@@V?$allocator@D@2@@std@@U?$pair@$$CBV?$basic_string@DU?$char_traits@D@std@@V?$allocator@D@2@@std@@V12@@2@U_Kfn@?$map@V?$basic_string@DU?$char_traits@D@std@@V?$allocator@D@2@@std@@V12@U?$less@V?$basic_string@DU?$char_traits@D@std@@V?$allocator@D@2@@std@@@2@V?$allocator@V?$basic_string@DU?$char_traits@D@std@@V?$allocator@D@2@@std@@@2@@2@U?$less@V?$basic_string@DU?$char_traits@D@std@@V?$allocator@D@2@@std@@@2@V?$allocator@V?$basic_string@DU?$char_traits@D@std@@V?$allocator@D@2@@std@@@2@@std@@QAE?AU?$pair@Viterator@?$_Tree@V?$basic_string@DU?$char_traits@D@std@@V?$allocator@D@2@@std@@U?$pair@$$CBV?$basic_string@DU?$char_traits@D@std@@V?$allocator@D@2@@std@@V12@@2@U_Kfn@?$map@V?$basic_string@DU?$char_traits@D@std@@V?$allocator@D@2@@std@@V12@U?$less@V?$basic_string@DU?$char_traits@D@std@@V?$allocator@D@2@@std@@@2@V?$allocator@V?$basic_string@DU?$char_traits@D@std@@V?$allocator@D@2@@std@@@2@@2@U?$less@V?$basic_string@DU?$char_traits@D@std@@V?$allocator@D@2@@std@@@2@V?$allocator@V?$basic_string@DU?$char_traits@D@std@@V?$allocator@D@2@@std@@@2@@std@@_N@2@ABU?$pair@$$CBV?$basic_string@DU?$char_traits@D@std@@V?$allocator@D@2@@std@@V12@@2@@Z 0043c150 f i UiChatCentre.obj
 0001:0003b2b0       ?lower_bound@?$_Tree@V?$basic_string@DU?$char_traits@D@std@@V?$allocator@D@2@@std@@U?$pair@$$CBV?$basic_string@DU?$char_traits@D@std@@V?$allocator@D@2@@std@@V12@@2@U_Kfn@?$map@V?$basic_string@DU?$char_traits@D@std@@V?$allocator@D@2@@std@@V12@U?$less@V?$basic_string@DU?$char_traits@D@std@@V?$allocator@D@2@@std@@@2@V?$allocator@V?$basic_string@DU?$char_traits@D@std@@V?$allocator@D@2@@std@@@2@@2@U?$less@V?$basic_string@DU?$char_traits@D@std@@V?$allocator@D@2@@std@@@2@V?$allocator@V?$basic_string@DU?$char_traits@D@std@@V?$allocator@D@2@@std@@@2@@std@@QAE?AViterator@12@ABV?$basic_string@DU?$char_traits@D@std@@V?$allocator@D@2@@2@@Z 0043c2b0 f i UiChatCentre.obj
 0001:0003b2d0       ?_Copy@?$_Tree@V?$basic_string@DU?$char_traits@D@std@@V?$allocator@D@2@@std@@U?$pair@$$CBV?$basic_string@DU?$char_traits@D@std@@V?$allocator@D@2@@std@@V12@@2@U_Kfn@?$map@V?$basic_string@DU?$char_traits@D@std@@V?$allocator@D@2@@std@@V12@U?$less@V?$basic_string@DU?$char_traits@D@std@@V?$allocator@D@2@@std@@@2@V?$allocator@V?$basic_string@DU?$char_traits@D@std@@V?$allocator@D@2@@std@@@2@@2@U?$less@V?$basic_string@DU?$char_traits@D@std@@V?$allocator@D@2@@std@@@2@V?$allocator@V?$basic_string@DU?$char_traits@D@std@@V?$allocator@D@2@@std@@@2@@std@@IAEXABV12@@Z 0043c2d0 f i UiChatCentre.obj
 0001:0003b440       ?_Erase@?$_Tree@V?$basic_string@DU?$char_traits@D@std@@V?$allocator@D@2@@std@@U?$pair@$$CBV?$basic_string@DU?$char_traits@D@std@@V?$allocator@D@2@@std@@V12@@2@U_Kfn@?$map@V?$basic_string@DU?$char_traits@D@std@@V?$allocator@D@2@@std@@V12@U?$less@V?$basic_string@DU?$char_traits@D@std@@V?$allocator@D@2@@std@@@2@V?$allocator@V?$basic_string@DU?$char_traits@D@std@@V?$allocator@D@2@@std@@@2@@2@U?$less@V?$basic_string@DU?$char_traits@D@std@@V?$allocator@D@2@@std@@@2@V?$allocator@V?$basic_string@DU?$char_traits@D@std@@V?$allocator@D@2@@std@@@2@@std@@IAEXPAU_Node@12@@Z 0043c440 f i UiChatCentre.obj
 0001:0003b520       ?_Init@?$_Tree@V?$basic_string@DU?$char_traits@D@std@@V?$allocator@D@2@@std@@U?$pair@$$CBV?$basic_string@DU?$char_traits@D@std@@V?$allocator@D@2@@std@@V12@@2@U_Kfn@?$map@V?$basic_string@DU?$char_traits@D@std@@V?$allocator@D@2@@std@@V12@U?$less@V?$basic_string@DU?$char_traits@D@std@@V?$allocator@D@2@@std@@@2@V?$allocator@V?$basic_string@DU?$char_traits@D@std@@V?$allocator@D@2@@std@@@2@@2@U?$less@V?$basic_string@DU?$char_traits@D@std@@V?$allocator@D@2@@std@@@2@V?$allocator@V?$basic_string@DU?$char_traits@D@std@@V?$allocator@D@2@@std@@@2@@std@@IAEXXZ 0043c520 f i UiChatCentre.obj
 0001:0003b5d0       ?_Inc@const_iterator@?$_Tree@V?$basic_string@DU?$char_traits@D@std@@V?$allocator@D@2@@std@@U?$pair@$$CBV?$basic_string@DU?$char_traits@D@std@@V?$allocator@D@2@@std@@V12@@2@U_Kfn@?$map@V?$basic_string@DU?$char_traits@D@std@@V?$allocator@D@2@@std@@V12@U?$less@V?$basic_string@DU?$char_traits@D@std@@V?$allocator@D@2@@std@@@2@V?$allocator@V?$basic_string@DU?$char_traits@D@std@@V?$allocator@D@2@@std@@@2@@2@U?$less@V?$basic_string@DU?$char_traits@D@std@@V?$allocator@D@2@@std@@@2@V?$allocator@V?$basic_string@DU?$char_traits@D@std@@V?$allocator@D@2@@std@@@2@@std@@QAEXXZ 0043c5d0 f i UiChatCentre.obj
 0001:0003b680       ?insert@?$_Tree@V?$basic_string@DU?$char_traits@D@std@@V?$allocator@D@2@@std@@U?$pair@$$CBV?$basic_string@DU?$char_traits@D@std@@V?$allocator@D@2@@std@@E@2@U_Kfn@?$map@V?$basic_string@DU?$char_traits@D@std@@V?$allocator@D@2@@std@@EU?$less@V?$basic_string@DU?$char_traits@D@std@@V?$allocator@D@2@@std@@@2@V?$allocator@E@2@@2@U?$less@V?$basic_string@DU?$char_traits@D@std@@V?$allocator@D@2@@std@@@2@V?$allocator@E@2@@std@@QAE?AU?$pair@Viterator@?$_Tree@V?$basic_string@DU?$char_traits@D@std@@V?$allocator@D@2@@std@@U?$pair@$$CBV?$basic_string@DU?$char_traits@D@std@@V?$allocator@D@2@@std@@E@2@U_Kfn@?$map@V?$basic_string@DU?$char_traits@D@std@@V?$allocator@D@2@@std@@EU?$less@V?$basic_string@DU?$char_traits@D@std@@V?$allocator@D@2@@std@@@2@V?$allocator@E@2@@2@U?$less@V?$basic_string@DU?$char_traits@D@std@@V?$allocator@D@2@@std@@@2@V?$allocator@E@2@@std@@_N@2@ABU?$pair@$$CBV?$basic_string@DU?$char_traits@D@std@@V?$allocator@D@2@@std@@E@2@@Z 0043c680 f i UiChatCentre.obj
 0001:0003b7e0       ?erase@?$_Tree@V?$basic_string@DU?$char_traits@D@std@@V?$allocator@D@2@@std@@U?$pair@$$CBV?$basic_string@DU?$char_traits@D@std@@V?$allocator@D@2@@std@@E@2@U_Kfn@?$map@V?$basic_string@DU?$char_traits@D@std@@V?$allocator@D@2@@std@@EU?$less@V?$basic_string@DU?$char_traits@D@std@@V?$allocator@D@2@@std@@@2@V?$allocator@E@2@@2@U?$less@V?$basic_string@DU?$char_traits@D@std@@V?$allocator@D@2@@std@@@2@V?$allocator@E@2@@std@@QAE?AViterator@12@V312@@Z 0043c7e0 f i UiChatCentre.obj
 0001:0003bd50       ?_Copy@?$_Tree@V?$basic_string@DU?$char_traits@D@std@@V?$allocator@D@2@@std@@U?$pair@$$CBV?$basic_string@DU?$char_traits@D@std@@V?$allocator@D@2@@std@@E@2@U_Kfn@?$map@V?$basic_string@DU?$char_traits@D@std@@V?$allocator@D@2@@std@@EU?$less@V?$basic_string@DU?$char_traits@D@std@@V?$allocator@D@2@@std@@@2@V?$allocator@E@2@@2@U?$less@V?$basic_string@DU?$char_traits@D@std@@V?$allocator@D@2@@std@@@2@V?$allocator@E@2@@std@@IAEXABV12@@Z 0043cd50 f i UiChatCentre.obj
 0001:0003bec0       ?_Erase@?$_Tree@V?$basic_string@DU?$char_traits@D@std@@V?$allocator@D@2@@std@@U?$pair@$$CBV?$basic_string@DU?$char_traits@D@std@@V?$allocator@D@2@@std@@E@2@U_Kfn@?$map@V?$basic_string@DU?$char_traits@D@std@@V?$allocator@D@2@@std@@EU?$less@V?$basic_string@DU?$char_traits@D@std@@V?$allocator@D@2@@std@@@2@V?$allocator@E@2@@2@U?$less@V?$basic_string@DU?$char_traits@D@std@@V?$allocator@D@2@@std@@@2@V?$allocator@E@2@@std@@IAEXPAU_Node@12@@Z 0043cec0 f i UiChatCentre.obj
 0001:0003bf70       ?erase@?$list@V?$basic_string@DU?$char_traits@D@std@@V?$allocator@D@2@@std@@V?$allocator@V?$basic_string@DU?$char_traits@D@std@@V?$allocator@D@2@@std@@@2@@std@@QAE?AViterator@12@V312@@Z 0043cf70 f i UiChatCentre.obj
 0001:0003bfe0       ??Eiterator@?$list@V?$basic_string@DU?$char_traits@D@std@@V?$allocator@D@2@@std@@V?$allocator@V?$basic_string@DU?$char_traits@D@std@@V?$allocator@D@2@@std@@@2@@std@@QAE?AV012@H@Z 0043cfe0 f i UiChatCentre.obj
 0001:0003bff0       ?_Copy@?$_Tree@V?$basic_string@DU?$char_traits@D@std@@V?$allocator@D@2@@std@@U?$pair@$$CBV?$basic_string@DU?$char_traits@D@std@@V?$allocator@D@2@@std@@V12@@2@U_Kfn@?$map@V?$basic_string@DU?$char_traits@D@std@@V?$allocator@D@2@@std@@V12@U?$less@V?$basic_string@DU?$char_traits@D@std@@V?$allocator@D@2@@std@@@2@V?$allocator@V?$basic_string@DU?$char_traits@D@std@@V?$allocator@D@2@@std@@@2@@2@U?$less@V?$basic_string@DU?$char_traits@D@std@@V?$allocator@D@2@@std@@@2@V?$allocator@V?$basic_string@DU?$char_traits@D@std@@V?$allocator@D@2@@std@@@2@@std@@IAEPAU_Node@12@PAU312@0@Z 0043cff0 f i UiChatCentre.obj
 0001:0003c130       ??3@YAXPAX0@Z              0043d130 f i UiChatCentre.obj
 0001:0003c140       ?_Insert@?$_Tree@V?$basic_string@DU?$char_traits@D@std@@V?$allocator@D@2@@std@@U?$pair@$$CBV?$basic_string@DU?$char_traits@D@std@@V?$allocator@D@2@@std@@V12@@2@U_Kfn@?$map@V?$basic_string@DU?$char_traits@D@std@@V?$allocator@D@2@@std@@V12@U?$less@V?$basic_string@DU?$char_traits@D@std@@V?$allocator@D@2@@std@@@2@V?$allocator@V?$basic_string@DU?$char_traits@D@std@@V?$allocator@D@2@@std@@@2@@2@U?$less@V?$basic_string@DU?$char_traits@D@std@@V?$allocator@D@2@@std@@@2@V?$allocator@V?$basic_string@DU?$char_traits@D@std@@V?$allocator@D@2@@std@@@2@@std@@IAE?AViterator@12@PAU_Node@12@0ABU?$pair@$$CBV?$basic_string@DU?$char_traits@D@std@@V?$allocator@D@2@@std@@V12@@2@@Z 0043d140 f i UiChatCentre.obj
 0001:0003c450       ?_Lbound@?$_Tree@V?$basic_string@DU?$char_traits@D@std@@V?$allocator@D@2@@std@@U?$pair@$$CBV?$basic_string@DU?$char_traits@D@std@@V?$allocator@D@2@@std@@V12@@2@U_Kfn@?$map@V?$basic_string@DU?$char_traits@D@std@@V?$allocator@D@2@@std@@V12@U?$less@V?$basic_string@DU?$char_traits@D@std@@V?$allocator@D@2@@std@@@2@V?$allocator@V?$basic_string@DU?$char_traits@D@std@@V?$allocator@D@2@@std@@@2@@2@U?$less@V?$basic_string@DU?$char_traits@D@std@@V?$allocator@D@2@@std@@@2@V?$allocator@V?$basic_string@DU?$char_traits@D@std@@V?$allocator@D@2@@std@@@2@@std@@IBEPAU_Node@12@ABV?$basic_string@DU?$char_traits@D@std@@V?$allocator@D@2@@2@@Z 0043d450 f i UiChatCentre.obj
 0001:0003c4f0       ?_Copy@?$_Tree@V?$basic_string@DU?$char_traits@D@std@@V?$allocator@D@2@@std@@U?$pair@$$CBV?$basic_string@DU?$char_traits@D@std@@V?$allocator@D@2@@std@@E@2@U_Kfn@?$map@V?$basic_string@DU?$char_traits@D@std@@V?$allocator@D@2@@std@@EU?$less@V?$basic_string@DU?$char_traits@D@std@@V?$allocator@D@2@@std@@@2@V?$allocator@E@2@@2@U?$less@V?$basic_string@DU?$char_traits@D@std@@V?$allocator@D@2@@std@@@2@V?$allocator@E@2@@std@@IAEPAU_Node@12@PAU312@0@Z 0043d4f0 f i UiChatCentre.obj
 0001:0003c600       ?_Insert@?$_Tree@V?$basic_string@DU?$char_traits@D@std@@V?$allocator@D@2@@std@@U?$pair@$$CBV?$basic_string@DU?$char_traits@D@std@@V?$allocator@D@2@@std@@E@2@U_Kfn@?$map@V?$basic_string@DU?$char_traits@D@std@@V?$allocator@D@2@@std@@EU?$less@V?$basic_string@DU?$char_traits@D@std@@V?$allocator@D@2@@std@@@2@V?$allocator@E@2@@2@U?$less@V?$basic_string@DU?$char_traits@D@std@@V?$allocator@D@2@@std@@@2@V?$allocator@E@2@@std@@IAE?AViterator@12@PAU_Node@12@0ABU?$pair@$$CBV?$basic_string@DU?$char_traits@D@std@@V?$allocator@D@2@@std@@E@2@@Z 0043d600 f i UiChatCentre.obj
 0001:0003c910       ?_Lbound@?$_Tree@V?$basic_string@DU?$char_traits@D@std@@V?$allocator@D@2@@std@@U?$pair@$$CBV?$basic_string@DU?$char_traits@D@std@@V?$allocator@D@2@@std@@E@2@U_Kfn@?$map@V?$basic_string@DU?$char_traits@D@std@@V?$allocator@D@2@@std@@EU?$less@V?$basic_string@DU?$char_traits@D@std@@V?$allocator@D@2@@std@@@2@V?$allocator@E@2@@2@U?$less@V?$basic_string@DU?$char_traits@D@std@@V?$allocator@D@2@@std@@@2@V?$allocator@E@2@@std@@IBEPAU_Node@12@ABV?$basic_string@DU?$char_traits@D@std@@V?$allocator@D@2@@2@@Z 0043d910 f i UiChatCentre.obj
 0001:0003c9b0       ?_Dec@const_iterator@?$_Tree@V?$basic_string@DU?$char_traits@D@std@@V?$allocator@D@2@@std@@U?$pair@$$CBV?$basic_string@DU?$char_traits@D@std@@V?$allocator@D@2@@std@@V12@@2@U_Kfn@?$map@V?$basic_string@DU?$char_traits@D@std@@V?$allocator@D@2@@std@@V12@U?$less@V?$basic_string@DU?$char_traits@D@std@@V?$allocator@D@2@@std@@@2@V?$allocator@V?$basic_string@DU?$char_traits@D@std@@V?$allocator@D@2@@std@@@2@@2@U?$less@V?$basic_string@DU?$char_traits@D@std@@V?$allocator@D@2@@std@@@2@V?$allocator@V?$basic_string@DU?$char_traits@D@std@@V?$allocator@D@2@@std@@@2@@std@@QAEXXZ 0043d9b0 f i UiChatCentre.obj
 0001:0003ca70       ?_Dec@const_iterator@?$_Tree@V?$basic_string@DU?$char_traits@D@std@@V?$allocator@D@2@@std@@U?$pair@$$CBV?$basic_string@DU?$char_traits@D@std@@V?$allocator@D@2@@std@@E@2@U_Kfn@?$map@V?$basic_string@DU?$char_traits@D@std@@V?$allocator@D@2@@std@@EU?$less@V?$basic_string@DU?$char_traits@D@std@@V?$allocator@D@2@@std@@@2@V?$allocator@E@2@@2@U?$less@V?$basic_string@DU?$char_traits@D@std@@V?$allocator@D@2@@std@@@2@V?$allocator@E@2@@std@@QAEXXZ 0043da70 f i UiChatCentre.obj
 0001:0003cb30       ?_Inc@const_iterator@?$_Tree@V?$basic_string@DU?$char_traits@D@std@@V?$allocator@D@2@@std@@U?$pair@$$CBV?$basic_string@DU?$char_traits@D@std@@V?$allocator@D@2@@std@@E@2@U_Kfn@?$map@V?$basic_string@DU?$char_traits@D@std@@V?$allocator@D@2@@std@@EU?$less@V?$basic_string@DU?$char_traits@D@std@@V?$allocator@D@2@@std@@@2@V?$allocator@E@2@@2@U?$less@V?$basic_string@DU?$char_traits@D@std@@V?$allocator@D@2@@std@@@2@V?$allocator@E@2@@std@@QAEXXZ 0043db30 f i UiChatCentre.obj
 0001:0003cbe0       ?_Construct@std@@YAXPAV?$basic_string@DU?$char_traits@D@std@@V?$allocator@D@2@@1@ABV21@@Z 0043dbe0 f i UiChatCentre.obj
 0001:0003cd50       ?_Construct@std@@YAXPAU?$pair@$$CBV?$basic_string@DU?$char_traits@D@std@@V?$allocator@D@2@@std@@V12@@1@ABU21@@Z 0043dd50 f i UiChatCentre.obj
 0001:0003ceb0       ?_Construct@std@@YAXPAU?$pair@$$CBV?$basic_string@DU?$char_traits@D@std@@V?$allocator@D@2@@std@@E@1@ABU21@@Z 0043deb0 f i UiChatCentre.obj
 0001:0003d050       ??0KUiChatPhrase@@QAE@XZ   0043e050 f   UiChatPhrase.obj
 0001:0003d070       ??1KUiChatPhrase@@QAE@XZ   0043e070 f   UiChatPhrase.obj
 0001:0003d0b0       ?ClearAllPhrase@KUiChatPhrase@@QAEXXZ 0043e0b0 f   UiChatPhrase.obj
 0001:0003d0d0       ?GetPhrase@KUiChatPhrase@@QAEHHPAD@Z 0043e0d0 f   UiChatPhrase.obj
 0001:0003d120       ?SetPhrase@KUiChatPhrase@@QAEHHPADH@Z 0043e120 f   UiChatPhrase.obj
 0001:0003d190       ?GetPhraseCount@KUiChatPhrase@@QAEHXZ 0043e190 f   UiChatPhrase.obj
 0001:0003d1a0       ?SavePrivateSetting@KUiChatPhrase@@QAEHPAVKIniFile@@PBDH@Z 0043e1a0 f   UiChatPhrase.obj
 0001:0003d240       ?LoadEntireEmote@KUiChatPhrase@@QAEHXZ 0043e240 f   UiChatPhrase.obj
 0001:0003d340       ?SetEmote@KUiChatPhrase@@QAEHPAD000H@Z 0043e340 f   UiChatPhrase.obj
 0001:0003d490       ?LoadEmotePhrase@KUiChatPhrase@@AAEHPAVKIniFile@@@Z 0043e490 f   UiChatPhrase.obj
 0001:0003d510       ?LoadMenuEmote@KUiChatPhrase@@AAEHPAVKIniFile@@@Z 0043e510 f   UiChatPhrase.obj
 0001:0003d5a0       ?HandleLoad@KUiChatPhrase@@AAEHPAVKIniFile@@PAUEMOTE_PHRASE@1@HPBD@Z 0043e5a0 f   UiChatPhrase.obj
 0001:0003d700       ?ConstructFunctionAlias@KUiChatPhrase@@QAEHXZ 0043e700 f   UiChatPhrase.obj
 0001:0003dad0       ?GetEmoteCount@KUiChatPhrase@@QAEHW4EMOTE_TYPE@1@@Z 0043ead0 f   UiChatPhrase.obj
 0001:0003daf0       ?GetEmote@KUiChatPhrase@@QAEHPBDPADHH@Z 0043eaf0 f   UiChatPhrase.obj
 0001:0003db40       ?GetEmote@KUiChatPhrase@@QAEHHPADHH@Z 0043eb40 f   UiChatPhrase.obj
 0001:0003dc50       ?GetMenuEmote@KUiChatPhrase@@QAEHPBDPADHH@Z 0043ec50 f   UiChatPhrase.obj
 0001:0003dc80       ?GetMenuEmote@KUiChatPhrase@@QAEHHPADHH@Z 0043ec80 f   UiChatPhrase.obj
 0001:0003dd40       ?GetMenuEmoteName@KUiChatPhrase@@QAEHHPADH@Z 0043ed40 f   UiChatPhrase.obj
 0001:0003ddb0       ?FindEmote@KUiChatPhrase@@AAEHW4EMOTE_TYPE@1@PBD@Z 0043edb0 f   UiChatPhrase.obj
 0001:0003de70       ?ConvertEmoteString@KUiChatPhrase@@QAEHPADHPBD1@Z 0043ee70 f   UiChatPhrase.obj
 0001:0003e000       ?begin@?$list@V?$basic_string@DU?$char_traits@D@std@@V?$allocator@D@2@@std@@V?$allocator@V?$basic_string@DU?$char_traits@D@std@@V?$allocator@D@2@@std@@@2@@std@@QAE?AViterator@12@XZ 0043f000 f i UiChatPhrase.obj
 0001:0003e010       ?OpenWindow@KUiChatStatus@@SAPAV1@XZ 0043f010 f   UiChatStatus.obj
 0001:0003e170       ??_GKUiChatStatus@@EAEPAXI@Z 0043f170 f i UiChatStatus.obj
 0001:0003e170       ??_EKUiChatStatus@@EAEPAXI@Z 0043f170 f i UiChatStatus.obj
 0001:0003e190       ??1KUiChatStatus@@EAE@XZ   0043f190 f i UiChatStatus.obj
 0001:0003e2b0       ?GetIfVisible@KUiChatStatus@@SAPAV1@XZ 0043f2b0 f   UiChatStatus.obj
 0001:0003e2d0       ?CloseWindow@KUiChatStatus@@SAXXZ 0043f2d0 f   UiChatStatus.obj
 0001:0003e2f0       ?Initialize@KUiChatStatus@@AAEXXZ 0043f2f0 f   UiChatStatus.obj
 0001:0003e3f0       ?LoadScheme@KUiChatStatus@@SAXPBD@Z 0043f3f0 f   UiChatStatus.obj
 0001:0003e5f0       ?WndProc@KUiChatStatus@@EAEHIIH@Z 0043f5f0 f   UiChatStatus.obj
 0001:0003e830       ?OnAddMsg@KUiChatStatus@@AAEXXZ 0043f830 f   UiChatStatus.obj
 0001:0003e8a0       ?OnSelMsg@KUiChatStatus@@AAEXH@Z 0043f8a0 f   UiChatStatus.obj
 0001:0003e8f0       ?OnSetDefMsg@KUiChatStatus@@AAEXXZ 0043f8f0 f   UiChatStatus.obj
 0001:0003e940       ??1KUiInformation@@UAE@XZ  0043f940 f i UiInformation.obj
 0001:0003e9b0       ?UIMessageBox@@YAXPBDPAVKWndWindow@@00I@Z 0043f9b0 f   UiInformation.obj
 0001:0003e9e0       ?UiCloseMessageBox@@YAXXZ  0043f9e0 f   UiInformation.obj
 0001:0003e9f0       ??0KUiInformation@@QAE@XZ  0043f9f0 f   UiInformation.obj
 0001:0003ea70       ??_GKUiInformation@@UAEPAXI@Z 0043fa70 f i UiInformation.obj
 0001:0003ea70       ??_EKUiInformation@@UAEPAXI@Z 0043fa70 f i UiInformation.obj
 0001:0003ea90       ?Initialize@KUiInformation@@QAEXXZ 0043fa90 f   UiInformation.obj
 0001:0003eae0       ?LoadScheme@KUiInformation@@QAEXPBD@Z 0043fae0 f   UiInformation.obj
 0001:0003ec10       ?Show@KUiInformation@@QAEXPBD00PAVKWndWindow@@IH@Z 0043fc10 f   UiInformation.obj
 0001:0003ed20       ?Hide@KUiInformation@@AAEXH@Z 0043fd20 f   UiInformation.obj
 0001:0003ed70       ?Close@KUiInformation@@QAEXXZ 0043fd70 f   UiInformation.obj
 0001:0003ed90       ?WndProc@KUiInformation@@EAEHIIH@Z 0043fd90 f   UiInformation.obj
 0001:0003ee80       ?UIMessageBox2@@YAXPBDH0PAVKWndWindow@@I@Z 0043fe80 f   UiInformation2.obj
 0001:0003eec0       ??0KUiInformation2@@QAE@XZ 0043fec0 f   UiInformation2.obj
 0001:0003ef30       ?TopChildFromPoint@KUiInformation2@@UAEPAVKWndWindow@@HH@Z 0043ff30 f i UiInformation2.obj
 0001:0003ef40       ??_GKUiInformation2@@UAEPAXI@Z 0043ff40 f i UiInformation2.obj
 0001:0003ef40       ??_EKUiInformation2@@UAEPAXI@Z 0043ff40 f i UiInformation2.obj
 0001:0003ef60       ?SpeakWords@KUiInformation2@@QAEXPAUKUiInformationParam@@H@Z 0043ff60 f   UiInformation2.obj
 0001:0003f0b0       ?Initialize@KUiInformation2@@QAEXXZ 004400b0 f   UiInformation2.obj
 0001:0003f0f0       ?LoadScheme@KUiInformation2@@QAEXPBD@Z 004400f0 f   UiInformation2.obj
 0001:0003f1b0       ?Show@KUiInformation2@@QAEXPBDH0PAVKWndWindow@@I@Z 004401b0 f   UiInformation2.obj
 0001:0003f210       ?Hide@KUiInformation2@@UAEXXZ 00440210 f   UiInformation2.obj
 0001:0003f300       ?WndProc@KUiInformation2@@EAEHIIH@Z 00440300 f   UiInformation2.obj
 0001:0003f3a0       ?Close@KUiInformation2@@QAEXXZ 004403a0 f   UiInformation2.obj
 0001:0003f3e0       ??1KUiInformation2@@UAE@XZ 004403e0 f   UiInformation2.obj
 0001:0003f480       ??1KUiInformation3@@UAE@XZ 00440480 f i UiInformation3.obj
 0001:0003f500       ?UIMessageBox3@@YAXPBDPAVKWndWindow@@000I@Z 00440500 f   UiInformation3.obj
 0001:0003f530       ?UiCloseMessageBox3@@YAXXZ 00440530 f   UiInformation3.obj
 0001:0003f540       ??0KUiInformation3@@QAE@XZ 00440540 f   UiInformation3.obj
 0001:0003f5d0       ??_GKUiInformation3@@UAEPAXI@Z 004405d0 f i UiInformation3.obj
 0001:0003f5d0       ??_EKUiInformation3@@UAEPAXI@Z 004405d0 f i UiInformation3.obj
 0001:0003f5f0       ?Initialize@KUiInformation3@@QAEXXZ 004405f0 f   UiInformation3.obj
 0001:0003f650       ?LoadScheme@KUiInformation3@@QAEXPBD@Z 00440650 f   UiInformation3.obj
 0001:0003f760       ?Show@KUiInformation3@@QAEXPBD000PAVKWndWindow@@IH@Z 00440760 f   UiInformation3.obj
 0001:0003f850       ?Hide@KUiInformation3@@AAEXH@Z 00440850 f   UiInformation3.obj
 0001:0003f8a0       ?Close@KUiInformation3@@QAEXXZ 004408a0 f   UiInformation3.obj
 0001:0003f8c0       ?WndProc@KUiInformation3@@EAEHIIH@Z 004408c0 f   UiInformation3.obj
 0001:0003f990       ??0KUiTeamManage@@AAE@XZ   00440990 f   UiTeamManage.obj
 0001:0003fac0       ??_EKUiTeamManage@@EAEPAXI@Z 00440ac0 f i UiTeamManage.obj
 0001:0003fac0       ??_GKUiTeamManage@@EAEPAXI@Z 00440ac0 f i UiTeamManage.obj
 0001:0003fae0       ??1KUiTeamManage@@EAE@XZ   00440ae0 f i UiTeamManage.obj
 0001:0003fc30       ?GetIfVisible@KUiTeamManage@@SAPAV1@XZ 00440c30 f   UiTeamManage.obj
 0001:0003fc50       ?OpenWindow@KUiTeamManage@@SAPAV1@XZ 00440c50 f   UiTeamManage.obj
 0001:0003fd00       ?CloseWindow@KUiTeamManage@@SAXXZ 00440d00 f   UiTeamManage.obj
 0001:0003fd30       ?Initialize@KUiTeamManage@@AAEXXZ 00440d30 f   UiTeamManage.obj
 0001:0003fe50       ?LoadScheme@KUiTeamManage@@AAEXPAVKIniFile@@@Z 00440e50 f   UiTeamManage.obj
 0001:0003ff80       ?LoadScheme@KUiTeamManage@@SAXPBD@Z 00440f80 f   UiTeamManage.obj
 0001:00040030       ?WndProc@KUiTeamManage@@MAEHIIH@Z 00441030 f   UiTeamManage.obj
 0001:000401b0       ?OnSelTeamMember@KUiTeamManage@@IAEXH@Z 004411b0 f   UiTeamManage.obj
 0001:00040260       ?OnSelNearby@KUiTeamManage@@IAEXH@Z 00441260 f   UiTeamManage.obj
 0001:000402b0       ?Clear@KUiTeamManage@@IAEXXZ 004412b0 f   UiTeamManage.obj
 0001:00040390       ?UpdateData@KUiTeamManage@@QAEXPAUKUiPlayerTeam@@@Z 00441390 f   UiTeamManage.obj
 0001:000405d0       ?OnAppoint@KUiTeamManage@@IAEXXZ 004415d0 f   UiTeamManage.obj
 0001:00040610       ?OnKick@KUiTeamManage@@IAEXXZ 00441610 f   UiTeamManage.obj
 0001:00040650       ?OnInvite@KUiTeamManage@@IAEXXZ 00441650 f   UiTeamManage.obj
 0001:000406a0       ?OnRefresh@KUiTeamManage@@IAEXXZ 004416a0 f   UiTeamManage.obj
 0001:00040740       ?OnLeave@KUiTeamManage@@IAEXXZ 00441740 f   UiTeamManage.obj
 0001:00040760       ??0KUiTeamManageBar@@AAE@XZ 00441760 f   UiTeamManage.obj
 0001:00040a90       ??_GKUiTeamManageBar@@EAEPAXI@Z 00441a90 f i UiTeamManage.obj
 0001:00040a90       ??_EKUiTeamManageBar@@EAEPAXI@Z 00441a90 f i UiTeamManage.obj
 0001:00040ab0       ??1KUiTeamManageBar@@EAE@XZ 00441ab0 f i UiTeamManage.obj
 0001:00040f40       ?GetIfVisible@KUiTeamManageBar@@SAPAV1@XZ 00441f40 f   UiTeamManage.obj
 0001:00040f60       ?OpenWindow@KUiTeamManageBar@@SAPAV1@XZ 00441f60 f   UiTeamManage.obj
 0001:00041000       ?CloseWindow@KUiTeamManageBar@@SAXH@Z 00442000 f   UiTeamManage.obj
 0001:00041040       ?Initialize@KUiTeamManageBar@@AAEXXZ 00442040 f   UiTeamManage.obj
 0001:000412e0       ?LoadScheme@KUiTeamManageBar@@AAEXPAVKIniFile@@@Z 004422e0 f   UiTeamManage.obj
 0001:000416a0       ?LoadScheme@KUiTeamManageBar@@SAXPBD@Z 004426a0 f   UiTeamManage.obj
 0001:00041750       ?WndProc@KUiTeamManageBar@@MAEHIIH@Z 00442750 f   UiTeamManage.obj
 0001:000418d0       ?ClearTeamManageBar@KUiTeamManageBar@@IAEXXZ 004428d0 f   UiTeamManage.obj
 0001:00041910       ?UpdateData@KUiTeamManageBar@@QAEXPAUKUiPlayerTeam@@@Z 00442910 f   UiTeamManage.obj
 0001:00041a20       ?Breathe@KUiTeamManageBar@@EAEXXZ 00442a20 f   UiTeamManage.obj
 0001:00041a60       ?OnHideShow@KUiTeamManageBar@@AAEXXZ 00442a60 f   UiTeamManage.obj
 0001:00041ad0       ?HideInfo@KUiTeamManageBar@@AAEXH@Z 00442ad0 f   UiTeamManage.obj
 0001:00041db0       ?ShowInfo@KUiTeamManageBar@@AAEXH@Z 00442db0 f   UiTeamManage.obj
 0001:00042090       ?DisplayInfo@KUiTeamManageBar@@AAEXH@Z 00443090 f   UiTeamManage.obj
 0001:00042c10       ?PopupTeamBarPlayer@KUiTeamManageBar@@AAEXH@Z 00443c10 f   UiTeamManage.obj
 0001:00042db0       ?ActionPopupTeamBarPlayer@KUiTeamManageBar@@AAEXHH@Z 00443db0 f   UiTeamManage.obj
 0001:00042ea0       ??0KUiTeamStatus@@AAE@XZ   00443ea0 f   UiTeamStatus.obj
 0001:00042f40       ??_EKUiTeamStatus@@EAEPAXI@Z 00443f40 f i UiTeamStatus.obj
 0001:00042f40       ??_GKUiTeamStatus@@EAEPAXI@Z 00443f40 f i UiTeamStatus.obj
 0001:00042f60       ??1KUiTeamStatus@@EAE@XZ   00443f60 f i UiTeamStatus.obj
 0001:00042ff0       ?GetIfVisible@KUiTeamStatus@@SAPAV1@XZ 00443ff0 f   UiTeamStatus.obj
 0001:00043010       ?OpenWindow@KUiTeamStatus@@SAPAV1@XZ 00444010 f   UiTeamStatus.obj
 0001:000430a0       ?CloseWindow@KUiTeamStatus@@SAX_N@Z 004440a0 f   UiTeamStatus.obj
 0001:000430f0       ?Initialize@KUiTeamStatus@@AAEXXZ 004440f0 f   UiTeamStatus.obj
 0001:00043160       ?LoadScheme@KUiTeamStatus@@AAEXPBD@Z 00444160 f   UiTeamStatus.obj
 0001:000432f0       ?Breathe@KUiTeamStatus@@EAEXXZ 004442f0 f   UiTeamStatus.obj
 0001:00043310       ?Clear@KUiTeamStatus@@AAEX_N@Z 00444310 f   UiTeamStatus.obj
 0001:00043370       ?UpdateData@KUiTeamStatus@@AAEXPAUKUiPlayerTeam@@@Z 00444370 f   UiTeamStatus.obj
 0001:00043480       ?UpdateNewState@KUiTeamStatus@@AAEXH@Z 00444480 f   UiTeamStatus.obj
 0001:00043490       ?UpdateTime@KUiTeamStatus@@AAEXXZ 00444490 f   UiTeamStatus.obj
 0001:000434a0       ?UpdateToolTip@KUiTeamStatus@@AAEXH_N@Z 004444a0 f   UiTeamStatus.obj
 0001:000434b0       ?WndProc@KUiTeamStatus@@EAEHIIH@Z 004444b0 f   UiTeamStatus.obj
 0001:000434e0       ?ConvertInfo@KUiTeamStatus@@AAEXPADH_N@Z 004444e0 f   UiTeamStatus.obj
 0001:000434f0       ?OpenWindow@KUiChatItemInfo@@SAPAV1@PBDH0HH@Z 004444f0 f   UiChatItemInfo.obj
 0001:000435f0       ?CloseWindow@KUiChatItemInfo@@SAXXZ 004445f0 f   UiChatItemInfo.obj
 0001:00043600       ??0KUiChatItemInfo@@AAE@XZ 00444600 f   UiChatItemInfo.obj
 0001:000436b0       ??_EKUiChatItemInfo@@EAEPAXI@Z 004446b0 f i UiChatItemInfo.obj
 0001:000436b0       ??_GKUiChatItemInfo@@EAEPAXI@Z 004446b0 f i UiChatItemInfo.obj
 0001:000436d0       ??1KUiChatItemInfo@@EAE@XZ 004446d0 f i UiChatItemInfo.obj
 0001:00043730       ?GetIfVisible@KUiChatItemInfo@@SAPAV1@XZ 00444730 f   UiChatItemInfo.obj
 0001:00043750       ?UpdateData@KUiChatItemInfo@@AAEXPBD@Z 00444750 f   UiChatItemInfo.obj
 0001:000437b0       ?Initialize@KUiChatItemInfo@@AAEXXZ 004447b0 f   UiChatItemInfo.obj
 0001:00043800       ?WndProc@KUiChatItemInfo@@EAEHIIH@Z 00444800 f   UiChatItemInfo.obj
 0001:00043840       ?LoadScheme@KUiChatItemInfo@@QAEXPBD@Z 00444840 f   UiChatItemInfo.obj
 0001:00043a80       ?Breathe@KUiChatItemInfo@@EAEXXZ 00444a80 f   UiChatItemInfo.obj
 0001:00043aa0       ?PaintWindow@KUiChatItemInfo@@EAEXXZ 00444aa0 f   UiChatItemInfo.obj
 0001:00043d50       ?Show@KUiChatItemInfo@@EAEXXZ 00444d50 f   UiChatItemInfo.obj
 0001:00043dd0       ?Hide@KUiChatItemInfo@@EAEXXZ 00444dd0 f   UiChatItemInfo.obj
 0001:00043df0       ?OpenWindow@KUiHeaderControlBar@@SAPAV1@XZ 00444df0 f   UiHeaderControlBar.obj
 0001:00043ea0       ??_EKUiHeaderControlBar@@EAEPAXI@Z 00444ea0 f i UiHeaderControlBar.obj
 0001:00043ea0       ??_GKUiHeaderControlBar@@EAEPAXI@Z 00444ea0 f i UiHeaderControlBar.obj
 0001:00043ec0       ??1KUiHeaderControlBar@@EAE@XZ 00444ec0 f i UiHeaderControlBar.obj
 0001:00043f30       ?CloseWindow@KUiHeaderControlBar@@SAXXZ 00444f30 f   UiHeaderControlBar.obj
 0001:00043f50       ?Initialize@KUiHeaderControlBar@@AAEXXZ 00444f50 f   UiHeaderControlBar.obj
 0001:00043fb0       ?LoadScheme@KUiHeaderControlBar@@SAXPBD@Z 00444fb0 f   UiHeaderControlBar.obj
 0001:00044090       ?DefaultScheme@KUiHeaderControlBar@@SAXPBD@Z 00445090 f   UiHeaderControlBar.obj
 0001:00044170       ?Breathe@KUiHeaderControlBar@@EAEXXZ 00445170 f   UiHeaderControlBar.obj
 0001:00044180       ?VerticalSplitTwoWindow@@YAHPAVKWndWindow@@0H@Z 00445180 f   UiMsgCentrePad.obj
 0001:00044280       ?WndProc@KSysMsgCentrePad@@UAEHIIH@Z 00445280 f   UiMsgCentrePad.obj
 0001:000443f0       ?ScrollBottom@KSysMsgCentrePad@@QAEXXZ 004453f0 f   UiMsgCentrePad.obj
 0001:00044430       ?OpenWindow@KUiMsgCentrePad@@SAPAV1@XZ 00445430 f   UiMsgCentrePad.obj
 0001:000444e0       ?CloseWindow@KUiMsgCentrePad@@SAX_N@Z 004454e0 f   UiMsgCentrePad.obj
 0001:00044540       ??0KUiMsgCentrePad@@AAE@XZ 00445540 f   UiMsgCentrePad.obj
 0001:000446d0       ??_GKUiMsgCentrePad@@EAEPAXI@Z 004456d0 f i UiMsgCentrePad.obj
 0001:000446d0       ??_EKUiMsgCentrePad@@EAEPAXI@Z 004456d0 f i UiMsgCentrePad.obj
 0001:000446f0       ??1KUiMsgCentrePad@@EAE@XZ 004456f0 f i UiMsgCentrePad.obj
 0001:00044810       ??1KSysMsgCentrePad@@UAE@XZ 00445810 f i UiMsgCentrePad.obj
 0001:00044890       ??_GKSysMsgCentrePad@@UAEPAXI@Z 00445890 f i UiMsgCentrePad.obj
 0001:00044890       ??_EKSysMsgCentrePad@@UAEPAXI@Z 00445890 f i UiMsgCentrePad.obj
 0001:000448b0       ?SetAutoDelMsgInterval@KUiMsgCentrePad@@AAEXI@Z 004458b0 f   UiMsgCentrePad.obj
 0001:000448d0       ?SystemMessageArrival@KUiMsgCentrePad@@SAXPBDG@Z 004458d0 f   UiMsgCentrePad.obj
 0001:00044950       ?ChannelMessageArrival@KUiMsgCentrePad@@AAEXHPADPBDGPAVKWndMessageListBox@@_N11@Z 00445950 f   UiMsgCentrePad.obj
 0001:00045080       ?MSNMessageArrival@KUiMsgCentrePad@@AAEXPAD0PBDG11@Z 00446080 f   UiMsgCentrePad.obj
 0001:000452d0       ?ShowMSNMessage@KUiMsgCentrePad@@AAEXPADPBDGTKRColor@@22G11@Z 004462d0 f   UiMsgCentrePad.obj
 0001:00045730       ?NewChannelMessageArrival@KUiMsgCentrePad@@SAHKPADPBDG11@Z 00446730 f   UiMsgCentrePad.obj
 0001:000457a0       ?NewMSNMessageArrival@KUiMsgCentrePad@@SAXPAD0PBDG11@Z 004467a0 f   UiMsgCentrePad.obj
 0001:000457e0       ?ShowSomeoneMessage@KUiMsgCentrePad@@SAXPADPBDG@Z 004467e0 f   UiMsgCentrePad.obj
 0001:00045880       ?OpenChannel@KUiMsgCentrePad@@SAXPADKE@Z 00446880 f   UiMsgCentrePad.obj
 0001:000459a0       ?CloseActivateChannel@KUiMsgCentrePad@@AAEXH@Z 004469a0 f   UiMsgCentrePad.obj
 0001:000459f0       ?QueryAllChannel@KUiMsgCentrePad@@SAXXZ 004469f0 f   UiMsgCentrePad.obj
 0001:00045a20       ?ReplaceChannelName@KUiMsgCentrePad@@SAXPADI0@Z 00446a20 f   UiMsgCentrePad.obj
 0001:00045ae0       ?ReplaceSpecialField@KUiMsgCentrePad@@SA_NPAD0@Z 00446ae0 f   UiMsgCentrePad.obj
 0001:00045d70       ?CloseSelfChannel@KUiMsgCentrePad@@SAXW4SelfChannel@1@@Z 00446d70 f   UiMsgCentrePad.obj
 0001:00045dc0       ?GetChannelSubscribe@KUiMsgCentrePad@@SA_NH@Z 00446dc0 f   UiMsgCentrePad.obj
 0001:00045e00       ?IsChannelType@KUiMsgCentrePad@@SA_NHW4SelfChannel@1@@Z 00446e00 f   UiMsgCentrePad.obj
 0001:00045e50       ?FindActivateChannelResourceIndex@KUiMsgCentrePad@@AAEHPAD@Z 00446e50 f   UiMsgCentrePad.obj
 0001:00045f00       ?FindActivateChannelIndex@KUiMsgCentrePad@@AAEHPAD@Z 00446f00 f   UiMsgCentrePad.obj
 0001:00045fa0       ?FindActivateChannelIndex@KUiMsgCentrePad@@AAEHK@Z 00446fa0 f   UiMsgCentrePad.obj
 0001:00045fd0       ?FindActivateChannelCost@KUiMsgCentrePad@@AAEEK@Z 00446fd0 f   UiMsgCentrePad.obj
 0001:00046020       ?FindChannelResourceIndex@KUiMsgCentrePad@@AAEHPAD@Z 00447020 f   UiMsgCentrePad.obj
 0001:000460a0       ?FindActivateChannelIndexByKey@KUiMsgCentrePad@@AAEHPAD@Z 004470a0 f   UiMsgCentrePad.obj
 0001:00046120       ?IsNeverCloseActivateChannel@KUiMsgCentrePad@@AAEHH@Z 00447120 f   UiMsgCentrePad.obj
 0001:00046170       ?GetChannelMenuinfo@KUiMsgCentrePad@@SA_NHPAG0PATKRColor@@1PADPAF@Z 00447170 f   UiMsgCentrePad.obj
 0001:000462e0       ?GetChannelID@KUiMsgCentrePad@@SAKH@Z 004472e0 f   UiMsgCentrePad.obj
 0001:00046320       ?GetChannelTitle@KUiMsgCentrePad@@SAPADH@Z 00447320 f   UiMsgCentrePad.obj
 0001:00046370       ?GetChannelCount@KUiMsgCentrePad@@SAKXZ 00447370 f   UiMsgCentrePad.obj
 0001:00046390       ?GetChannelIndex@KUiMsgCentrePad@@SAHPAD@Z 00447390 f   UiMsgCentrePad.obj
 0001:000463b0       ?GetChannelIndex@KUiMsgCentrePad@@SAHK@Z 004473b0 f   UiMsgCentrePad.obj
 0001:000463d0       ?GetChannelCost@KUiMsgCentrePad@@SAEK@Z 004473d0 f   UiMsgCentrePad.obj
 0001:000463f0       ?PushChannelData@KUiMsgCentrePad@@SAHKPBDH@Z 004473f0 f   UiMsgCentrePad.obj
 0001:00046520       ?GetChannelData@KUiMsgCentrePad@@SAHAAKAAEAAPADAAH@Z 00447520 f   UiMsgCentrePad.obj
 0001:000465d0       ?PopChannelData@KUiMsgCentrePad@@SAHK@Z 004475d0 f   UiMsgCentrePad.obj
 0001:000466a0       ?SetReply@KUiMsgCentrePad@@SAXPBDH@Z 004476a0 f   UiMsgCentrePad.obj
 0001:00046730       ?ClearReply@KUiMsgCentrePad@@SAXXZ 00447730 f   UiMsgCentrePad.obj
 0001:000467a0       ?GetPeopleMenuinfo@KUiMsgCentrePad@@SA_NPADPAG1PATKRColor@@2@Z 004477a0 f   UiMsgCentrePad.obj
 0001:00046880       ?SendQueryChannelID@KUiMsgCentrePad@@AAEXH@Z 00447880 f   UiMsgCentrePad.obj
 0001:00046930       ?SendChannelSubscribe@KUiMsgCentrePad@@AAEXH_N@Z 00447930 f   UiMsgCentrePad.obj
 0001:000469a0       ?AddActivateChannel@KUiMsgCentrePad@@AAEHABUKChannelActivateInfo@@@Z 004479a0 f   UiMsgCentrePad.obj
 0001:00046a90       ?ReleaseActivateChannel@KUiMsgCentrePad@@AAEHH@Z 00447a90 f   UiMsgCentrePad.obj
 0001:00046b10       ?ReleaseActivateChannelAll@KUiMsgCentrePad@@SAHXZ 00447b10 f   UiMsgCentrePad.obj
 0001:00046b60       ?Initialize@KUiMsgCentrePad@@AAEXXZ 00447b60 f   UiMsgCentrePad.obj
 0001:00046c80       ?Breathe@KUiMsgCentrePad@@UAEXXZ 00447c80 f   UiMsgCentrePad.obj
 0001:00046ce0       ?AddAutoReplyMsg@KUiMsgCentrePad@@SAXPAD@Z 00447ce0 f   UiMsgCentrePad.obj
 0001:00046d40       ?OnSendAutoReplyMsg@KUiMsgCentrePad@@AAEXPAD@Z 00447d40 f   UiMsgCentrePad.obj
 0001:00046de0       ?LoadScheme@KUiMsgCentrePad@@SAXPBD@Z 00447de0 f   UiMsgCentrePad.obj
 0001:00046ea0       ?DefaultScheme@KUiMsgCentrePad@@SAXPBD@Z 00447ea0 f   UiMsgCentrePad.obj
 0001:00046fb0       ?HideAllMessage@KUiMsgCentrePad@@SAXXZ 00447fb0 f   UiMsgCentrePad.obj
 0001:00046ff0       ?ShowAllMessage@KUiMsgCentrePad@@SAXXZ 00447ff0 f   UiMsgCentrePad.obj
 0001:00047020       ?LoadScheme@KUiMsgCentrePad@@AAEXPAVKIniFile@@@Z 00448020 f   UiMsgCentrePad.obj
 0001:00047c80       ?PtInWindow@KUiMsgCentrePad@@EAEHHH@Z 00448c80 f   UiMsgCentrePad.obj
 0001:00047e20       ?WndProc@KUiMsgCentrePad@@EAEHIIH@Z 00448e20 f   UiMsgCentrePad.obj
 0001:00048680       ?GetMessageSendName@KUiMsgCentrePad@@AAEHPAVKWndWindow@@HPAD@Z 00449680 f   UiMsgCentrePad.obj
 0001:00048770       ?GetMessageSendName@KUiMsgCentrePad@@AAEHPAVKWndWindow@@HHPAD@Z 00449770 f   UiMsgCentrePad.obj
 0001:00048840       ?PaintWindow@KUiMsgCentrePad@@EAEXXZ 00449840 f   UiMsgCentrePad.obj
 0001:000488d0       ?DragWndPos@KUiMsgCentrePad@@AAEXH@Z 004498d0 f   UiMsgCentrePad.obj
 0001:00048970       ?DragWndSize@KUiMsgCentrePad@@AAEXH@Z 00449970 f   UiMsgCentrePad.obj
 0001:00048a20       ?ChanageHeight@KUiMsgCentrePad@@AAEHH_N@Z 00449a20 f   UiMsgCentrePad.obj
 0001:00048ae0       ?Clear@KUiMsgCentrePad@@SAXXZ 00449ae0 f   UiMsgCentrePad.obj
 0001:00048b20       ?PopupChannelMenu@KUiMsgCentrePad@@AAEXHH@Z 00449b20 f   UiMsgCentrePad.obj
 0001:00048cc0       ?CheckChannel@KUiMsgCentrePad@@SAHH_N@Z 00449cc0 f   UiMsgCentrePad.obj
 0001:00048df0       ?FilterTextColor@KUiMsgCentrePad@@AAEHPADGABTKRColor@@@Z 00449df0 f   UiMsgCentrePad.obj
 0001:00048e30       ?SetFontSize@KUiMsgCentrePad@@SAXH@Z 00449e30 f   UiMsgCentrePad.obj
 0001:00048e50       ?GetFontSize@KUiMsgCentrePad@@SAHXZ 00449e50 f   UiMsgCentrePad.obj
 0001:00048e60       ?SetChannelTextColor@KUiMsgCentrePad@@SAHPADKK@Z 00449e60 f   UiMsgCentrePad.obj
 0001:00048ed0       ?GetChannelTextColor@KUiMsgCentrePad@@SAPADHAAK0@Z 00449ed0 f   UiMsgCentrePad.obj
 0001:00048f30       ?SetMSNTextColor@KUiMsgCentrePad@@SAXHKK@Z 00449f30 f   UiMsgCentrePad.obj
 0001:00048ff0       ?GetMSNTextColor@KUiMsgCentrePad@@SAXHAAK0@Z 00449ff0 f   UiMsgCentrePad.obj
 0001:00049070       ??0KUiMakeAdv@@AAE@XZ      0044a070 f   UiMakeAdv.obj
 0001:000490f0       ??_EKUiMakeAdv@@EAEPAXI@Z  0044a0f0 f i UiMakeAdv.obj
 0001:000490f0       ??_GKUiMakeAdv@@EAEPAXI@Z  0044a0f0 f i UiMakeAdv.obj
 0001:00049110       ??1KUiMakeAdv@@EAE@XZ      0044a110 f i UiMakeAdv.obj
 0001:000491a0       ?OpenWindow@KUiMakeAdv@@SAPAV1@PBDHH@Z 0044a1a0 f   UiMakeAdv.obj
 0001:000492a0       ?CloseWindow@KUiMakeAdv@@SAX_N@Z 0044a2a0 f   UiMakeAdv.obj
 0001:000492d0       ?GetIfVisible@KUiMakeAdv@@SAPAV1@XZ 0044a2d0 f   UiMakeAdv.obj
 0001:000492f0       ?Show@KUiMakeAdv@@EAEXXZ   0044a2f0 f   UiMakeAdv.obj
 0001:00049350       ?Hide@KUiMakeAdv@@EAEXXZ   0044a350 f   UiMakeAdv.obj
 0001:00049370       ?Initialize@KUiMakeAdv@@AAEXXZ 0044a370 f   UiMakeAdv.obj
 0001:000493e0       ?LoadScheme@KUiMakeAdv@@SAXPBD@Z 0044a3e0 f   UiMakeAdv.obj
 0001:00049510       ?WndProc@KUiMakeAdv@@EAEHIIH@Z 0044a510 f   UiMakeAdv.obj
 0001:000495b0       ?OnOk@KUiMakeAdv@@AAEXXZ   0044a5b0 f   UiMakeAdv.obj
 0001:00049630       ?OnCancel@KUiMakeAdv@@AAEXXZ 0044a630 f   UiMakeAdv.obj
 0001:00049640       ??0KUiMarket@@AAE@XZ       0044a640 f   UiMarket.obj
 0001:00049790       ??_GKUiMarket@@EAEPAXI@Z   0044a790 f i UiMarket.obj
 0001:00049790       ??_EKUiMarket@@EAEPAXI@Z   0044a790 f i UiMarket.obj
 0001:000497b0       ??1KUiMarket@@EAE@XZ       0044a7b0 f i UiMarket.obj
 0001:000498e0       ??1KUiMarketGoods@@UAE@XZ  0044a8e0 f i UiMarket.obj
 0001:000499b0       ?GetIfVisible@KUiMarket@@SAPAV1@XZ 0044a9b0 f   UiMarket.obj
 0001:000499c0       ?OpenWindow@KUiMarket@@SAPAV1@XZ 0044a9c0 f   UiMarket.obj
 0001:00049a90       ?CloseWindow@KUiMarket@@SAXXZ 0044aa90 f   UiMarket.obj
 0001:00049ad0       ?Initialize@KUiMarket@@AAEXXZ 0044aad0 f   UiMarket.obj
 0001:00049bf0       ?LoadScheme@KUiMarket@@SAXPBD@Z 0044abf0 f   UiMarket.obj
 0001:00049f20       ?CancelTrade@KUiMarket@@SAXXZ 0044af20 f   UiMarket.obj
 0001:00049f30       ?WndProc@KUiMarket@@UAEHIIH@Z 0044af30 f   UiMarket.obj
 0001:0004a0d0       ?Breathe@KUiMarket@@EAEXXZ 0044b0d0 f   UiMarket.obj
 0001:0004a140       ?InitMarket@KUiMarket@@AAEXXZ 0044b140 f   UiMarket.obj
 0001:0004a210       ?Clear@KUiMarket@@AAEXXZ   0044b210 f   UiMarket.obj
 0001:0004a260       ?UpdateData@KUiMarket@@UAEXXZ 0044b260 f   UiMarket.obj
 0001:0004a370       ?SetPage@KUiMarket@@AAEXH@Z 0044b370 f   UiMarket.obj
 0001:0004a460       ?OnClickPrePaid@KUiMarket@@SAXXZ 0044b460 f   UiMarket.obj
 0001:0004a5b0       ?OnClickSellType@KUiMarket@@AAEXH@Z 0044b5b0 f   UiMarket.obj
 0001:0004a680       ??0KUiMarketGoods@@QAE@XZ  0044b680 f   UiMarket.obj
 0001:0004a770       ??_EKUiMarketGoods@@UAEPAXI@Z 0044b770 f i UiMarket.obj
 0001:0004a770       ??_GKUiMarketGoods@@UAEPAXI@Z 0044b770 f i UiMarket.obj
 0001:0004a790       ?Initialize@KUiMarketGoods@@QAEXXZ 0044b790 f   UiMarket.obj
 0001:0004a860       ?LoadScheme@KUiMarketGoods@@AAEXPBD@Z 0044b860 f   UiMarket.obj
 0001:0004aa00       ?WndProc@KUiMarketGoods@@EAEHIIH@Z 0044ba00 f   UiMarket.obj
 0001:0004aa60       ?OnBuyItem@KUiMarketGoods@@AAEXXZ 0044ba60 f   UiMarket.obj
 0001:0004aac0       ?OnBuyItem@KUiMarketGoods@@AAEXD@Z 0044bac0 f   UiMarket.obj
 0001:0004aae0       ?Breathe@KUiMarketGoods@@UAEXXZ 0044bae0 f   UiMarket.obj
 0001:0004aba0       ?Clear@KUiMarketGoods@@QAEXXZ 0044bba0 f   UiMarket.obj
 0001:0004ac60       ?UpdateData@KUiMarketGoods@@QAEXPAUKUiDraggedObject@@@Z 0044bc60 f   UiMarket.obj
 0001:0004add0       ?HaveObject@KUiMarketGoods@@QAE_NXZ 0044bdd0 f   UiMarket.obj
 0001:0004adf0       ?OpenWindow@KUiMarkPrice@@SAPAV1@PAUKUiObjAtContRegion@@PAUKUiItemBuySelInfo@@@Z 0044bdf0 f   UiMarkPrice.obj
 0001:0004aef0       ??0KUiMarkPrice@@AAE@XZ    0044bef0 f   UiMarkPrice.obj
 0001:0004afa0       ??_GKUiMarkPrice@@EAEPAXI@Z 0044bfa0 f i UiMarkPrice.obj
 0001:0004afa0       ??_EKUiMarkPrice@@EAEPAXI@Z 0044bfa0 f i UiMarkPrice.obj
 0001:0004afc0       ??1KUiMarkPrice@@EAE@XZ    0044bfc0 f i UiMarkPrice.obj
 0001:0004b070       ?GetIfVisible@KUiMarkPrice@@SAPAV1@XZ 0044c070 f   UiMarkPrice.obj
 0001:0004b090       ?CloseWindow@KUiMarkPrice@@SAX_N@Z 0044c090 f   UiMarkPrice.obj
 0001:0004b0c0       ?Show@KUiMarkPrice@@EAEXXZ 0044c0c0 f   UiMarkPrice.obj
 0001:0004b120       ?Hide@KUiMarkPrice@@EAEXXZ 0044c120 f   UiMarkPrice.obj
 0001:0004b140       ?Initialize@KUiMarkPrice@@AAEHXZ 0044c140 f   UiMarkPrice.obj
 0001:0004b1e0       ?LoadScheme@KUiMarkPrice@@AAEXPBD@Z 0044c1e0 f   UiMarkPrice.obj
 0001:0004b320       ?WndProc@KUiMarkPrice@@EAEHIIH@Z 0044c320 f   UiMarkPrice.obj
 0001:0004b3c0       ?OnMarkPrice@KUiMarkPrice@@AAEXXZ 0044c3c0 f   UiMarkPrice.obj
 0001:0004b410       ?OnCheckInput@KUiMarkPrice@@AAEXXZ 0044c410 f   UiMarkPrice.obj
 0001:0004b4a0       ?OnCancel@KUiMarkPrice@@AAEXXZ 0044c4a0 f   UiMarkPrice.obj
 0001:0004b4d0       ??0KUiPlayerShop@@AAE@XZ   0044c4d0 f   UiPlayerShop.obj
 0001:0004b560       ??_EKUiPlayerShop@@EAEPAXI@Z 0044c560 f i UiPlayerShop.obj
 0001:0004b560       ??_GKUiPlayerShop@@EAEPAXI@Z 0044c560 f i UiPlayerShop.obj
 0001:0004b580       ??1KUiPlayerShop@@EAE@XZ   0044c580 f i UiPlayerShop.obj
 0001:0004b600       ?GetIfVisible@KUiPlayerShop@@SAPAV1@XZ 0044c600 f   UiPlayerShop.obj
 0001:0004b610       ?OpenWindow@KUiPlayerShop@@SAPAV1@PAUKUiPlayerItem@@@Z 0044c610 f   UiPlayerShop.obj
 0001:0004b700       ?CloseWindow@KUiPlayerShop@@SAXXZ 0044c700 f   UiPlayerShop.obj
 0001:0004b740       ?Breathe@KUiPlayerShop@@EAEXXZ 0044c740 f   UiPlayerShop.obj
 0001:0004b780       ?Initialize@KUiPlayerShop@@AAEXXZ 0044c780 f   UiPlayerShop.obj
 0001:0004b7f0       ?LoadScheme@KUiPlayerShop@@SAXPBD@Z 0044c7f0 f   UiPlayerShop.obj
 0001:0004b900       ?CancelTrade@KUiPlayerShop@@SAXXZ 0044c900 f   UiPlayerShop.obj
 0001:0004b920       ?WndProc@KUiPlayerShop@@UAEHIIH@Z 0044c920 f   UiPlayerShop.obj
 0001:0004b980       ?OnBuyItem@KUiPlayerShop@@AAEXPAUKUiDraggedObject@@@Z 0044c980 f   UiPlayerShop.obj
 0001:0004ba20       ?OnBuyItem@KUiPlayerShop@@AAEXI@Z 0044ca20 f   UiPlayerShop.obj
 0001:0004ba40       ?UpdateGoods@KUiPlayerShop@@SAXXZ 0044ca40 f   UiPlayerShop.obj
 0001:0004bb10       ?Clear@KUiPlayerShop@@AAEXXZ 0044cb10 f   UiPlayerShop.obj
 0001:0004bb50       ??0KUiShop@@AAE@XZ         0044cb50 f   UiShop.obj
 0001:0004bc30       ??_GKUiShop@@EAEPAXI@Z     0044cc30 f i UiShop.obj
 0001:0004bc30       ??_EKUiShop@@EAEPAXI@Z     0044cc30 f i UiShop.obj
 0001:0004bc50       ??1KUiShop@@EAE@XZ         0044cc50 f i UiShop.obj
 0001:0004bd20       ?GetIfVisible@KUiShop@@SAPAV1@XZ 0044cd20 f   UiShop.obj
 0001:0004bd30       ?OpenWindow@KUiShop@@SAPAV1@XZ 0044cd30 f   UiShop.obj
 0001:0004be10       ?CloseWindow@KUiShop@@SAXXZ 0044ce10 f   UiShop.obj
 0001:0004be60       ?Initialize@KUiShop@@AAEXXZ 0044ce60 f   UiShop.obj
 0001:0004bf10       ?LoadScheme@KUiShop@@SAXPBD@Z 0044cf10 f   UiShop.obj
 0001:0004c090       ?Breathe@KUiShop@@EAEXXZ   0044d090 f   UiShop.obj
 0001:0004c0f0       ?CancelTrade@KUiShop@@SAXXZ 0044d0f0 f   UiShop.obj
 0001:0004c100       ?WndProc@KUiShop@@UAEHIIH@Z 0044d100 f   UiShop.obj
 0001:0004c220       ?OnBuyItem@KUiShop@@AAEXPAUKUiDraggedObject@@_N@Z 0044d220 f   UiShop.obj
 0001:0004c380       ?OnBuyItem@KUiShop@@AAEXIE@Z 0044d380 f   UiShop.obj
 0001:0004c3c0       ?OnClickButton@KUiShop@@AAEXPAVKWndButton@@H@Z 0044d3c0 f   UiShop.obj
 0001:0004c4f0       ?SetPage@KUiShop@@AAEXH@Z  0044d4f0 f   UiShop.obj
 0001:0004c570       ?UpdateData@KUiShop@@UAEXXZ 0044d570 f   UiShop.obj
 0001:0004c650       ?Clear@KUiShop@@AAEXXZ     0044d650 f   UiShop.obj
 0001:0004c690       ??0KUiShoppingCart@@AAE@XZ 0044d690 f   UiShoppingCart.obj
 0001:0004c7d0       ??_GKUiShoppingCart@@EAEPAXI@Z 0044d7d0 f i UiShoppingCart.obj
 0001:0004c7d0       ??_EKUiShoppingCart@@EAEPAXI@Z 0044d7d0 f i UiShoppingCart.obj
 0001:0004c7f0       ??1KUiShoppingCart@@EAE@XZ 0044d7f0 f i UiShoppingCart.obj
 0001:0004c9b0       ?GetIfVisible@KUiShoppingCart@@SAPAV1@XZ 0044d9b0 f   UiShoppingCart.obj
 0001:0004c9c0       ?OpenWindow@KUiShoppingCart@@SAPAV1@PAVKWndWindow@@PAUKUiObjAtContRegion@@PAUKUiItemBuySelInfo@@_N@Z 0044d9c0 f   UiShoppingCart.obj
 0001:0004ca90       ?CloseWindow@KUiShoppingCart@@SAX_N@Z 0044da90 f   UiShoppingCart.obj
 0001:0004cae0       ?Initialize@KUiShoppingCart@@AAEXXZ 0044dae0 f   UiShoppingCart.obj
 0001:0004cbf0       ?LoadScheme@KUiShoppingCart@@SAXPBD@Z 0044dbf0 f   UiShoppingCart.obj
 0001:0004ce30       ?WndProc@KUiShoppingCart@@UAEHIIH@Z 0044de30 f   UiShoppingCart.obj
 0001:0004cea0       ?UpdateValue@KUiShoppingCart@@SAXHH@Z 0044dea0 f   UiShoppingCart.obj
 0001:0004cf10       ?UpdateData@KUiShoppingCart@@AAEXPAVKWndWindow@@PAUKUiObjAtContRegion@@PAUKUiItemBuySelInfo@@@Z 0044df10 f   UiShoppingCart.obj
 0001:0004d020       ??0KUiShoppingCartGoods@@QAE@XZ 0044e020 f   UiShoppingCart.obj
 0001:0004d0f0       ??_EKUiShoppingCartGoods@@UAEPAXI@Z 0044e0f0 f i UiShoppingCart.obj
 0001:0004d0f0       ??_GKUiShoppingCartGoods@@UAEPAXI@Z 0044e0f0 f i UiShoppingCart.obj
 0001:0004d110       ??1KUiShoppingCartGoods@@UAE@XZ 0044e110 f i UiShoppingCart.obj
 0001:0004d1c0       ?Initialize@KUiShoppingCartGoods@@QAEXXZ 0044e1c0 f   UiShoppingCart.obj
 0001:0004d270       ?LoadScheme@KUiShoppingCartGoods@@AAEXPBD@Z 0044e270 f   UiShoppingCart.obj
 0001:0004d410       ?WndProc@KUiShoppingCartGoods@@EAEHIIH@Z 0044e410 f   UiShoppingCart.obj
 0001:0004d4a0       ?OnAddCount@KUiShoppingCartGoods@@AAEXXZ 0044e4a0 f   UiShoppingCart.obj
 0001:0004d510       ?OnDelCount@KUiShoppingCartGoods@@AAEXXZ 0044e510 f   UiShoppingCart.obj
 0001:0004d580       ?OnCheckInput@KUiShoppingCartGoods@@AAEXXZ 0044e580 f   UiShoppingCart.obj
 0001:0004d650       ?OnBuyItem@KUiShoppingCartGoods@@QAEXXZ 0044e650 f   UiShoppingCart.obj
 0001:0004d690       ?Clear@KUiShoppingCartGoods@@QAEXXZ 0044e690 f   UiShoppingCart.obj
 0001:0004d6c0       ?UpdateData@KUiShoppingCartGoods@@QAEXPAVKWndWindow@@PAUKUiDraggedObject@@PAUKUiItemBuySelInfo@@@Z 0044e6c0 f   UiShoppingCart.obj
 0001:0004d750       ?HaveObject@KUiShoppingCartGoods@@QAE_NXZ 0044e750 f   UiShoppingCart.obj
 0001:0004d770       ?OpenWindow@KUiTrade@@SAPAV1@PAUKUiPlayerItem@@@Z 0044e770 f   UiTrade.obj
 0001:0004d890       ?GetIfVisible@KUiTrade@@SAPAV1@XZ 0044e890 f   UiTrade.obj
 0001:0004d8a0       ?CloseWindow@KUiTrade@@SAXXZ 0044e8a0 f   UiTrade.obj
 0001:0004d8f0       ??0KUiTrade@@AAE@XZ        0044e8f0 f   UiTrade.obj
 0001:0004da40       ??_GKUiTrade@@EAEPAXI@Z    0044ea40 f i UiTrade.obj
 0001:0004da40       ??_EKUiTrade@@EAEPAXI@Z    0044ea40 f i UiTrade.obj
 0001:0004da60       ??1KUiTrade@@EAE@XZ        0044ea60 f   UiTrade.obj
 0001:0004db80       ?Initialize@KUiTrade@@AAEXXZ 0044eb80 f   UiTrade.obj
 0001:0004dd00       ?LoadScheme@KUiTrade@@SAXPBD@Z 0044ed00 f   UiTrade.obj
 0001:0004ddb0       ?LoadScheme@KUiTrade@@AAEXPAVKIniFile@@@Z 0044edb0 f   UiTrade.obj
 0001:0004dfb0       ?UpdateTakewithItems@KUiTrade@@AAEXXZ 0044efb0 f   UiTrade.obj
 0001:0004e080       ?OnChangedTakewithItem@KUiTrade@@QAEXPAUKUiObjAtRegion@@H@Z 0044f080 f   UiTrade.obj
 0001:0004e110       ?OnSelfChangedItem@KUiTrade@@QAEXPAUKUiObjAtRegion@@H@Z 0044f110 f   UiTrade.obj
 0001:0004e1b0       ?OnOppositeChangedItem@KUiTrade@@QAEXPAUKUiObjAtRegion@@H@Z 0044f1b0 f   UiTrade.obj
 0001:0004e2b0       ?UpdateOperData@KUiTrade@@QAEXXZ 0044f2b0 f   UiTrade.obj
 0001:0004e410       ?WndProc@KUiTrade@@EAEHIIH@Z 0044f410 f   UiTrade.obj
 0001:0004e530       ?Breathe@KUiTrade@@EAEXXZ  0044f530 f   UiTrade.obj
 0001:0004e550       ?OnItemPickDrop@KUiTrade@@AAEXPAUITEM_PICKDROP_PLACE@@0@Z 0044f550 f   UiTrade.obj
 0001:0004e680       ?OnAdjustMoney@KUiTrade@@AAEX_N@Z 0044f680 f   UiTrade.obj
 0001:0004e700       ?OnAdjustedMoney@KUiTrade@@AAEXXZ 0044f700 f   UiTrade.obj
 0001:0004e760       ?OnModififyMoney@KUiTrade@@AAEXXZ 0044f760 f   UiTrade.obj
 0001:0004e7d0       ?OnTrade@KUiTrade@@AAEXXZ  0044f7d0 f   UiTrade.obj
 0001:0004e800       ?OnOk@KUiTrade@@AAEXH@Z    0044f800 f   UiTrade.obj
 0001:0004e840       ?OnCancelTrade@KUiTrade@@AAEXXZ 0044f840 f   UiTrade.obj
 0001:0004e860       ?UpdateTradeEnd@KUiTrade@@QAEXH@Z 0044f860 f   UiTrade.obj
 0001:0004e870       ?OpenWindow@KUiTradeConfirm@@SAPAV1@PAVKWndWindow@@PAUKUiObjAtContRegion@@PAUKUiItemBuySelInfo@@W4TRADE_CONFIRM_ACTION@@HH@Z 0044f870 f   UiTradeConfirmWnd.obj
 0001:0004ebd0       ??0KUiTradeConfirm@@AAE@XZ 0044fbd0 f   UiTradeConfirmWnd.obj
 0001:0004ece0       ??_EKUiTradeConfirm@@EAEPAXI@Z 0044fce0 f i UiTradeConfirmWnd.obj
 0001:0004ece0       ??_GKUiTradeConfirm@@EAEPAXI@Z 0044fce0 f i UiTradeConfirmWnd.obj
 0001:0004ed00       ??1KUiTradeConfirm@@EAE@XZ 0044fd00 f i UiTradeConfirmWnd.obj
 0001:0004ee10       ?GetIfVisible@KUiTradeConfirm@@SAPAV1@XZ 0044fe10 f   UiTradeConfirmWnd.obj
 0001:0004ee30       ?CloseWindow@KUiTradeConfirm@@SAX_N@Z 0044fe30 f   UiTradeConfirmWnd.obj
 0001:0004ee60       ?Show@KUiTradeConfirm@@EAEXXZ 0044fe60 f   UiTradeConfirmWnd.obj
 0001:0004ef30       ?Hide@KUiTradeConfirm@@EAEXXZ 0044ff30 f   UiTradeConfirmWnd.obj
 0001:0004ef50       ?Initialize@KUiTradeConfirm@@AAEHXZ 0044ff50 f   UiTradeConfirmWnd.obj
 0001:0004f040       ?LoadScheme@KUiTradeConfirm@@AAEXPBD@Z 00450040 f   UiTradeConfirmWnd.obj
 0001:0004f280       ?WndProc@KUiTradeConfirm@@EAEHIIH@Z 00450280 f   UiTradeConfirmWnd.obj
 0001:0004f440       ?OnBuy@KUiTradeConfirm@@AAEXXZ 00450440 f   UiTradeConfirmWnd.obj
 0001:0004f480       ?OnSale@KUiTradeConfirm@@AAEXXZ 00450480 f   UiTradeConfirmWnd.obj
 0001:0004f4b0       ?OnRepair@KUiTradeConfirm@@AAEXXZ 004504b0 f   UiTradeConfirmWnd.obj
 0001:0004f4e0       ?OnBreak@KUiTradeConfirm@@AAEXXZ 004504e0 f   UiTradeConfirmWnd.obj
 0001:0004f520       ?OnIncrease@KUiTradeConfirm@@AAEXXZ 00450520 f   UiTradeConfirmWnd.obj
 0001:0004f5d0       ?OnDecrease@KUiTradeConfirm@@AAEXXZ 004505d0 f   UiTradeConfirmWnd.obj
 0001:0004f680       ?OnCheckInput@KUiTradeConfirm@@AAEXXZ 00450680 f   UiTradeConfirmWnd.obj
 0001:0004f780       ?OnCancel@KUiTradeConfirm@@AAEXXZ 00450780 f   UiTradeConfirmWnd.obj
 0001:0004f7d0       ??1KUiGameSpace@@UAE@XZ    004507d0 f i UiGame.obj
 0001:0004f7e0       ??0KUiGameSpace@@QAE@XZ    004507e0 f i UiGame.obj
 0001:0004f800       ??_GKUiGameSpace@@UAEPAXI@Z 00450800 f i UiGame.obj
 0001:0004f800       ??_EKUiGameSpace@@UAEPAXI@Z 00450800 f i UiGame.obj
 0001:0004f820       ?WndProc@KUiGameSpace@@UAEHIIH@Z 00450820 f   UiGame.obj
 0001:0004fac0       ?PaintWindow@KUiGameSpace@@UAEXXZ 00450ac0 f   UiGame.obj
 0001:0004fad0       ?OnMouseMoveCursor@KUiGameSpace@@QAEXHH@Z 00450ad0 f   UiGame.obj
 0001:0004fc10       ?ProcessPeople@@YAXPAUKUiPlayerItem@@H@Z 00450c10 f   UiGame.obj
 0001:0004fed0       ?ProcessEmote@@YAXPAD0H@Z  00450ed0 f   UiGame.obj
 0001:00050020       ?PopUpContextPeopleMenu@@YAXABUKUiPlayerItem@@HH@Z 00451020 f   UiGame.obj
 0001:00050290       ?PopUpContextEmoteMenu@@YAXPADHH@Z 00451290 f   UiGame.obj
 0001:000503e0       ??0KUiNotification@@AAE@XZ 004513e0 f   UiNotification.obj
 0001:00050450       ??_EKUiNotification@@EAEPAXI@Z 00451450 f i UiNotification.obj
 0001:00050450       ??_GKUiNotification@@EAEPAXI@Z 00451450 f i UiNotification.obj
 0001:00050470       ??1KUiNotification@@EAE@XZ 00451470 f i UiNotification.obj
 0001:000504f0       ?OpenWindow@KUiNotification@@SAPAV1@PBD0@Z 004514f0 f   UiNotification.obj
 0001:00050630       ?CloseWindow@KUiNotification@@SAX_N@Z 00451630 f   UiNotification.obj
 0001:00050680       ?GetIfVisible@KUiNotification@@SAPAV1@XZ 00451680 f   UiNotification.obj
 0001:000506a0       ?Initialize@KUiNotification@@AAEXXZ 004516a0 f   UiNotification.obj
 0001:00050710       ?LoadScheme@KUiNotification@@SAXPBD@Z 00451710 f   UiNotification.obj
 0001:00050820       ?WndProc@KUiNotification@@EAEHIIH@Z 00451820 f   UiNotification.obj
 0001:00050890       ?OnCancel@KUiNotification@@AAEXXZ 00451890 f   UiNotification.obj
 0001:000508a0       ??0KUiSysMsgCentre@@AAE@XZ 004518a0 f   UiSysMsgCentre.obj
 0001:000509c0       ??_GKUiSysMsgCentre@@EAEPAXI@Z 004519c0 f i UiSysMsgCentre.obj
 0001:000509c0       ??_EKUiSysMsgCentre@@EAEPAXI@Z 004519c0 f i UiSysMsgCentre.obj
 0001:000509e0       ??1KUiSysMsgCentre@@EAE@XZ 004519e0 f   UiSysMsgCentre.obj
 0001:00050a60       ?OpenWindow@KUiSysMsgCentre@@SAPAV1@XZ 00451a60 f   UiSysMsgCentre.obj
 0001:00050af0       ?Initialize@KUiSysMsgCentre@@AAEXXZ 00451af0 f   UiSysMsgCentre.obj
 0001:00050bd0       ?CloseWindow@KUiSysMsgCentre@@SAXXZ 00451bd0 f   UiSysMsgCentre.obj
 0001:00050c00       ?LoadScheme@KUiSysMsgCentre@@SAXPBD@Z 00451c00 f   UiSysMsgCentre.obj
 0001:00050cb0       ?LoadScheme@KUiSysMsgCentre@@AAEXPAVKIniFile@@@Z 00451cb0 f   UiSysMsgCentre.obj
 0001:00050e30       ?WndProc@KUiSysMsgCentre@@EAEHIIH@Z 00451e30 f   UiSysMsgCentre.obj
 0001:00050fe0       ?OnConfirmOperFinished@KUiSysMsgCentre@@AAEXIH@Z 00451fe0 f   UiSysMsgCentre.obj
 0001:000511c0       ?PtInWindow@KUiSysMsgCentre@@EAEHHH@Z 004521c0 f   UiSysMsgCentre.obj
 0001:00051220       ?Breathe@KUiSysMsgCentre@@EAEXXZ 00452220 f   UiSysMsgCentre.obj
 0001:000512d0       ?AMessageArrival@KUiSysMsgCentre@@SA_NPAUKSystemMessage@@PAX@Z 004522d0 f   UiSysMsgCentre.obj
 0001:000513f0       ?FilterSameMsg@KUiSysMsgCentre@@AAE_NPAUKSystemMessage@@PAX@Z 004523f0 f   UiSysMsgCentre.obj
 0001:00051600       ?Clear@KUiSysMsgCentre@@AAEXXZ 00452600 f   UiSysMsgCentre.obj
 0001:00051690       ?GetAMsgSpace@KUiSysMsgCentre@@AAEPAUKSystemMessage@@H@Z 00452690 f   UiSysMsgCentre.obj
 0001:00051750       ?SetPopupMsgDest@KUiSysMsgCentre@@AAEXXZ 00452750 f   UiSysMsgCentre.obj
 0001:00051830       ?ConfirmMsg@KUiSysMsgCentre@@AAEXPAUKSystemMessage@@_N@Z 00452830 f   UiSysMsgCentre.obj
 0001:00051a40       ?DeleteMsgInHeap@KUiSysMsgCentre@@AAEXHH_N0@Z 00452a40 f   UiSysMsgCentre.obj
 0001:00051b90       ?MovePopupedMsgToHeap@KUiSysMsgCentre@@AAEXXZ 00452b90 f   UiSysMsgCentre.obj
 0001:00051c30       ?AddAMsgToHeap@KUiSysMsgCentre@@AAE_NPAUKSystemMessage@@H_N@Z 00452c30 f   UiSysMsgCentre.obj
 0001:00051cd0       ?PaintWindow@KUiSysMsgCentre@@EAEXXZ 00452cd0 f   UiSysMsgCentre.obj
 0001:00051fa0       ?OpenWindow@KUiCaveMap@@SAPAV1@XZ 00452fa0 f   UiCaveMap.obj
 0001:00052080       ??_EKUiCaveMap@@EAEPAXI@Z  00453080 f i UiCaveMap.obj
 0001:00052080       ??_GKUiCaveMap@@EAEPAXI@Z  00453080 f i UiCaveMap.obj
 0001:000520a0       ??1KUiCaveMap@@EAE@XZ      004530a0 f i UiCaveMap.obj
 0001:00052100       ?CloseWindow@KUiCaveMap@@SAXXZ 00453100 f   UiCaveMap.obj
 0001:00052130       ?GetIfVisible@KUiCaveMap@@SAPAV1@XZ 00453130 f   UiCaveMap.obj
 0001:00052150       ?Initialize@KUiCaveMap@@AAEXXZ 00453150 f   UiCaveMap.obj
 0001:00052250       ?WndProc@KUiCaveMap@@EAEHIIH@Z 00453250 f   UiCaveMap.obj
 0001:00052290       ?UpdateData@KUiCaveMap@@EAEXXZ 00453290 f   UiCaveMap.obj
 0001:000523d0       ?Breathe@KUiCaveMap@@EAEXXZ 004533d0 f   UiCaveMap.obj
 0001:000523f0       ?OpenWindow@KUiFindPos@@SAPAV1@XZ 004533f0 f   UiFindPos.obj
 0001:00052520       ??_GKUiFindPos@@EAEPAXI@Z  00453520 f i UiFindPos.obj
 0001:00052520       ??_EKUiFindPos@@EAEPAXI@Z  00453520 f i UiFindPos.obj
 0001:00052540       ??1KUiFindPos@@EAE@XZ      00453540 f i UiFindPos.obj
 0001:000525f0       ?CloseWindow@KUiFindPos@@SAXXZ 004535f0 f   UiFindPos.obj
 0001:00052610       ?GetIfVisible@KUiFindPos@@SAPAV1@XZ 00453610 f   UiFindPos.obj
 0001:00052630       ?UpdateData@KUiFindPos@@EAEXXZ 00453630 f   UiFindPos.obj
 0001:000526a0       ?Initialize@KUiFindPos@@AAEHXZ 004536a0 f   UiFindPos.obj
 0001:00052750       ?LoadScheme@KUiFindPos@@SAXPBD@Z 00453750 f   UiFindPos.obj
 0001:000528e0       ?WndProc@KUiFindPos@@EAEHIIH@Z 004538e0 f   UiFindPos.obj
 0001:00052a10       ?OnOk@KUiFindPos@@AAEXXZ   00453a10 f   UiFindPos.obj
 0001:00052a90       ?OnCheckInput@KUiFindPos@@AAEXXZ 00453a90 f   UiFindPos.obj
 0001:00052b90       ?OnCancel@KUiFindPos@@AAEXXZ 00453b90 f   UiFindPos.obj
 0001:00052ba0       ??0KUiMiniMap@@AAE@XZ      00453ba0 f   UiMiniMap.obj
 0001:00052ce0       ??_GKWndShadow@@UAEPAXI@Z  00453ce0 f i UiMiniMap.obj
 0001:00052ce0       ??_EKWndShadow@@UAEPAXI@Z  00453ce0 f i UiMiniMap.obj
 0001:00052d00       ??1KWndShadow@@UAE@XZ      00453d00 f i UiMiniMap.obj
 0001:00052d10       ??_EKUiMiniMap@@EAEPAXI@Z  00453d10 f i UiMiniMap.obj
 0001:00052d10       ??_GKUiMiniMap@@EAEPAXI@Z  00453d10 f i UiMiniMap.obj
 0001:00052d30       ??1KUiMiniMap@@EAE@XZ      00453d30 f i UiMiniMap.obj
 0001:00052e40       ?OpenWindow@KUiMiniMap@@SAPAV1@XZ 00453e40 f   UiMiniMap.obj
 0001:00052ee0       ?GetIfVisible@KUiMiniMap@@SAPAV1@XZ 00453ee0 f   UiMiniMap.obj
 0001:00052f00       ?Initialize@KUiMiniMap@@AAEXXZ 00453f00 f   UiMiniMap.obj
 0001:00053000       ?CloseWindow@KUiMiniMap@@SAXXZ 00454000 f   UiMiniMap.obj
 0001:00053060       ?IsHavePicMap@KUiMiniMap@@SA_NXZ 00454060 f   UiMiniMap.obj
 0001:00053070       ?LoadScheme@KUiMiniMap@@SAXPBD@Z 00454070 f   UiMiniMap.obj
 0001:00053160       ?LoadScheme@KUiMiniMap@@AAEXPAVKIniFile@@@Z 00454160 f   UiMiniMap.obj
 0001:000533b0       ?WndProc@KUiMiniMap@@EAEHIIH@Z 004543b0 f   UiMiniMap.obj
 0001:00053880       ?StopScrollMap@KUiMiniMap@@AAEXXZ 00454880 f   UiMiniMap.obj
 0001:000538b0       ?MapMoveBack@KUiMiniMap@@AAEXXZ 004548b0 f   UiMiniMap.obj
 0001:00053900       ?SetValueFindPos@KUiMiniMap@@SAXHH@Z 00454900 f   UiMiniMap.obj
 0001:00053960       ?PaintWindow@KUiMiniMap@@EAEXXZ 00454960 f   UiMiniMap.obj
 0001:00053a10       ?Breathe@KUiMiniMap@@EAEXXZ 00454a10 f   UiMiniMap.obj
 0001:00053ac0       ?UpdateSceneTimeInfo@KUiMiniMap@@SAXPAUKUiSceneTimeInfo@@@Z 00454ac0 f   UiMiniMap.obj
 0001:00053bd0       ?Show@KUiMiniMap@@UAEXXZ   00454bd0 f   UiMiniMap.obj
 0001:00053c90       ?Hide@KUiMiniMap@@UAEXXZ   00454c90 f   UiMiniMap.obj
 0001:00053cb0       ?MapScroll@KUiMiniMap@@AAEXH@Z 00454cb0 f   UiMiniMap.obj
 0001:00053d60       ?MapToggleStatus@@YAXXZ    00454d60 f   UiMiniMap.obj
 0001:00053db0       ?MapGetMode@@YA?AW4MINIMAP_MODE@@XZ 00454db0 f   UiMiniMap.obj
 0001:00053dc0       ?MapSetMode@@YAXW4MINIMAP_MODE@@@Z 00454dc0 f   UiMiniMap.obj
 0001:00053ef0       ??0KUiWorldMap@@AAE@XZ     00454ef0 f   UiWorldMap.obj
 0001:00053fb0       ??_EKUiWorldMap@@EAEPAXI@Z 00454fb0 f i UiWorldMap.obj
 0001:00053fb0       ??_GKUiWorldMap@@EAEPAXI@Z 00454fb0 f i UiWorldMap.obj
 0001:00053fd0       ??1KUiWorldMap@@EAE@XZ     00454fd0 f i UiWorldMap.obj
 0001:00054070       ?OpenWindow@KUiWorldMap@@SAPAV1@XZ 00455070 f   UiWorldMap.obj
 0001:00054130       ?CloseWindow@KUiWorldMap@@SAXXZ 00455130 f   UiWorldMap.obj
 0001:00054160       ?GetIfVisible@KUiWorldMap@@SAPAV1@XZ 00455160 f   UiWorldMap.obj
 0001:00054180       ?Initialize@KUiWorldMap@@AAEXXZ 00455180 f   UiWorldMap.obj
 0001:000543f0       ?WndProc@KUiWorldMap@@EAEHIIH@Z 004553f0 f   UiWorldMap.obj
 0001:00054450       ?UpdateData@KUiWorldMap@@EAEXXZ 00455450 f   UiWorldMap.obj
 0001:00054810       ?Breathe@KUiWorldMap@@EAEXXZ 00455810 f   UiWorldMap.obj
 0001:00054890       ?GetColor@KUiSelColor@@SAIH@Z 00455890 f   UiSelColor.obj
 0001:000548c0       ?LoadScheme@KUiSelColor@@SAXPBD@Z 004558c0 f   UiSelColor.obj
 0001:00054a90       ?PopupMenu@KUiSelColor@@SAXPAVKWndWindow@@IHHH@Z 00455a90 f   UiSelColor.obj
 0001:00054ad0       ?CancelMenu@KUiSelColor@@SAXXZ 00455ad0 f   UiSelColor.obj
 0001:00054ae0       ??0KUiNewPlayerStartMsg@@AAE@XZ 00455ae0 f   UiNewPlayerStartMsg.obj
 0001:00054b70       ??_EKUiNewPlayerStartMsg@@EAEPAXI@Z 00455b70 f i UiNewPlayerStartMsg.obj
 0001:00054b70       ??_GKUiNewPlayerStartMsg@@EAEPAXI@Z 00455b70 f i UiNewPlayerStartMsg.obj
 0001:00054b90       ??1KUiNewPlayerStartMsg@@EAE@XZ 00455b90 f   UiNewPlayerStartMsg.obj
 0001:00054ca0       ?OpenWindow@KUiNewPlayerStartMsg@@SAPAV1@XZ 00455ca0 f   UiNewPlayerStartMsg.obj
 0001:00054d30       ?CloseWindow@KUiNewPlayerStartMsg@@SAX_N@Z 00455d30 f   UiNewPlayerStartMsg.obj
 0001:00054d70       ?Initialize@KUiNewPlayerStartMsg@@AAEXXZ 00455d70 f   UiNewPlayerStartMsg.obj
 0001:00054e20       ?LoadList@KUiNewPlayerStartMsg@@AAEXXZ 00455e20 f   UiNewPlayerStartMsg.obj
 0001:00054ec0       ?LoadScheme@KUiNewPlayerStartMsg@@AAEXPBD@Z 00455ec0 f   UiNewPlayerStartMsg.obj
 0001:00054ff0       ?WndProc@KUiNewPlayerStartMsg@@EAEHIIH@Z 00455ff0 f   UiNewPlayerStartMsg.obj
 0001:00055040       ?OnKeyDown@KUiNewPlayerStartMsg@@AAEHI@Z 00456040 f   UiNewPlayerStartMsg.obj
 0001:00055070       ?OnClickButton@KUiNewPlayerStartMsg@@AAEXPAVKWndButton@@@Z 00456070 f   UiNewPlayerStartMsg.obj
 0001:00055120       ?OnOk@KUiNewPlayerStartMsg@@AAEXXZ 00456120 f   UiNewPlayerStartMsg.obj
 0001:00055140       ??0KUiPlayVideo@@QAE@XZ    00456140 f   UiPlayVideo.obj
 0001:000551b0       ??_EKUiPlayVideo@@EAEPAXI@Z 004561b0 f i UiPlayVideo.obj
 0001:000551b0       ??_GKUiPlayVideo@@EAEPAXI@Z 004561b0 f i UiPlayVideo.obj
 0001:000551d0       ??1KUiPlayVideo@@EAE@XZ    004561d0 f i UiPlayVideo.obj
 0001:000551e0       ?OpenWindow@KUiPlayVideo@@SAPAV1@XZ 004561e0 f   UiPlayVideo.obj
 0001:00055270       ?WndProc@KUiPlayVideo@@EAEHIIH@Z 00456270 f   UiPlayVideo.obj
 0001:000552f0       ?CloseWindow@KUiPlayVideo@@SAX_N@Z 004562f0 f   UiPlayVideo.obj
 0001:00055330       ?LoadScheme@KUiPlayVideo@@SAXPBD0@Z 00456330 f   UiPlayVideo.obj
 0001:000553d0       ?Initialize@KUiPlayVideo@@AAEHXZ 004563d0 f   UiPlayVideo.obj
 0001:000554f0       ?Terminate@KUiPlayVideo@@AAEXXZ 004564f0 f   UiPlayVideo.obj
 0001:00055520       ?OpenVideo@KUiPlayVideo@@QAEHPBD@Z 00456520 f   UiPlayVideo.obj
 0001:00055690       ?CloseVideo@KUiPlayVideo@@QAEX_N@Z 00456690 f   UiPlayVideo.obj
 0001:000556f0       ?Breathe@KUiPlayVideo@@EAEXXZ 004566f0 f   UiPlayVideo.obj
 0001:00055780       ?PaintWindow@KUiPlayVideo@@EAEXXZ 00456780 f   UiPlayVideo.obj
 0001:00055950       ?OnPlayFinished@KUiPlayVideo@@AAEXXZ 00456950 f   UiPlayVideo.obj
 0001:00055990       ?SetPosition@KUiPlayVideo@@QAEXHH@Z 00456990 f   UiPlayVideo.obj
 0001:000559b0       ?SetSize@KUiPlayVideo@@UAEXHH@Z 004569b0 f   UiPlayVideo.obj
 0001:000559d0       ?Setting@KUiPlayVideo@@QAEX_N0PAVKWndWindow@@I@Z 004569d0 f   UiPlayVideo.obj
 0001:000559f0       ??0KUiHelper@@AAE@XZ       004569f0 f   UiHelper.obj
 0001:00055a10       ?Breathe@KUiHelper@@EAEXXZ 00456a10 f i UiHelper.obj
 0001:00055a20       ??_GKUiHelper@@EAEPAXI@Z   00456a20 f i UiHelper.obj
 0001:00055a20       ??_EKUiHelper@@EAEPAXI@Z   00456a20 f i UiHelper.obj
 0001:00055a40       ??1KUiHelper@@EAE@XZ       00456a40 f   UiHelper.obj
 0001:00055a50       ?OpenWindow@KUiHelper@@SAPAV1@_N@Z 00456a50 f   UiHelper.obj
 0001:00055b10       ?CloseWindow@KUiHelper@@SAX_N@Z 00456b10 f   UiHelper.obj
 0001:00055b40       ?GetIfVisible@KUiHelper@@SAPAV1@XZ 00456b40 f   UiHelper.obj
 0001:00055b60       ?Initialize@KUiHelper@@AAEXXZ 00456b60 f   UiHelper.obj
 0001:00055ba0       ?WndProc@KUiHelper@@EAEHIIH@Z 00456ba0 f   UiHelper.obj
 0001:00055bf0       ?LoadScheme@KUiHelper@@QAEXPBD@Z 00456bf0 f   UiHelper.obj
 0001:00055d20       ?Show@KUiHelper@@EAEXXZ    00456d20 f   UiHelper.obj
 0001:00055da0       ?SelectInterfacePic@KUiHelper@@SAXXZ 00456da0 f   UiHelper.obj
 0001:00055df0       ?SelectKeyboardPic@KUiHelper@@SAXXZ 00456df0 f   UiHelper.obj
 0001:00055e40       ?SelectWuxingPic@KUiHelper@@SAXXZ 00456e40 f   UiHelper.obj
 0001:00055e90       ?GetIfVisible@KUiHelper2@@SAPAV1@XZ 00456e90 f   UiHelper2.obj
 0001:00055eb0       ??0KUiHelper2@@AAE@XZ      00456eb0 f   UiHelper2.obj
 0001:00055f80       ??_GKUiHelper2@@EAEPAXI@Z  00456f80 f i UiHelper2.obj
 0001:00055f80       ??_EKUiHelper2@@EAEPAXI@Z  00456f80 f i UiHelper2.obj
 0001:00055fa0       ??1KUiHelper2@@EAE@XZ      00456fa0 f   UiHelper2.obj
 0001:000560a0       ?OpenWindow@KUiHelper2@@SAPAV1@_N@Z 004570a0 f   UiHelper2.obj
 0001:00056140       ?Initialize@KUiHelper2@@AAEXXZ 00457140 f   UiHelper2.obj
 0001:00056200       ?CloseWindow@KUiHelper2@@SAX_N@Z 00457200 f   UiHelper2.obj
 0001:00056230       ?LoadScheme@KUiHelper2@@SAXPBD@Z 00457230 f   UiHelper2.obj
 0001:000563d0       ?WndProc@KUiHelper2@@EAEHIIH@Z 004573d0 f   UiHelper2.obj
 0001:000565a0       ?Clear@KUiHelper2@@AAEXXZ  004575a0 f   UiHelper2.obj
 0001:000565d0       ?LoadIndexList@KUiHelper2@@AAEXPBD@Z 004575d0 f   UiHelper2.obj
 0001:000567e0       ?UpdateData@KUiHelper2@@AAEXH@Z 004577e0 f   UiHelper2.obj
 0001:000568f0       ?GetIfVisible@KUiHelperMission@@SAPAV1@XZ 004578f0 f   UiHelperMission.obj
 0001:00056910       ??0KUiHelperMission@@AAE@XZ 00457910 f   UiHelperMission.obj
 0001:00056a00       ??_GKUiHelperMission@@EAEPAXI@Z 00457a00 f i UiHelperMission.obj
 0001:00056a00       ??_EKUiHelperMission@@EAEPAXI@Z 00457a00 f i UiHelperMission.obj
 0001:00056a20       ??1KUiHelperMission@@EAE@XZ 00457a20 f   UiHelperMission.obj
 0001:00056b40       ?OpenWindow@KUiHelperMission@@SAPAV1@_N@Z 00457b40 f   UiHelperMission.obj
 0001:00056be0       ?Initialize@KUiHelperMission@@AAEXXZ 00457be0 f   UiHelperMission.obj
 0001:00056c90       ?CloseWindow@KUiHelperMission@@SAX_N@Z 00457c90 f   UiHelperMission.obj
 0001:00056cc0       ?LoadScheme@KUiHelperMission@@SAXPBD@Z 00457cc0 f   UiHelperMission.obj
 0001:00056e90       ?WndProc@KUiHelperMission@@EAEHIIH@Z 00457e90 f   UiHelperMission.obj
 0001:00057060       ?Clear@KUiHelperMission@@AAEXXZ 00458060 f   UiHelperMission.obj
 0001:00057090       ?LoadIndexList@KUiHelperMission@@AAEXPBD@Z 00458090 f   UiHelperMission.obj
 0001:000572a0       ?UpdateData@KUiHelperMission@@AAEXH@Z 004582a0 f   UiHelperMission.obj
 0001:000573b0       ?LaunchReconnect@KReconnectWnd@@SA_NH@Z 004583b0 f   UiReconnect.obj
 0001:00057490       ??_GKReconnectWnd@@EAEPAXI@Z 00458490 f i UiReconnect.obj
 0001:00057490       ??_EKReconnectWnd@@EAEPAXI@Z 00458490 f i UiReconnect.obj
 0001:000574b0       ??1KReconnectWnd@@EAE@XZ   004584b0 f i UiReconnect.obj
 0001:000574c0       ?IsReconnecttingGoingOn@KReconnectWnd@@SA_NXZ 004584c0 f   UiReconnect.obj
 0001:000574d0       ?FirstReconnect@KReconnectWnd@@AAEXXZ 004584d0 f   UiReconnect.obj
 0001:00057540       ?StartReconnect@KReconnectWnd@@AAE_NXZ 00458540 f   UiReconnect.obj
 0001:00057630       ?Exit@KReconnectWnd@@SAX_N@Z 00458630 f   UiReconnect.obj
 0001:00057680       ?Breathe@KReconnectWnd@@EAEXXZ 00458680 f   UiReconnect.obj
 0001:000578e0       ?WndProc@KReconnectWnd@@EAEHIIH@Z 004588e0 f   UiReconnect.obj
 0001:00057920       ?LaunchRevive@KReviveWnd@@SA_NXZ 00458920 f   UiRevive.obj
 0001:000579c0       ??_EKReviveWnd@@EAEPAXI@Z  004589c0 f i UiRevive.obj
 0001:000579c0       ??_GKReviveWnd@@EAEPAXI@Z  004589c0 f i UiRevive.obj
 0001:000579e0       ??1KReviveWnd@@EAE@XZ      004589e0 f i UiRevive.obj
 0001:000579f0       ?FirstRevive@KReviveWnd@@AAEXXZ 004589f0 f   UiRevive.obj
 0001:00057a10       ?CloseWindow@KReviveWnd@@AAEXH@Z 00458a10 f   UiRevive.obj
 0001:00057a40       ?Revive@KReviveWnd@@AAEXXZ 00458a40 f   UiRevive.obj
 0001:00057a70       ?Reborn@KReviveWnd@@AAEXXZ 00458a70 f   UiRevive.obj
 0001:00057a80       ?TimeoutRevive@KReviveWnd@@AAEXXZ 00458a80 f   UiRevive.obj
 0001:00057ab0       ?Breathe@KReviveWnd@@EAEXXZ 00458ab0 f   UiRevive.obj
 0001:00057ba0       ?WndProc@KReviveWnd@@EAEHIIH@Z 00458ba0 f   UiRevive.obj
 0001:00057bd0       ?LoadData@KTaskDataFile@@SAXXZ 00458bd0 f   UiTaskDataFile.obj
 0001:00057d60       ?SaveData@KTaskDataFile@@SA_NXZ 00458d60 f   UiTaskDataFile.obj
 0001:00057ef0       ?GetFileName@KTaskDataFile@@CAXPADH@Z 00458ef0 f   UiTaskDataFile.obj
 0001:00057f40       ?ClearAll@KTaskDataFile@@SAXXZ 00458f40 f   UiTaskDataFile.obj
 0001:00057f80       ?GetPersonalRecord@KTaskDataFile@@SAHPADH@Z 00458f80 f   UiTaskDataFile.obj
 0001:00057fc0       ?SetPersonalRecord@KTaskDataFile@@SA_NPBDH@Z 00458fc0 f   UiTaskDataFile.obj
 0001:00058030       ?RemoveSystemRecord@KTaskDataFile@@SA_NH@Z 00459030 f   UiTaskDataFile.obj
 0001:00058090       ?GetSystemRecordCount@KTaskDataFile@@SAHXZ 00459090 f   UiTaskDataFile.obj
 0001:000580a0       ?GetSystemRecord@KTaskDataFile@@SAPBUTASK_SYSTEM_RECORD@@H@Z 004590a0 f   UiTaskDataFile.obj
 0001:000580d0       ?InsertSystemRecord@KTaskDataFile@@SA_NPAUTASK_SYSTEM_RECORD@@@Z 004590d0 f   UiTaskDataFile.obj
 0001:00058150       ?AppendSystemRecord@KTaskDataFile@@CAXPAUKTaskSystemRecordNode@1@@Z 00459150 f   UiTaskDataFile.obj
 0001:00058190       ?InsertSystemRecord@KTaskDataFile@@CAXPAUKTaskSystemRecordNode@1@@Z 00459190 f   UiTaskDataFile.obj
 0001:000581b0       ??0KTaskEdit@@QAE@XZ       004591b0 f   UiTaskNote.obj
 0001:00058210       ??_EKTaskEdit@@UAEPAXI@Z   00459210 f i UiTaskNote.obj
 0001:00058210       ??_GKTaskEdit@@UAEPAXI@Z   00459210 f i UiTaskNote.obj
 0001:00058230       ??1KTaskEdit@@UAE@XZ       00459230 f i UiTaskNote.obj
 0001:00058240       ?Initialize@KUiTaskNote_Personal@@QAEXXZ 00459240 f   UiTaskNote.obj
 0001:00058270       ?LoadScheme@KUiTaskNote_Personal@@QAEXPBD@Z 00459270 f   UiTaskNote.obj
 0001:00058360       ?UpdateView@KUiTaskNote_Personal@@QAEXXZ 00459360 f   UiTaskNote.obj
 0001:000583b0       ?UpdateData@KUiTaskNote_Personal@@UAEXXZ 004593b0 f   UiTaskNote.obj
 0001:000583c0       ?WndProc@KUiTaskNote_Personal@@EAEHIIH@Z 004593c0 f   UiTaskNote.obj
 0001:00058400       ?Show@KUiTaskNote_Personal@@UAEXXZ 00459400 f   UiTaskNote.obj
 0001:00058420       ?Hide@KUiTaskNote_Personal@@UAEXXZ 00459420 f   UiTaskNote.obj
 0001:00058440       ?OnSave@KUiTaskNote_Personal@@AAEXXZ 00459440 f   UiTaskNote.obj
 0001:00058470       ?Initialize@KUiTaskNote_System@@QAEXXZ 00459470 f   UiTaskNote.obj
 0001:00058490       ?LoadScheme@KUiTaskNote_System@@QAEXPBD@Z 00459490 f   UiTaskNote.obj
 0001:00058570       ?WndProc@KUiTaskNote_System@@EAEHIIH@Z 00459570 f   UiTaskNote.obj
 0001:000585f0       ?OnDelete@KUiTaskNote_System@@AAEXH@Z 004595f0 f   UiTaskNote.obj
 0001:00058630       ?UpdateView@KUiTaskNote_System@@QAEXXZ 00459630 f   UiTaskNote.obj
 0001:00058690       ??0KUiTaskNote@@AAE@XZ     00459690 f   UiTaskNote.obj
 0001:000587a0       ??_GKUiTaskNote@@EAEPAXI@Z 004597a0 f i UiTaskNote.obj
 0001:000587a0       ??_EKUiTaskNote@@EAEPAXI@Z 004597a0 f i UiTaskNote.obj
 0001:000587c0       ??1KUiTaskNote_System@@UAE@XZ 004597c0 f i UiTaskNote.obj
 0001:00058860       ??1KUiTaskNote_Personal@@UAE@XZ 00459860 f i UiTaskNote.obj
 0001:000588f0       ??_GKUiTaskNote_System@@UAEPAXI@Z 004598f0 f i UiTaskNote.obj
 0001:000588f0       ??_EKUiTaskNote_System@@UAEPAXI@Z 004598f0 f i UiTaskNote.obj
 0001:00058910       ??_EKUiTaskNote_Personal@@UAEPAXI@Z 00459910 f i UiTaskNote.obj
 0001:00058910       ??_GKUiTaskNote_Personal@@UAEPAXI@Z 00459910 f i UiTaskNote.obj
 0001:00058930       ??1KUiTaskNote@@EAE@XZ     00459930 f   UiTaskNote.obj
 0001:00058a80       ?OpenWindow@KUiTaskNote@@SAPAV1@XZ 00459a80 f   UiTaskNote.obj
 0001:00058b30       ?CloseWindow@KUiTaskNote@@SAX_N@Z 00459b30 f   UiTaskNote.obj
 0001:00058b70       ?GetIfVisible@KUiTaskNote@@SAPAV1@XZ 00459b70 f   UiTaskNote.obj
 0001:00058b90       ?InitData@KUiTaskNote@@AAEXXZ 00459b90 f   UiTaskNote.obj
 0001:00058bb0       ?SaveData@KUiTaskNote@@AAEXXZ 00459bb0 f   UiTaskNote.obj
 0001:00058bd0       ?LoadScheme@KUiTaskNote@@SAXPBD@Z 00459bd0 f   UiTaskNote.obj
 0001:00058d00       ?Initialize@KUiTaskNote@@AAEXXZ 00459d00 f   UiTaskNote.obj
 0001:00058d90       ?WndProc@KUiTaskNote@@EAEHIIH@Z 00459d90 f   UiTaskNote.obj
 0001:00058e10       ?OnClose@KUiTaskNote@@AAEXXZ 00459e10 f   UiTaskNote.obj
 0001:00058e20       ?WakeUp@KUiTaskNote@@SAXPBDHI@Z 00459e20 f   UiTaskNote.obj
 0001:00058eb0       ??0KUiNewsMessage@@AAE@XZ  00459eb0 f   UiNewsMessage.obj
 0001:00058f50       ??_EKUiNewsMessage@@EAEPAXI@Z 00459f50 f i UiNewsMessage.obj
 0001:00058f50       ??_GKUiNewsMessage@@EAEPAXI@Z 00459f50 f i UiNewsMessage.obj
 0001:00058f70       ??1KUiNewsMessage@@EAE@XZ  00459f70 f i UiNewsMessage.obj
 0001:00058fd0       ?EnableIdleMsg@KUiNewsMessage@@SAXH@Z 00459fd0 f   UiNewsMessage.obj
 0001:00059030       ?AddMessage@KUiNewsMessage@@AAE_NPAUKNewsMessage@@II@Z 0045a030 f   UiNewsMessage.obj
 0001:00059090       ?SeparateMsg@KUiNewsMessage@@AAEPAUKNewsMessageNode@@XZ 0045a090 f   UiNewsMessage.obj
 0001:000590f0       ?AddToTail@KUiNewsMessage@@AAEXPAUKNewsMessageNode@@@Z 0045a0f0 f   UiNewsMessage.obj
 0001:00059130       ?Clear@KUiNewsMessage@@AAEXXZ 0045a130 f   UiNewsMessage.obj
 0001:00059170       ?OpenWindow@KUiNewsMessage@@SAPAV1@XZ 0045a170 f   UiNewsMessage.obj
 0001:00059220       ?GetIfVisible@KUiNewsMessage@@SAPAV1@XZ 0045a220 f   UiNewsMessage.obj
 0001:00059240       ?CloseWindow@KUiNewsMessage@@SAXH@Z 0045a240 f   UiNewsMessage.obj
 0001:00059280       ?Initialize@KUiNewsMessage@@AAEXXZ 0045a280 f   UiNewsMessage.obj
 0001:000592e0       ?LoadScheme@KUiNewsMessage@@SAXPBD@Z 0045a2e0 f   UiNewsMessage.obj
 0001:00059560       ?PtInWindow@KUiNewsMessage@@EAEHFF@Z 0045a560 f   UiNewsMessage.obj
 0001:00059570       ?MessageArrival@KUiNewsMessage@@SAXPAUKNewsMessage@@PAU_SYSTEMTIME@@@Z 0045a570 f   UiNewsMessage.obj
 0001:00059700       ?PaintWindow@KUiNewsMessage@@EAEXXZ 0045a700 f   UiNewsMessage.obj
 0001:00059880       ?PickAMessage@KUiNewsMessage@@AAE_NXZ 0045a880 f   UiNewsMessage.obj
 0001:00059990       ?PickFromIni@KUiNewsMessage@@AAEXXZ 0045a990 f   UiNewsMessage.obj
 0001:00059a40       ?Breathe@KUiNewsMessage@@EAEXXZ 0045aa40 f   UiNewsMessage.obj
 0001:00059aa0       ?ConvertMsg@KUiNewsMessage@@AAEXXZ 0045aaa0 f   UiNewsMessage.obj
 0001:00059b40       ?MakeCountingMsg@KUiNewsMessage@@AAE_NXZ 0045ab40 f   UiNewsMessage.obj
 0001:00059cc0       ?Reset@KUiNewsMessage@@AAEXXZ 0045acc0 f   UiNewsMessage.obj
 0001:00059d20       ?ScrollMsg@KUiNewsMessage@@AAE_NXZ 0045ad20 f   UiNewsMessage.obj
 0001:00059f40       ??0KUiNewsMessageEx@@AAE@XZ 0045af40 f   UiNewsMessageEx.obj
 0001:00059fe0       ??_EKUiNewsMessageEx@@EAEPAXI@Z 0045afe0 f i UiNewsMessageEx.obj
 0001:00059fe0       ??_GKUiNewsMessageEx@@EAEPAXI@Z 0045afe0 f i UiNewsMessageEx.obj
 0001:0005a000       ??1KUiNewsMessageEx@@EAE@XZ 0045b000 f i UiNewsMessageEx.obj
 0001:0005a060       ?EnableIdleMsg@KUiNewsMessageEx@@SAXH@Z 0045b060 f   UiNewsMessageEx.obj
 0001:0005a0c0       ?AddMessage@KUiNewsMessageEx@@AAE_NPAUKNewsMessage@@II@Z 0045b0c0 f   UiNewsMessageEx.obj
 0001:0005a120       ?SeparateMsg@KUiNewsMessageEx@@AAEPAUKNewsMessageNode@@XZ 0045b120 f   UiNewsMessageEx.obj
 0001:0005a180       ?AddToTail@KUiNewsMessageEx@@AAEXPAUKNewsMessageNode@@@Z 0045b180 f   UiNewsMessageEx.obj
 0001:0005a1c0       ?Clear@KUiNewsMessageEx@@AAEXXZ 0045b1c0 f   UiNewsMessageEx.obj
 0001:0005a200       ?OpenWindow@KUiNewsMessageEx@@SAPAV1@XZ 0045b200 f   UiNewsMessageEx.obj
 0001:0005a2b0       ?GetIfVisible@KUiNewsMessageEx@@SAPAV1@XZ 0045b2b0 f   UiNewsMessageEx.obj
 0001:0005a2d0       ?CloseWindow@KUiNewsMessageEx@@SAXH@Z 0045b2d0 f   UiNewsMessageEx.obj
 0001:0005a310       ?Initialize@KUiNewsMessageEx@@AAEXXZ 0045b310 f   UiNewsMessageEx.obj
 0001:0005a370       ?LoadScheme@KUiNewsMessageEx@@SAXPBD@Z 0045b370 f   UiNewsMessageEx.obj
 0001:0005a5f0       ?PtInWindow@KUiNewsMessageEx@@EAEHHH@Z 0045b5f0 f   UiNewsMessageEx.obj
 0001:0005a600       ?MessageArrival@KUiNewsMessageEx@@SAXPAUKNewsMessage@@PAU_SYSTEMTIME@@@Z 0045b600 f   UiNewsMessageEx.obj
 0001:0005a790       ?PaintWindow@KUiNewsMessageEx@@EAEXXZ 0045b790 f   UiNewsMessageEx.obj
 0001:0005a910       ?PickAMessage@KUiNewsMessageEx@@AAE_NXZ 0045b910 f   UiNewsMessageEx.obj
 0001:0005aa20       ?PickFromIni@KUiNewsMessageEx@@AAEXXZ 0045ba20 f   UiNewsMessageEx.obj
 0001:0005aad0       ?Breathe@KUiNewsMessageEx@@EAEXXZ 0045bad0 f   UiNewsMessageEx.obj
 0001:0005ab30       ?ConvertMsg@KUiNewsMessageEx@@AAEXXZ 0045bb30 f   UiNewsMessageEx.obj
 0001:0005abd0       ?MakeCountingMsg@KUiNewsMessageEx@@AAE_NXZ 0045bbd0 f   UiNewsMessageEx.obj
 0001:0005ad50       ?Reset@KUiNewsMessageEx@@AAEXXZ 0045bd50 f   UiNewsMessageEx.obj
 0001:0005adb0       ?ScrollMsg@KUiNewsMessageEx@@AAE_NXZ 0045bdb0 f   UiNewsMessageEx.obj
 0001:0005b340       ??0KUiStrengthRank@@QAE@XZ 0045c340 f   UiStrengthRank.obj
 0001:0005b400       ??_GKUiStrengthRank@@UAEPAXI@Z 0045c400 f i UiStrengthRank.obj
 0001:0005b400       ??_EKUiStrengthRank@@UAEPAXI@Z 0045c400 f i UiStrengthRank.obj
 0001:0005b420       ??1KUiStrengthRank@@UAE@XZ 0045c420 f   UiStrengthRank.obj
 0001:0005b510       ?GetIfVisible@KUiStrengthRank@@SAPAV1@XZ 0045c510 f   UiStrengthRank.obj
 0001:0005b530       ?OpenWindow@KUiStrengthRank@@SAPAV1@XZ 0045c530 f   UiStrengthRank.obj
 0001:0005b5d0       ?OpenDefaultWindow@KUiStrengthRank@@SAPAV1@H@Z 0045c5d0 f   UiStrengthRank.obj
 0001:0005b680       ?ArrangeDefaultData@KUiStrengthRank@@AAEXXZ 0045c680 f   UiStrengthRank.obj
 0001:0005b8c0       ?Initialize@KUiStrengthRank@@AAEXXZ 0045c8c0 f   UiStrengthRank.obj
 0001:0005ba20       ?CloseWindow@KUiStrengthRank@@SAX_N@Z 0045ca20 f   UiStrengthRank.obj
 0001:0005ba70       ?Breathe@KUiStrengthRank@@EAEXXZ 0045ca70 f   UiStrengthRank.obj
 0001:0005bad0       ?WndProc@KUiStrengthRank@@EAEHIIH@Z 0045cad0 f   UiStrengthRank.obj
 0001:0005bc40       ?LoadScheme@KUiStrengthRank@@SAXPBD@Z 0045cc40 f   UiStrengthRank.obj
 0001:0005be80       ?ReleasePic@KUiStrengthRank@@AAEXXZ 0045ce80 f   UiStrengthRank.obj
 0001:0005bec0       ?ReleaseData@KUiStrengthRank@@AAEXXZ 0045cec0 f   UiStrengthRank.obj
 0001:0005c130       ?UpdateRankData@KUiStrengthRank@@AAEXH@Z 0045d130 f   UiStrengthRank.obj
 0001:0005c300       ?LoadIndexIni@KUiStrengthRank@@AAEHPAVKIniFile@@@Z 0045d300 f   UiStrengthRank.obj
 0001:0005c470       ?LoadRankIni@KUiStrengthRank@@AAEHPAVKIniFile@@H@Z 0045d470 f   UiStrengthRank.obj
 0001:0005c5c0       ?SendGetRankToCore@KUiStrengthRank@@AAEXH@Z 0045d5c0 f   UiStrengthRank.obj
 0001:0005c630       ?ConstructIndexView@KUiStrengthRank@@AAEXXZ 0045d630 f   UiStrengthRank.obj
 0001:0005c710       ?ConstructRankView@KUiStrengthRank@@AAEXXZ 0045d710 f   UiStrengthRank.obj
 0001:0005ca10       ?NewIndexArrive@KUiStrengthRank@@SAXIPAUKRankIndex@@@Z 0045da10 f   UiStrengthRank.obj
 0001:0005caa0       ?NewRankArrive@KUiStrengthRank@@SAXIPAUKRankMessage@@@Z 0045daa0 f   UiStrengthRank.obj
 0001:0005cac0       ?AddIndex@KUiStrengthRank@@CAXIPAUKRankIndex@@@Z 0045dac0 f   UiStrengthRank.obj
 0001:0005cd10       ?AddRank@KUiStrengthRank@@CAXIPAUKRankMessage@@@Z 0045dd10 f   UiStrengthRank.obj
 0001:0005cef0       ?StoreTempIni@KUiStrengthRank@@CAXXZ 0045def0 f   UiStrengthRank.obj
 0001:0005d130       ?StoreNewDataToTempFile@KUiStrengthRank@@CAXIPAUKRankIndex@@@Z 0045e130 f   UiStrengthRank.obj
 0001:0005d2d0       ?StoreNewDataToTempFile@KUiStrengthRank@@CAXIPAUKRankMessage@@@Z 0045e2d0 f   UiStrengthRank.obj
 0001:0005d430       ?AttachTempFile@KUiStrengthRank@@SAHXZ 0045e430 f   UiStrengthRank.obj
 0001:0005d4f0       ?RemoveTempFile@KUiStrengthRank@@SAXXZ 0045e4f0 f   UiStrengthRank.obj
 0001:0005d540       ?TDrawOutString@@YAHPADHHH@Z 0045e540 f   UiStrengthRank.obj
 0001:0005d5e0       ??_G?$KLinkStruct@UKRankIndexNode@@@@UAEPAXI@Z 0045e5e0 f i UiStrengthRank.obj
 0001:0005d5e0       ??_E?$KLinkStruct@UKRankIndexNode@@@@UAEPAXI@Z 0045e5e0 f i UiStrengthRank.obj
 0001:0005d6e0       ??_E?$KLinkStruct@UKRankNode@@@@UAEPAXI@Z 0045e6e0 f i UiStrengthRank.obj
 0001:0005d6e0       ??_G?$KLinkStruct@UKRankNode@@@@UAEPAXI@Z 0045e6e0 f i UiStrengthRank.obj
 0001:0005d7e0       ?RemoveItem@?$KLinkStruct@UKRankIndexNode@@@@QAEHXZ 0045e7e0 f i UiStrengthRank.obj
 0001:0005d8c0       ??0KUiPopupPasswordQuery@@QAE@XZ 0045e8c0 f   UiPopupPasswordQuery.obj
 0001:0005d920       ??_EKUiPopupPasswordQuery@@UAEPAXI@Z 0045e920 f i UiPopupPasswordQuery.obj
 0001:0005d920       ??_GKUiPopupPasswordQuery@@UAEPAXI@Z 0045e920 f i UiPopupPasswordQuery.obj
 0001:0005d940       ??1KUiPopupPasswordQuery@@UAE@XZ 0045e940 f   UiPopupPasswordQuery.obj
 0001:0005d9b0       ?OpenWindow@KUiPopupPasswordQuery@@SAPAV1@PAVKWndWindow@@I@Z 0045e9b0 f   UiPopupPasswordQuery.obj
 0001:0005da80       ?GetIfVisible@KUiPopupPasswordQuery@@SAPAV1@XZ 0045ea80 f   UiPopupPasswordQuery.obj
 0001:0005daa0       ?CloseWindow@KUiPopupPasswordQuery@@SAX_N@Z 0045eaa0 f   UiPopupPasswordQuery.obj
 0001:0005dad0       ?Initialize@KUiPopupPasswordQuery@@AAEXXZ 0045ead0 f   UiPopupPasswordQuery.obj
 0001:0005db30       ?LoadScheme@KUiPopupPasswordQuery@@SAXPBD@Z 0045eb30 f   UiPopupPasswordQuery.obj
 0001:0005dc20       ?WndProc@KUiPopupPasswordQuery@@EAEHIIH@Z 0045ec20 f   UiPopupPasswordQuery.obj
 0001:0005dc90       ?OnConfirm@KUiPopupPasswordQuery@@AAEXXZ 0045ec90 f   UiPopupPasswordQuery.obj
 0001:0005dd10       ??0KUiTongAssignBox@@QAE@XZ 0045ed10 f   UiTongAssignBox.obj
 0001:0005de00       ??_EKUiTongAssignBox@@UAEPAXI@Z 0045ee00 f i UiTongAssignBox.obj
 0001:0005de00       ??_GKUiTongAssignBox@@UAEPAXI@Z 0045ee00 f i UiTongAssignBox.obj
 0001:0005de20       ??1KUiTongAssignBox@@UAE@XZ 0045ee20 f   UiTongAssignBox.obj
 0001:0005df00       ?OpenWindow@KUiTongAssignBox@@SAPAV1@XZ 0045ef00 f   UiTongAssignBox.obj
 0001:0005dfb0       ?GetIfVisible@KUiTongAssignBox@@SAPAV1@XZ 0045efb0 f   UiTongAssignBox.obj
 0001:0005dfd0       ?CloseWindow@KUiTongAssignBox@@SAX_N@Z 0045efd0 f   UiTongAssignBox.obj
 0001:0005e010       ?Initialize@KUiTongAssignBox@@AAEXXZ 0045f010 f   UiTongAssignBox.obj
 0001:0005e0d0       ?LoadScheme@KUiTongAssignBox@@SAXPBD@Z 0045f0d0 f   UiTongAssignBox.obj
 0001:0005e2d0       ?WndProc@KUiTongAssignBox@@UAEHIIH@Z 0045f2d0 f   UiTongAssignBox.obj
 0001:0005e4a0       ?LinkToMainWindow@KUiTongAssignBox@@SAXPAVKWndWindow@@@Z 0045f4a0 f   UiTongAssignBox.obj
 0001:0005e4d0       ?ArrangeData@KUiTongAssignBox@@SAXHPAD0HH@Z 0045f4d0 f   UiTongAssignBox.obj
 0001:0005e640       ?UpdateCheckButton@KUiTongAssignBox@@AAEXH@Z 0045f640 f   UiTongAssignBox.obj
 0001:0005e6e0       ?PopupConfirmWindow@KUiTongAssignBox@@AAEXI@Z 0045f6e0 f   UiTongAssignBox.obj
 0001:0005e750       ?OnConfirm@KUiTongAssignBox@@AAEXXZ 0045f750 f   UiTongAssignBox.obj
 0001:0005e780       ??0KUiTongChangeTitle@@AAE@XZ 0045f780 f   UiTongChangeTitle.obj
 0001:0005e800       ??_GKUiTongChangeTitle@@EAEPAXI@Z 0045f800 f i UiTongChangeTitle.obj
 0001:0005e800       ??_EKUiTongChangeTitle@@EAEPAXI@Z 0045f800 f i UiTongChangeTitle.obj
 0001:0005e820       ??1KUiTongChangeTitle@@EAE@XZ 0045f820 f i UiTongChangeTitle.obj
 0001:0005e8a0       ?OpenWindow@KUiTongChangeTitle@@SAPAV1@PAVKWndWindow@@IHH@Z 0045f8a0 f   UiTongChangeTitle.obj
 0001:0005e9a0       ?CloseWindow@KUiTongChangeTitle@@SAX_N@Z 0045f9a0 f   UiTongChangeTitle.obj
 0001:0005e9e0       ?GetIfVisible@KUiTongChangeTitle@@SAPAV1@XZ 0045f9e0 f   UiTongChangeTitle.obj
 0001:0005ea00       ?Show@KUiTongChangeTitle@@EAEXXZ 0045fa00 f   UiTongChangeTitle.obj
 0001:0005ea60       ?Hide@KUiTongChangeTitle@@EAEXXZ 0045fa60 f   UiTongChangeTitle.obj
 0001:0005ea80       ?Initialize@KUiTongChangeTitle@@AAEXXZ 0045fa80 f   UiTongChangeTitle.obj
 0001:0005eaf0       ?LoadScheme@KUiTongChangeTitle@@SAXPBD@Z 0045faf0 f   UiTongChangeTitle.obj
 0001:0005ec00       ?WndProc@KUiTongChangeTitle@@EAEHIIH@Z 0045fc00 f   UiTongChangeTitle.obj
 0001:0005eca0       ?OnOk@KUiTongChangeTitle@@AAEXXZ 0045fca0 f   UiTongChangeTitle.obj
 0001:0005ed50       ?OnCancel@KUiTongChangeTitle@@AAEXXZ 0045fd50 f   UiTongChangeTitle.obj
 0001:0005ed80       ??0KUiTongCreateSheet@@QAE@XZ 0045fd80 f   UiTongCreateSheet.obj
 0001:0005ee70       ??_GKUiTongCreateSheet@@UAEPAXI@Z 0045fe70 f i UiTongCreateSheet.obj
 0001:0005ee70       ??_EKUiTongCreateSheet@@UAEPAXI@Z 0045fe70 f i UiTongCreateSheet.obj
 0001:0005ee90       ??1KUiTongCreateSheet@@UAE@XZ 0045fe90 f   UiTongCreateSheet.obj
 0001:0005ef80       ?OpenWindow@KUiTongCreateSheet@@SAPAV1@PBD@Z 0045ff80 f   UiTongCreateSheet.obj
 0001:0005f060       ?GetIfVisible@KUiTongCreateSheet@@SAPAV1@XZ 00460060 f   UiTongCreateSheet.obj
 0001:0005f080       ?CloseWindow@KUiTongCreateSheet@@SAX_N@Z 00460080 f   UiTongCreateSheet.obj
 0001:0005f0b0       ?Initialize@KUiTongCreateSheet@@AAEXXZ 004600b0 f   UiTongCreateSheet.obj
 0001:0005f180       ?LoadScheme@KUiTongCreateSheet@@SAXPBD@Z 00460180 f   UiTongCreateSheet.obj
 0001:0005f400       ?WndProc@KUiTongCreateSheet@@EAEHIIH@Z 00460400 f   UiTongCreateSheet.obj
 0001:0005f4a0       ?AlignmentButtonCheck@KUiTongCreateSheet@@AAEXW4NPCCAMP@@@Z 004604a0 f   UiTongCreateSheet.obj
 0001:0005f530       ?OnDone@KUiTongCreateSheet@@AAEXXZ 00460530 f   UiTongCreateSheet.obj
 0001:0005f5e0       ??0KUiTongInformation@@AAE@XZ 004605e0 f   UiTongInformation.obj
 0001:0005f660       ??_EKUiTongInformation@@UAEPAXI@Z 00460660 f i UiTongInformation.obj
 0001:0005f660       ??_GKUiTongInformation@@UAEPAXI@Z 00460660 f i UiTongInformation.obj
 0001:0005f680       ??1KUiTongInformation@@UAE@XZ 00460680 f i UiTongInformation.obj
 0001:0005f6f0       ?OpenWindow@KUiTongInformation@@SAPAV1@PBDHPAVKWndWindow@@I@Z 004606f0 f   UiTongInformation.obj
 0001:0005f7a0       ?GetIfVisible@KUiTongInformation@@SAPAV1@XZ 004607a0 f   UiTongInformation.obj
 0001:0005f7c0       ?CloseWindow@KUiTongInformation@@SAX_N@Z 004607c0 f   UiTongInformation.obj
 0001:0005f800       ?Initialize@KUiTongInformation@@AAEXXZ 00460800 f   UiTongInformation.obj
 0001:0005f870       ?LoadScheme@KUiTongInformation@@AAEXPBD@Z 00460870 f   UiTongInformation.obj
 0001:0005f960       ?Show@KUiTongInformation@@AAEXPBDHPAVKWndWindow@@I@Z 00460960 f   UiTongInformation.obj
 0001:0005f9c0       ?OnClickBtn@KUiTongInformation@@AAEXH@Z 004609c0 f   UiTongInformation.obj
 0001:0005fa10       ?WndProc@KUiTongInformation@@EAEHIIH@Z 00460a10 f   UiTongInformation.obj
 0001:0005fa70       ??0KUiTongManager@@QAE@XZ  00460a70 f   UiTongManager.obj
 0001:0005fbf0       ??_GKUiTongManager@@UAEPAXI@Z 00460bf0 f i UiTongManager.obj
 0001:0005fbf0       ??_EKUiTongManager@@UAEPAXI@Z 00460bf0 f i UiTongManager.obj
 0001:0005fc10       ??1KUiTongInfo@@UAE@XZ     00460c10 f i UiTongManager.obj
 0001:00060050       ??1KUiTongFunUse@@UAE@XZ   00461050 f i UiTongManager.obj
 0001:000600a0       ??1KUiTongRightManage@@UAE@XZ 004610a0 f i UiTongManager.obj
 0001:00060190       ??1KUiTongRecord@@UAE@XZ   00461190 f i UiTongManager.obj
 0001:000602c0       ??1KWndRichLabeledButton@@UAE@XZ 004612c0 f i UiTongManager.obj
 0001:00060310       ??1KUiTongFunUseSub@@UAE@XZ 00461310 f i UiTongManager.obj
 0001:00060870       ??1KUiTongFunUseSubPage@@UAE@XZ 00461870 f i UiTongManager.obj
 0001:00060880       ??1KUiTongManager@@UAE@XZ  00461880 f   UiTongManager.obj
 0001:00060b80       ?OpenWindow@KUiTongManager@@SAPAV1@XZ 00461b80 f   UiTongManager.obj
 0001:00060c30       ?OpenWindow@KUiTongManager@@SAPAV1@PAD@Z 00461c30 f   UiTongManager.obj
 0001:00060c50       ?ArrangeComposition@KUiTongManager@@QAEXPAD@Z 00461c50 f   UiTongManager.obj
 0001:00060d80       ?ClearTongData@KUiTongManager@@QAEXXZ 00461d80 f   UiTongManager.obj
 0001:00060ee0       ?GetIfVisible@KUiTongManager@@SAPAV1@XZ 00461ee0 f   UiTongManager.obj
 0001:00060f00       ?CloseWindow@KUiTongManager@@SAX_N@Z 00461f00 f   UiTongManager.obj
 0001:00060f40       ?ShowPage@KUiTongManager@@AAEXW4TONG_PAGE@1@@Z 00461f40 f   UiTongManager.obj
 0001:00061080       ?UpdateBtnTheme@KUiTongManager@@AAEXHH@Z 00462080 f   UiTongManager.obj
 0001:00061190       ?Initialize@KUiTongManager@@AAEXXZ 00462190 f   UiTongManager.obj
 0001:00061260       ?LoadScheme@KUiTongManager@@SAXPBD@Z 00462260 f   UiTongManager.obj
 0001:00061410       ?Breathe@KUiTongManager@@EAEXXZ 00462410 f   UiTongManager.obj
 0001:00061440       ?WndProc@KUiTongManager@@UAEHIIH@Z 00462440 f   UiTongManager.obj
 0001:00061510       ?TongInfoArrive@KUiTongManager@@SAXPAUKUiPlayerRelationWithOther@@PAUKTongInfo@@@Z 00462510 f   UiTongManager.obj
 0001:000615b0       ?NewDataArrive@KUiTongManager@@SAXPAUKUiGameObjectWithName@@PAUKTongMemberItem@@@Z 004625b0 f   UiTongManager.obj
 0001:00061910       ?SaveNewData@KUiTongManager@@CAXPAUKUiGameObjectWithName@@PAUKTongMemberItem@@@Z 00462910 f   UiTongManager.obj
 0001:00061b90       ?SaveWholeData@KUiTongManager@@CAXH@Z 00462b90 f   UiTongManager.obj
 0001:00061e40       ?LoadData@KUiTongManager@@SAXXZ 00462e40 f   UiTongManager.obj
 0001:00061fe0       ?LoadDataHandler@KUiTongManager@@SAHPAV?$KLinkStruct@UKPilgarlicItem@@@@PBD@Z 00462fe0 f   UiTongManager.obj
 0001:000622f0       ?GetMemberData@KUiTongManager@@SAPAV?$KLinkStruct@UKPilgarlicItem@@@@XZ 004632f0 f   UiTongManager.obj
 0001:00062300       ?FindPlayer@KUiTongManager@@SAPAV?$KLinkStruct@UKPilgarlicItem@@@@PAD@Z 00463300 f   UiTongManager.obj
 0001:00062330       ?HandleFind@KUiTongManager@@AAEPAV?$KLinkStruct@UKPilgarlicItem@@@@PAV2@PAD@Z 00463330 f   UiTongManager.obj
 0001:000623d0       ?RequestData@KUiTongManager@@CAXHHH@Z 004633d0 f   UiTongManager.obj
 0001:00062430       ?RemoveTempFile@KUiTongManager@@SAHXZ 00463430 f   UiTongManager.obj
 0001:000624b0       ?LockOperation@KUiTongManager@@SAXXZ 004634b0 f   UiTongManager.obj
 0001:000624f0       ?GetLockOperation@KUiTongManager@@SA_NXZ 004634f0 f   UiTongManager.obj
 0001:00062510       ?LockInfomation@KUiTongManager@@SAXXZ 00463510 f   UiTongManager.obj
 0001:00062530       ?ResponseResult@KUiTongManager@@SAXPAUKUiGameObjectWithName@@H@Z 00463530 f   UiTongManager.obj
 0001:000625d0       ?ResponseLeave@KUiTongManager@@QAEXPAUKUiGameObjectWithName@@H@Z 004635d0 f   UiTongManager.obj
 0001:000625f0       ?ResponseDemise@KUiTongManager@@QAEXPAUKUiGameObjectWithName@@H@Z 004635f0 f   UiTongManager.obj
 0001:00062620       ?ResponseApply@KUiTongManager@@QAEXPAUKUiGameObjectWithName@@H@Z 00463620 f   UiTongManager.obj
 0001:00062650       ?ResponseKickOut@KUiTongManager@@QAEXPAUKUiGameObjectWithName@@H@Z 00463650 f   UiTongManager.obj
 0001:000627c0       ?ResponseAssign@KUiTongManager@@QAEXPAUKUiGameObjectWithName@@H@Z 004637c0 f   UiTongManager.obj
 0001:00062a40       ?OnRefresh@KUiTongManager@@AAEXXZ 00463a40 f   UiTongManager.obj
 0001:00062a70       ?StringToHash@@YAKPBDH@Z   00463a70 f   UiTongManager.obj
 0001:00062b50       ??0KUiTongInfo@@QAE@XZ     00463b50 f   UiTongManager.obj
 0001:00063000       ??_GKUiTongInfo@@UAEPAXI@Z 00464000 f i UiTongManager.obj
 0001:00063000       ??_EKUiTongInfo@@UAEPAXI@Z 00464000 f i UiTongManager.obj
 0001:00063020       ??_GKWndRichLabeledButton@@UAEPAXI@Z 00464020 f i UiTongManager.obj
 0001:00063020       ??_EKWndRichLabeledButton@@UAEPAXI@Z 00464020 f i UiTongManager.obj
 0001:00063040       ?Initialize@KUiTongInfo@@QAEXXZ 00464040 f   UiTongManager.obj
 0001:000631d0       ?LoadScheme@KUiTongInfo@@AAEXPBD@Z 004641d0 f   UiTongManager.obj
 0001:00063540       ?WndProc@KUiTongInfo@@EAEHIIH@Z 00464540 f   UiTongManager.obj
 0001:000635e0       ?OnShowOnline@KUiTongInfo@@AAEXH@Z 004645e0 f   UiTongManager.obj
 0001:000635f0       ?OnPrevPage@KUiTongInfo@@AAEXXZ 004645f0 f   UiTongManager.obj
 0001:00063610       ?OnNextPage@KUiTongInfo@@AAEXXZ 00464610 f   UiTongManager.obj
 0001:00063640       ?OnJumpPage@KUiTongInfo@@AAEXXZ 00464640 f   UiTongManager.obj
 0001:00063680       ?OnCheckInput@KUiTongInfo@@AAEXXZ 00464680 f   UiTongManager.obj
 0001:00063720       ?InfoArrive@KUiTongInfo@@QAEXPAUKTongInfo@@@Z 00464720 f   UiTongManager.obj
 0001:00063730       ?Clear@KUiTongInfo@@QAEXXZ 00464730 f   UiTongManager.obj
 0001:000637c0       ?UpdateInfoView@KUiTongInfo@@AAEXPAUKTongInfo@@@Z 004647c0 f   UiTongManager.obj
 0001:00063980       ?UpdateListView@KUiTongInfo@@QAEXE@Z 00464980 f   UiTongManager.obj
 0001:00063b10       ??0KUiTongFunUseSubPage@@QAE@XZ 00464b10 f   UiTongManager.obj
 0001:00063b30       ??_GKUiTongFunUseSubPage@@UAEPAXI@Z 00464b30 f i UiTongManager.obj
 0001:00063b30       ??_EKUiTongFunUseSubPage@@UAEPAXI@Z 00464b30 f i UiTongManager.obj
 0001:00063b50       ?Initialize@KUiTongFunUseSubPage@@QAEXH@Z 00464b50 f   UiTongManager.obj
 0001:00063ba0       ?LoadScheme@KUiTongFunUseSubPage@@AAEXPBDH@Z 00464ba0 f   UiTongManager.obj
 0001:00063ca0       ?WndProc@KUiTongFunUseSubPage@@EAEHIIH@Z 00464ca0 f   UiTongManager.obj
 0001:00063cd0       ??0KUiTongFunUseSub@@QAE@XZ 00464cd0 f   UiTongManager.obj
 0001:000642b0       ??_EKUiTongFunUseSub@@UAEPAXI@Z 004652b0 f i UiTongManager.obj
 0001:000642b0       ??_GKUiTongFunUseSub@@UAEPAXI@Z 004652b0 f i UiTongManager.obj
 0001:000642d0       ?Initialize@KUiTongFunUseSub@@QAEXXZ 004652d0 f   UiTongManager.obj
 0001:00064510       ?Clear@KUiTongFunUseSub@@QAEXXZ 00465510 f   UiTongManager.obj
 0001:00064560       ?LoadScheme@KUiTongFunUseSub@@AAEXPBD@Z 00465560 f   UiTongManager.obj
 0001:00064a10       ?WndProc@KUiTongFunUseSub@@EAEHIIH@Z 00465a10 f   UiTongManager.obj
 0001:00064dc0       ?ShowSubPage@KUiTongFunUseSub@@AAEXW4SUB_PAGES@1@@Z 00465dc0 f   UiTongManager.obj
 0001:00064fc0       ?OnShowOnline@KUiTongFunUseSub@@AAEXH@Z 00465fc0 f   UiTongManager.obj
 0001:00064fd0       ?OnPrevPage@KUiTongFunUseSub@@AAEXXZ 00465fd0 f   UiTongManager.obj
 0001:00064ff0       ?OnNextPage@KUiTongFunUseSub@@AAEXXZ 00465ff0 f   UiTongManager.obj
 0001:00065020       ?OnJumpPage@KUiTongFunUseSub@@AAEXXZ 00466020 f   UiTongManager.obj
 0001:00065060       ?OnCheckInput@KUiTongFunUseSub@@AAEXXZ 00466060 f   UiTongManager.obj
 0001:00065100       ?PopupConfirmWindow@KUiTongFunUseSub@@AAEXI@Z 00466100 f   UiTongManager.obj
 0001:000651d0       ?OnAction@KUiTongFunUseSub@@AAEXHH@Z 004661d0 f   UiTongManager.obj
 0001:000652d0       ?OnChangeTitle@KUiTongFunUseSub@@AAEXHPBD@Z 004662d0 f   UiTongManager.obj
 0001:000653d0       ?OnActionMoney@KUiTongFunUseSub@@AAEXHH@Z 004663d0 f   UiTongManager.obj
 0001:00065420       ?ArrangeComposition@KUiTongFunUseSub@@QAEXPBDH@Z 00466420 f   UiTongManager.obj
 0001:00065460       ?InfoArrive@KUiTongFunUseSub@@QAEXPAUKTongInfo@@H@Z 00466460 f   UiTongManager.obj
 0001:00065490       ?UpdateBtnTheme@KUiTongFunUseSub@@AAEXH@Z 00466490 f   UiTongManager.obj
 0001:000656a0       ?UpdateSelectBtn@KUiTongFunUseSub@@AAEXXZ 004666a0 f   UiTongManager.obj
 0001:000657f0       ?UpdateInfoView@KUiTongFunUseSub@@AAEXPAUKTongInfo@@@Z 004667f0 f   UiTongManager.obj
 0001:000658f0       ?UpdateListView@KUiTongFunUseSub@@QAEXE@Z 004668f0 f   UiTongManager.obj
 0001:00065a80       ?GetSelectedPlayer@KUiTongFunUseSub@@AAEPAUKPilgarlicItem@@XZ 00466a80 f   UiTongManager.obj
 0001:00065b10       ??0KUiTongFunUse@@QAE@XZ   00466b10 f   UiTongManager.obj
 0001:00065b70       ??_EKUiTongFunUse@@UAEPAXI@Z 00466b70 f i UiTongManager.obj
 0001:00065b70       ??_GKUiTongFunUse@@UAEPAXI@Z 00466b70 f i UiTongManager.obj
 0001:00065b90       ?Initialize@KUiTongFunUse@@QAEXXZ 00466b90 f   UiTongManager.obj
 0001:00065bf0       ?Clear@KUiTongFunUse@@QAEXXZ 00466bf0 f   UiTongManager.obj
 0001:00065c00       ?ArrangeComposition@KUiTongFunUse@@QAEXPBDH@Z 00466c00 f   UiTongManager.obj
 0001:00065c20       ?LoadScheme@KUiTongFunUse@@AAEXPBD@Z 00466c20 f   UiTongManager.obj
 0001:00065cd0       ?WndProc@KUiTongFunUse@@EAEHIIH@Z 00466cd0 f   UiTongManager.obj
 0001:00065cf0       ?InfoArrive@KUiTongFunUse@@QAEXPAUKTongInfo@@H@Z 00466cf0 f   UiTongManager.obj
 0001:00065d10       ?UpdateListView@KUiTongFunUse@@QAEXE@Z 00466d10 f   UiTongManager.obj
 0001:00065d30       ??0KUiTongRightManage@@QAE@XZ 00466d30 f   UiTongManager.obj
 0001:00065e40       ??_EKUiTongRightManage@@UAEPAXI@Z 00466e40 f i UiTongManager.obj
 0001:00065e40       ??_GKUiTongRightManage@@UAEPAXI@Z 00466e40 f i UiTongManager.obj
 0001:00065e60       ?Initialize@KUiTongRightManage@@QAEXXZ 00466e60 f   UiTongManager.obj
 0001:00065f40       ?LoadScheme@KUiTongRightManage@@AAEXPBD@Z 00466f40 f   UiTongManager.obj
 0001:000661a0       ?Clear@KUiTongRightManage@@QAEXXZ 004671a0 f   UiTongManager.obj
 0001:000661b0       ?UpdateListView@KUiTongRightManage@@QAEXXZ 004671b0 f   UiTongManager.obj
 0001:000662d0       ?WndProc@KUiTongRightManage@@EAEHIIH@Z 004672d0 f   UiTongManager.obj
 0001:00066340       ?ShowSubPage@KUiTongRightManage@@AAEXW4RIGHT_PAGE@1@@Z 00467340 f   UiTongManager.obj
 0001:000663b0       ?OnSelectAll@KUiTongRightManage@@AAEXH@Z 004673b0 f   UiTongManager.obj
 0001:00066410       ??0KUiTongRecord@@QAE@XZ   00467410 f   UiTongManager.obj
 0001:000664f0       ??_EKUiTongRecord@@UAEPAXI@Z 004674f0 f i UiTongManager.obj
 0001:000664f0       ??_GKUiTongRecord@@UAEPAXI@Z 004674f0 f i UiTongManager.obj
 0001:00066510       ?Initialize@KUiTongRecord@@QAEXXZ 00467510 f   UiTongManager.obj
 0001:000665d0       ?LoadScheme@KUiTongRecord@@AAEXPBD@Z 004675d0 f   UiTongManager.obj
 0001:00066770       ?WndProc@KUiTongRecord@@EAEHIIH@Z 00467770 f   UiTongManager.obj
 0001:00066800       ?ShowList@KUiTongRecord@@AAEXW4RECORD_LIST@1@@Z 00467800 f   UiTongManager.obj
 0001:00066920       ?Clear@?$KLinkStruct@UKPilgarlicItem@@@@QAEXXZ 00467920 f i UiTongManager.obj
 0001:000669e0       ??_G?$KLinkStruct@UKPilgarlicItem@@@@UAEPAXI@Z 004679e0 f i UiTongManager.obj
 0001:000669e0       ??_E?$KLinkStruct@UKPilgarlicItem@@@@UAEPAXI@Z 004679e0 f i UiTongManager.obj
 0001:00066ac0       ??0KUiTongSetTax@@AAE@XZ   00467ac0 f   UiTongSetTax .obj
 0001:00066ba0       ??_EKUiTongSetTax@@EAEPAXI@Z 00467ba0 f i UiTongSetTax .obj
 0001:00066ba0       ??_GKUiTongSetTax@@EAEPAXI@Z 00467ba0 f i UiTongSetTax .obj
 0001:00066bc0       ??1KUiTongSetTax@@EAE@XZ   00467bc0 f i UiTongSetTax .obj
 0001:00066cb0       ?OpenWindow@KUiTongSetTax@@SAPAV1@PBD0HH@Z 00467cb0 f   UiTongSetTax .obj
 0001:00066dc0       ?CloseWindow@KUiTongSetTax@@SAX_N@Z 00467dc0 f   UiTongSetTax .obj
 0001:00066df0       ?GetIfVisible@KUiTongSetTax@@SAPAV1@XZ 00467df0 f   UiTongSetTax .obj
 0001:00066e10       ?Show@KUiTongSetTax@@EAEXXZ 00467e10 f   UiTongSetTax .obj
 0001:00066e50       ?Hide@KUiTongSetTax@@EAEXXZ 00467e50 f   UiTongSetTax .obj
 0001:00066e70       ?Initialize@KUiTongSetTax@@AAEXXZ 00467e70 f   UiTongSetTax .obj
 0001:00066f40       ?LoadScheme@KUiTongSetTax@@SAXPBD@Z 00467f40 f   UiTongSetTax .obj
 0001:00067110       ?WndProc@KUiTongSetTax@@EAEHIIH@Z 00468110 f   UiTongSetTax .obj
 0001:00067200       ?OnIncrease@KUiTongSetTax@@AAEXH@Z 00468200 f   UiTongSetTax .obj
 0001:00067260       ?OnDecrease@KUiTongSetTax@@AAEXH@Z 00468260 f   UiTongSetTax .obj
 0001:000672c0       ?OnOk@KUiTongSetTax@@AAEXXZ 004682c0 f   UiTongSetTax .obj
 0001:00067320       ?OnCancel@KUiTongSetTax@@AAEXXZ 00468320 f   UiTongSetTax .obj
 0001:00067340       ?Initialize@KUiRecovery@@QAEXXZ 00468340 f   UiAutoPlay.obj
 0001:00067540       ?LoadScheme@KUiRecovery@@QAEXPAVKIniFile@@@Z 00468540 f   UiAutoPlay.obj
 0001:00067900       ?WndProc@KUiRecovery@@EAEHIIH@Z 00468900 f   UiAutoPlay.obj
 0001:00068140       ?OnCheckInput@KUiRecovery@@AAEXXZ 00469140 f   UiAutoPlay.obj
 0001:000682b0       ?PopupSelRoomNE@KUiRecovery@@AAEXXZ 004692b0 f   UiAutoPlay.obj
 0001:00068380       ?SetPortalRoomNE@KUiRecovery@@AAEXH@Z 00469380 f   UiAutoPlay.obj
 0001:000683d0       ?Breathe@KUiRecovery@@UAEXXZ 004693d0 f   UiAutoPlay.obj
 0001:00068420       ?LoadRecoverySetting@KUiRecovery@@QAEXXZ 00469420 f   UiAutoPlay.obj
 0001:00068b00       ?SaveRecoverySetting@KUiRecovery@@QAEXXZ 00469b00 f   UiAutoPlay.obj
 0001:00068ee0       ?Initialize@KUiPick@@QAEXXZ 00469ee0 f   UiAutoPlay.obj
 0001:00069080       ?LoadScheme@KUiPick@@QAEXPAVKIniFile@@@Z 0046a080 f   UiAutoPlay.obj
 0001:000692b0       ?WndProc@KUiPick@@EAEHIIH@Z 0046a2b0 f   UiAutoPlay.obj
 0001:000695f0       ?OnPick@KUiPick@@AAEXXZ    0046a5f0 f   UiAutoPlay.obj
 0001:00069630       ?OnFillterItem@KUiPick@@AAEXXZ 0046a630 f   UiAutoPlay.obj
 0001:00069670       ?OnAutoSortClick@KUiPick@@AAEXXZ 0046a670 f   UiAutoPlay.obj
 0001:000696b0       ?OnGiveItem@KUiPick@@AAEXXZ 0046a6b0 f   UiAutoPlay.obj
 0001:000696f0       ?OnCheckPrice@KUiPick@@AAEXXZ 0046a6f0 f   UiAutoPlay.obj
 0001:00069730       ?OnCheckLevel@KUiPick@@AAEXXZ 0046a730 f   UiAutoPlay.obj
 0001:00069770       ?OnCheckInput@KUiPick@@AAEXXZ 0046a770 f   UiAutoPlay.obj
 0001:000697c0       ?SetFilterMagicList@KUiPick@@AAEXXZ 0046a7c0 f   UiAutoPlay.obj
 0001:000698a0       ?FilterSameMagic@KUiPick@@AAEHPBD@Z 0046a8a0 f   UiAutoPlay.obj
 0001:00069900       ?FindSameMagic@KUiPick@@AAEHPBD@Z 0046a900 f   UiAutoPlay.obj
 0001:00069970       ?SetPick@KUiPick@@AAEXHH@Z 0046a970 f   UiAutoPlay.obj
 0001:000699f0       ?OnSelectPickType@KUiPick@@AAEXH@Z 0046a9f0 f   UiAutoPlay.obj
 0001:00069bd0       ?LoadPickSetting@KUiPick@@QAEXXZ 0046abd0 f   UiAutoPlay.obj
 0001:00069fd0       ?SavePickSetting@KUiPick@@QAEXXZ 0046afd0 f   UiAutoPlay.obj
 0001:0006a190       ?Initialize@KUiFight@@QAEXXZ 0046b190 f   UiAutoPlay.obj
 0001:0006a3e0       ?LoadScheme@KUiFight@@QAEXPAVKIniFile@@@Z 0046b3e0 f   UiAutoPlay.obj
 0001:0006a7a0       ?WndProc@KUiFight@@EAEHIIH@Z 0046b7a0 f   UiAutoPlay.obj
 0001:0006acb0       ?OnCheckInput@KUiFight@@QAEXXZ 0046bcb0 f   UiAutoPlay.obj
 0001:0006ad00       ?SupportAnyOption@KUiFight@@AAEXH@Z 0046bd00 f   UiAutoPlay.obj
 0001:0006aec0       ?SetSupportAnyOption@KUiFight@@AAEXHH@Z 0046bec0 f   UiAutoPlay.obj
 0001:0006b030       ?SupportSkillPopup@KUiFight@@AAEXH@Z 0046c030 f   UiAutoPlay.obj
 0001:0006b220       ?SetSupportSkill@KUiFight@@AAEXHH@Z 0046c220 f   UiAutoPlay.obj
 0001:0006b360       ?SupportAuraPopup@KUiFight@@AAEXH@Z 0046c360 f   UiAutoPlay.obj
 0001:0006b530       ?SetSupportAura@KUiFight@@AAEXHH@Z 0046c530 f   UiAutoPlay.obj
 0001:0006b610       ?SupportSkillWhenManaSmallPopup@KUiFight@@AAEXH@Z 0046c610 f   UiAutoPlay.obj
 0001:0006b7b0       ?SetSupportWhenManaSmall@KUiFight@@AAEXHH@Z 0046c7b0 f   UiAutoPlay.obj
 0001:0006b840       ?SetSupportRightHandPopup@KUiFight@@AAEXH@Z 0046c840 f   UiAutoPlay.obj
 0001:0006b9e0       ?SetSupportRightHand@KUiFight@@AAEXHH@Z 0046c9e0 f   UiAutoPlay.obj
 0001:0006ba70       ?LoadFightSetting@KUiFight@@QAEXXZ 0046ca70 f   UiAutoPlay.obj
 0001:0006bec0       ?SaveFightSetting@KUiFight@@QAEXXZ 0046cec0 f   UiAutoPlay.obj
 0001:0006c110       ?Initialize@KUiOther@@QAEXXZ 0046d110 f   UiAutoPlay.obj
 0001:0006c2a0       ?LoadScheme@KUiOther@@QAEXPAVKIniFile@@@Z 0046d2a0 f   UiAutoPlay.obj
 0001:0006c4c0       ?WndProc@KUiOther@@EAEHIIH@Z 0046d4c0 f   UiAutoPlay.obj
 0001:0006cb80       ?MenuParty@KUiOther@@AAEXXZ 0046db80 f   UiAutoPlay.obj
 0001:0006cc40       ?SetMenuParty@KUiOther@@AAEXH@Z 0046dc40 f   UiAutoPlay.obj
 0001:0006ccd0       ?MenuListParty@KUiOther@@AAEXXZ 0046dcd0 f   UiAutoPlay.obj
 0001:0006cec0       ?SetMenuListParty@KUiOther@@AAEXH@Z 0046dec0 f   UiAutoPlay.obj
 0001:0006cf10       ?InsertNameList@KUiOther@@AAEHXZ 0046df10 f   UiAutoPlay.obj
 0001:0006cfc0       ?SetNameListPT@KUiOther@@AAEXXZ 0046dfc0 f   UiAutoPlay.obj
 0001:0006d040       ?MenuJoinParty@KUiOther@@AAEXXZ 0046e040 f   UiAutoPlay.obj
 0001:0006d100       ?SetMenuJoinParty@KUiOther@@AAEXH@Z 0046e100 f   UiAutoPlay.obj
 0001:0006d180       ?LoadOtherSetting@KUiOther@@QAEXXZ 0046e180 f   UiAutoPlay.obj
 0001:0006d460       ?SaveOtherSetting@KUiOther@@QAEXXZ 0046e460 f   UiAutoPlay.obj
 0001:0006d5d0       ?Initialize@KUiMovePlayer@@QAEXXZ 0046e5d0 f   UiAutoPlay.obj
 0001:0006d700       ?LoadScheme@KUiMovePlayer@@QAEXPAVKIniFile@@@Z 0046e700 f   UiAutoPlay.obj
 0001:0006d8b0       ?WndProc@KUiMovePlayer@@EAEHIIH@Z 0046e8b0 f   UiAutoPlay.obj
 0001:0006dfa0       ?OnCheckInput@KUiMovePlayer@@AAEXXZ 0046efa0 f   UiAutoPlay.obj
 0001:0006dfd0       ?PopUpFollowPeople@KUiMovePlayer@@AAEXXZ 0046efd0 f   UiAutoPlay.obj
 0001:0006e1c0       ?SetFollowPeople@KUiMovePlayer@@AAEXH@Z 0046f1c0 f   UiAutoPlay.obj
 0001:0006e230       ?InsertMoveMpsList@KUiMovePlayer@@AAEHHHH@Z 0046f230 f   UiAutoPlay.obj
 0001:0006e2b0       ?SetMoveMpsList@KUiMovePlayer@@AAEXXZ 0046f2b0 f   UiAutoPlay.obj
 0001:0006e360       ?LoadMoveSetting@KUiMovePlayer@@QAEXXZ 0046f360 f   UiAutoPlay.obj
 0001:0006e550       ?SaveMoveSetting@KUiMovePlayer@@QAEXXZ 0046f550 f   UiAutoPlay.obj
 0001:0006e670       ?Initialize@KUiSupportPlayer@@QAEXXZ 0046f670 f   UiAutoPlay.obj
 0001:0006e710       ?LoadScheme@KUiSupportPlayer@@QAEXPAVKIniFile@@@Z 0046f710 f   UiAutoPlay.obj
 0001:0006e810       ?WndProc@KUiSupportPlayer@@EAEHIIH@Z 0046f810 f   UiAutoPlay.obj
 0001:0006e9f0       ?UpdateClientDaTa@KUiSupportPlayer@@SAXXZ 0046f9f0 f   UiAutoPlay.obj
 0001:0006ea80       ?OnCheckInput@KUiSupportPlayer@@AAEXXZ 0046fa80 f   UiAutoPlay.obj
 0001:0006eab0       ?PopupSelMapTrain@KUiSupportPlayer@@AAEXXZ 0046fab0 f   UiAutoPlay.obj
 0001:0006eb70       ?SetPortalMapTrain@KUiSupportPlayer@@AAEXH@Z 0046fb70 f   UiAutoPlay.obj
 0001:0006ebc0       ?LoadSupportSetting@KUiSupportPlayer@@QAEXXZ 0046fbc0 f   UiAutoPlay.obj
 0001:0006ed60       ?SaveSupportSetting@KUiSupportPlayer@@QAEXXZ 0046fd60 f   UiAutoPlay.obj
 0001:0006ee10       ?OpenWindow@KUiAutoPlay@@SAPAV1@_N@Z 0046fe10 f   UiAutoPlay.obj
 0001:0006f0f0       ??_GKUiAutoPlay@@EAEPAXI@Z 004700f0 f i UiAutoPlay.obj
 0001:0006f0f0       ??_EKUiAutoPlay@@EAEPAXI@Z 004700f0 f i UiAutoPlay.obj
 0001:0006f110       ??1KUiAutoPlay@@EAE@XZ     00470110 f i UiAutoPlay.obj
 0001:0006f5c0       ??0KUiRecovery@@QAE@XZ     004705c0 f i UiAutoPlay.obj
 0001:0006f860       ??1KUiRecovery@@UAE@XZ     00470860 f i UiAutoPlay.obj
 0001:0006faf0       ??0KUiPick@@QAE@XZ         00470af0 f i UiAutoPlay.obj
 0001:0006fce0       ??1KUiPick@@UAE@XZ         00470ce0 f i UiAutoPlay.obj
 0001:0006fee0       ??0KUiFight@@QAE@XZ        00470ee0 f i UiAutoPlay.obj
 0001:00070170       ??1KUiFight@@UAE@XZ        00471170 f i UiAutoPlay.obj
 0001:000703f0       ??0KUiOther@@QAE@XZ        004713f0 f i UiAutoPlay.obj
 0001:000705d0       ??1KUiOther@@UAE@XZ        004715d0 f i UiAutoPlay.obj
 0001:000707c0       ??1KUiMovePlayer@@UAE@XZ   004717c0 f i UiAutoPlay.obj
 0001:00070930       ??0KUiSupportPlayer@@QAE@XZ 00471930 f i UiAutoPlay.obj
 0001:00070a20       ??1KUiSupportPlayer@@UAE@XZ 00471a20 f i UiAutoPlay.obj
 0001:00070b00       ??_GKUiRecovery@@UAEPAXI@Z 00471b00 f i UiAutoPlay.obj
 0001:00070b00       ??_EKUiRecovery@@UAEPAXI@Z 00471b00 f i UiAutoPlay.obj
 0001:00070b20       ??0KWndPage@@QAE@XZ        00471b20 f i UiAutoPlay.obj
 0001:00070b40       ??_GKUiPick@@UAEPAXI@Z     00471b40 f i UiAutoPlay.obj
 0001:00070b40       ??_EKUiPick@@UAEPAXI@Z     00471b40 f i UiAutoPlay.obj
 0001:00070b60       ??_GKUiFight@@UAEPAXI@Z    00471b60 f i UiAutoPlay.obj
 0001:00070b60       ??_EKUiFight@@UAEPAXI@Z    00471b60 f i UiAutoPlay.obj
 0001:00070b80       ??_GKUiOther@@UAEPAXI@Z    00471b80 f i UiAutoPlay.obj
 0001:00070b80       ??_EKUiOther@@UAEPAXI@Z    00471b80 f i UiAutoPlay.obj
 0001:00070ba0       ??_EKUiMovePlayer@@UAEPAXI@Z 00471ba0 f i UiAutoPlay.obj
 0001:00070ba0       ??_GKUiMovePlayer@@UAEPAXI@Z 00471ba0 f i UiAutoPlay.obj
 0001:00070bc0       ??_EKUiSupportPlayer@@UAEPAXI@Z 00471bc0 f i UiAutoPlay.obj
 0001:00070bc0       ??_GKUiSupportPlayer@@UAEPAXI@Z 00471bc0 f i UiAutoPlay.obj
 0001:00070be0       ?GetIfVisible@KUiAutoPlay@@SAPAV1@XZ 00471be0 f   UiAutoPlay.obj
 0001:00070c00       ?CloseWindow@KUiAutoPlay@@SAX_N@Z 00471c00 f   UiAutoPlay.obj
 0001:00070c90       ?Initialize@KUiAutoPlay@@AAEXXZ 00471c90 f   UiAutoPlay.obj
 0001:00070db0       ?LoadScheme@KUiAutoPlay@@SAXPBD@Z 00471db0 f   UiAutoPlay.obj
 0001:00071030       ?WndProc@KUiAutoPlay@@EAEHIIH@Z 00472030 f   UiAutoPlay.obj
 0001:00071100       ?UpdateButton@KUiAutoPlay@@AAEXH@Z 00472100 f   UiAutoPlay.obj
 0001:00071150       ?UpdateData@KUiAutoPlay@@SAXXZ 00472150 f   UiAutoPlay.obj
 0001:000711c0       ?OnAuto@KUiAutoPlay@@AAEXH@Z 004721c0 f   UiAutoPlay.obj
 0001:000711e0       ?UpdateSceneTimeInfo@KUiAutoPlay@@SAXPAUKUiSceneTimeInfo@@@Z 004721e0 f   UiAutoPlay.obj
 0001:00071210       ?Breathe@KUiAutoPlay@@EAEXXZ 00472210 f   UiAutoPlay.obj
 0001:00071230       ?SavePrivateSetting@KUiAutoPlay@@SAHXZ 00472230 f   UiAutoPlay.obj
 0001:000712d0       ?LoadPrivateSetting@KUiAutoPlay@@SAHXZ 004722d0 f   UiAutoPlay.obj
 0001:00071360       ??0UiMiniBuff@@AAE@XZ      00472360 f   UiMiniBuff.obj
 0001:00071430       ??_EUiMiniBuff@@EAEPAXI@Z  00472430 f i UiMiniBuff.obj
 0001:00071430       ??_GUiMiniBuff@@EAEPAXI@Z  00472430 f i UiMiniBuff.obj
 0001:00071450       ??1UiMiniBuff@@EAE@XZ      00472450 f   UiMiniBuff.obj
 0001:00071520       ?OpenWindow@UiMiniBuff@@SAPAV1@XZ 00472520 f   UiMiniBuff.obj
 0001:000715b0       ?GetIfVisible@UiMiniBuff@@SAPAV1@XZ 004725b0 f   UiMiniBuff.obj
 0001:000715d0       ?CloseWindow@UiMiniBuff@@SAX_N@Z 004725d0 f   UiMiniBuff.obj
 0001:00071600       ?Initialize@UiMiniBuff@@AAEXXZ 00472600 f   UiMiniBuff.obj
 0001:00071670       ?LoadScheme@UiMiniBuff@@SAXPBD@Z 00472670 f   UiMiniBuff.obj
 0001:00071810       ?Breathe@UiMiniBuff@@EAEXXZ 00472810 f   UiMiniBuff.obj
 0001:00071930       ?Add@UiMiniBuff@@AAEXHPAUKStateControl@@@Z 00472930 f   UiMiniBuff.obj
 0001:00071e80       ?Release@UiMiniBuff@@AAEXXZ 00472e80 f   UiMiniBuff.obj
 0001:00071f00       ??0KUiTopTKNew@@AAE@XZ     00472f00 f   UiTopTKNew.obj
 0001:00072620       ??_EKUiTopTKNew@@EAEPAXI@Z 00473620 f i UiTopTKNew.obj
 0001:00072620       ??_GKUiTopTKNew@@EAEPAXI@Z 00473620 f i UiTopTKNew.obj
 0001:00072640       ??1KUiTopTKNew@@EAE@XZ     00473640 f i UiTopTKNew.obj
 0001:00072d60       ?OpenWindow@KUiTopTKNew@@SAPAV1@XZ 00473d60 f   UiTopTKNew.obj
 0001:00072e00       ?GetIfVisible@KUiTopTKNew@@SAPAV1@XZ 00473e00 f   UiTopTKNew.obj
 0001:00072e20       ?Initialize@KUiTopTKNew@@AAEXXZ 00473e20 f   UiTopTKNew.obj
 0001:00073450       ?CloseWindow@KUiTopTKNew@@SAXXZ 00474450 f   UiTopTKNew.obj
 0001:00073470       ?UpdateDataTop@KUiTopTKNew@@SAXPAUKUiTopTKNewData@@@Z 00474470 f   UiTopTKNew.obj
 0001:00075120       ?LoadScheme@KUiTopTKNew@@SAXPBD@Z 00476120 f   UiTopTKNew.obj
 0001:000751d0       ?LoadScheme@KUiTopTKNew@@AAEXPAVKIniFile@@@Z 004761d0 f   UiTopTKNew.obj
 0001:00075ae0       ?WndProc@KUiTopTKNew@@EAEHIIH@Z 00476ae0 f   UiTopTKNew.obj
 0001:00075b00       ?PaintWindow@KUiTopTKNew@@EAEXXZ 00476b00 f   UiTopTKNew.obj
 0001:00075b80       ?Show@KUiTopTKNew@@UAEXXZ  00476b80 f   UiTopTKNew.obj
 0001:00075b90       ?Hide@KUiTopTKNew@@UAEXXZ  00476b90 f   UiTopTKNew.obj
 0001:00075ba0       ?OpenWindow@KUiTrembleItem@@SAPAV1@XZ 00476ba0 f   UiTrembleItem.obj
 0001:00075ce0       ??_GKUiTrembleItem@@EAEPAXI@Z 00476ce0 f i UiTrembleItem.obj
 0001:00075ce0       ??_EKUiTrembleItem@@EAEPAXI@Z 00476ce0 f i UiTrembleItem.obj
 0001:00075d00       ??1KUiTrembleItem@@EAE@XZ  00476d00 f i UiTrembleItem.obj
 0001:00075da0       ??1KCanGetNumImage@@UAE@XZ 00476da0 f i UiTrembleItem.obj
 0001:00075db0       ??_GKCanGetNumImage@@UAEPAXI@Z 00476db0 f i UiTrembleItem.obj
 0001:00075db0       ??_EKCanGetNumImage@@UAEPAXI@Z 00476db0 f i UiTrembleItem.obj
 0001:00075dd0       ?GetIfVisible@KUiTrembleItem@@SAPAV1@XZ 00476dd0 f   UiTrembleItem.obj
 0001:00075df0       ?CloseWindow@KUiTrembleItem@@SAX_N@Z 00476df0 f   UiTrembleItem.obj
 0001:00075e40       ?Initialize@KUiTrembleItem@@AAEXXZ 00476e40 f   UiTrembleItem.obj
 0001:00075ee0       ?LoadScheme@KUiTrembleItem@@SAXPBD@Z 00476ee0 f   UiTrembleItem.obj
 0001:000760b0       ?WndProc@KUiTrembleItem@@EAEHIIH@Z 004770b0 f   UiTrembleItem.obj
 0001:00076240       ?EnoughItemToGo@KUiTrembleItem@@AAEHXZ 00477240 f   UiTrembleItem.obj
 0001:00076340       ?EnoughItemPickDrop@KUiTrembleItem@@AAEHPAVKWndWindow@@H@Z 00477340 f   UiTrembleItem.obj
 0001:000765c0       ?OnItemPickDrop@KUiTrembleItem@@AAEXPAUITEM_PICKDROP_PLACE@@0@Z 004775c0 f   UiTrembleItem.obj
 0001:000766d0       ?Breathe@KUiTrembleItem@@EAEXXZ 004776d0 f   UiTrembleItem.obj
 0001:00076730       ?StopEffect@KUiTrembleItem@@AAEXXZ 00477730 f   UiTrembleItem.obj
 0001:00076760       ?StartEffect@KUiTrembleItem@@AAEXXZ 00477760 f   UiTrembleItem.obj
 0001:00076780       ?IsEffect@KUiTrembleItem@@AAEHXZ 00477780 f   UiTrembleItem.obj
 0001:00076790       ?UpdateItem@KUiTrembleItem@@QAEXPAUKUiObjAtRegion@@H@Z 00477790 f   UiTrembleItem.obj
 0001:00076810       ?UpdateData@KUiTrembleItem@@UAEXXZ 00477810 f   UiTrembleItem.obj
 0001:00076880       ?OnOk@KUiTrembleItem@@AAEXXZ 00477880 f   UiTrembleItem.obj
 0001:000768c0       ?OnCancel@KUiTrembleItem@@AAEXXZ 004778c0 f   UiTrembleItem.obj
 0001:00076900       ?UpdatePickPut@KUiTrembleItem@@AAEX_N@Z 00477900 f   UiTrembleItem.obj
 0001:00076950       ?PecentSuccess@KUiTrembleItem@@AAEXE@Z 00477950 f   UiTrembleItem.obj
 0001:000769a0       ?ShowNotify@TrayMode@@QAEX_N@Z 004779a0 f   TrayMode.obj
 0001:00076aa0       ?CheckTrayFPS@TrayMode@@SAHXZ 00477aa0 f   TrayMode.obj
 0001:00076ab0       ?WndProc@TrayMode@@QAEJPAUHWND__@@KIJ@Z 00477ab0 f   TrayMode.obj
 0001:00076b00       ?UiSoundLoadSetting@@YA_NXZ 00477b00 f   UiSoundSetting.obj
 0001:00076bd0       ?UiSoundPlay@@YAXW4UI_SOUND_INDEX@@@Z 00477bd0 f   UiSoundSetting.obj
 0001:00076c00       ?UiSoundPlay@@YAXPAD@Z     00477c00 f   UiSoundSetting.obj
 0001:00076c20       ?CoreDataChangedCallback@@YAXIIH@Z 00477c20 f   GameSpaceChangedNotify.obj
 0001:00077a90       ?CoreDataChanged@KClientCallback@@UAEXIIH@Z 00478a90 f   GameSpaceChangedNotify.obj
 0001:00077b20       ?ClearBlackList@@YAXXZ     00478b20 f   GameSpaceChangedNotify.obj
 0001:00077b40       ?CreateBlackListUnit@@YAXXZ 00478b40 f   GameSpaceChangedNotify.obj
 0001:00077b60       ?AddBlackList@@YAXPBD0@Z   00478b60 f   GameSpaceChangedNotify.obj
 0001:00077d00       ?RemoveBlackList@@YAXPAD@Z 00478d00 f   GameSpaceChangedNotify.obj
 0001:00077e30       ?IsInBlackName@@YA_NPAD@Z  00478e30 f   GameSpaceChangedNotify.obj
 0001:00077f50       ?SaveBlackListPrivateSetting@@YAHPAVKIniFile@@PBDH@Z 00478f50 f   GameSpaceChangedNotify.obj
 0001:00078010       ?RenameUnitGroup@BlacklistNotify@@UAEHPBD00ABV?$list@V?$basic_string@DU?$char_traits@D@std@@V?$allocator@D@2@@std@@V?$allocator@V?$basic_string@DU?$char_traits@D@std@@V?$allocator@D@2@@std@@@2@@std@@@Z 00479010 f   GameSpaceChangedNotify.obj
 0001:00078110       ?MoveUnitGroup@BlacklistNotify@@UAEHPBD00ABV?$list@V?$basic_string@DU?$char_traits@D@std@@V?$allocator@D@2@@std@@V?$allocator@V?$basic_string@DU?$char_traits@D@std@@V?$allocator@D@2@@std@@@2@@std@@@Z 00479110 f   GameSpaceChangedNotify.obj
 0001:00078210       ?DeleteUnitGroup@BlacklistNotify@@UAEHPBD0ABV?$list@V?$basic_string@DU?$char_traits@D@std@@V?$allocator@D@2@@std@@V?$allocator@V?$basic_string@DU?$char_traits@D@std@@V?$allocator@D@2@@std@@@2@@std@@@Z 00479210 f   GameSpaceChangedNotify.obj
 0001:00078310       ?DeleteUnitMember@BlacklistNotify@@UAEHPBD0@Z 00479310 f   GameSpaceChangedNotify.obj
 0001:00078340       ?MoveUnitMember@BlacklistNotify@@UAEHPBD00@Z 00479340 f   GameSpaceChangedNotify.obj
 0001:00078530       ?SendNotifyGroupFriend@BlacklistNotify@@QAEXPBDABV?$basic_string@DU?$char_traits@D@std@@V?$allocator@D@2@@std@@ABV?$list@V?$basic_string@DU?$char_traits@D@std@@V?$allocator@D@2@@std@@V?$allocator@V?$basic_string@DU?$char_traits@D@std@@V?$allocator@D@2@@std@@@2@@3@@Z 00479530 f   GameSpaceChangedNotify.obj
 0001:00078680       ?SendNotifyDeleteFriend@BlacklistNotify@@QAEXPBD0@Z 00479680 f   GameSpaceChangedNotify.obj
 0001:000786d0       ?ChannelMessageArrival@KClientCallback@@UAEXKPADPBDG_N@Z 004796d0 f   GameSpaceChangedNotify.obj
 0001:00078890       ?MSNMessageArrival@KClientCallback@@UAEXPAD0PBDG_N@Z 00479890 f   GameSpaceChangedNotify.obj
 0001:00078970       ?NotifyChannelID@KClientCallback@@UAEXPADKE@Z 00479970 f   GameSpaceChangedNotify.obj
 0001:00078990       ?FriendInvite@KClientCallback@@UAEXPAD@Z 00479990 f   GameSpaceChangedNotify.obj
 0001:00078a50       ?AddFriend@KClientCallback@@UAEXPADE@Z 00479a50 f   GameSpaceChangedNotify.obj
 0001:00078c00       ?FriendStatus@KClientCallback@@UAEXPADE@Z 00479c00 f   GameSpaceChangedNotify.obj
 0001:00078cb0       ?FriendInfo@KClientCallback@@UAEXPAD00E@Z 00479cb0 f   GameSpaceChangedNotify.obj
 0001:00078d30       ?AddPeople@KClientCallback@@UAEXPAD0@Z 00479d30 f   GameSpaceChangedNotify.obj
 0001:00078d90       ?LevelTips@@YAXH@Z         00479d90 f   GameSpaceChangedNotify.obj
 0001:00078e70       ?FactionTips@@YAXH@Z       00479e70 f   GameSpaceChangedNotify.obj
 0001:00078f60       ?GameWorldTips@@YAXIH@Z    00479f60 f   GameSpaceChangedNotify.obj
 0001:00078f90       ??0?$map@V?$basic_string@DU?$char_traits@D@std@@V?$allocator@D@2@@std@@V12@U?$less@V?$basic_string@DU?$char_traits@D@std@@V?$allocator@D@2@@std@@@2@V?$allocator@V?$basic_string@DU?$char_traits@D@std@@V?$allocator@D@2@@std@@@2@@std@@QAE@ABU?$less@V?$basic_string@DU?$char_traits@D@std@@V?$allocator@D@2@@std@@@1@ABV?$allocator@V?$basic_string@DU?$char_traits@D@std@@V?$allocator@D@2@@std@@@1@@Z 00479f90 f i GameSpaceChangedNotify.obj
 0001:00079060       ??A?$map@V?$basic_string@DU?$char_traits@D@std@@V?$allocator@D@2@@std@@V12@U?$less@V?$basic_string@DU?$char_traits@D@std@@V?$allocator@D@2@@std@@@2@V?$allocator@V?$basic_string@DU?$char_traits@D@std@@V?$allocator@D@2@@std@@@2@@std@@QAEAAV?$basic_string@DU?$char_traits@D@std@@V?$allocator@D@2@@1@ABV21@@Z 0047a060 f i GameSpaceChangedNotify.obj
 0001:00079220       ??1?$map@V?$basic_string@DU?$char_traits@D@std@@V?$allocator@D@2@@std@@UShortFuncInfo@@Ustring_iless@@V?$allocator@UShortFuncInfo@@@2@@std@@QAE@XZ 0047a220 f i ShortcutKey.obj
 0001:00079290       ?HandleKeyInput@KShortcutKeyCentre@@SAHIH@Z 0047a290 f   ShortcutKey.obj
 0001:000792e0       ?HandleMouseInput@KShortcutKeyCentre@@SAHIHHH@Z 0047a2e0 f   ShortcutKey.obj
 0001:00079350       ?Enable@KShortcutKeyCentre@@SAX_N@Z 0047a350 f   ShortcutKey.obj
 0001:00079360       ?FindWindowA@@YAHPBD@Z     0047a360 f   ShortcutKey.obj
 0001:000793a0       ?LuaOpenWindow@@YAHPAUlua_State@@@Z 0047a3a0 f   ShortcutKey.obj
 0001:000796d0       ?FindWndWindow@@YAPAVKWndWindow@@PBD@Z 0047a6d0 f   ShortcutKey.obj
 0001:00079710       ?LuaMoveWindow@@YAHPAUlua_State@@@Z 0047a710 f   ShortcutKey.obj
 0001:00079780       ?LuaSizeWindow@@YAHPAUlua_State@@@Z 0047a780 f   ShortcutKey.obj
 0001:000797f0       ?LuaShowWindow@@YAHPAUlua_State@@@Z 0047a7f0 f   ShortcutKey.obj
 0001:00079860       ?LuaFocusWindow@@YAHPAUlua_State@@@Z 0047a860 f   ShortcutKey.obj
 0001:000798b0       ?LuaShortcutSkill@@YAHPAUlua_State@@@Z 0047a8b0 f   ShortcutKey.obj
 0001:000798e0       ?LuaDirectShortcutSkill@@YAHPAUlua_State@@@Z 0047a8e0 f   ShortcutKey.obj
 0001:00079910       ?LuaShortcutUseItem@@YAHPAUlua_State@@@Z 0047a910 f   ShortcutKey.obj
 0001:00079940       ?FindStatus@@YAHPBD@Z      0047a940 f   ShortcutKey.obj
 0001:00079980       ?LuaSwitchStatus@@YAHPAUlua_State@@@Z 0047a980 f   ShortcutKey.obj
 0001:00079bf0       ?LuaSwitchChannel@@YAHPAUlua_State@@@Z 0047abf0 f   ShortcutKey.obj
 0001:00079c30       ?LuaRegisterEvent@@YAHPAUlua_State@@@Z 0047ac30 f   ShortcutKey.obj
 0001:00079c80       ?LuaUnregisterEvent@@YAHPAUlua_State@@@Z 0047ac80 f   ShortcutKey.obj
 0001:00079cd0       ?LuaSendEvent@@YAHPAUlua_State@@@Z 0047acd0 f   ShortcutKey.obj
 0001:00079d50       ?LuaGetAppStatus@@YAHPAUlua_State@@@Z 0047ad50 f   ShortcutKey.obj
 0001:00079e10       ?DescHotKey@hotkey_str@@YA?AV?$basic_string@DU?$char_traits@D@std@@V?$allocator@D@2@@std@@K@Z 0047ae10 f   ShortcutKey.obj
 0001:0007a160       ?ParseHotKey@hotkey_str@@YAKABV?$basic_string@DU?$char_traits@D@std@@V?$allocator@D@2@@std@@@Z 0047b160 f   ShortcutKey.obj
 0001:0007a390       ??0PATTERNMAP@?1??ParseHotKey@hotkey_str@@YAKABV?$basic_string@DU?$char_traits@D@std@@V?$allocator@D@2@@std@@@Z@QAE@XZ 0047b390 f   ShortcutKey.obj
 0001:0007b6a0       ??1PATTERNMAP@?1??ParseHotKey@hotkey_str@@YAKABV?$basic_string@DU?$char_traits@D@std@@V?$allocator@D@2@@std@@@Z@QAE@XZ 0047c6a0 f i ShortcutKey.obj
 0001:0007b710       ??1?$map@V?$basic_string@DU?$char_traits@D@std@@V?$allocator@D@2@@std@@U?$pair@KK@2@Ustring_iless@@V?$allocator@U?$pair@KK@std@@@2@@std@@QAE@XZ 0047c710 f i ShortcutKey.obj
 0001:0007b780       ?LuaAddCommand@@YAHPAUlua_State@@@Z 0047c780 f   ShortcutKey.obj
 0001:0007b8f0       ?LuaRemoveCommand@@YAHPAUlua_State@@@Z 0047c8f0 f   ShortcutKey.obj
 0001:0007ba70       ?LuaMakeFriend@@YAHPAUlua_State@@@Z 0047ca70 f   ShortcutKey.obj
 0001:0007bad0       ?LuaCreateTeam@@YAHPAUlua_State@@@Z 0047cad0 f   ShortcutKey.obj
 0001:0007baf0       ?LuaJoinTeam@@YAHPAUlua_State@@@Z 0047caf0 f   ShortcutKey.obj
 0001:0007bb60       ?LuaInviteTeam@@YAHPAUlua_State@@@Z 0047cb60 f   ShortcutKey.obj
 0001:0007bbd0       ?LuaTrade@@YAHPAUlua_State@@@Z 0047cbd0 f   ShortcutKey.obj
 0001:0007bc40       ?LuaRevenge@@YAHPAUlua_State@@@Z 0047cc40 f   ShortcutKey.obj
 0001:0007bcb0       ?LuaFollow@@YAHPAUlua_State@@@Z 0047ccb0 f   ShortcutKey.obj
 0001:0007bd20       ?LuaViewItem@@YAHPAUlua_State@@@Z 0047cd20 f   ShortcutKey.obj
 0001:0007bd90       ?LuaPrintScreen@@YAHPAUlua_State@@@Z 0047cd90 f   ShortcutKey.obj
 0001:0007bda0       ?LuaClearMessage@@YAHPAUlua_State@@@Z 0047cda0 f   ShortcutKey.obj
 0001:0007bdb0       ?LuaSay@@YAHPAUlua_State@@@Z 0047cdb0 f   ShortcutKey.obj
 0001:0007be70       ?LuaChat@@YAHPAUlua_State@@@Z 0047ce70 f   ShortcutKey.obj
 0001:0007bf40       ?LuaRegisterFunctionAlias@@YAHPAUlua_State@@@Z 0047cf40 f   ShortcutKey.obj
 0001:0007c1d0       ?LuaSayPhrase@@YAHPAUlua_State@@@Z 0047d1d0 f   ShortcutKey.obj
 0001:0007c2d0       ?LuaSayEmote@@YAHPAUlua_State@@@Z 0047d2d0 f   ShortcutKey.obj
 0001:0007c320       ?LuaGetCurrentChannelName@@YAHPAUlua_State@@@Z 0047d320 f   ShortcutKey.obj
 0001:0007c370       ?LuaGetRecentPlayerName@@YAHPAUlua_State@@@Z 0047d370 f   ShortcutKey.obj
 0001:0007c3c0       ?LuaConvertEmotes@@YAHPAUlua_State@@@Z 0047d3c0 f   ShortcutKey.obj
 0001:0007c3d0       ?LuaSetEmote@@YAHPAUlua_State@@@Z 0047d3d0 f   ShortcutKey.obj
 0001:0007c460       ?LuaSetScreenShotFolder@@YAHPAUlua_State@@@Z 0047d460 f   ShortcutKey.obj
 0001:0007c500       ?LuaSetPhrase@@YAHPAUlua_State@@@Z 0047d500 f   ShortcutKey.obj
 0001:0007c570       ?LuaAutoReply@@YAHPAUlua_State@@@Z 0047d570 f   ShortcutKey.obj
 0001:0007c780       ?LuaExitGame@@YAHPAUlua_State@@@Z 0047d780 f   ShortcutKey.obj
 0001:0007c7d0       ?LuaExit@@YAHPAUlua_State@@@Z 0047d7d0 f   ShortcutKey.obj
 0001:0007c7e0       ?LuaSet3D@@YAHPAUlua_State@@@Z 0047d7e0 f   ShortcutKey.obj
 0001:0007c960       ?LuaSetFullWindow@@YAHPAUlua_State@@@Z 0047d960 f   ShortcutKey.obj
 0001:0007cae0       ?LuaMoveTo@@YAHPAUlua_State@@@Z 0047dae0 f   ShortcutKey.obj
 0001:0007cb60       ?LuaTurnTo@@YAHPAUlua_State@@@Z 0047db60 f   ShortcutKey.obj
 0001:0007cbb0       ?Mouse_Action@@YAHPAUlua_State@@@Z 0047dbb0 f   ShortcutKey.obj
 0001:0007cd50       ?Mouse_Force0@@YAHPAUlua_State@@@Z 0047dd50 f   ShortcutKey.obj
 0001:0007ce20       ?Mouse_Force1@@YAHPAUlua_State@@@Z 0047de20 f   ShortcutKey.obj
 0001:0007cef0       ?Mouse_MoveTo@@YAHPAUlua_State@@@Z 0047def0 f   ShortcutKey.obj
 0001:0007cf70       ?Mouse_Menu@@YAHPAUlua_State@@@Z 0047df70 f   ShortcutKey.obj
 0001:0007cff0       ?Mouse_Emote_Menu@@YAHPAUlua_State@@@Z 0047dff0 f   ShortcutKey.obj
 0001:0007d070       ?Mouse_Say@@YAHPAUlua_State@@@Z 0047e070 f   ShortcutKey.obj
 0001:0007d0e0       ?Mouse_MakeFriend@@YAHPAUlua_State@@@Z 0047e0e0 f   ShortcutKey.obj
 0001:0007d150       ?Mouse_JoinTeam@@YAHPAUlua_State@@@Z 0047e150 f   ShortcutKey.obj
 0001:0007d1c0       ?Mouse_InviteTeam@@YAHPAUlua_State@@@Z 0047e1c0 f   ShortcutKey.obj
 0001:0007d230       ?Mouse_Trade@@YAHPAUlua_State@@@Z 0047e230 f   ShortcutKey.obj
 0001:0007d2a0       ?Mouse_Revenge@@YAHPAUlua_State@@@Z 0047e2a0 f   ShortcutKey.obj
 0001:0007d310       ?Mouse_Follow@@YAHPAUlua_State@@@Z 0047e310 f   ShortcutKey.obj
 0001:0007d380       ?Mouse_ViewItem@@YAHPAUlua_State@@@Z 0047e380 f   ShortcutKey.obj
 0001:0007d3f0       ?Mouse_BlackList@@YAHPAUlua_State@@@Z 0047e3f0 f   ShortcutKey.obj
 0001:0007d460       ?LuaThrowAwayItem@@YAHPAUlua_State@@@Z 0047e460 f   ShortcutKey.obj
 0001:0007d480       ?LuaSetChatFontSzie@@YAHPAUlua_State@@@Z 0047e480 f   ShortcutKey.obj
 0001:0007d4b0       ?LuaSetChannelTextColor@@YAHPAUlua_State@@@Z 0047e4b0 f   ShortcutKey.obj
 0001:0007d520       ?LuaSetMeTextColor@@YAHPAUlua_State@@@Z 0047e520 f   ShortcutKey.obj
 0001:0007d580       ?LuaSetFriendTextColor@@YAHPAUlua_State@@@Z 0047e580 f   ShortcutKey.obj
 0001:0007d5e0       ?LuaSetStrangerTextColor@@YAHPAUlua_State@@@Z 0047e5e0 f   ShortcutKey.obj
 0001:0007d640       ?LuaDebug@@YAHPAUlua_State@@@Z 0047e640 f   ShortcutKey.obj
 0001:0007d690       ?LuaAddBlackList@@YAHPAUlua_State@@@Z 0047e690 f   ShortcutKey.obj
 0001:0007d7c0       ?LuaRemoveBlackList@@YAHPAUlua_State@@@Z 0047e7c0 f   ShortcutKey.obj
 0001:0007d800       ?LuaCreateAddinUnit@@YAHPAUlua_State@@@Z 0047e800 f   ShortcutKey.obj
 0001:0007d830       ?LuaDeleteAddinUnit@@YAHPAUlua_State@@@Z 0047e830 f   ShortcutKey.obj
 0001:0007d860       ?LuaCreateUnitGroup@@YAHPAUlua_State@@@Z 0047e860 f   ShortcutKey.obj
 0001:0007d8b0       ?LuaRenameUnitGroup@@YAHPAUlua_State@@@Z 0047e8b0 f   ShortcutKey.obj
 0001:0007d910       ?LuaMoveUnitGroup@@YAHPAUlua_State@@@Z 0047e910 f   ShortcutKey.obj
 0001:0007d970       ?LuaDeleteUnitGroup@@YAHPAUlua_State@@@Z 0047e970 f   ShortcutKey.obj
 0001:0007d9c0       ?LuaMoveUnitMember@@YAHPAUlua_State@@@Z 0047e9c0 f   ShortcutKey.obj
 0001:0007da20       ?LuaCreateAddinUnitMember@@YAHPAUlua_State@@@Z 0047ea20 f   ShortcutKey.obj
 0001:0007da80       ?LuaDeleteAddinUnitMember@@YAHPAUlua_State@@@Z 0047ea80 f   ShortcutKey.obj
 0001:0007dad0       ?LuaSetAddinUnitMemberStatus@@YAHPAUlua_State@@@Z 0047ead0 f   ShortcutKey.obj
 0001:0007db40       ?LuaShowSomeoneMessage@@YAHPAUlua_State@@@Z 0047eb40 f   ShortcutKey.obj
 0001:0007dbc0       ?g_GetGameScriptFunNum@@YAHXZ 0047ebc0 f   ShortcutKey.obj
 0001:0007dbd0       ?InitScript@KShortcutKeyCentre@@SAHXZ 0047ebd0 f   ShortcutKey.obj
 0001:0007dc10       ?LoadScript@KShortcutKeyCentre@@SAHPAD@Z 0047ec10 f   ShortcutKey.obj
 0001:0007dc30       ?UninitScript@KShortcutKeyCentre@@SAHXZ 0047ec30 f   ShortcutKey.obj
 0001:0007dc40       ?ClearScript@KShortcutKeyCentre@@SAHXZ 0047ec40 f   ShortcutKey.obj
 0001:0007dca0       ?LoadPrivateSetting@KShortcutKeyCentre@@SAHPAVKIniFile@@@Z 0047eca0 f   ShortcutKey.obj
 0001:0007ddb0       ?SavePrivateSetting@KShortcutKeyCentre@@SAHPAVKIniFile@@@Z 0047edb0 f   ShortcutKey.obj
 0001:0007ea10       ?Compile@@YAIPBDPADI@Z     0047fa10 f   ShortcutKey.obj
 0001:0007ed80       ?TranslateExcuteScript@KShortcutKeyCentre@@SAHPBD@Z 0047fd80 f   ShortcutKey.obj
 0001:0007ee10       ?ExcuteScript@KShortcutKeyCentre@@SAHPBD@Z 0047fe10 f   ShortcutKey.obj
 0001:0007eeb0       ?ExcuteHWNDScript@KShortcutKeyCentre@@SAHPBD@Z 0047feb0 f   ShortcutKey.obj
 0001:0007eef0       ?AddCommand@KShortcutKeyCentre@@SAHPAUCOMMAND_SETTING@@@Z 0047fef0 f   ShortcutKey.obj
 0001:0007efd0       ?RemoveCommand@KShortcutKeyCentre@@SAHH@Z 0047ffd0 f   ShortcutKey.obj
 0001:0007f030       ?RemoveCommandAll@KShortcutKeyCentre@@SAXXZ 00480030 f   ShortcutKey.obj
 0001:0007f040       ?FindCommand@KShortcutKeyCentre@@SAHK@Z 00480040 f   ShortcutKey.obj
 0001:0007f080       ?FindCommand@KShortcutKeyCentre@@SAHPBD@Z 00480080 f   ShortcutKey.obj
 0001:0007f0e0       ?FindCommandByScript@KShortcutKeyCentre@@SAHPBD@Z 004800e0 f   ShortcutKey.obj
 0001:0007f140       ?GetCommandKey@KShortcutKeyCentre@@SAKH@Z 00480140 f   ShortcutKey.obj
 0001:0007f170       ?GetKeyName@KShortcutKeyCentre@@SAPBDK@Z 00480170 f   ShortcutKey.obj
 0001:0007f290       ?RegisterFunctionAlias@KShortcutKeyCentre@@SAHPBD0HABV?$list@V?$basic_string@DU?$char_traits@D@std@@V?$allocator@D@2@@std@@V?$allocator@V?$basic_string@DU?$char_traits@D@std@@V?$allocator@D@2@@std@@@2@@std@@@Z 00480290 f   ShortcutKey.obj
 0001:0007f5f0       ??0ShortFuncInfo@@QAE@XZ   004805f0 f i ShortcutKey.obj
 0001:0007f660       ??1ShortFuncInfo@@QAE@XZ   00480660 f i ShortcutKey.obj
 0001:0007f700       ??0?$list@V?$basic_string@DU?$char_traits@D@std@@V?$allocator@D@2@@std@@V?$allocator@V?$basic_string@DU?$char_traits@D@std@@V?$allocator@D@2@@std@@@2@@std@@QAE@ABV?$allocator@V?$basic_string@DU?$char_traits@D@std@@V?$allocator@D@2@@std@@@1@@Z 00480700 f i ShortcutKey.obj
 0001:0007f730       ??4?$list@V?$basic_string@DU?$char_traits@D@std@@V?$allocator@D@2@@std@@V?$allocator@V?$basic_string@DU?$char_traits@D@std@@V?$allocator@D@2@@std@@@2@@std@@QAEAAV01@ABV01@@Z 00480730 f i ShortcutKey.obj
 0001:0007f830       ??0?$map@V?$basic_string@DU?$char_traits@D@std@@V?$allocator@D@2@@std@@UShortFuncInfo@@Ustring_iless@@V?$allocator@UShortFuncInfo@@@2@@std@@QAE@ABUstring_iless@@ABV?$allocator@UShortFuncInfo@@@1@@Z 00480830 f i ShortcutKey.obj
 0001:0007f900       ??1?$pair@$$CBV?$basic_string@DU?$char_traits@D@std@@V?$allocator@D@2@@std@@UShortFuncInfo@@@std@@QAE@XZ 00480900 f i ShortcutKey.obj
 0001:0007f9f0       ??1?$pair@$$CBV?$basic_string@DU?$char_traits@D@std@@V?$allocator@D@2@@std@@U?$pair@KK@2@@std@@QAE@XZ 004809f0 f i ShortcutKey.obj
 0001:0007fa30       ?begin@?$list@V?$basic_string@DU?$char_traits@D@std@@V?$allocator@D@2@@std@@V?$allocator@V?$basic_string@DU?$char_traits@D@std@@V?$allocator@D@2@@std@@@2@@std@@QBE?AVconst_iterator@12@XZ 00480a30 f i ShortcutKey.obj
 0001:0007fa40       ?end@?$list@V?$basic_string@DU?$char_traits@D@std@@V?$allocator@D@2@@std@@V?$allocator@V?$basic_string@DU?$char_traits@D@std@@V?$allocator@D@2@@std@@@2@@std@@QBE?AVconst_iterator@12@XZ 00480a40 f i ShortcutKey.obj
 0001:0007fa50       ?insert@?$list@V?$basic_string@DU?$char_traits@D@std@@V?$allocator@D@2@@std@@V?$allocator@V?$basic_string@DU?$char_traits@D@std@@V?$allocator@D@2@@std@@@2@@std@@QAEXViterator@12@Vconst_iterator@12@1@Z 00480a50 f i ShortcutKey.obj
 0001:0007fac0       ?erase@?$_Tree@V?$basic_string@DU?$char_traits@D@std@@V?$allocator@D@2@@std@@U?$pair@$$CBV?$basic_string@DU?$char_traits@D@std@@V?$allocator@D@2@@std@@UShortFuncInfo@@@2@U_Kfn@?$map@V?$basic_string@DU?$char_traits@D@std@@V?$allocator@D@2@@std@@UShortFuncInfo@@Ustring_iless@@V?$allocator@UShortFuncInfo@@@2@@2@Ustring_iless@@V?$allocator@UShortFuncInfo@@@2@@std@@QAE?AViterator@12@V312@0@Z 00480ac0 f i ShortcutKey.obj
 0001:0007fbe0       ?find@?$_Tree@V?$basic_string@DU?$char_traits@D@std@@V?$allocator@D@2@@std@@U?$pair@$$CBV?$basic_string@DU?$char_traits@D@std@@V?$allocator@D@2@@std@@UShortFuncInfo@@@2@U_Kfn@?$map@V?$basic_string@DU?$char_traits@D@std@@V?$allocator@D@2@@std@@UShortFuncInfo@@Ustring_iless@@V?$allocator@UShortFuncInfo@@@2@@2@Ustring_iless@@V?$allocator@UShortFuncInfo@@@2@@std@@QAE?AViterator@12@ABV?$basic_string@DU?$char_traits@D@std@@V?$allocator@D@2@@2@@Z 00480be0 f i ShortcutKey.obj
 0001:0007fc60       ??0?$pair@$$CBV?$basic_string@DU?$char_traits@D@std@@V?$allocator@D@2@@std@@UShortFuncInfo@@@std@@QAE@ABV?$basic_string@DU?$char_traits@D@std@@V?$allocator@D@2@@1@ABUShortFuncInfo@@@Z 00480c60 f i ShortcutKey.obj
 0001:0007fde0       ?end@?$_Tree@V?$basic_string@DU?$char_traits@D@std@@V?$allocator@D@2@@std@@U?$pair@$$CBV?$basic_string@DU?$char_traits@D@std@@V?$allocator@D@2@@std@@U?$pair@KK@2@@2@U_Kfn@?$map@V?$basic_string@DU?$char_traits@D@std@@V?$allocator@D@2@@std@@U?$pair@KK@2@Ustring_iless@@V?$allocator@U?$pair@KK@std@@@2@@2@Ustring_iless@@V?$allocator@U?$pair@KK@std@@@2@@std@@QBE?AVconst_iterator@12@XZ 00480de0 f i ShortcutKey.obj
 0001:0007fdf0       ?erase@?$_Tree@V?$basic_string@DU?$char_traits@D@std@@V?$allocator@D@2@@std@@U?$pair@$$CBV?$basic_string@DU?$char_traits@D@std@@V?$allocator@D@2@@std@@U?$pair@KK@2@@2@U_Kfn@?$map@V?$basic_string@DU?$char_traits@D@std@@V?$allocator@D@2@@std@@U?$pair@KK@2@Ustring_iless@@V?$allocator@U?$pair@KK@std@@@2@@2@Ustring_iless@@V?$allocator@U?$pair@KK@std@@@2@@std@@QAE?AViterator@12@V312@0@Z 00480df0 f i ShortcutKey.obj
 0001:0007ff20       ?insert@?$_Tree@V?$basic_string@DU?$char_traits@D@std@@V?$allocator@D@2@@std@@U?$pair@$$CBV?$basic_string@DU?$char_traits@D@std@@V?$allocator@D@2@@std@@UShortFuncInfo@@@2@U_Kfn@?$map@V?$basic_string@DU?$char_traits@D@std@@V?$allocator@D@2@@std@@UShortFuncInfo@@Ustring_iless@@V?$allocator@UShortFuncInfo@@@2@@2@Ustring_iless@@V?$allocator@UShortFuncInfo@@@2@@std@@QAE?AU?$pair@Viterator@?$_Tree@V?$basic_string@DU?$char_traits@D@std@@V?$allocator@D@2@@std@@U?$pair@$$CBV?$basic_string@DU?$char_traits@D@std@@V?$allocator@D@2@@std@@UShortFuncInfo@@@2@U_Kfn@?$map@V?$basic_string@DU?$char_traits@D@std@@V?$allocator@D@2@@std@@UShortFuncInfo@@Ustring_iless@@V?$allocator@UShortFuncInfo@@@2@@2@Ustring_iless@@V?$allocator@UShortFuncInfo@@@2@@std@@_N@2@ABU?$pair@$$CBV?$basic_string@DU?$char_traits@D@std@@V?$allocator@D@2@@std@@UShortFuncInfo@@@2@@Z 00480f20 f i ShortcutKey.obj
 0001:000800a0       ?erase@?$_Tree@V?$basic_string@DU?$char_traits@D@std@@V?$allocator@D@2@@std@@U?$pair@$$CBV?$basic_string@DU?$char_traits@D@std@@V?$allocator@D@2@@std@@UShortFuncInfo@@@2@U_Kfn@?$map@V?$basic_string@DU?$char_traits@D@std@@V?$allocator@D@2@@std@@UShortFuncInfo@@Ustring_iless@@V?$allocator@UShortFuncInfo@@@2@@2@Ustring_iless@@V?$allocator@UShortFuncInfo@@@2@@std@@QAE?AViterator@12@V312@@Z 004810a0 f i ShortcutKey.obj
 0001:00080680       ??0const_iterator@?$list@V?$basic_string@DU?$char_traits@D@std@@V?$allocator@D@2@@std@@V?$allocator@V?$basic_string@DU?$char_traits@D@std@@V?$allocator@D@2@@std@@@2@@std@@QAE@PAU_Node@12@@Z 00481680 f i ShortcutKey.obj
 0001:00080690       ?_Erase@?$_Tree@V?$basic_string@DU?$char_traits@D@std@@V?$allocator@D@2@@std@@U?$pair@$$CBV?$basic_string@DU?$char_traits@D@std@@V?$allocator@D@2@@std@@UShortFuncInfo@@@2@U_Kfn@?$map@V?$basic_string@DU?$char_traits@D@std@@V?$allocator@D@2@@std@@UShortFuncInfo@@Ustring_iless@@V?$allocator@UShortFuncInfo@@@2@@2@Ustring_iless@@V?$allocator@UShortFuncInfo@@@2@@std@@IAEXPAU_Node@12@@Z 00481690 f i ShortcutKey.obj
 0001:000807d0       ?_Inc@const_iterator@?$_Tree@V?$basic_string@DU?$char_traits@D@std@@V?$allocator@D@2@@std@@U?$pair@$$CBV?$basic_string@DU?$char_traits@D@std@@V?$allocator@D@2@@std@@UShortFuncInfo@@@2@U_Kfn@?$map@V?$basic_string@DU?$char_traits@D@std@@V?$allocator@D@2@@std@@UShortFuncInfo@@Ustring_iless@@V?$allocator@UShortFuncInfo@@@2@@2@Ustring_iless@@V?$allocator@UShortFuncInfo@@@2@@std@@QAEXXZ 004817d0 f i ShortcutKey.obj
 0001:00080880       ?insert@?$_Tree@V?$basic_string@DU?$char_traits@D@std@@V?$allocator@D@2@@std@@U?$pair@$$CBV?$basic_string@DU?$char_traits@D@std@@V?$allocator@D@2@@std@@U?$pair@KK@2@@2@U_Kfn@?$map@V?$basic_string@DU?$char_traits@D@std@@V?$allocator@D@2@@std@@U?$pair@KK@2@Ustring_iless@@V?$allocator@U?$pair@KK@std@@@2@@2@Ustring_iless@@V?$allocator@U?$pair@KK@std@@@2@@std@@QAE?AU?$pair@Viterator@?$_Tree@V?$basic_string@DU?$char_traits@D@std@@V?$allocator@D@2@@std@@U?$pair@$$CBV?$basic_string@DU?$char_traits@D@std@@V?$allocator@D@2@@std@@U?$pair@KK@2@@2@U_Kfn@?$map@V?$basic_string@DU?$char_traits@D@std@@V?$allocator@D@2@@std@@U?$pair@KK@2@Ustring_iless@@V?$allocator@U?$pair@KK@std@@@2@@2@Ustring_iless@@V?$allocator@U?$pair@KK@std@@@2@@std@@_N@2@ABU?$pair@$$CBV?$basic_string@DU?$char_traits@D@std@@V?$allocator@D@2@@std@@U?$pair@KK@2@@2@@Z 00481880 f i ShortcutKey.obj
 0001:00080a00       ?erase@?$_Tree@V?$basic_string@DU?$char_traits@D@std@@V?$allocator@D@2@@std@@U?$pair@$$CBV?$basic_string@DU?$char_traits@D@std@@V?$allocator@D@2@@std@@U?$pair@KK@2@@2@U_Kfn@?$map@V?$basic_string@DU?$char_traits@D@std@@V?$allocator@D@2@@std@@U?$pair@KK@2@Ustring_iless@@V?$allocator@U?$pair@KK@std@@@2@@2@Ustring_iless@@V?$allocator@U?$pair@KK@std@@@2@@std@@QAE?AViterator@12@V312@@Z 00481a00 f i ShortcutKey.obj
 0001:00080f70       ?lower_bound@?$_Tree@V?$basic_string@DU?$char_traits@D@std@@V?$allocator@D@2@@std@@U?$pair@$$CBV?$basic_string@DU?$char_traits@D@std@@V?$allocator@D@2@@std@@U?$pair@KK@2@@2@U_Kfn@?$map@V?$basic_string@DU?$char_traits@D@std@@V?$allocator@D@2@@std@@U?$pair@KK@2@Ustring_iless@@V?$allocator@U?$pair@KK@std@@@2@@2@Ustring_iless@@V?$allocator@U?$pair@KK@std@@@2@@std@@QBE?AVconst_iterator@12@ABV?$basic_string@DU?$char_traits@D@std@@V?$allocator@D@2@@2@@Z 00481f70 f i ShortcutKey.obj
 0001:00080f90       ?_Erase@?$_Tree@V?$basic_string@DU?$char_traits@D@std@@V?$allocator@D@2@@std@@U?$pair@$$CBV?$basic_string@DU?$char_traits@D@std@@V?$allocator@D@2@@std@@U?$pair@KK@2@@2@U_Kfn@?$map@V?$basic_string@DU?$char_traits@D@std@@V?$allocator@D@2@@std@@U?$pair@KK@2@Ustring_iless@@V?$allocator@U?$pair@KK@std@@@2@@2@Ustring_iless@@V?$allocator@U?$pair@KK@std@@@2@@std@@IAEXPAU_Node@12@@Z 00481f90 f i ShortcutKey.obj
 0001:00081040       ??0?$pair@Viterator@?$_Tree@V?$basic_string@DU?$char_traits@D@std@@V?$allocator@D@2@@std@@U?$pair@$$CBV?$basic_string@DU?$char_traits@D@std@@V?$allocator@D@2@@std@@UShortFuncInfo@@@2@U_Kfn@?$map@V?$basic_string@DU?$char_traits@D@std@@V?$allocator@D@2@@std@@UShortFuncInfo@@Ustring_iless@@V?$allocator@UShortFuncInfo@@@2@@2@Ustring_iless@@V?$allocator@UShortFuncInfo@@@2@@std@@_N@std@@QAE@ABViterator@?$_Tree@V?$basic_string@DU?$char_traits@D@std@@V?$allocator@D@2@@std@@U?$pair@$$CBV?$basic_string@DU?$char_traits@D@std@@V?$allocator@D@2@@std@@UShortFuncInfo@@@2@U_Kfn@?$map@V?$basic_string@DU?$char_traits@D@std@@V?$allocator@D@2@@std@@UShortFuncInfo@@Ustring_iless@@V?$allocator@UShortFuncInfo@@@2@@2@Ustring_iless@@V?$allocator@UShortFuncInfo@@@2@@1@AB_N@Z 00482040 f i ShortcutKey.obj
 0001:00081060       ??0?$pair@Viterator@?$_Tree@V?$basic_string@DU?$char_traits@D@std@@V?$allocator@D@2@@std@@U?$pair@$$CBV?$basic_string@DU?$char_traits@D@std@@V?$allocator@D@2@@std@@U?$pair@KK@2@@2@U_Kfn@?$map@V?$basic_string@DU?$char_traits@D@std@@V?$allocator@D@2@@std@@U?$pair@KK@2@Ustring_iless@@V?$allocator@U?$pair@KK@std@@@2@@2@Ustring_iless@@V?$allocator@U?$pair@KK@std@@@2@@std@@_N@std@@QAE@ABViterator@?$_Tree@V?$basic_string@DU?$char_traits@D@std@@V?$allocator@D@2@@std@@U?$pair@$$CBV?$basic_string@DU?$char_traits@D@std@@V?$allocator@D@2@@std@@U?$pair@KK@2@@2@U_Kfn@?$map@V?$basic_string@DU?$char_traits@D@std@@V?$allocator@D@2@@std@@U?$pair@KK@2@Ustring_iless@@V?$allocator@U?$pair@KK@std@@@2@@2@Ustring_iless@@V?$allocator@U?$pair@KK@std@@@2@@1@AB_N@Z 00482060 f i ShortcutKey.obj
 0001:00081080       ?_Insert@?$_Tree@V?$basic_string@DU?$char_traits@D@std@@V?$allocator@D@2@@std@@U?$pair@$$CBV?$basic_string@DU?$char_traits@D@std@@V?$allocator@D@2@@std@@UShortFuncInfo@@@2@U_Kfn@?$map@V?$basic_string@DU?$char_traits@D@std@@V?$allocator@D@2@@std@@UShortFuncInfo@@Ustring_iless@@V?$allocator@UShortFuncInfo@@@2@@2@Ustring_iless@@V?$allocator@UShortFuncInfo@@@2@@std@@IAE?AViterator@12@PAU_Node@12@0ABU?$pair@$$CBV?$basic_string@DU?$char_traits@D@std@@V?$allocator@D@2@@std@@UShortFuncInfo@@@2@@Z 00482080 f i ShortcutKey.obj
 0001:000813b0       ?_Insert@?$_Tree@V?$basic_string@DU?$char_traits@D@std@@V?$allocator@D@2@@std@@U?$pair@$$CBV?$basic_string@DU?$char_traits@D@std@@V?$allocator@D@2@@std@@U?$pair@KK@2@@2@U_Kfn@?$map@V?$basic_string@DU?$char_traits@D@std@@V?$allocator@D@2@@std@@U?$pair@KK@2@Ustring_iless@@V?$allocator@U?$pair@KK@std@@@2@@2@Ustring_iless@@V?$allocator@U?$pair@KK@std@@@2@@std@@IAE?AViterator@12@PAU_Node@12@0ABU?$pair@$$CBV?$basic_string@DU?$char_traits@D@std@@V?$allocator@D@2@@std@@U?$pair@KK@2@@2@@Z 004823b0 f i ShortcutKey.obj
 0001:000816e0       ?_Lbound@?$_Tree@V?$basic_string@DU?$char_traits@D@std@@V?$allocator@D@2@@std@@U?$pair@$$CBV?$basic_string@DU?$char_traits@D@std@@V?$allocator@D@2@@std@@U?$pair@KK@2@@2@U_Kfn@?$map@V?$basic_string@DU?$char_traits@D@std@@V?$allocator@D@2@@std@@U?$pair@KK@2@Ustring_iless@@V?$allocator@U?$pair@KK@std@@@2@@2@Ustring_iless@@V?$allocator@U?$pair@KK@std@@@2@@std@@IBEPAU_Node@12@ABV?$basic_string@DU?$char_traits@D@std@@V?$allocator@D@2@@2@@Z 004826e0 f i ShortcutKey.obj
 0001:00081770       ?_Dec@const_iterator@?$_Tree@V?$basic_string@DU?$char_traits@D@std@@V?$allocator@D@2@@std@@U?$pair@$$CBV?$basic_string@DU?$char_traits@D@std@@V?$allocator@D@2@@std@@UShortFuncInfo@@@2@U_Kfn@?$map@V?$basic_string@DU?$char_traits@D@std@@V?$allocator@D@2@@std@@UShortFuncInfo@@Ustring_iless@@V?$allocator@UShortFuncInfo@@@2@@2@Ustring_iless@@V?$allocator@UShortFuncInfo@@@2@@std@@QAEXXZ 00482770 f i ShortcutKey.obj
 0001:00081830       ?_Dec@const_iterator@?$_Tree@V?$basic_string@DU?$char_traits@D@std@@V?$allocator@D@2@@std@@U?$pair@$$CBV?$basic_string@DU?$char_traits@D@std@@V?$allocator@D@2@@std@@U?$pair@KK@2@@2@U_Kfn@?$map@V?$basic_string@DU?$char_traits@D@std@@V?$allocator@D@2@@std@@U?$pair@KK@2@Ustring_iless@@V?$allocator@U?$pair@KK@std@@@2@@2@Ustring_iless@@V?$allocator@U?$pair@KK@std@@@2@@std@@QAEXXZ 00482830 f i ShortcutKey.obj
 0001:000818f0       ?_Inc@const_iterator@?$_Tree@V?$basic_string@DU?$char_traits@D@std@@V?$allocator@D@2@@std@@U?$pair@$$CBV?$basic_string@DU?$char_traits@D@std@@V?$allocator@D@2@@std@@U?$pair@KK@2@@2@U_Kfn@?$map@V?$basic_string@DU?$char_traits@D@std@@V?$allocator@D@2@@std@@U?$pair@KK@2@Ustring_iless@@V?$allocator@U?$pair@KK@std@@@2@@2@Ustring_iless@@V?$allocator@U?$pair@KK@std@@@2@@std@@QAEXXZ 004828f0 f i ShortcutKey.obj
 0001:000819a0       ?_Construct@std@@YAXPAU?$pair@$$CBV?$basic_string@DU?$char_traits@D@std@@V?$allocator@D@2@@std@@U?$pair@KK@2@@1@ABU21@@Z 004829a0 f i ShortcutKey.obj
 0001:00081b10       ?_Construct@std@@YAXPAU?$pair@$$CBV?$basic_string@DU?$char_traits@D@std@@V?$allocator@D@2@@std@@UShortFuncInfo@@@1@ABU21@@Z 00482b10 f i ShortcutKey.obj
 0001:00081c20       ??0KUiBase@@QAE@XZ         00482c20 f   UiBase.obj
 0001:00081d00       ??1KUiBase@@QAE@XZ         00482d00 f   UiBase.obj
 0001:00081d80       ?Exit@KUiBase@@QAEXXZ      00482d80 f   UiBase.obj
 0001:00081da0       ?GetUserTempDataFolder@KUiBase@@QAEPBDXZ 00482da0 f   UiBase.obj
 0001:00081db0       ?CleanTempDataFolder@KUiBase@@QAEXXZ 00482db0 f   UiBase.obj
 0001:00081dc0       ?ClearFolder@KUiBase@@AAEXPBD_N@Z 00482dc0 f   UiBase.obj
 0001:00081ee0       ?Init@KUiBase@@QAEHXZ      00482ee0 f   UiBase.obj
 0001:00081fc0       ?SetUserAccount@KUiBase@@QAEXPAD0@Z 00482fc0 f   UiBase.obj
 0001:00082030       ?CleanPrivateDataFolder@KUiBase@@QAEXXZ 00483030 f   UiBase.obj
 0001:00082070       ?DeletePrivateDataFile@KUiBase@@QAEXPBD@Z 00483070 f   UiBase.obj
 0001:000820e0       ?LoadPrivateConfig@KUiBase@@QAEXXZ 004830e0 f   UiBase.obj
 0001:00082170       ?SavePrivateConfig@KUiBase@@QAEHXZ 00483170 f   UiBase.obj
 0001:000821f0       ?GetUserPrivateDataFolder@KUiBase@@QAEHPADH@Z 004831f0 f   UiBase.obj
 0001:00082280       ?LoadScheme@KUiBase@@QAEHPBD@Z 00483280 f   UiBase.obj
 0001:000825e0       ?LoadSchemeForEachWnd@KUiBase@@AAEXXZ 004835e0 f   UiBase.obj
 0001:000826a0       ?GetSchemePath@KUiBase@@AAEHPBD@Z 004836a0 f   UiBase.obj
 0001:000828c0       ?SchemeCount@KUiBase@@QAEHXZ 004838c0 f   UiBase.obj
 0001:00082910       ?GetScheme@KUiBase@@QAEHHPAD0@Z 00483910 f   UiBase.obj
 0001:00082a60       ?GetCurSchemePath@KUiBase@@QAEHPADH@Z 00483a60 f   UiBase.obj
 0001:00082ac0       ?GetCommSettingFile@KUiBase@@QAEPAVKIniFile@@XZ 00483ac0 f   UiBase.obj
 0001:00082b40       ?CloseCommSettingFile@KUiBase@@QAEX_N@Z 00483b40 f   UiBase.obj
 0001:00082b90       ?GetCommConfigFile@KUiBase@@QAEPAVKIniFile@@XZ 00483b90 f   UiBase.obj
 0001:00082c40       ?CloseCommConfigFile@KUiBase@@QAEXXZ 00483c40 f   UiBase.obj
 0001:00082c70       ?GetPrivateSettingFile@KUiBase@@QAEPAVKIniFile@@XZ 00483c70 f   UiBase.obj
 0001:00082d30       ?ClosePrivateSettingFile@KUiBase@@QAEX_N@Z 00483d30 f   UiBase.obj
 0001:00082e20       ?GetAutoSettingFile@KUiBase@@QAEPAVKIniFile@@XZ 00483e20 f   UiBase.obj
 0001:00082ee0       ?CloseAutoSettingFile@KUiBase@@QAEX_N@Z 00483ee0 f   UiBase.obj
 0001:00082fd0       ?SetStatus@KUiBase@@QAEXW4UISYS_STATUS@@@Z 00483fd0 f   UiBase.obj
 0001:00083000       ?SetCurrentCursor@KUiBase@@QAEXXZ 00484000 f   UiBase.obj
 0001:00083070       ?IsOperationEnable@KUiBase@@QAEHW4UISYS_OPERATION@@@Z 00484070 f   UiBase.obj
 0001:000830c0       ?RegisterEvent@KUiBase@@QAEXPBDPAX@Z 004840c0 f   UiBase.obj
 0001:000832a0       ?UnregisterEvent@KUiBase@@QAEXPBDPAX@Z 004842a0 f   UiBase.obj
 0001:000833c0       ?NotifyOneEvent@KUiBase@@QAEHPBD0@Z 004843c0 f   UiBase.obj
 0001:00083520       ?NotifyEvent@KUiBase@@QAEHPBD@Z 00484520 f   UiBase.obj
 0001:000835e0       ?CreateUnit@AddinNotify@@UAEHPBD@Z 004845e0 f   UiBase.obj
 0001:00083630       ?DeleteUnit@AddinNotify@@UAEHPBD@Z 00484630 f   UiBase.obj
 0001:00083680       ?CreateUnitGroup@AddinNotify@@UAEHPBD0@Z 00484680 f   UiBase.obj
 0001:000836e0       ?RenameUnitGroup@AddinNotify@@UAEHPBD00ABV?$list@V?$basic_string@DU?$char_traits@D@std@@V?$allocator@D@2@@std@@V?$allocator@V?$basic_string@DU?$char_traits@D@std@@V?$allocator@D@2@@std@@@2@@std@@@Z 004846e0 f   UiBase.obj
 0001:00083750       ?DeleteUnitGroup@AddinNotify@@UAEHPBD0ABV?$list@V?$basic_string@DU?$char_traits@D@std@@V?$allocator@D@2@@std@@V?$allocator@V?$basic_string@DU?$char_traits@D@std@@V?$allocator@D@2@@std@@@2@@std@@@Z 00484750 f   UiBase.obj
 0001:000837b0       ?MoveUnitGroup@AddinNotify@@UAEHPBD00ABV?$list@V?$basic_string@DU?$char_traits@D@std@@V?$allocator@D@2@@std@@V?$allocator@V?$basic_string@DU?$char_traits@D@std@@V?$allocator@D@2@@std@@@2@@std@@@Z 004847b0 f   UiBase.obj
 0001:00083820       ?CreateUnitMember@AddinNotify@@UAEHPBD00@Z 00484820 f   UiBase.obj
 0001:00083890       ?DeleteUnitMember@AddinNotify@@UAEHPBD0@Z 00484890 f   UiBase.obj
 0001:000838f0       ?MoveUnitMember@AddinNotify@@UAEHPBD00@Z 004848f0 f   UiBase.obj
 0001:00083960       ?SetUnitMemberStatus@AddinNotify@@UAEHPBD00@Z 00484960 f   UiBase.obj
 0001:000839f0       ?CreateAddinUnit@@YAXPBD@Z 004849f0 f   UiBase.obj
 0001:00083a10       ?DeleteAddinUnit@@YAXPBD@Z 00484a10 f   UiBase.obj
 0001:00083a20       ??1?$pair@$$CBV?$basic_string@DU?$char_traits@D@std@@V?$allocator@D@2@@std@@PAX@std@@QAE@XZ 00484a20 f i UiBase.obj
 0001:00083a60       ?erase@?$_Tree@V?$basic_string@DU?$char_traits@D@std@@V?$allocator@D@2@@std@@U?$pair@$$CBV?$basic_string@DU?$char_traits@D@std@@V?$allocator@D@2@@std@@PAX@2@U_Kfn@?$map@V?$basic_string@DU?$char_traits@D@std@@V?$allocator@D@2@@std@@PAXU?$less@V?$basic_string@DU?$char_traits@D@std@@V?$allocator@D@2@@std@@@2@V?$allocator@PAX@2@@2@U?$less@V?$basic_string@DU?$char_traits@D@std@@V?$allocator@D@2@@std@@@2@V?$allocator@PAX@2@@std@@QAE?AViterator@12@V312@@Z 00484a60 f i UiBase.obj
 0001:00083fd0       ?erase@?$_Tree@V?$basic_string@DU?$char_traits@D@std@@V?$allocator@D@2@@std@@U?$pair@$$CBV?$basic_string@DU?$char_traits@D@std@@V?$allocator@D@2@@std@@PAX@2@U_Kfn@?$map@V?$basic_string@DU?$char_traits@D@std@@V?$allocator@D@2@@std@@PAXU?$less@V?$basic_string@DU?$char_traits@D@std@@V?$allocator@D@2@@std@@@2@V?$allocator@PAX@2@@2@U?$less@V?$basic_string@DU?$char_traits@D@std@@V?$allocator@D@2@@std@@@2@V?$allocator@PAX@2@@std@@QAE?AViterator@12@V312@0@Z 00484fd0 f i UiBase.obj
 0001:00084100       ?insert@?$_Tree@V?$basic_string@DU?$char_traits@D@std@@V?$allocator@D@2@@std@@U?$pair@$$CBV?$basic_string@DU?$char_traits@D@std@@V?$allocator@D@2@@std@@PAX@2@U_Kfn@?$map@V?$basic_string@DU?$char_traits@D@std@@V?$allocator@D@2@@std@@PAXU?$less@V?$basic_string@DU?$char_traits@D@std@@V?$allocator@D@2@@std@@@2@V?$allocator@PAX@2@@2@U?$less@V?$basic_string@DU?$char_traits@D@std@@V?$allocator@D@2@@std@@@2@V?$allocator@PAX@2@@std@@QAE?AU?$pair@Viterator@?$_Tree@V?$basic_string@DU?$char_traits@D@std@@V?$allocator@D@2@@std@@U?$pair@$$CBV?$basic_string@DU?$char_traits@D@std@@V?$allocator@D@2@@std@@PAX@2@U_Kfn@?$map@V?$basic_string@DU?$char_traits@D@std@@V?$allocator@D@2@@std@@PAXU?$less@V?$basic_string@DU?$char_traits@D@std@@V?$allocator@D@2@@std@@@2@V?$allocator@PAX@2@@2@U?$less@V?$basic_string@DU?$char_traits@D@std@@V?$allocator@D@2@@std@@@2@V?$allocator@PAX@2@@std@@_N@2@ABU?$pair@$$CBV?$basic_string@DU?$char_traits@D@std@@V?$allocator@D@2@@std@@PAX@2@@Z 00485100 f i UiBase.obj
 0001:00084260       ?lower_bound@?$_Tree@V?$basic_string@DU?$char_traits@D@std@@V?$allocator@D@2@@std@@U?$pair@$$CBV?$basic_string@DU?$char_traits@D@std@@V?$allocator@D@2@@std@@PAX@2@U_Kfn@?$map@V?$basic_string@DU?$char_traits@D@std@@V?$allocator@D@2@@std@@PAXU?$less@V?$basic_string@DU?$char_traits@D@std@@V?$allocator@D@2@@std@@@2@V?$allocator@PAX@2@@2@U?$less@V?$basic_string@DU?$char_traits@D@std@@V?$allocator@D@2@@std@@@2@V?$allocator@PAX@2@@std@@QAE?AViterator@12@ABV?$basic_string@DU?$char_traits@D@std@@V?$allocator@D@2@@2@@Z 00485260 f i UiBase.obj
 0001:00084280       ?_Erase@?$_Tree@V?$basic_string@DU?$char_traits@D@std@@V?$allocator@D@2@@std@@U?$pair@$$CBV?$basic_string@DU?$char_traits@D@std@@V?$allocator@D@2@@std@@PAX@2@U_Kfn@?$map@V?$basic_string@DU?$char_traits@D@std@@V?$allocator@D@2@@std@@PAXU?$less@V?$basic_string@DU?$char_traits@D@std@@V?$allocator@D@2@@std@@@2@V?$allocator@PAX@2@@2@U?$less@V?$basic_string@DU?$char_traits@D@std@@V?$allocator@D@2@@std@@@2@V?$allocator@PAX@2@@std@@IAEXPAU_Node@12@@Z 00485280 f i UiBase.obj
 0001:00084330       ?_Inc@const_iterator@?$_Tree@V?$basic_string@DU?$char_traits@D@std@@V?$allocator@D@2@@std@@U?$pair@$$CBV?$basic_string@DU?$char_traits@D@std@@V?$allocator@D@2@@std@@PAX@2@U_Kfn@?$map@V?$basic_string@DU?$char_traits@D@std@@V?$allocator@D@2@@std@@PAXU?$less@V?$basic_string@DU?$char_traits@D@std@@V?$allocator@D@2@@std@@@2@V?$allocator@PAX@2@@2@U?$less@V?$basic_string@DU?$char_traits@D@std@@V?$allocator@D@2@@std@@@2@V?$allocator@PAX@2@@std@@QAEXXZ 00485330 f i UiBase.obj
 0001:000843e0       ??0?$pair@Viterator@?$_Tree@V?$basic_string@DU?$char_traits@D@std@@V?$allocator@D@2@@std@@U?$pair@$$CBV?$basic_string@DU?$char_traits@D@std@@V?$allocator@D@2@@std@@PAX@2@U_Kfn@?$map@V?$basic_string@DU?$char_traits@D@std@@V?$allocator@D@2@@std@@PAXU?$less@V?$basic_string@DU?$char_traits@D@std@@V?$allocator@D@2@@std@@@2@V?$allocator@PAX@2@@2@U?$less@V?$basic_string@DU?$char_traits@D@std@@V?$allocator@D@2@@std@@@2@V?$allocator@PAX@2@@std@@_N@std@@QAE@ABViterator@?$_Tree@V?$basic_string@DU?$char_traits@D@std@@V?$allocator@D@2@@std@@U?$pair@$$CBV?$basic_string@DU?$char_traits@D@std@@V?$allocator@D@2@@std@@PAX@2@U_Kfn@?$map@V?$basic_string@DU?$char_traits@D@std@@V?$allocator@D@2@@std@@PAXU?$less@V?$basic_string@DU?$char_traits@D@std@@V?$allocator@D@2@@std@@@2@V?$allocator@PAX@2@@2@U?$less@V?$basic_string@DU?$char_traits@D@std@@V?$allocator@D@2@@std@@@2@V?$allocator@PAX@2@@1@AB_N@Z 004853e0 f i UiBase.obj
 0001:00084400       ?_Insert@?$_Tree@V?$basic_string@DU?$char_traits@D@std@@V?$allocator@D@2@@std@@U?$pair@$$CBV?$basic_string@DU?$char_traits@D@std@@V?$allocator@D@2@@std@@PAX@2@U_Kfn@?$map@V?$basic_string@DU?$char_traits@D@std@@V?$allocator@D@2@@std@@PAXU?$less@V?$basic_string@DU?$char_traits@D@std@@V?$allocator@D@2@@std@@@2@V?$allocator@PAX@2@@2@U?$less@V?$basic_string@DU?$char_traits@D@std@@V?$allocator@D@2@@std@@@2@V?$allocator@PAX@2@@std@@IAE?AViterator@12@PAU_Node@12@0ABU?$pair@$$CBV?$basic_string@DU?$char_traits@D@std@@V?$allocator@D@2@@std@@PAX@2@@Z 00485400 f i UiBase.obj
 0001:00084710       ?_Lbound@?$_Tree@V?$basic_string@DU?$char_traits@D@std@@V?$allocator@D@2@@std@@U?$pair@$$CBV?$basic_string@DU?$char_traits@D@std@@V?$allocator@D@2@@std@@PAX@2@U_Kfn@?$map@V?$basic_string@DU?$char_traits@D@std@@V?$allocator@D@2@@std@@PAXU?$less@V?$basic_string@DU?$char_traits@D@std@@V?$allocator@D@2@@std@@@2@V?$allocator@PAX@2@@2@U?$less@V?$basic_string@DU?$char_traits@D@std@@V?$allocator@D@2@@std@@@2@V?$allocator@PAX@2@@std@@IBEPAU_Node@12@ABV?$basic_string@DU?$char_traits@D@std@@V?$allocator@D@2@@2@@Z 00485710 f i UiBase.obj
 0001:000847b0       ?_Dec@const_iterator@?$_Tree@V?$basic_string@DU?$char_traits@D@std@@V?$allocator@D@2@@std@@U?$pair@$$CBV?$basic_string@DU?$char_traits@D@std@@V?$allocator@D@2@@std@@PAX@2@U_Kfn@?$map@V?$basic_string@DU?$char_traits@D@std@@V?$allocator@D@2@@std@@PAXU?$less@V?$basic_string@DU?$char_traits@D@std@@V?$allocator@D@2@@std@@@2@V?$allocator@PAX@2@@2@U?$less@V?$basic_string@DU?$char_traits@D@std@@V?$allocator@D@2@@std@@@2@V?$allocator@PAX@2@@std@@QAEXXZ 004857b0 f i UiBase.obj
 0001:00084870       ?_Construct@std@@YAXPAU?$pair@$$CBV?$basic_string@DU?$char_traits@D@std@@V?$allocator@D@2@@std@@PAX@1@ABU21@@Z 00485870 f i UiBase.obj
 0001:000849d0       ?CreateObject@Player_Life@@SAPAVKWndWindow@@XZ 004859d0 f i UiShell.obj
 0001:00084a30       ??_GPlayer_Life@@UAEPAXI@Z 00485a30 f i UiShell.obj
 0001:00084a30       ??_EPlayer_Life@@UAEPAXI@Z 00485a30 f i UiShell.obj
 0001:00084a50       ??1Player_Life@@UAE@XZ     00485a50 f i UiShell.obj
 0001:00084ac0       ?CreateObject@Player_Mana@@SAPAVKWndWindow@@XZ 00485ac0 f i UiShell.obj
 0001:00084b20       ??_EPlayer_Mana@@UAEPAXI@Z 00485b20 f i UiShell.obj
 0001:00084b20       ??_GPlayer_Mana@@UAEPAXI@Z 00485b20 f i UiShell.obj
 0001:00084b40       ??1Player_Mana@@UAE@XZ     00485b40 f i UiShell.obj
 0001:00084bb0       ?CreateObject@Player_Stamina@@SAPAVKWndWindow@@XZ 00485bb0 f i UiShell.obj
 0001:00084c10       ??_GPlayer_Stamina@@UAEPAXI@Z 00485c10 f i UiShell.obj
 0001:00084c10       ??_EPlayer_Stamina@@UAEPAXI@Z 00485c10 f i UiShell.obj
 0001:00084c30       ??1Player_Stamina@@UAE@XZ  00485c30 f i UiShell.obj
 0001:00084ca0       ?CreateObject@Player_Exp@@SAPAVKWndWindow@@XZ 00485ca0 f i UiShell.obj
 0001:00084d00       ??_GPlayer_Exp@@UAEPAXI@Z  00485d00 f i UiShell.obj
 0001:00084d00       ??_EPlayer_Exp@@UAEPAXI@Z  00485d00 f i UiShell.obj
 0001:00084d20       ??1Player_Exp@@UAE@XZ      00485d20 f i UiShell.obj
 0001:00084d90       ?CreateObject@Player_Level@@SAPAVKWndWindow@@XZ 00485d90 f i UiShell.obj
 0001:00084df0       ??_EPlayer_Level@@UAEPAXI@Z 00485df0 f i UiShell.obj
 0001:00084df0       ??_GPlayer_Level@@UAEPAXI@Z 00485df0 f i UiShell.obj
 0001:00084e10       ??1Player_Level@@UAE@XZ    00485e10 f i UiShell.obj
 0001:00084e80       ?CreateObject@Player_WorldSort@@SAPAVKWndWindow@@XZ 00485e80 f i UiShell.obj
 0001:00084ee0       ??_EPlayer_WorldSort@@UAEPAXI@Z 00485ee0 f i UiShell.obj
 0001:00084ee0       ??_GPlayer_WorldSort@@UAEPAXI@Z 00485ee0 f i UiShell.obj
 0001:00084f00       ??1Player_WorldSort@@UAE@XZ 00485f00 f i UiShell.obj
 0001:00084f70       ?CreateObject@Player_Status@@SAPAVKWndWindow@@XZ 00485f70 f i UiShell.obj
 0001:00084fd0       ??_GPlayer_Status@@UAEPAXI@Z 00485fd0 f i UiShell.obj
 0001:00084fd0       ??_EPlayer_Status@@UAEPAXI@Z 00485fd0 f i UiShell.obj
 0001:00084ff0       ??1Player_Status@@UAE@XZ   00485ff0 f i UiShell.obj
 0001:00085000       ?CreateObject@Player_Items@@SAPAVKWndWindow@@XZ 00486000 f i UiShell.obj
 0001:00085060       ??_GPlayer_Items@@UAEPAXI@Z 00486060 f i UiShell.obj
 0001:00085060       ??_EPlayer_Items@@UAEPAXI@Z 00486060 f i UiShell.obj
 0001:00085080       ??1Player_Items@@UAE@XZ    00486080 f i UiShell.obj
 0001:00085090       ?CreateObject@Player_ItemEx@@SAPAVKWndWindow@@XZ 00486090 f i UiShell.obj
 0001:000850f0       ??_EPlayer_ItemEx@@UAEPAXI@Z 004860f0 f i UiShell.obj
 0001:000850f0       ??_GPlayer_ItemEx@@UAEPAXI@Z 004860f0 f i UiShell.obj
 0001:00085110       ??1Player_ItemEx@@UAE@XZ   00486110 f i UiShell.obj
 0001:00085120       ?CreateObject@Player_Skills@@SAPAVKWndWindow@@XZ 00486120 f i UiShell.obj
 0001:00085180       ??_GPlayer_Skills@@UAEPAXI@Z 00486180 f i UiShell.obj
 0001:00085180       ??_EPlayer_Skills@@UAEPAXI@Z 00486180 f i UiShell.obj
 0001:000851a0       ??1Player_Skills@@UAE@XZ   004861a0 f i UiShell.obj
 0001:000851b0       ?CreateObject@Player_Team@@SAPAVKWndWindow@@XZ 004861b0 f i UiShell.obj
 0001:00085210       ??_EPlayer_Team@@UAEPAXI@Z 00486210 f i UiShell.obj
 0001:00085210       ??_GPlayer_Team@@UAEPAXI@Z 00486210 f i UiShell.obj
 0001:00085230       ??1Player_Team@@UAE@XZ     00486230 f i UiShell.obj
 0001:00085240       ?CreateObject@Player_Faction@@SAPAVKWndWindow@@XZ 00486240 f i UiShell.obj
 0001:000852a0       ??_GPlayer_Faction@@UAEPAXI@Z 004862a0 f i UiShell.obj
 0001:000852a0       ??_EPlayer_Faction@@UAEPAXI@Z 004862a0 f i UiShell.obj
 0001:000852c0       ??1Player_Faction@@UAE@XZ  004862c0 f i UiShell.obj
 0001:000852d0       ?CreateObject@Player_Sit@@SAPAVKWndWindow@@XZ 004862d0 f i UiShell.obj
 0001:00085330       ??_EPlayer_Sit@@UAEPAXI@Z  00486330 f i UiShell.obj
 0001:00085330       ??_GPlayer_Sit@@UAEPAXI@Z  00486330 f i UiShell.obj
 0001:00085350       ??1Player_Sit@@UAE@XZ      00486350 f i UiShell.obj
 0001:00085360       ?CreateObject@Player_Run@@SAPAVKWndWindow@@XZ 00486360 f i UiShell.obj
 0001:000853c0       ??_EPlayer_Run@@UAEPAXI@Z  004863c0 f i UiShell.obj
 0001:000853c0       ??_GPlayer_Run@@UAEPAXI@Z  004863c0 f i UiShell.obj
 0001:000853e0       ??1Player_Run@@UAE@XZ      004863e0 f i UiShell.obj
 0001:000853f0       ?CreateObject@Player_Horse@@SAPAVKWndWindow@@XZ 004863f0 f i UiShell.obj
 0001:00085450       ??_EPlayer_Horse@@UAEPAXI@Z 00486450 f i UiShell.obj
 0001:00085450       ??_GPlayer_Horse@@UAEPAXI@Z 00486450 f i UiShell.obj
 0001:00085470       ??1Player_Horse@@UAE@XZ    00486470 f i UiShell.obj
 0001:00085480       ?CreateObject@Player_Exchange@@SAPAVKWndWindow@@XZ 00486480 f i UiShell.obj
 0001:000854e0       ??_GPlayer_Exchange@@UAEPAXI@Z 004864e0 f i UiShell.obj
 0001:000854e0       ??_EPlayer_Exchange@@UAEPAXI@Z 004864e0 f i UiShell.obj
 0001:00085500       ??1Player_Exchange@@UAE@XZ 00486500 f i UiShell.obj
 0001:00085510       ?CreateObject@Player_PK@@SAPAVKWndWindow@@XZ 00486510 f i UiShell.obj
 0001:00085570       ??_EPlayer_PK@@UAEPAXI@Z   00486570 f i UiShell.obj
 0001:00085570       ??_GPlayer_PK@@UAEPAXI@Z   00486570 f i UiShell.obj
 0001:00085590       ??1Player_PK@@UAE@XZ       00486590 f i UiShell.obj
 0001:000855a0       ?CreateObject@Player_Task@@SAPAVKWndWindow@@XZ 004865a0 f i UiShell.obj
 0001:00085600       ??_GPlayer_Task@@UAEPAXI@Z 00486600 f i UiShell.obj
 0001:00085600       ??_EPlayer_Task@@UAEPAXI@Z 00486600 f i UiShell.obj
 0001:00085620       ??1Player_Task@@UAE@XZ     00486620 f i UiShell.obj
 0001:00085630       ?CreateObject@Player_AutoPlay@@SAPAVKWndWindow@@XZ 00486630 f i UiShell.obj
 0001:00085690       ??_EPlayer_AutoPlay@@UAEPAXI@Z 00486690 f i UiShell.obj
 0001:00085690       ??_GPlayer_AutoPlay@@UAEPAXI@Z 00486690 f i UiShell.obj
 0001:000856b0       ??1Player_AutoPlay@@UAE@XZ 004866b0 f i UiShell.obj
 0001:000856c0       ?CreateObject@Player_Lock@@SAPAVKWndWindow@@XZ 004866c0 f i UiShell.obj
 0001:00085720       ??_GPlayer_Lock@@UAEPAXI@Z 00486720 f i UiShell.obj
 0001:00085720       ??_EPlayer_Lock@@UAEPAXI@Z 00486720 f i UiShell.obj
 0001:00085740       ??1Player_Lock@@UAE@XZ     00486740 f i UiShell.obj
 0001:00085770       ?UiGetFrameRate@@YAHXZ     00486770 f   UiShell.obj
 0001:00085790       ?UiPostQuitMsg@@YAXXZ      00486790 f   UiShell.obj
 0001:000857a0       ?UiIsAlreadyQuit@@YA_NXZ   004867a0 f   UiShell.obj
 0001:000857b0       ?UiInit@@YAHXZ             004867b0 f   UiShell.obj
 0001:00085990       ?UiExit@@YAXXZ             00486990 f   UiShell.obj
 0001:00085a30       ?UiStart@@YAHXZ            00486a30 f   UiShell.obj
 0001:00085a70       ?UiPaint@@YAXH@Z           00486a70 f   UiShell.obj
 0001:00085b60       ?UiHeartBeat@@YAHXZ        00486b60 f   UiShell.obj
 0001:00085ca0       ?UiProcessInput@@YAXIIH@Z  00486ca0 f   UiShell.obj
 0001:00085d10       ?UiCloseWndsOutGame@@YAX_N@Z 00486d10 f   UiShell.obj
 0001:00085d90       ?UiStartGame@@YAXXZ        00486d90 f   UiShell.obj
 0001:00085e90       ?UiResumeGame@@YAXXZ       00486e90 f   UiShell.obj
 0001:00085ea0       ?UiCloseWndsInGame@@YA_N_N@Z 00486ea0 f   UiShell.obj
 0001:000863a0       ?UiEndGame@@YAXXZ          004873a0 f   UiShell.obj
 0001:00086410       ?UiSetScreenSize@@YAXHH@Z  00487410 f   UiShell.obj
 0001:00086430       ?UiOnGameServerConnected@@YAXXZ 00487430 f   UiShell.obj
 0001:00086450       ?UiOnGameServerStartSyncEnd@@YAXXZ 00487450 f   UiShell.obj
 0001:00086480       ?UpdateData@Player_Life@@UAEXXZ 00487480 f   UiShell.obj
 0001:00086510       ?OnButtonClick@Player_Life@@UAEXXZ 00487510 f   UiShell.obj
 0001:00086530       ?UpdateData@Player_Mana@@UAEXXZ 00487530 f   UiShell.obj
 0001:000865c0       ?OnButtonClick@Player_Mana@@UAEXXZ 004875c0 f   UiShell.obj
 0001:000865e0       ?UpdateData@Player_Stamina@@UAEXXZ 004875e0 f   UiShell.obj
 0001:00086670       ?OnButtonClick@Player_Stamina@@UAEXXZ 00487670 f   UiShell.obj
 0001:00086690       ?UpdateData@Player_Exp@@UAEXXZ 00487690 f   UiShell.obj
 0001:000867c0       ?OnButtonClick@Player_Exp@@UAEXXZ 004877c0 f   UiShell.obj
 0001:000867e0       ?GetToolTipInfo@Player_Exp@@UAEHPADH@Z 004877e0 f   UiShell.obj
 0001:00086870       ?UpdateData@Player_Level@@UAEXXZ 00487870 f   UiShell.obj
 0001:000868c0       ?UpdateData@Player_WorldSort@@UAEXXZ 004878c0 f   UiShell.obj
 0001:00086910       ?OnButtonClick@Player_WorldSort@@UAEXXZ 00487910 f   UiShell.obj
 0001:00086920       ?OnButtonClick@Player_Status@@UAEXXZ 00487920 f   UiShell.obj
 0001:00086930       ?GetShortKey@Player_Status@@UAEPBDXZ 00487930 f   UiShell.obj
 0001:00086950       ?OnButtonClick@Player_Items@@UAEXXZ 00487950 f   UiShell.obj
 0001:00086960       ?GetShortKey@Player_Items@@UAEPBDXZ 00487960 f   UiShell.obj
 0001:00086980       ?OnButtonClick@Player_ItemEx@@UAEXXZ 00487980 f   UiShell.obj
 0001:00086990       ?OnButtonClick@Player_Skills@@UAEXXZ 00487990 f   UiShell.obj
 0001:000869a0       ?GetShortKey@Player_Skills@@UAEPBDXZ 004879a0 f   UiShell.obj
 0001:000869c0       ?OnButtonClick@Player_Team@@UAEXXZ 004879c0 f   UiShell.obj
 0001:000869d0       ?GetShortKey@Player_Team@@UAEPBDXZ 004879d0 f   UiShell.obj
 0001:000869f0       ?OnButtonClick@Player_Faction@@UAEXXZ 004879f0 f   UiShell.obj
 0001:00086a00       ?GetShortKey@Player_Faction@@UAEPBDXZ 00487a00 f   UiShell.obj
 0001:00086a20       ?OnButtonClick@Player_Sit@@UAEXXZ 00487a20 f   UiShell.obj
 0001:00086a30       ?UpdateData@Player_Sit@@UAEXXZ 00487a30 f   UiShell.obj
 0001:00086a80       ?GetShortKey@Player_Sit@@UAEPBDXZ 00487a80 f   UiShell.obj
 0001:00086aa0       ?OnButtonClick@Player_Run@@UAEXXZ 00487aa0 f   UiShell.obj
 0001:00086ab0       ?UpdateData@Player_Run@@UAEXXZ 00487ab0 f   UiShell.obj
 0001:00086b00       ?GetShortKey@Player_Run@@UAEPBDXZ 00487b00 f   UiShell.obj
 0001:00086b20       ?OnButtonClick@Player_Horse@@UAEXXZ 00487b20 f   UiShell.obj
 0001:00086b30       ?UpdateData@Player_Horse@@UAEXXZ 00487b30 f   UiShell.obj
 0001:00086b80       ?GetShortKey@Player_Horse@@UAEPBDXZ 00487b80 f   UiShell.obj
 0001:00086ba0       ?OnButtonClick@Player_Exchange@@UAEXXZ 00487ba0 f   UiShell.obj
 0001:00086bb0       ?UpdateData@Player_Exchange@@UAEXXZ 00487bb0 f   UiShell.obj
 0001:00086be0       ?GetShortKey@Player_Exchange@@UAEPBDXZ 00487be0 f   UiShell.obj
 0001:00086c00       ?OnButtonClick@Player_PK@@UAEXXZ 00487c00 f   UiShell.obj
 0001:00086c30       ?UpdateData@Player_PK@@UAEXXZ 00487c30 f   UiShell.obj
 0001:00086c60       ?GetShortKey@Player_PK@@UAEPBDXZ 00487c60 f   UiShell.obj
 0001:00086c80       ?OnButtonClick@Player_Task@@UAEXXZ 00487c80 f   UiShell.obj
 0001:00086ca0       ?OnButtonClick@Player_AutoPlay@@UAEXXZ 00487ca0 f   UiShell.obj
 0001:00086cb0       ?OnButtonClick@Player_Lock@@UAEXXZ 00487cb0 f   UiShell.obj
 0001:00086d30       ??0CChatFilter@@QAE@XZ     00487d30 f   ChatFilter.obj
 0001:00086d40       ??_ECChatFilter@@UAEPAXI@Z 00487d40 f i ChatFilter.obj
 0001:00086d40       ??_GCChatFilter@@UAEPAXI@Z 00487d40 f i ChatFilter.obj
 0001:00086d60       ??1CChatFilter@@UAE@XZ     00487d60 f   ChatFilter.obj
 0001:00086d70       ?Initialize@CChatFilter@@QAEHXZ 00487d70 f   ChatFilter.obj
 0001:00086f20       ?Uninitialize@CChatFilter@@QAEHXZ 00487f20 f   ChatFilter.obj
 0001:00086f40       ?IsTextPass@CChatFilter@@QAEHPBD@Z 00487f40 f   ChatFilter.obj
 0001:00086f60       ??0CFilterTextLib@@QAE@XZ  00487f60 f   FilterTextLib.obj
 0001:00086f70       ??_ECFilterTextLib@@UAEPAXI@Z 00487f70 f i FilterTextLib.obj
 0001:00086f70       ??_GCFilterTextLib@@UAEPAXI@Z 00487f70 f i FilterTextLib.obj
 0001:00086f90       ??1CFilterTextLib@@UAE@XZ  00487f90 f   FilterTextLib.obj
 0001:00086fa0       ?Initialize@CFilterTextLib@@QAEHXZ 00487fa0 f   FilterTextLib.obj
 0001:00086fb0       ?Uninitialize@CFilterTextLib@@QAEHXZ 00487fb0 f   FilterTextLib.obj
 0001:00086fc0       ?CreateTextFilter@CFilterTextLib@@QAEJPAPAUITextFilter@@@Z 00487fc0 f   FilterTextLib.obj
 0001:00087010       ??1KMyApp@@QAE@XZ          00488010 f i S3Client.obj
 0001:00087170       _WinMain@16                00488170 f   S3Client.obj
 0001:00087200       ??0KMyApp@@QAE@XZ          00488200 f   S3Client.obj
 0001:000872b0       ?InitRepresentShell@@YAHHHH@Z 004882b0 f   S3Client.obj
 0001:00087390       ?GameInit@KMyApp@@UAEHXZ   00488390 f   S3Client.obj
 0001:000876e0       ?GameExit@KMyApp@@UAEHXZ   004886e0 f   S3Client.obj
 0001:000877e0       ??1KInlinePicSink@@QAE@XZ  004887e0 f i S3Client.obj
 0001:00087850       ?GameLoop@KMyApp@@UAEHXZ   00488850 f   S3Client.obj
 0001:000879b0       ?HandleInput@KMyApp@@MAEHIIJ@Z 004889b0 f   S3Client.obj
 0001:00087ad0       ??0KNetConnectAgent@@QAE@XZ 00488ad0 f   NetConnectAgent.obj
 0001:00087b10       ??1KNetConnectAgent@@QAE@XZ 00488b10 f   NetConnectAgent.obj
 0001:00087b20       ?Initialize@KNetConnectAgent@@QAEHXZ 00488b20 f   NetConnectAgent.obj
 0001:00087bb0       ?Exit@KNetConnectAgent@@QAEXXZ 00488bb0 f   NetConnectAgent.obj
 0001:00087c10       ?ClientConnectByNumericIp@KNetConnectAgent@@QAEHPBEG@Z 00488c10 f   NetConnectAgent.obj
 0001:00087cf0       ?DisconnectClient@KNetConnectAgent@@QAEXXZ 00488cf0 f   NetConnectAgent.obj
 0001:00087d40       ?ConnectToGameSvr@KNetConnectAgent@@QAEHPBEGPAU_GUID@@@Z 00488d40 f   NetConnectAgent.obj
 0001:00087ea0       ?DisconnectGameSvr@KNetConnectAgent@@QAEXXZ 00488ea0 f   NetConnectAgent.obj
 0001:00087f10       ?SendMsg@KNetConnectAgent@@QAEHPBXH@Z 00488f10 f   NetConnectAgent.obj
 0001:00087f40       ?Breathe@KNetConnectAgent@@QAEXXZ 00488f40 f   NetConnectAgent.obj
 0001:00088090       ?RegisterMsgTargetObject@KNetConnectAgent@@QAEXEPAUiKNetMsgTargetObject@@@Z 00489090 f   NetConnectAgent.obj
 0001:000880b0       ?TobeDisconnect@KNetConnectAgent@@QAEXXZ 004890b0 f   NetConnectAgent.obj
 0001:000880c0       ?UpdateClientRequestTime@KNetConnectAgent@@QAEX_NI@Z 004890c0 f   NetConnectAgent.obj
 0001:00088120       ?IsConnecting@KNetConnectAgent@@QAEHH@Z 00489120 f   NetConnectAgent.obj
 0001:00088140       ?ClientCallBack@@YGXPAXABK@Z 00489140 f   NetConnectAgent.obj
 0001:00088180       ?ProcessSwitchGameSvrMsg@KNetConnectAgent@@AAE_NPAX@Z 00489180 f   NetConnectAgent.obj
 0001:000882d0       ?GetIpAddress@@YA_NPBDPAE@Z 004892d0 f   Login.obj
 0001:00088390       ?RandMemSet@@YAXHPAE@Z     00489390 f   Login.obj
 0001:000883c0       ??0KLogin@@QAE@XZ          004893c0 f   Login.obj
 0001:00088400       ?ClearAccountPassword@KLogin@@AAEX_N0@Z 00489400 f   Login.obj
 0001:00088440       ??1KLogin@@QAE@XZ          00489440 f   Login.obj
 0001:00088450       ?CreateConnection@KLogin@@QAEHPBE@Z 00489450 f   Login.obj
 0001:000884e0       ?AccountLogin@KLogin@@QAEHPBDABUtagKSG_PASSWORD@@_N@Z 004894e0 f   Login.obj
 0001:00088550       ?SelectRole@KLogin@@QAEHH@Z 00489550 f   Login.obj
 0001:00088630       ?CreateRole@KLogin@@QAEHPAUKRoleChiefInfo@@@Z 00489630 f   Login.obj
 0001:00088740       ?DeleteRole@KLogin@@QAEHHABUtagKSG_PASSWORD@@@Z 00489740 f   Login.obj
 0001:00088860       ?NotifyTimeout@KLogin@@QAEXXZ 00489860 f   Login.obj
 0001:00088880       ?NotifyDisconnect@KLogin@@QAEXXZ 00489880 f   Login.obj
 0001:000888a0       ?NotifyToStartGame@KLogin@@QAEXXZ 004898a0 f   Login.obj
 0001:00088910       ?ReturnToIdle@KLogin@@QAEXXZ 00489910 f   Login.obj
 0001:00088950       ?ReturnToIdleLixian@KLogin@@QAEXXZ 00489950 f   Login.obj
 0001:00088990       ?AutoLogin@KLogin@@QAEXXZ  00489990 f   Login.obj
 0001:00088a10       ?IsAutoLoginEnable@KLogin@@QAEHXZ 00489a10 f   Login.obj
 0001:00088a50       ?SetRememberAccountFlag@KLogin@@QAEX_N@Z 00489a50 f   Login.obj
 0001:00088a70       ?SetRememberAllFlag@KLogin@@QAEX_N@Z 00489a70 f   Login.obj
 0001:00088a90       ?SetVirtualKeyboardFlag@KLogin@@QAEX_N@Z 00489a90 f   Login.obj
 0001:00088aa0       ?GetRoleInfo@KLogin@@QAEHHPAUKRoleChiefInfo@@@Z 00489aa0 f   Login.obj
 0001:00088ae0       ?ProcessAccountLoginResponse@KLogin@@AAEXPAUKLoginStructHead@@@Z 00489ae0 f   Login.obj
 0001:00088c90       ?ProcessRoleListResponse@KLogin@@AAEXPAUTProcessData@@@Z 00489c90 f   Login.obj
 0001:00088d90       ?ProcessCreateRoleResponse@KLogin@@AAEXPAUtagNewDelRoleResponse@@@Z 00489d90 f   Login.obj
 0001:00088df0       ?ProcessDeleteRoleResponse@KLogin@@AAEXPAUtagNewDelRoleResponse@@@Z 00489df0 f   Login.obj
 0001:00088f40       ?ProcessAccountExtPointResponse@KLogin@@AAEXPAUKLoginStructHead@@@Z 00489f40 f   Login.obj
 0001:00089080       ?ProcessToLoginGameServResponse@KLogin@@AAEXPAUtagNotifyPlayerLogin@@@Z 0048a080 f   Login.obj
 0001:00089150       ?AcceptNetMsg@KLogin@@UAEXPAX@Z 0048a150 f   Login.obj
 0001:000891c0       ?GetResult@KLogin@@QAE?AW4LOGIN_LOGIC_RESULT_INFO@@XZ 0048a1c0 f   Login.obj
 0001:000891d0       ?GetRoleCount@KLogin@@QAEHAAH@Z 0048a1d0 f   Login.obj
 0001:00089260       ?GetLoginAccount@KLogin@@QAE_NPAD@Z 0048a260 f   Login.obj
 0001:00089280       ?LoadLoginChoice@KLogin@@QAEXXZ 0048a280 f   Login.obj
 0001:00089450       ?SaveLoginChoice@KLogin@@QAEXXZ 0048a450 f   Login.obj
 0001:00089700       ?GetServerRegionList@KLogin@@QAEPAUKLoginServer@@AAH0@Z 0048a700 f   Login.obj
 0001:00089870       ?GetServerList@KLogin@@QAEPAUKLoginServer@@HAAH0@Z 0048a870 f   Login.obj
 0001:00089d90       ?SetAccountServer@KLogin@@QAEHABUKLoginServer@@@Z 0048ad90 f   Login.obj
 0001:00089db0       ?GetVirtualKeyboard@KLogin@@QAE_NXZ 0048adb0 f   Login.obj
 0001:00089dc0       ?Request@KLogin@@AAEHPBDPBUtagKSG_PASSWORD@@H@Z 0048adc0 f   Login.obj
 0001:00089eb0       ?ConnectAccountServer@KLogin@@AAEHPBE@Z 0048aeb0 f   Login.obj
 0001:00089ed0       ?RegistNetAgent@KLogin@@AAEXXZ 0048aed0 f   Login.obj
 0001:00089f10       ?UnRegistNetAgent@KLogin@@AAEXXZ 0048af10 f   Login.obj
 0001:00089f50       ?SetAccountPassword@KLogin@@AAEXPBDPBUtagKSG_PASSWORD@@@Z 0048af50 f   Login.obj
 0001:00089fc0       ?GetAccountPassword@KLogin@@AAEXPADPAUtagKSG_PASSWORD@@@Z 0048afc0 f   Login.obj
 0001:0008a020       ?TextMsgFilter@@YAHPBDH@Z  0048b020 f   TextCtrlCmd.obj
 0001:0008a050       ?Error_SetErrorCode@@YAXI@Z 0048b050 f   ErrorCode.obj
 0001:0008a060       ?Error_SetErrorString@@YAXPBD@Z 0048b060 f   ErrorCode.obj
 0001:0008a080       ?Error_Box@@YAXXZ          0048b080 f   ErrorCode.obj
 0001:0008a2b0       _GetTickCount@0            0048b2b0 f   kernel32:KERNEL32.dll
 0001:0008a2b6       _DeleteFileA@4             0048b2b6 f   kernel32:KERNEL32.dll
 0001:0008a2bc       _GetTempFileNameA@16       0048b2bc f   kernel32:KERNEL32.dll
 0001:0008a2c2       _GetTempPathA@8            0048b2c2 f   kernel32:KERNEL32.dll
 0001:0008a2c8       _GlobalUnlock@4            0048b2c8 f   kernel32:KERNEL32.dll
 0001:0008a2ce       _GlobalLock@4              0048b2ce f   kernel32:KERNEL32.dll
 0001:0008a2d4       _GlobalAlloc@8             0048b2d4 f   kernel32:KERNEL32.dll
 0001:0008a2da       _MulDiv@12                 0048b2da f   kernel32:KERNEL32.dll
 0001:0008a2e0       _FreeLibrary@4             0048b2e0 f   kernel32:KERNEL32.dll
 0001:0008a2e6       _GetProcAddress@8          0048b2e6 f   kernel32:KERNEL32.dll
 0001:0008a2ec       _LoadLibraryA@4            0048b2ec f   kernel32:KERNEL32.dll
 0001:0008a2f2       _SystemTimeToTzSpecificLocalTime@12 0048b2f2 f   kernel32:KERNEL32.dll
 0001:0008a2f8       _RemoveDirectoryA@4        0048b2f8 f   kernel32:KERNEL32.dll
 0001:0008a2fe       _FindClose@4               0048b2fe f   kernel32:KERNEL32.dll
 0001:0008a304       _FindNextFileA@8           0048b304 f   kernel32:KERNEL32.dll
 0001:0008a30a       _SetFileAttributesA@8      0048b30a f   kernel32:KERNEL32.dll
 0001:0008a310       _FindFirstFileA@8          0048b310 f   kernel32:KERNEL32.dll
 0001:0008a316       _GetVersion@0              0048b316 f   kernel32:KERNEL32.dll
 0001:0008a31c       _FreeConsole@0             0048b31c f   kernel32:KERNEL32.dll
 0001:0008a322       _AllocConsole@0            0048b322 f   kernel32:KERNEL32.dll
 0001:0008a328       _Sleep@4                   0048b328 f   kernel32:KERNEL32.dll
 0001:0008a32e       _lstrcpyA@8                0048b32e f   kernel32:KERNEL32.dll
 0001:0008a334       _lstrcpynA@12              0048b334 f   kernel32:KERNEL32.dll
 0001:0008a33a       _SetCursor@4               0048b33a f   user32:USER32.dll
 0001:0008a340       _LoadCursorA@8             0048b340 f   user32:USER32.dll
 0001:0008a346       _LoadCursorFromFileA@4     0048b346 f   user32:USER32.dll
 0001:0008a34c       _ShowCursor@4              0048b34c f   user32:USER32.dll
 0001:0008a352       _SetCaretPos@8             0048b352 f   user32:USER32.dll
 0001:0008a358       _CloseClipboard@0          0048b358 f   user32:USER32.dll
 0001:0008a35e       _SetClipboardData@8        0048b35e f   user32:USER32.dll
 0001:0008a364       _EmptyClipboard@0          0048b364 f   user32:USER32.dll
 0001:0008a36a       _OpenClipboard@4           0048b36a f   user32:USER32.dll
 0001:0008a370       _GetClipboardData@4        0048b370 f   user32:USER32.dll
 0001:0008a376       _GetKeyState@4             0048b376 f   user32:USER32.dll
 0001:0008a37c       _SetCursorPos@8            0048b37c f   user32:USER32.dll
 0001:0008a382       _ClientToScreen@8          0048b382 f   user32:USER32.dll
 0001:0008a388       _MessageBoxA@16            0048b388 f   user32:USER32.dll
 0001:0008a38e       _ShowWindow@8              0048b38e f   user32:USER32.dll
 0001:0008a394       _UpdateWindow@4            0048b394 f   user32:USER32.dll
 0001:0008a39a       _LoadImageA@24             0048b39a f   user32:USER32.dll
 0001:0008a3a0       _DefWindowProcA@16         0048b3a0 f   user32:USER32.dll
 0001:0008a3a6       _SendMessageA@16           0048b3a6 f   user32:USER32.dll
 0001:0008a3ac       _SetWindowTextA@8          0048b3ac f   user32:USER32.dll
 0001:0008a3b2       _wsprintfA                 0048b3b2 f   user32:USER32.dll
 0001:0008a3b8       _DeleteObject@4            0048b3b8 f   gdi32:GDI32.dll
 0001:0008a3be       _SHGetSpecialFolderPathA@16 0048b3be f   shell32:SHELL32.dll
 0001:0008a3c4       _ShellExecuteA@24          0048b3c4 f   shell32:SHELL32.dll
 0001:0008a3ca       _Shell_NotifyIconA@8       0048b3ca f   shell32:SHELL32.dll
 0001:0008a3d0       _lua_tostring              0048b3d0 f   lualibdll:LuaLibDll.dll
 0001:0008a3d6       _lua_gettop                0048b3d6 f   lualibdll:LuaLibDll.dll
 0001:0008a3dc       _lua_tonumber              0048b3dc f   lualibdll:LuaLibDll.dll
 0001:0008a3e2       _lua_type                  0048b3e2 f   lualibdll:LuaLibDll.dll
 0001:0008a3e8       _lua_pushnumber            0048b3e8 f   lualibdll:LuaLibDll.dll
 0001:0008a3ee       _lua_pushstring            0048b3ee f   lualibdll:LuaLibDll.dll
 0001:0008a3f4       _lua_isnumber              0048b3f4 f   lualibdll:LuaLibDll.dll
 0001:0008a3fa       _TEncodeText               0048b3fa f   engine:Engine.dll
 0001:0008a400       _TGetEncodedTextLineCount  0048b400 f   engine:Engine.dll
 0001:0008a406       ??1KIniFile@@QAE@XZ        0048b406 f   engine:Engine.dll
 0001:0008a40c       ?GetString@KIniFile@@QAEHPBD00PADK@Z 0048b40c f   engine:Engine.dll
 0001:0008a412       ?GetInteger@KIniFile@@QAEHPBD0HPAH@Z 0048b412 f   engine:Engine.dll
 0001:0008a418       ?GetShort@KIniFile@@QAEHPBD0FPAF@Z 0048b418 f   engine:Engine.dll
 0001:0008a41e       ?Load@KIniFile@@QAEHPBD@Z  0048b41e f   engine:Engine.dll
 0001:0008a424       ??0KIniFile@@QAE@XZ        0048b424 f   engine:Engine.dll
 0001:0008a42a       _TFindSpecialCtrlInEncodedText 0048b42a f   engine:Engine.dll
 0001:0008a430       ?g_CreatePath@@YAXPAD@Z    0048b430 f   engine:Engine.dll
 0001:0008a436       _AdviseEngine              0048b436 f   engine:Engine.dll
 0001:0008a43c       _UnAdviseEngine            0048b43c f   engine:Engine.dll
 0001:0008a442       ??1KPakFile@@QAE@XZ        0048b442 f   engine:Engine.dll
 0001:0008a448       ??1KFile@@QAE@XZ           0048b448 f   engine:Engine.dll
 0001:0008a44e       ?Close@KFile@@QAEXXZ       0048b44e f   engine:Engine.dll
 0001:0008a454       ?Close@KPakFile@@QAEXXZ    0048b454 f   engine:Engine.dll
 0001:0008a45a       ?Read@KPakFile@@QAEKPAXI@Z 0048b45a f   engine:Engine.dll
 0001:0008a460       ?Write@KFile@@QAEKPAXK@Z   0048b460 f   engine:Engine.dll
 0001:0008a466       ?Size@KPakFile@@QAEKXZ     0048b466 f   engine:Engine.dll
 0001:0008a46c       ?Open@KPakFile@@QAEHPBD@Z  0048b46c f   engine:Engine.dll
 0001:0008a472       ?Create@KFile@@QAEHPAD@Z   0048b472 f   engine:Engine.dll
 0001:0008a478       ??0KFile@@QAE@XZ           0048b478 f   engine:Engine.dll
 0001:0008a47e       ??0KPakFile@@QAE@XZ        0048b47e f   engine:Engine.dll
 0001:0008a484       ??0KIme@@QAE@XZ            0048b484 f   engine:Engine.dll
 0001:0008a48a       ??1KIme@@QAE@XZ            0048b48a f   engine:Engine.dll
 0001:0008a490       ?CloseIME@KIme@@QAEXXZ     0048b490 f   engine:Engine.dll
 0001:0008a496       ?DisableLanguageChange@KIme@@QAEXXZ 0048b496 f   engine:Engine.dll
 0001:0008a49c       ?IsIme@KIme@@QAEHXZ        0048b49c f   engine:Engine.dll
 0001:0008a4a2       ?SetCaretPos@KIme@@QAEXHH@Z 0048b4a2 f   engine:Engine.dll
 0001:0008a4a8       ?OpenIME@KIme@@QAEXXZ      0048b4a8 f   engine:Engine.dll
 0001:0008a4ae       ?EnableLanguageChange@KIme@@QAEXXZ 0048b4ae f   engine:Engine.dll
 0001:0008a4b4       _TSplitString              0048b4b4 f   engine:Engine.dll
 0001:0008a4ba       _TGetLimitLenString        0048b4ba f   engine:Engine.dll
 0001:0008a4c0       _TRemoveCtrlInEncodedText  0048b4c0 f   engine:Engine.dll
 0001:0008a4c6       ?GetInteger2@KIniFile@@QAEXPBD0PAH1@Z 0048b4c6 f   engine:Engine.dll
 0001:0008a4cc       ?g_GetMainHWnd@@YAPAUHWND__@@XZ 0048b4cc f   engine:Engine.dll
 0001:0008a4d2       ?KSG_StringToMD5String@@YAHQADQBD@Z 0048b4d2 f   engine:Engine.dll
 0001:0008a4d8       ?GetStruct@KIniFile@@QAEXPBD0PAXK@Z 0048b4d8 f   engine:Engine.dll
 0001:0008a4de       ?EraseKey@KIniFile@@QAEXPBD0@Z 0048b4de f   engine:Engine.dll
 0001:0008a4e4       ?WriteStruct@KIniFile@@QAEXPBD0PAXK@Z 0048b4e4 f   engine:Engine.dll
 0001:0008a4ea       ?WriteInteger@KIniFile@@QAEXPBD0H@Z 0048b4ea f   engine:Engine.dll
 0001:0008a4f0       ?WriteString@KIniFile@@QAEXPBD00@Z 0048b4f0 f   engine:Engine.dll
 0001:0008a4f6       _TGetChatItemLineCount     0048b4f6 f   engine:Engine.dll
 0001:0008a4fc       ?g_FileName2Id@@YAKPAD@Z   0048b4fc f   engine:Engine.dll
 0001:0008a502       ?GetShort2@KIniFile@@QAEXPBD0PAF1@Z 0048b502 f   engine:Engine.dll
 0001:0008a508       _TClearSpecialCtrlInEncodedText 0048b508 f   engine:Engine.dll
 0001:0008a50e       ?Read@KFile@@QAEKPAXK@Z    0048b50e f   engine:Engine.dll
 0001:0008a514       ?Open@KFile@@QAEHPAD@Z     0048b514 f   engine:Engine.dll
 0001:0008a51a       ?g_GetFullPath@@YAXPAD0@Z  0048b51a f   engine:Engine.dll
 0001:0008a520       ?Clear@KIniFile@@QAEXXZ    0048b520 f   engine:Engine.dll
 0001:0008a526       _TGetEncodedTextEffectCtrls 0048b526 f   engine:Engine.dll
 0001:0008a52c       _TSplitEncodedString       0048b52c f   engine:Engine.dll
 0001:0008a532       _TGetEncodedTextOutputLenPos 0048b532 f   engine:Engine.dll
 0001:0008a538       ?IsSectionExist@KIniFile@@QAEHPBD@Z 0048b538 f   engine:Engine.dll
 0001:0008a53e       ?Save@KIniFile@@QAEHPBD@Z  0048b53e f   engine:Engine.dll
 0001:0008a544       ?EraseSection@KIniFile@@QAEXPBD@Z 0048b544 f   engine:Engine.dll
 0001:0008a54a       ??0KLuaScript@@QAE@XZ      0048b54a f   engine:Engine.dll
 0001:0008a550       ??1KLuaScript@@UAE@XZ      0048b550 f   engine:Engine.dll
 0001:0008a556       ?g_GetRootPath@@YAXPAD@Z   0048b556 f   engine:Engine.dll
 0001:0008a55c       ?RegisterFunctions@KLuaScript@@QAEHQAUTLua_Funcs@@H@Z 0048b55c f   engine:Engine.dll
 0001:0008a562       ?Init@KLuaScript@@UAEHXZ   0048b562 f   engine:Engine.dll
 0001:0008a568       ?Load@KLuaScript@@UAEHPAD@Z 0048b568 f   engine:Engine.dll
 0001:0008a56e       ?ExecuteCode@KLuaScript@@QAEHXZ 0048b56e f   engine:Engine.dll
 0001:0008a574       ?LoadBuffer@KLuaScript@@QAEHPAEK@Z 0048b574 f   engine:Engine.dll
 0001:0008a57a       ?TurnOn@KIme@@QAEXXZ       0048b57a f   engine:Engine.dll
 0001:0008a580       ??0KTimer@@QAE@XZ          0048b580 f   engine:Engine.dll
 0001:0008a586       ?GetFPS@KTimer@@QAEHPAH@Z  0048b586 f   engine:Engine.dll
 0001:0008a58c       ?Start@KTimer@@QAEXXZ      0048b58c f   engine:Engine.dll
 0001:0008a592       ?GetElapse@KTimer@@QAEKXZ  0048b592 f   engine:Engine.dll
 0001:0008a598       _EDOneTimePad_Decipher     0048b598 f   engine:Engine.dll
 0001:0008a59e       ??1KMp3Music@@UAE@XZ       0048b59e f   engine:Engine.dll
 0001:0008a5a4       ??1KMusic@@UAE@XZ          0048b5a4 f   engine:Engine.dll
 0001:0008a5aa       ??1KMemClass@@QAE@XZ       0048b5aa f   engine:Engine.dll
 0001:0008a5b0       ??1KDirectSound@@QAE@XZ    0048b5b0 f   engine:Engine.dll
 0001:0008a5b6       ??0KPakList@@QAE@XZ        0048b5b6 f   engine:Engine.dll
 0001:0008a5bc       ??1KPakList@@QAE@XZ        0048b5bc f   engine:Engine.dll
 0001:0008a5c2       ?Run@KWin32App@@UAEXXZ     0048b5c2 f   engine:Engine.dll
 0001:0008a5c8       ?Init@KWin32App@@UAEHPAUHINSTANCE__@@PAD@Z 0048b5c8 f   engine:Engine.dll
 0001:0008a5ce       ?MsgProc@KWin32App@@UAEJPAUHWND__@@IIJ@Z 0048b5ce f   engine:Engine.dll
 0001:0008a5d4       ?SetMultiGame@KWin32App@@UAEXH@Z 0048b5d4 f   engine:Engine.dll
 0001:0008a5da       ?ShowMouse@KWin32App@@UAEXH@Z 0048b5da f   engine:Engine.dll
 0001:0008a5e0       ?InitWindow@KWin32App@@MAEHPAUHINSTANCE__@@@Z 0048b5e0 f   engine:Engine.dll
 0001:0008a5e6       ?InitClass@KWin32App@@MAEHPAUHINSTANCE__@@@Z 0048b5e6 f   engine:Engine.dll
 0001:0008a5ec       ??0KDirectSound@@QAE@XZ    0048b5ec f   engine:Engine.dll
 0001:0008a5f2       ??0KMemClass@@QAE@XZ       0048b5f2 f   engine:Engine.dll
 0001:0008a5f8       ??0KMusic@@QAE@XZ          0048b5f8 f   engine:Engine.dll
 0001:0008a5fe       ??0KWin32App@@QAE@XZ       0048b5fe f   engine:Engine.dll
 0001:0008a604       ?SetMouseHoverTime@KWin32App@@QAEXI@Z 0048b604 f   engine:Engine.dll
 0001:0008a60a       ?Init@KDirectSound@@QAEHXZ 0048b60a f   engine:Engine.dll
 0001:0008a610       ?Open@KPakList@@QAE_NPBD@Z 0048b610 f   engine:Engine.dll
 0001:0008a616       ?g_SetFilePath@@YAXPAD@Z   0048b616 f   engine:Engine.dll
 0001:0008a61c       ?g_SetRootPath@@YAXPAD@Z   0048b61c f   engine:Engine.dll
 0001:0008a622       ?Exit@KDirectSound@@QAEXXZ 0048b622 f   engine:Engine.dll
 0001:0008a628       _EDOneTimePad_Encipher     0048b628 f   engine:Engine.dll
 0001:0008a62e       ?g_pClientLic@@YAXPAD@Z    0048b62e f   engine:Engine.dll
 0001:0008a634       _CoreGetShell              0048b634 f   CoreClient:CoreClient.dll
 0001:0008a63a       _floor                     0048b63a f   MSVCRT:MSVCRT.dll
 0001:0008a640       __ftol                     0048b640 f   MSVCRT:MSVCRT.dll
 0001:0008a650       __chkstk                   0048b650 f   MSVCRT:chkstk.obj
 0001:0008a650       __alloca_probe             0048b650 f   MSVCRT:chkstk.obj
 0001:0008a680       _sprintf                   0048b680 f   MSVCRT:MSVCRT.dll
 0001:0008a686       ___CxxFrameHandler         0048b686 f   MSVCRT:MSVCRT.dll
 0001:0008a68c       _free                      0048b68c f   MSVCRT:MSVCRT.dll
 0001:0008a692       _strftime                  0048b692 f   MSVCRT:MSVCRT.dll
 0001:0008a698       _localtime                 0048b698 f   MSVCRT:MSVCRT.dll
 0001:0008a69e       _time                      0048b69e f   MSVCRT:MSVCRT.dll
 0001:0008a6a4       ??3@YAXPAX@Z               0048b6a4 f   MSVCRT:MSVCRT.dll
 0001:0008a6aa       ??2@YAPAXI@Z               0048b6aa f   MSVCRT:MSVCRT.dll
 0001:0008a6b0       _strncpy                   0048b6b0 f   MSVCRT:MSVCRT.dll
 0001:0008a6b6       __onexit                   0048b6b6 f   MSVCRT:atonexit.obj
 0001:0008a6e2       _atexit                    0048b6e2 f   MSVCRT:atonexit.obj
 0001:0008a6f4       _memmove                   0048b6f4 f   MSVCRT:MSVCRT.dll
 0001:0008a6fa       _atoi                      0048b6fa f   MSVCRT:MSVCRT.dll
 0001:0008a700       _malloc                    0048b700 f   MSVCRT:MSVCRT.dll
 0001:0008a706       _realloc                   0048b706 f   MSVCRT:MSVCRT.dll
 0001:0008a70c       __itoa                     0048b70c f   MSVCRT:MSVCRT.dll
 0001:0008a712       ??_L@YGXPAXIHP6EX0@Z1@Z    0048b712 f   MSVCRT:ehvecctr.obj
 0001:0008a794       ??_M@YGXPAXIHP6EX0@Z@Z     0048b794 f   MSVCRT:ehvecdtr.obj
 0001:0008a814       ?__ArrayUnwind@@YGXPAXIHP6EX0@Z@Z 0048b814 f   MSVCRT:ehvecdtr.obj
 0001:0008a888       _rand                      0048b888 f   MSVCRT:MSVCRT.dll
 0001:0008a88e       __strcmpi                  0048b88e f   MSVCRT:MSVCRT.dll
 0001:0008a894       _strstr                    0048b894 f   MSVCRT:MSVCRT.dll
 0001:0008a89a       __mbsicmp                  0048b89a f   MSVCRT:MSVCRT.dll
 0001:0008a8a0       _srand                     0048b8a0 f   MSVCRT:MSVCRT.dll
 0001:0008a8a6       _strtok                    0048b8a6 f   MSVCRT:MSVCRT.dll
 0001:0008a8ac       __access                   0048b8ac f   MSVCRT:MSVCRT.dll
 0001:0008a8b2       _mktime                    0048b8b2 f   MSVCRT:MSVCRT.dll
 0001:0008a8b8       _fclose                    0048b8b8 f   MSVCRT:MSVCRT.dll
 0001:0008a8be       _fopen                     0048b8be f   MSVCRT:MSVCRT.dll
 0001:0008a8c4       _remove                    0048b8c4 f   MSVCRT:MSVCRT.dll
 0001:0008a8ca       __strlwr                   0048b8ca f   MSVCRT:MSVCRT.dll
 0001:0008a8d0       _isgraph                   0048b8d0 f   MSVCRT:MSVCRT.dll
 0001:0008a8d6       _strchr                    0048b8d6 f   MSVCRT:MSVCRT.dll
 0001:0008a8e0       __alldiv                   0048b8e0 f   MSVCRT:lldiv.obj
 0001:0008a990       __allmul                   0048b990 f   MSVCRT:llmul.obj
 0001:0008a9c4       _sscanf                    0048b9c4 f   MSVCRT:MSVCRT.dll
 0001:0008a9ca       _WinMainCRTStartup         0048b9ca f   MSVCRT:crtexew.obj
 0001:0008ab28       ___dllonexit               0048bb28 f   MSVCRT:MSVCRT.dll
 0001:0008ab2e       __except_handler3          0048bb2e f   MSVCRT:MSVCRT.dll
 0001:0008ab34       ?terminate@@YAXXZ          0048bb34 f   MSVCRT:MSVCRT.dll
 0001:0008ab3a       __exit                     0048bb3a f   MSVCRT:MSVCRT.dll
 0001:0008ab40       __XcptFilter               0048bb40 f   MSVCRT:MSVCRT.dll
 0001:0008ab46       _exit                      0048bb46 f   MSVCRT:MSVCRT.dll
 0001:0008ab4c       ___getmainargs             0048bb4c f   MSVCRT:MSVCRT.dll
 0001:0008ab52       __initterm                 0048bb52 f   MSVCRT:MSVCRT.dll
 0001:0008ab58       __setdefaultprecision      0048bb58 f   MSVCRT:fp8.obj
 0001:0008ab6a       ___setusermatherr          0048bb6a f   MSVCRT:MSVCRT.dll
 0001:0008ab70       __matherr                  0048bb70 f   MSVCRT:merr.obj
 0001:0008ab73       __setargv                  0048bb73 f   MSVCRT:dllargv.obj
 0001:0008ab74       ___p__commode              0048bb74 f   MSVCRT:MSVCRT.dll
 0001:0008ab7a       ___p__fmode                0048bb7a f   MSVCRT:MSVCRT.dll
 0001:0008ab80       ___set_app_type            0048bb80 f   MSVCRT:MSVCRT.dll
 0001:0008ab86       __controlfp                0048bb86 f   MSVCRT:MSVCRT.dll
 0001:0008ab90       ??1?$basic_string@DU?$char_traits@D@std@@V?$allocator@D@2@@std@@QAE@XZ 0048bb90 f   msvcprt:MSVCP60.dll
 0001:0008ab96       ?assign@?$basic_string@DU?$char_traits@D@std@@V?$allocator@D@2@@std@@QAEAAV12@PBDI@Z 0048bb96 f   msvcprt:MSVCP60.dll
 0001:0008ab9c       ??1_Lockit@std@@QAE@XZ     0048bb9c f   msvcprt:MSVCP60.dll
 0001:0008aba2       ??0_Lockit@std@@QAE@XZ     0048bba2 f   msvcprt:MSVCP60.dll
 0001:0008aba8       ??0Init@ios_base@std@@QAE@XZ 0048bba8 f   msvcprt:MSVCP60.dll
 0001:0008abae       ??1Init@ios_base@std@@QAE@XZ 0048bbae f   msvcprt:MSVCP60.dll
 0001:0008abb4       ??0_Winit@std@@QAE@XZ      0048bbb4 f   msvcprt:MSVCP60.dll
 0001:0008abba       ??1_Winit@std@@QAE@XZ      0048bbba f   msvcprt:MSVCP60.dll
 0001:0008abc0       ??_D?$basic_stringstream@DU?$char_traits@D@std@@V?$allocator@D@2@@std@@QAEXXZ 0048bbc0 f   msvcprt:MSVCP60.dll
 0001:0008abc6       ??1?$basic_streambuf@DU?$char_traits@D@std@@@std@@UAE@XZ 0048bbc6 f   msvcprt:MSVCP60.dll
 0001:0008abcc       ??1?$basic_ios@DU?$char_traits@D@std@@@std@@UAE@XZ 0048bbcc f   msvcprt:MSVCP60.dll
 0001:0008abd2       ??1ios_base@std@@UAE@XZ    0048bbd2 f   msvcprt:MSVCP60.dll
 0001:0008abd8       ??1?$basic_iostream@DU?$char_traits@D@std@@@std@@UAE@XZ 0048bbd8 f   msvcprt:MSVCP60.dll
 0001:0008abde       ??1?$basic_stringbuf@DU?$char_traits@D@std@@V?$allocator@D@2@@std@@UAE@XZ 0048bbde f   msvcprt:MSVCP60.dll
 0001:0008abe4       ??5?$basic_istream@DU?$char_traits@D@std@@@std@@QAEAAV01@AAH@Z 0048bbe4 f   msvcprt:MSVCP60.dll
 0001:0008abea       ?_Init@?$basic_stringbuf@DU?$char_traits@D@std@@V?$allocator@D@2@@std@@IAEXPBDIH@Z 0048bbea f   msvcprt:MSVCP60.dll
 0001:0008abf0       ?_Mode@?$basic_stringbuf@DU?$char_traits@D@std@@V?$allocator@D@2@@std@@AAEHH@Z 0048bbf0 f   msvcprt:MSVCP60.dll
 0001:0008abf6       ??0?$basic_streambuf@DU?$char_traits@D@std@@@std@@IAE@XZ 0048bbf6 f   msvcprt:MSVCP60.dll
 0001:0008abfc       ??0?$basic_iostream@DU?$char_traits@D@std@@@std@@QAE@PAV?$basic_streambuf@DU?$char_traits@D@std@@@1@@Z 0048bbfc f   msvcprt:MSVCP60.dll
 0001:0008ac02       ??0ios_base@std@@IAE@XZ    0048bc02 f   msvcprt:MSVCP60.dll
 0001:0008ac08       ?_Eos@?$basic_string@DU?$char_traits@D@std@@V?$allocator@D@2@@std@@AAEXI@Z 0048bc08 f   msvcprt:MSVCP60.dll
 0001:0008ac0e       ?_Grow@?$basic_string@DU?$char_traits@D@std@@V?$allocator@D@2@@std@@AAE_NI_N@Z 0048bc0e f   msvcprt:MSVCP60.dll
 0001:0008ac14       ?_Tidy@?$basic_string@DU?$char_traits@D@std@@V?$allocator@D@2@@std@@AAEX_N@Z 0048bc14 f   msvcprt:MSVCP60.dll
 0001:0008ac1a       ?assign@?$basic_string@DU?$char_traits@D@std@@V?$allocator@D@2@@std@@QAEAAV12@ABV12@II@Z 0048bc1a f   msvcprt:MSVCP60.dll
 0001:0008ac20       ?append@?$basic_string@DU?$char_traits@D@std@@V?$allocator@D@2@@std@@QAEAAV12@ABV12@II@Z 0048bc20 f   msvcprt:MSVCP60.dll
 0001:0008ac26       ?append@?$basic_string@DU?$char_traits@D@std@@V?$allocator@D@2@@std@@QAEAAV12@PBDI@Z 0048bc26 f   msvcprt:MSVCP60.dll
 0001:0008ac2c       ?_Copy@?$basic_string@DU?$char_traits@D@std@@V?$allocator@D@2@@std@@AAEXI@Z 0048bc2c f   msvcprt:MSVCP60.dll
 0001:0008ac32       ?_Xlen@std@@YAXXZ          0048bc32 f   msvcprt:MSVCP60.dll
 0001:0008ac38       ??Mstd@@YA_NABV?$basic_string@DU?$char_traits@D@std@@V?$allocator@D@2@@0@0@Z 0048bc38 f   msvcprt:MSVCP60.dll
 0001:0008ac3e       ??0?$basic_string@DU?$char_traits@D@std@@V?$allocator@D@2@@std@@QAE@ABV01@@Z 0048bc3e f   msvcprt:MSVCP60.dll
 0001:0008ac44       ??8std@@YA_NABV?$basic_string@DU?$char_traits@D@std@@V?$allocator@D@2@@0@0@Z 0048bc44 f   msvcprt:MSVCP60.dll
 0001:0008ac4a       ?max_size@?$basic_string@DU?$char_traits@D@std@@V?$allocator@D@2@@std@@QBEIXZ 0048bc4a f   msvcprt:MSVCP60.dll
 0001:0008ac50       ??8std@@YA_NABV?$basic_string@DU?$char_traits@D@std@@V?$allocator@D@2@@0@PBD@Z 0048bc50 f   msvcprt:MSVCP60.dll
 0001:0008ac56       ?erase@?$basic_string@DU?$char_traits@D@std@@V?$allocator@D@2@@std@@QAEAAV12@II@Z 0048bc56 f   msvcprt:MSVCP60.dll
 0001:0008ac5c       ?_Split@?$basic_string@DU?$char_traits@D@std@@V?$allocator@D@2@@std@@AAEXXZ 0048bc5c f   msvcprt:MSVCP60.dll
 0001:0008ac62       ?_Xran@std@@YAXXZ          0048bc62 f   msvcprt:MSVCP60.dll
 0001:0008ac68       ?assign@?$basic_string@DU?$char_traits@D@std@@V?$allocator@D@2@@std@@QAEAAV12@ID@Z 0048bc68 f   msvcprt:MSVCP60.dll
 0001:0008ac70       ?AddExpression@CTextFilter@@MAEHPBD@Z 0048bc70 f   FilterText_StaticLib:FilterText.obj
 0001:0008afb0       ?Clearup@CTextFilter@@MAEHXZ 0048bfb0 f   FilterText_StaticLib:FilterText.obj
 0001:0008b0c0       ?IsTextPass@CTextFilter@@MAEHPBD@Z 0048c0c0 f   FilterText_StaticLib:FilterText.obj
 0001:0008b2a0       _CreateTextFilter          0048c2a0 f   FilterText_StaticLib:FilterText.obj
 0001:0008b2d0       ?CreateInstance@CTextFilter@@SAPAV1@XZ 0048c2d0 f i FilterText_StaticLib:FilterText.obj
 0001:0008b380       ?AddRef@CTextFilter@@MAGKXZ 0048c380 f i FilterText_StaticLib:FilterText.obj
 0001:0008b390       ?Release@CTextFilter@@MAGKXZ 0048c390 f i FilterText_StaticLib:FilterText.obj
 0001:0008b3c0       ??1CTextFilter@@IAE@XZ     0048c3c0 f i FilterText_StaticLib:FilterText.obj
 0001:0008b460       ?QueryInterface@CTextFilter@@MAGJABU_GUID@@PAPAX@Z 0048c460 f i FilterText_StaticLib:FilterText.obj
 0001:0008b470       ??_F?$vector@VRegexp@@V?$allocator@VRegexp@@@std@@@std@@QAEXXZ 0048c470 f i FilterText_StaticLib:FilterText.obj
 0001:0008b490       ??1?$vector@VRegexp@@V?$allocator@VRegexp@@@std@@@std@@QAE@XZ 0048c490 f i FilterText_StaticLib:FilterText.obj
 0001:0008b4d0       ?size@?$vector@VRegexp@@V?$allocator@VRegexp@@@std@@@std@@QBEIXZ 0048c4d0 f i FilterText_StaticLib:FilterText.obj
 0001:0008b500       ?_Destroy@?$vector@VRegexp@@V?$allocator@VRegexp@@@std@@@std@@IAEXPAVRegexp@@0@Z 0048c500 f i FilterText_StaticLib:FilterText.obj
 0001:0008b530       ?insert@?$vector@VRegexp@@V?$allocator@VRegexp@@@std@@@std@@QAEXPAVRegexp@@IABV3@@Z 0048c530 f i FilterText_StaticLib:FilterText.obj
 0001:0008b810       ?_Ucopy@?$vector@VRegexp@@V?$allocator@VRegexp@@@std@@@std@@IAEPAVRegexp@@PBV3@0PAV3@@Z 0048c810 f i FilterText_StaticLib:FilterText.obj
 0001:0008b850       ?_Ufill@?$vector@VRegexp@@V?$allocator@VRegexp@@@std@@@std@@IAEXPAVRegexp@@IABV3@@Z 0048c850 f i FilterText_StaticLib:FilterText.obj
 0001:0008b880       ?fill@std@@YAXPAVRegexp@@0ABV2@@Z 0048c880 f i FilterText_StaticLib:FilterText.obj
 0001:0008b8b0       ?copy_backward@std@@YAPAVRegexp@@PAV2@00@Z 0048c8b0 f i FilterText_StaticLib:FilterText.obj
 0001:0008b8f0       ?_Construct@std@@YAXPAVRegexp@@ABV2@@Z 0048c8f0 f i FilterText_StaticLib:FilterText.obj
 0001:0008b940       ?regerror@CRegErrorHandler@@IBEXPBD@Z 0048c940 f   FilterText_StaticLib:Regexp.obj
 0001:0008b9f0       ?regerror@CRegErrorHandler@@IBEXH@Z 0048c9f0 f   FilterText_StaticLib:Regexp.obj
 0001:0008ba10       ?GetErrorString@CRegErrorHandler@@QBEABV?$basic_string@DU?$char_traits@D@std@@V?$allocator@D@2@@std@@XZ 0048ca10 f   FilterText_StaticLib:Regexp.obj
 0001:0008ba20       ?ClearErrorString@CRegErrorHandler@@IBEXXZ 0048ca20 f   FilterText_StaticLib:Regexp.obj
 0001:0008bad0       ?FindErr@CRegErrorHandler@@CAPBDH@Z 0048cad0 f   FilterText_StaticLib:Regexp.obj
 0001:0008bb00       ?regnode@CRegCompiler@@MAEPADH@Z 0048cb00 f   FilterText_StaticLib:Regexp.obj
 0001:0008bb20       ?reginsert@CRegCompiler@@MAEXDPAD@Z 0048cb20 f   FilterText_StaticLib:Regexp.obj
 0001:0008bb60       ?regtail@CRegCompiler@@MAEXPAD0@Z 0048cb60 f   FilterText_StaticLib:Regexp.obj
 0001:0008bbb0       ?regoptail@CRegCompiler@@MAEXPAD0@Z 0048cbb0 f   FilterText_StaticLib:Regexp.obj
 0001:0008bbd0       ??0CRegCompilerBase@@QAE@PBD@Z 0048cbd0 f   FilterText_StaticLib:Regexp.obj
 0001:0008bc00       ??0CRegValidator@@QAE@PBD@Z 0048cc00 f   FilterText_StaticLib:Regexp.obj
 0001:0008bc30       ?regnode@CRegValidator@@MAEPADH@Z 0048cc30 f i FilterText_StaticLib:Regexp.obj
 0001:0008bc40       ?regc@CRegValidator@@MAEXH@Z 0048cc40 f i FilterText_StaticLib:Regexp.obj
 0001:0008bc50       ?reginsert@CRegValidator@@MAEXDPAD@Z 0048cc50 f i FilterText_StaticLib:Regexp.obj
 0001:0008bc60       ?regtail@CRegValidator@@MAEXPAD0@Z 0048cc60 f i FilterText_StaticLib:Regexp.obj
 0001:0008bc70       ?regoptail@CRegValidator@@MAEXPAD0@Z 0048cc70 f i FilterText_StaticLib:Regexp.obj
 0001:0008bc80       ??0CRegCompiler@@QAE@PBDPAD@Z 0048cc80 f   FilterText_StaticLib:Regexp.obj
 0001:0008bcb0       ?regc@CRegCompiler@@MAEXH@Z 0048ccb0 f i FilterText_StaticLib:Regexp.obj
 0001:0008bcd0       ??0regexp@@QAE@PBDH@Z      0048ccd0 f   FilterText_StaticLib:Regexp.obj
 0001:0008bd90       ??1CRegProgramAccessor@@QAE@XZ 0048cd90 f i FilterText_StaticLib:Regexp.obj
 0001:0008bdd0       ??0regexp@@QAE@ABV0@@Z     0048cdd0 f   FilterText_StaticLib:Regexp.obj
 0001:0008beb0       ??1regexp@@QAE@XZ          0048ceb0 f   FilterText_StaticLib:Regexp.obj
 0001:0008bf00       ?regcomp@regexp@@QAE_NPBD@Z 0048cf00 f   FilterText_StaticLib:Regexp.obj
 0001:0008c170       ??1CRegValidator@@QAE@XZ   0048d170 f i FilterText_StaticLib:Regexp.obj
 0001:0008c1c0       ??1CRegCompiler@@QAE@XZ    0048d1c0 f i FilterText_StaticLib:Regexp.obj
 0001:0008c210       ?getCopy@regexp@@QAEPAV1@XZ 0048d210 f   FilterText_StaticLib:Regexp.obj
 0001:0008c270       ?reg@CRegCompilerBase@@QAEPADHPAH@Z 0048d270 f   FilterText_StaticLib:Regexp.obj
 0001:0008c400       ?regbranch@CRegCompilerBase@@IAEPADPAH@Z 0048d400 f   FilterText_StaticLib:Regexp.obj
 0001:0008c4a0       ?regpiece@CRegCompilerBase@@IAEPADPAH@Z 0048d4a0 f   FilterText_StaticLib:Regexp.obj
 0001:0008c660       ?regatom@CRegCompilerBase@@IAEPADPAH@Z 0048d660 f   FilterText_StaticLib:Regexp.obj
 0001:0008ca50       ??0CRegExecutor@@QAE@PAVregexp@@PAD@Z 0048da50 f   FilterText_StaticLib:Regexp.obj
 0001:0008ca80       ?regexec@regexp@@QAE_NPBD@Z 0048da80 f   FilterText_StaticLib:Regexp.obj
 0001:0008cc50       ??1CRegExecutor@@QAE@XZ    0048dc50 f i FilterText_StaticLib:Regexp.obj
 0001:0008cc90       ?regtry@CRegExecutor@@IAE_NPAD@Z 0048dc90 f   FilterText_StaticLib:Regexp.obj
 0001:0008ccf0       ?regmatch@CRegExecutor@@IAE_NPAD@Z 0048dcf0 f   FilterText_StaticLib:Regexp.obj
 0001:0008d040       ?regrepeat@CRegExecutor@@IAEIPAD@Z 0048e040 f   FilterText_StaticLib:Regexp.obj
 0001:0008d0d0       ??0Regexp@@QAE@XZ          0048e0d0 f   FilterText_StaticLib:Regexp.obj
 0001:0008d0f0       ??0Regexp@@QAE@PBDH@Z      0048e0f0 f   FilterText_StaticLib:Regexp.obj
 0001:0008d170       ??0Regexp@@QAE@ABV0@@Z     0048e170 f   FilterText_StaticLib:Regexp.obj
 0001:0008d2c0       ??4Regexp@@QAEABV0@ABV0@@Z 0048e2c0 f   FilterText_StaticLib:Regexp.obj
 0001:0008d460       ??1Regexp@@QAE@XZ          0048e460 f   FilterText_StaticLib:Regexp.obj
 0001:0008d4d0       ?Match@Regexp@@QAE_NPBD@Z  0048e4d0 f   FilterText_StaticLib:Regexp.obj
 0001:0008d5f0       ?GetReplaceString@Regexp@@QBE?AV?$basic_string@DU?$char_traits@D@std@@V?$allocator@D@2@@std@@PBD@Z 0048e5f0 f   FilterText_StaticLib:Regexp.obj
 0001:0008d730       ?SubStrings@Regexp@@QBEHXZ 0048e730 f   FilterText_StaticLib:Regexp.obj
 0001:0008d800       ?SubStart@Regexp@@QBEHI@Z  0048e800 f   FilterText_StaticLib:Regexp.obj
 0001:0008d8f0       ?SubLength@Regexp@@QBEHI@Z 0048e8f0 f   FilterText_StaticLib:Regexp.obj
 0001:0008d9e0       ?CompiledOK@Regexp@@QBE_NXZ 0048e9e0 f   FilterText_StaticLib:Regexp.obj
 0001:0008d9f0       ?safeIndex@Regexp@@ABEHI@Z 0048e9f0 f   FilterText_StaticLib:Regexp.obj
 0001:0008da10       ??ARegexp@@QBE?BV?$basic_string@DU?$char_traits@D@std@@V?$allocator@D@2@@std@@I@Z 0048ea10 f   FilterText_StaticLib:Regexp.obj
 0001:0008db80       ?ignoreCase@regexp@@QAEXPBDPAD@Z 0048eb80 f   FilterText_StaticLib:Regexp.obj
 0001:0008dc10       ?GetReplaceString@regexp@@QBE?AV?$basic_string@DU?$char_traits@D@std@@V?$allocator@D@2@@std@@PBD@Z 0048ec10 f   FilterText_StaticLib:Regexp.obj
 0001:0008dfc0       ?GetErrorString@Regexp@@QBE?AV?$basic_string@DU?$char_traits@D@std@@V?$allocator@D@2@@std@@XZ 0048efc0 f   FilterText_StaticLib:Regexp.obj
 0001:0008e110       ?ClearErrorString@Regexp@@ABEXXZ 0048f110 f   FilterText_StaticLib:Regexp.obj
 0001:0008e1d0       _GetModuleHandleA@4        0048f1d0 f   kernel32:KERNEL32.dll
 0001:0008e1d6       _GetStartupInfoA@4         0048f1d6 f   kernel32:KERNEL32.dll
 0001:0008e1dc       __ismbcalpha               0048f1dc f   MSVCRT:MSVCRT.dll
 0001:0008e1e2       __purecall                 0048f1e2 f   MSVCRT:MSVCRT.dll
 0001:0008e1e8       __mbschr                   0048f1e8 f   MSVCRT:MSVCRT.dll
 0001:0008e1ee       __mbsstr                   0048f1ee f   MSVCRT:MSVCRT.dll
 0001:0008e1f4       __mbsnbcmp                 0048f1f4 f   MSVCRT:MSVCRT.dll
 0001:0008e1fa       _isalnum                   0048f1fa f   MSVCRT:MSVCRT.dll
 0001:0008e200       __mbscspn                  0048f200 f   MSVCRT:MSVCRT.dll
 0001:0008e206       __mbsspn                   0048f206 f   MSVCRT:MSVCRT.dll
 0001:0008e20c       _tolower                   0048f20c f   MSVCRT:MSVCRT.dll
 0001:0008e212       _isalpha                   0048f212 f   MSVCRT:MSVCRT.dll
 0001:0008e218       _toupper                   0048f218 f   MSVCRT:MSVCRT.dll
 0001:0008e21e       __mbsnbcpy                 0048f21e f   MSVCRT:MSVCRT.dll
 0001:0008e224       _isdigit                   0048f224 f   MSVCRT:MSVCRT.dll
 0002:00000000       __imp_?g_pClient@@3PAUIClient@@A 0049b000     CoreClient:CoreClient.dll
 0002:00000004       __imp__CoreGetShell        0049b004     CoreClient:CoreClient.dll
 0002:00000008       \177CoreClient_NULL_THUNK_DATA 0049b008     CoreClient:CoreClient.dll
 0002:0000000c       __imp_?g_pIme@@3PAVKIme@@A 0049b00c     engine:Engine.dll
 0002:00000010       __imp_?TurnOn@KIme@@QAEXXZ 0049b010     engine:Engine.dll
 0002:00000014       __imp_?LoadBuffer@KLuaScript@@QAEHPAEK@Z 0049b014     engine:Engine.dll
 0002:00000018       __imp_?ExecuteCode@KLuaScript@@QAEHXZ 0049b018     engine:Engine.dll
 0002:0000001c       __imp_?Load@KLuaScript@@UAEHPAD@Z 0049b01c     engine:Engine.dll
 0002:00000020       __imp_?Init@KLuaScript@@UAEHXZ 0049b020     engine:Engine.dll
 0002:00000024       __imp_?RegisterFunctions@KLuaScript@@QAEHQAUTLua_Funcs@@H@Z 0049b024     engine:Engine.dll
 0002:00000028       __imp_?g_GetRootPath@@YAXPAD@Z 0049b028     engine:Engine.dll
 0002:0000002c       __imp_??1KLuaScript@@UAE@XZ 0049b02c     engine:Engine.dll
 0002:00000030       __imp_??0KLuaScript@@QAE@XZ 0049b030     engine:Engine.dll
 0002:00000034       __imp_?EraseSection@KIniFile@@QAEXPBD@Z 0049b034     engine:Engine.dll
 0002:00000038       __imp_??0KTimer@@QAE@XZ    0049b038     engine:Engine.dll
 0002:0000003c       __imp_?IsSectionExist@KIniFile@@QAEHPBD@Z 0049b03c     engine:Engine.dll
 0002:00000040       __imp__TGetEncodedTextOutputLenPos 0049b040     engine:Engine.dll
 0002:00000044       __imp__TSplitEncodedString 0049b044     engine:Engine.dll
 0002:00000048       __imp__TGetEncodedTextEffectCtrls 0049b048     engine:Engine.dll
 0002:0000004c       __imp_?Clear@KIniFile@@QAEXXZ 0049b04c     engine:Engine.dll
 0002:00000050       __imp_?g_GetFullPath@@YAXPAD0@Z 0049b050     engine:Engine.dll
 0002:00000054       __imp_?Open@KFile@@QAEHPAD@Z 0049b054     engine:Engine.dll
 0002:00000058       __imp_?Read@KFile@@QAEKPAXK@Z 0049b058     engine:Engine.dll
 0002:0000005c       __imp__TClearSpecialCtrlInEncodedText 0049b05c     engine:Engine.dll
 0002:00000060       __imp_?GetShort2@KIniFile@@QAEXPBD0PAF1@Z 0049b060     engine:Engine.dll
 0002:00000064       __imp_?g_FileName2Id@@YAKPAD@Z 0049b064     engine:Engine.dll
 0002:00000068       __imp_?GetFPS@KTimer@@QAEHPAH@Z 0049b068     engine:Engine.dll
 0002:0000006c       __imp_?Save@KIniFile@@QAEHPBD@Z 0049b06c     engine:Engine.dll
 0002:00000070       __imp_??1KDirectSound@@QAE@XZ 0049b070     engine:Engine.dll
 0002:00000074       __imp_?g_pClientLic@@YAXPAD@Z 0049b074     engine:Engine.dll
 0002:00000078       __imp__EDOneTimePad_Encipher 0049b078     engine:Engine.dll
 0002:0000007c       __imp_?Exit@KDirectSound@@QAEXXZ 0049b07c     engine:Engine.dll
 0002:00000080       __imp_?g_SetRootPath@@YAXPAD@Z 0049b080     engine:Engine.dll
 0002:00000084       __imp_?g_SetFilePath@@YAXPAD@Z 0049b084     engine:Engine.dll
 0002:00000088       __imp_?Open@KPakList@@QAE_NPBD@Z 0049b088     engine:Engine.dll
 0002:0000008c       __imp_?Init@KDirectSound@@QAEHXZ 0049b08c     engine:Engine.dll
 0002:00000090       __imp_?SetMouseHoverTime@KWin32App@@QAEXI@Z 0049b090     engine:Engine.dll
 0002:00000094       __imp_??0KWin32App@@QAE@XZ 0049b094     engine:Engine.dll
 0002:00000098       __imp_??0KMusic@@QAE@XZ    0049b098     engine:Engine.dll
 0002:0000009c       __imp_??0KMemClass@@QAE@XZ 0049b09c     engine:Engine.dll
 0002:000000a0       __imp_??_7KMp3Music@@6B@   0049b0a0     engine:Engine.dll
 0002:000000a4       __imp_??0KDirectSound@@QAE@XZ 0049b0a4     engine:Engine.dll
 0002:000000a8       __imp_?InitClass@KWin32App@@MAEHPAUHINSTANCE__@@@Z 0049b0a8     engine:Engine.dll
 0002:000000ac       __imp_?InitWindow@KWin32App@@MAEHPAUHINSTANCE__@@@Z 0049b0ac     engine:Engine.dll
 0002:000000b0       __imp_?ShowMouse@KWin32App@@UAEXH@Z 0049b0b0     engine:Engine.dll
 0002:000000b4       __imp__TGetChatItemLineCount 0049b0b4     engine:Engine.dll
 0002:000000b8       __imp_?WriteString@KIniFile@@QAEXPBD00@Z 0049b0b8     engine:Engine.dll
 0002:000000bc       __imp_?SetMultiGame@KWin32App@@UAEXH@Z 0049b0bc     engine:Engine.dll
 0002:000000c0       __imp_?MsgProc@KWin32App@@UAEJPAUHWND__@@IIJ@Z 0049b0c0     engine:Engine.dll
 0002:000000c4       __imp_?Init@KWin32App@@UAEHPAUHINSTANCE__@@PAD@Z 0049b0c4     engine:Engine.dll
 0002:000000c8       __imp_?Run@KWin32App@@UAEXXZ 0049b0c8     engine:Engine.dll
 0002:000000cc       __imp_??1KPakList@@QAE@XZ  0049b0cc     engine:Engine.dll
 0002:000000d0       __imp_??0KPakList@@QAE@XZ  0049b0d0     engine:Engine.dll
 0002:000000d4       __imp_?WriteInteger@KIniFile@@QAEXPBD0H@Z 0049b0d4     engine:Engine.dll
 0002:000000d8       __imp_??1KMemClass@@QAE@XZ 0049b0d8     engine:Engine.dll
 0002:000000dc       __imp_??1KMusic@@UAE@XZ    0049b0dc     engine:Engine.dll
 0002:000000e0       __imp_??1KMp3Music@@UAE@XZ 0049b0e0     engine:Engine.dll
 0002:000000e4       __imp__EDOneTimePad_Decipher 0049b0e4     engine:Engine.dll
 0002:000000e8       __imp_?GetElapse@KTimer@@QAEKXZ 0049b0e8     engine:Engine.dll
 0002:000000ec       __imp__TEncodeText         0049b0ec     engine:Engine.dll
 0002:000000f0       __imp__TGetEncodedTextLineCount 0049b0f0     engine:Engine.dll
 0002:000000f4       __imp_??1KIniFile@@QAE@XZ  0049b0f4     engine:Engine.dll
 0002:000000f8       __imp_?GetString@KIniFile@@QAEHPBD00PADK@Z 0049b0f8     engine:Engine.dll
 0002:000000fc       __imp_?GetInteger@KIniFile@@QAEHPBD0HPAH@Z 0049b0fc     engine:Engine.dll
 0002:00000100       __imp_?GetShort@KIniFile@@QAEHPBD0FPAF@Z 0049b100     engine:Engine.dll
 0002:00000104       __imp_?Load@KIniFile@@QAEHPBD@Z 0049b104     engine:Engine.dll
 0002:00000108       __imp_??0KIniFile@@QAE@XZ  0049b108     engine:Engine.dll
 0002:0000010c       __imp__TFindSpecialCtrlInEncodedText 0049b10c     engine:Engine.dll
 0002:00000110       __imp_?g_CreatePath@@YAXPAD@Z 0049b110     engine:Engine.dll
 0002:00000114       __imp__AdviseEngine        0049b114     engine:Engine.dll
 0002:00000118       __imp__UnAdviseEngine      0049b118     engine:Engine.dll
 0002:0000011c       __imp_??1KPakFile@@QAE@XZ  0049b11c     engine:Engine.dll
 0002:00000120       __imp_??1KFile@@QAE@XZ     0049b120     engine:Engine.dll
 0002:00000124       __imp_?Close@KFile@@QAEXXZ 0049b124     engine:Engine.dll
 0002:00000128       __imp_?Close@KPakFile@@QAEXXZ 0049b128     engine:Engine.dll
 0002:0000012c       __imp_?Read@KPakFile@@QAEKPAXI@Z 0049b12c     engine:Engine.dll
 0002:00000130       __imp_?Write@KFile@@QAEKPAXK@Z 0049b130     engine:Engine.dll
 0002:00000134       __imp_?Size@KPakFile@@QAEKXZ 0049b134     engine:Engine.dll
 0002:00000138       __imp_?Open@KPakFile@@QAEHPBD@Z 0049b138     engine:Engine.dll
 0002:0000013c       __imp_?Create@KFile@@QAEHPAD@Z 0049b13c     engine:Engine.dll
 0002:00000140       __imp_??0KFile@@QAE@XZ     0049b140     engine:Engine.dll
 0002:00000144       __imp_??0KPakFile@@QAE@XZ  0049b144     engine:Engine.dll
 0002:00000148       __imp_??0KIme@@QAE@XZ      0049b148     engine:Engine.dll
 0002:0000014c       __imp_??1KIme@@QAE@XZ      0049b14c     engine:Engine.dll
 0002:00000150       __imp_?CloseIME@KIme@@QAEXXZ 0049b150     engine:Engine.dll
 0002:00000154       __imp_?DisableLanguageChange@KIme@@QAEXXZ 0049b154     engine:Engine.dll
 0002:00000158       __imp_?IsIme@KIme@@QAEHXZ  0049b158     engine:Engine.dll
 0002:0000015c       __imp_?SetCaretPos@KIme@@QAEXHH@Z 0049b15c     engine:Engine.dll
 0002:00000160       __imp_?OpenIME@KIme@@QAEXXZ 0049b160     engine:Engine.dll
 0002:00000164       __imp_?EnableLanguageChange@KIme@@QAEXXZ 0049b164     engine:Engine.dll
 0002:00000168       __imp__TSplitString        0049b168     engine:Engine.dll
 0002:0000016c       __imp__TGetLimitLenString  0049b16c     engine:Engine.dll
 0002:00000170       __imp__TRemoveCtrlInEncodedText 0049b170     engine:Engine.dll
 0002:00000174       __imp_?GetInteger2@KIniFile@@QAEXPBD0PAH1@Z 0049b174     engine:Engine.dll
 0002:00000178       __imp_?g_GetMainHWnd@@YAPAUHWND__@@XZ 0049b178     engine:Engine.dll
 0002:0000017c       __imp_?KSG_StringToMD5String@@YAHQADQBD@Z 0049b17c     engine:Engine.dll
 0002:00000180       __imp_?GetStruct@KIniFile@@QAEXPBD0PAXK@Z 0049b180     engine:Engine.dll
 0002:00000184       __imp_?EraseKey@KIniFile@@QAEXPBD0@Z 0049b184     engine:Engine.dll
 0002:00000188       __imp_?WriteStruct@KIniFile@@QAEXPBD0PAXK@Z 0049b188     engine:Engine.dll
 0002:0000018c       __imp_?Start@KTimer@@QAEXXZ 0049b18c     engine:Engine.dll
 0002:00000190       \177Engine_NULL_THUNK_DATA 0049b190     engine:Engine.dll
 0002:00000194       __imp__DeleteObject@4      0049b194     gdi32:GDI32.dll
 0002:00000198       \177GDI32_NULL_THUNK_DATA  0049b198     gdi32:GDI32.dll
 0002:0000019c       __imp__GetModuleHandleA@4  0049b19c     kernel32:KERNEL32.dll
 0002:000001a0       __imp__GetStartupInfoA@4   0049b1a0     kernel32:KERNEL32.dll
 0002:000001a4       __imp__lstrcpynA@12        0049b1a4     kernel32:KERNEL32.dll
 0002:000001a8       __imp__lstrcpyA@8          0049b1a8     kernel32:KERNEL32.dll
 0002:000001ac       __imp__Sleep@4             0049b1ac     kernel32:KERNEL32.dll
 0002:000001b0       __imp__AllocConsole@0      0049b1b0     kernel32:KERNEL32.dll
 0002:000001b4       __imp__FreeConsole@0       0049b1b4     kernel32:KERNEL32.dll
 0002:000001b8       __imp__GetVersion@0        0049b1b8     kernel32:KERNEL32.dll
 0002:000001bc       __imp__FindFirstFileA@8    0049b1bc     kernel32:KERNEL32.dll
 0002:000001c0       __imp__SetFileAttributesA@8 0049b1c0     kernel32:KERNEL32.dll
 0002:000001c4       __imp__FindNextFileA@8     0049b1c4     kernel32:KERNEL32.dll
 0002:000001c8       __imp__FindClose@4         0049b1c8     kernel32:KERNEL32.dll
 0002:000001cc       __imp__RemoveDirectoryA@4  0049b1cc     kernel32:KERNEL32.dll
 0002:000001d0       __imp__SystemTimeToTzSpecificLocalTime@12 0049b1d0     kernel32:KERNEL32.dll
 0002:000001d4       __imp__LoadLibraryA@4      0049b1d4     kernel32:KERNEL32.dll
 0002:000001d8       __imp__GetProcAddress@8    0049b1d8     kernel32:KERNEL32.dll
 0002:000001dc       __imp__FreeLibrary@4       0049b1dc     kernel32:KERNEL32.dll
 0002:000001e0       __imp__MulDiv@12           0049b1e0     kernel32:KERNEL32.dll
 0002:000001e4       __imp__GlobalAlloc@8       0049b1e4     kernel32:KERNEL32.dll
 0002:000001e8       __imp__GlobalLock@4        0049b1e8     kernel32:KERNEL32.dll
 0002:000001ec       __imp__GlobalUnlock@4      0049b1ec     kernel32:KERNEL32.dll
 0002:000001f0       __imp__GetTempPathA@8      0049b1f0     kernel32:KERNEL32.dll
 0002:000001f4       __imp__GetTempFileNameA@16 0049b1f4     kernel32:KERNEL32.dll
 0002:000001f8       __imp__DeleteFileA@4       0049b1f8     kernel32:KERNEL32.dll
 0002:000001fc       __imp__GetTickCount@0      0049b1fc     kernel32:KERNEL32.dll
 0002:00000200       \177KERNEL32_NULL_THUNK_DATA 0049b200     kernel32:KERNEL32.dll
 0002:00000204       __imp__lua_isnumber        0049b204     lualibdll:LuaLibDll.dll
 0002:00000208       __imp__lua_pushstring      0049b208     lualibdll:LuaLibDll.dll
 0002:0000020c       __imp__lua_pushnumber      0049b20c     lualibdll:LuaLibDll.dll
 0002:00000210       __imp__lua_type            0049b210     lualibdll:LuaLibDll.dll
 0002:00000214       __imp__lua_tonumber        0049b214     lualibdll:LuaLibDll.dll
 0002:00000218       __imp__lua_gettop          0049b218     lualibdll:LuaLibDll.dll
 0002:0000021c       __imp__lua_tostring        0049b21c     lualibdll:LuaLibDll.dll
 0002:00000220       \177LuaLibDll_NULL_THUNK_DATA 0049b220     lualibdll:LuaLibDll.dll
 0002:00000224       __imp_?npos@?$basic_string@DU?$char_traits@D@std@@V?$allocator@D@2@@std@@2IB 0049b224     msvcprt:MSVCP60.dll
 0002:00000228       __imp_?append@?$basic_string@DU?$char_traits@D@std@@V?$allocator@D@2@@std@@QAEAAV12@ABV12@II@Z 0049b228     msvcprt:MSVCP60.dll
 0002:0000022c       __imp_?assign@?$basic_string@DU?$char_traits@D@std@@V?$allocator@D@2@@std@@QAEAAV12@ABV12@II@Z 0049b22c     msvcprt:MSVCP60.dll
 0002:00000230       __imp_?_Tidy@?$basic_string@DU?$char_traits@D@std@@V?$allocator@D@2@@std@@AAEX_N@Z 0049b230     msvcprt:MSVCP60.dll
 0002:00000234       __imp_?_Grow@?$basic_string@DU?$char_traits@D@std@@V?$allocator@D@2@@std@@AAE_NI_N@Z 0049b234     msvcprt:MSVCP60.dll
 0002:00000238       __imp_?_Eos@?$basic_string@DU?$char_traits@D@std@@V?$allocator@D@2@@std@@AAEXI@Z 0049b238     msvcprt:MSVCP60.dll
 0002:0000023c       __imp_??_8?$basic_stringstream@DU?$char_traits@D@std@@V?$allocator@D@2@@std@@7B?$basic_ostream@DU?$char_traits@D@std@@@1@@ 0049b23c     msvcprt:MSVCP60.dll
 0002:00000240       __imp_??_8?$basic_stringstream@DU?$char_traits@D@std@@V?$allocator@D@2@@std@@7B?$basic_istream@DU?$char_traits@D@std@@@1@@ 0049b240     msvcprt:MSVCP60.dll
 0002:00000244       __imp_??0ios_base@std@@IAE@XZ 0049b244     msvcprt:MSVCP60.dll
 0002:00000248       __imp_??_7?$basic_ios@DU?$char_traits@D@std@@@std@@6B@ 0049b248     msvcprt:MSVCP60.dll
 0002:0000024c       __imp_??0?$basic_iostream@DU?$char_traits@D@std@@@std@@QAE@PAV?$basic_streambuf@DU?$char_traits@D@std@@@1@@Z 0049b24c     msvcprt:MSVCP60.dll
 0002:00000250       __imp_??0?$basic_streambuf@DU?$char_traits@D@std@@@std@@IAE@XZ 0049b250     msvcprt:MSVCP60.dll
 0002:00000254       __imp_?assign@?$basic_string@DU?$char_traits@D@std@@V?$allocator@D@2@@std@@QAEAAV12@ID@Z 0049b254     msvcprt:MSVCP60.dll
 0002:00000258       __imp_?_Xran@std@@YAXXZ    0049b258     msvcprt:MSVCP60.dll
 0002:0000025c       __imp_?_Split@?$basic_string@DU?$char_traits@D@std@@V?$allocator@D@2@@std@@AAEXXZ 0049b25c     msvcprt:MSVCP60.dll
 0002:00000260       __imp_?erase@?$basic_string@DU?$char_traits@D@std@@V?$allocator@D@2@@std@@QAEAAV12@II@Z 0049b260     msvcprt:MSVCP60.dll
 0002:00000264       __imp_??8std@@YA_NABV?$basic_string@DU?$char_traits@D@std@@V?$allocator@D@2@@0@PBD@Z 0049b264     msvcprt:MSVCP60.dll
 0002:00000268       __imp_?max_size@?$basic_string@DU?$char_traits@D@std@@V?$allocator@D@2@@std@@QBEIXZ 0049b268     msvcprt:MSVCP60.dll
 0002:0000026c       __imp_??8std@@YA_NABV?$basic_string@DU?$char_traits@D@std@@V?$allocator@D@2@@0@0@Z 0049b26c     msvcprt:MSVCP60.dll
 0002:00000270       __imp_??0?$basic_string@DU?$char_traits@D@std@@V?$allocator@D@2@@std@@QAE@ABV01@@Z 0049b270     msvcprt:MSVCP60.dll
 0002:00000274       __imp_??Mstd@@YA_NABV?$basic_string@DU?$char_traits@D@std@@V?$allocator@D@2@@0@0@Z 0049b274     msvcprt:MSVCP60.dll
 0002:00000278       __imp_?_Xlen@std@@YAXXZ    0049b278     msvcprt:MSVCP60.dll
 0002:0000027c       __imp_?_Copy@?$basic_string@DU?$char_traits@D@std@@V?$allocator@D@2@@std@@AAEXI@Z 0049b27c     msvcprt:MSVCP60.dll
 0002:00000280       __imp_??_7?$basic_stringbuf@DU?$char_traits@D@std@@V?$allocator@D@2@@std@@6B@ 0049b280     msvcprt:MSVCP60.dll
 0002:00000284       __imp_?_Mode@?$basic_stringbuf@DU?$char_traits@D@std@@V?$allocator@D@2@@std@@AAEHH@Z 0049b284     msvcprt:MSVCP60.dll
 0002:00000288       __imp_?_Init@?$basic_stringbuf@DU?$char_traits@D@std@@V?$allocator@D@2@@std@@IAEXPBDIH@Z 0049b288     msvcprt:MSVCP60.dll
 0002:0000028c       __imp_??_7?$basic_stringstream@DU?$char_traits@D@std@@V?$allocator@D@2@@std@@6B@ 0049b28c     msvcprt:MSVCP60.dll
 0002:00000290       __imp_??5?$basic_istream@DU?$char_traits@D@std@@@std@@QAEAAV01@AAH@Z 0049b290     msvcprt:MSVCP60.dll
 0002:00000294       __imp_??1?$basic_stringbuf@DU?$char_traits@D@std@@V?$allocator@D@2@@std@@UAE@XZ 0049b294     msvcprt:MSVCP60.dll
 0002:00000298       __imp_??1?$basic_iostream@DU?$char_traits@D@std@@@std@@UAE@XZ 0049b298     msvcprt:MSVCP60.dll
 0002:0000029c       __imp_??1ios_base@std@@UAE@XZ 0049b29c     msvcprt:MSVCP60.dll
 0002:000002a0       __imp_??1?$basic_ios@DU?$char_traits@D@std@@@std@@UAE@XZ 0049b2a0     msvcprt:MSVCP60.dll
 0002:000002a4       __imp_??1?$basic_streambuf@DU?$char_traits@D@std@@@std@@UAE@XZ 0049b2a4     msvcprt:MSVCP60.dll
 0002:000002a8       __imp_??_D?$basic_stringstream@DU?$char_traits@D@std@@V?$allocator@D@2@@std@@QAEXXZ 0049b2a8     msvcprt:MSVCP60.dll
 0002:000002ac       __imp_??1_Winit@std@@QAE@XZ 0049b2ac     msvcprt:MSVCP60.dll
 0002:000002b0       __imp_??0_Winit@std@@QAE@XZ 0049b2b0     msvcprt:MSVCP60.dll
 0002:000002b4       __imp_??1Init@ios_base@std@@QAE@XZ 0049b2b4     msvcprt:MSVCP60.dll
 0002:000002b8       __imp_??0Init@ios_base@std@@QAE@XZ 0049b2b8     msvcprt:MSVCP60.dll
 0002:000002bc       __imp_??0_Lockit@std@@QAE@XZ 0049b2bc     msvcprt:MSVCP60.dll
 0002:000002c0       __imp_??1_Lockit@std@@QAE@XZ 0049b2c0     msvcprt:MSVCP60.dll
 0002:000002c4       __imp_?_C@?1??_Nullstr@?$basic_string@DU?$char_traits@D@std@@V?$allocator@D@2@@std@@CAPBDXZ@4DB 0049b2c4     msvcprt:MSVCP60.dll
 0002:000002c8       __imp_?assign@?$basic_string@DU?$char_traits@D@std@@V?$allocator@D@2@@std@@QAEAAV12@PBDI@Z 0049b2c8     msvcprt:MSVCP60.dll
 0002:000002cc       __imp_??1?$basic_string@DU?$char_traits@D@std@@V?$allocator@D@2@@std@@QAE@XZ 0049b2cc     msvcprt:MSVCP60.dll
 0002:000002d0       __imp_?append@?$basic_string@DU?$char_traits@D@std@@V?$allocator@D@2@@std@@QAEAAV12@PBDI@Z 0049b2d0     msvcprt:MSVCP60.dll
 0002:000002d4       \177MSVCP60_NULL_THUNK_DATA 0049b2d4     msvcprt:MSVCP60.dll
 0002:000002d8       __imp__strtok              0049b2d8     MSVCRT:MSVCRT.dll
 0002:000002dc       __imp___access             0049b2dc     MSVCRT:MSVCRT.dll
 0002:000002e0       __imp__mktime              0049b2e0     MSVCRT:MSVCRT.dll
 0002:000002e4       __imp__srand               0049b2e4     MSVCRT:MSVCRT.dll
 0002:000002e8       __imp__fopen               0049b2e8     MSVCRT:MSVCRT.dll
 0002:000002ec       __imp__remove              0049b2ec     MSVCRT:MSVCRT.dll
 0002:000002f0       __imp___strlwr             0049b2f0     MSVCRT:MSVCRT.dll
 0002:000002f4       __imp__isgraph             0049b2f4     MSVCRT:MSVCRT.dll
 0002:000002f8       __imp__strchr              0049b2f8     MSVCRT:MSVCRT.dll
 0002:000002fc       __imp__sscanf              0049b2fc     MSVCRT:MSVCRT.dll
 0002:00000300       __imp____dllonexit         0049b300     MSVCRT:MSVCRT.dll
 0002:00000304       __imp___onexit             0049b304     MSVCRT:MSVCRT.dll
 0002:00000308       __imp___except_handler3    0049b308     MSVCRT:MSVCRT.dll
 0002:0000030c       __imp_?terminate@@YAXXZ    0049b30c     MSVCRT:MSVCRT.dll
 0002:00000310       __imp___exit               0049b310     MSVCRT:MSVCRT.dll
 0002:00000314       __imp___XcptFilter         0049b314     MSVCRT:MSVCRT.dll
 0002:00000318       __imp__exit                0049b318     MSVCRT:MSVCRT.dll
 0002:0000031c       __imp___acmdln             0049b31c     MSVCRT:MSVCRT.dll
 0002:00000320       __imp____getmainargs       0049b320     MSVCRT:MSVCRT.dll
 0002:00000324       __imp___initterm           0049b324     MSVCRT:MSVCRT.dll
 0002:00000328       __imp____setusermatherr    0049b328     MSVCRT:MSVCRT.dll
 0002:0000032c       __imp___adjust_fdiv        0049b32c     MSVCRT:MSVCRT.dll
 0002:00000330       __imp____p__commode        0049b330     MSVCRT:MSVCRT.dll
 0002:00000334       __imp____p__fmode          0049b334     MSVCRT:MSVCRT.dll
 0002:00000338       __imp____set_app_type      0049b338     MSVCRT:MSVCRT.dll
 0002:0000033c       __imp___controlfp          0049b33c     MSVCRT:MSVCRT.dll
 0002:00000340       __imp___mbsicmp            0049b340     MSVCRT:MSVCRT.dll
 0002:00000344       __imp__strstr              0049b344     MSVCRT:MSVCRT.dll
 0002:00000348       __imp___strcmpi            0049b348     MSVCRT:MSVCRT.dll
 0002:0000034c       __imp__rand                0049b34c     MSVCRT:MSVCRT.dll
 0002:00000350       __imp___itoa               0049b350     MSVCRT:MSVCRT.dll
 0002:00000350       __imp__itoa                0049b350     MSVCRT:MSVCRT.dll
 0002:00000354       __imp__realloc             0049b354     MSVCRT:MSVCRT.dll
 0002:00000358       __imp__malloc              0049b358     MSVCRT:MSVCRT.dll
 0002:0000035c       __imp__atoi                0049b35c     MSVCRT:MSVCRT.dll
 0002:00000360       __imp__memmove             0049b360     MSVCRT:MSVCRT.dll
 0002:00000364       __imp__strncpy             0049b364     MSVCRT:MSVCRT.dll
 0002:00000368       __imp_??2@YAPAXI@Z         0049b368     MSVCRT:MSVCRT.dll
 0002:0000036c       __imp_??3@YAXPAX@Z         0049b36c     MSVCRT:MSVCRT.dll
 0002:00000370       __imp__time                0049b370     MSVCRT:MSVCRT.dll
 0002:00000374       __imp__localtime           0049b374     MSVCRT:MSVCRT.dll
 0002:00000378       __imp__strftime            0049b378     MSVCRT:MSVCRT.dll
 0002:0000037c       __imp__free                0049b37c     MSVCRT:MSVCRT.dll
 0002:00000380       __imp____CxxFrameHandler   0049b380     MSVCRT:MSVCRT.dll
 0002:00000384       __imp__sprintf             0049b384     MSVCRT:MSVCRT.dll
 0002:00000388       __imp___ftol               0049b388     MSVCRT:MSVCRT.dll
 0002:0000038c       __imp__floor               0049b38c     MSVCRT:MSVCRT.dll
 0002:00000390       __imp___ismbcalpha         0049b390     MSVCRT:MSVCRT.dll
 0002:00000394       __imp___purecall           0049b394     MSVCRT:MSVCRT.dll
 0002:00000398       __imp___mbschr             0049b398     MSVCRT:MSVCRT.dll
 0002:0000039c       __imp___mbsstr             0049b39c     MSVCRT:MSVCRT.dll
 0002:000003a0       __imp___mbsnbcmp           0049b3a0     MSVCRT:MSVCRT.dll
 0002:000003a4       __imp__isalnum             0049b3a4     MSVCRT:MSVCRT.dll
 0002:000003a8       __imp___mbscspn            0049b3a8     MSVCRT:MSVCRT.dll
 0002:000003ac       __imp___mbsspn             0049b3ac     MSVCRT:MSVCRT.dll
 0002:000003b0       __imp__tolower             0049b3b0     MSVCRT:MSVCRT.dll
 0002:000003b4       __imp__isalpha             0049b3b4     MSVCRT:MSVCRT.dll
 0002:000003b8       __imp__toupper             0049b3b8     MSVCRT:MSVCRT.dll
 0002:000003bc       __imp___mbsnbcpy           0049b3bc     MSVCRT:MSVCRT.dll
 0002:000003c0       __imp__fclose              0049b3c0     MSVCRT:MSVCRT.dll
 0002:000003c4       __imp__isdigit             0049b3c4     MSVCRT:MSVCRT.dll
 0002:000003c8       \177MSVCRT_NULL_THUNK_DATA 0049b3c8     MSVCRT:MSVCRT.dll
 0002:000003cc       __imp__Shell_NotifyIconA@8 0049b3cc     shell32:SHELL32.dll
 0002:000003d0       __imp__ShellExecuteA@24    0049b3d0     shell32:SHELL32.dll
 0002:000003d4       __imp__SHGetSpecialFolderPathA@16 0049b3d4     shell32:SHELL32.dll
 0002:000003d8       \177SHELL32_NULL_THUNK_DATA 0049b3d8     shell32:SHELL32.dll
 0002:000003dc       __imp__EmptyClipboard@0    0049b3dc     user32:USER32.dll
 0002:000003e0       __imp__OpenClipboard@4     0049b3e0     user32:USER32.dll
 0002:000003e4       __imp__GetClipboardData@4  0049b3e4     user32:USER32.dll
 0002:000003e8       __imp__GetKeyState@4       0049b3e8     user32:USER32.dll
 0002:000003ec       __imp__SetCursorPos@8      0049b3ec     user32:USER32.dll
 0002:000003f0       __imp__ClientToScreen@8    0049b3f0     user32:USER32.dll
 0002:000003f4       __imp__MessageBoxA@16      0049b3f4     user32:USER32.dll
 0002:000003f8       __imp__LoadCursorA@8       0049b3f8     user32:USER32.dll
 0002:000003fc       __imp__SetClipboardData@8  0049b3fc     user32:USER32.dll
 0002:00000400       __imp__ShowWindow@8        0049b400     user32:USER32.dll
 0002:00000404       __imp__UpdateWindow@4      0049b404     user32:USER32.dll
 0002:00000408       __imp__LoadImageA@24       0049b408     user32:USER32.dll
 0002:0000040c       __imp__DefWindowProcA@16   0049b40c     user32:USER32.dll
 0002:00000410       __imp__SendMessageA@16     0049b410     user32:USER32.dll
 0002:00000414       __imp__SetWindowTextA@8    0049b414     user32:USER32.dll
 0002:00000418       __imp__wsprintfA           0049b418     user32:USER32.dll
 0002:0000041c       __imp__CloseClipboard@0    0049b41c     user32:USER32.dll
 0002:00000420       __imp__SetCaretPos@8       0049b420     user32:USER32.dll
 0002:00000424       __imp__ShowCursor@4        0049b424     user32:USER32.dll
 0002:00000428       __imp__SetCursor@4         0049b428     user32:USER32.dll
 0002:0000042c       __imp__LoadCursorFromFileA@4 0049b42c     user32:USER32.dll
 0002:00000430       \177USER32_NULL_THUNK_DATA 0049b430     user32:USER32.dll
 0002:0000045c       ??_7KInlinePicSink@@6B@    0049b45c     TextPic.obj
 0002:0000046c       ??_7KWndButton@@6B@        0049b46c     WndButton.obj
 0002:000004ac       ??_7KWndImageTextButton@@6B@ 0049b4ac     WndButton.obj
 0002:000004ec       ??_7KWndChessPanel@@6B@    0049b4ec     WndChessPanel.obj
 0002:00000520       ??_7KWndEdit@@6B@          0049b520     WndEdit.obj
 0002:00000554       ??_7KWndEdit06@@6B@        0049b554     WndEdit.obj
 0002:00000588       ??_7KWndEdit32@@6B@        0049b588     WndEdit.obj
 0002:000005bc       ??_7KWndEdit80@@6B@        0049b5bc     WndEdit.obj
 0002:000005f0       ??_7KWndEdit128@@6B@       0049b5f0     WndEdit.obj
 0002:00000624       ??_7KWndEdit512@@6B@       0049b624     WndEdit.obj
 0002:00000658       ??_7KWndImage@@6B@         0049b658     WndImage.obj
 0002:0000068c       ??_7KWndImage2@@6B@        0049b68c     WndImage2.obj
 0002:000006c0       ??_7KWndImagePart@@6B@     0049b6c0     WndImagePart.obj
 0002:000006f4       ??_7KWndLabeledButton@@6B@ 0049b6f4     WndLabeledButton.obj
 0002:00000734       ??_7KWndList@@6B@          0049b734     WndList.obj
 0002:00000768       ??_7KWndList2@@6B@         0049b768     WndList2.obj
 0002:0000079c       ??_7KWndListFilterItem@@6B@ 0049b79c     WndListFilterItem.obj
 0002:000007d0       ??_7KWndListPoint@@6B@     0049b7d0     WndListPoint.obj
 0002:00000804       ??_7KWndMessageListBox@@6B@ 0049b804     WndMessageListBox.obj
 0002:00000838       ??_7KScrollMessageListBox@@6B@ 0049b838     WndMessageListBox.obj
 0002:0000086c       ??_7KWndMovingImage@@6B@   0049b86c     WndMovingImage.obj
 0002:000008a0       ??_7KWndObjectBox@@6B@     0049b8a0     WndObjContainer.obj
 0002:000008d4       ??_7KWndObjectMatrix@@6B@  0049b8d4     WndObjContainer.obj
 0002:00000908       ??_7KWndPageSet@@6B@       0049b908     WndPage.obj
 0002:00000940       ??_7KWndPureTextBtn@@6B@   0049b940     WndPureTextBtn.obj
 0002:00000974       ??_7KWndScrollBar@@6B@     0049b974     WndScrollBar.obj
 0002:000009a8       ??_7KWndShowAnimate@@6B@   0049b9a8     WndShowAnimate.obj
 0002:000009e0       ??_7KWndText@@6B@          0049b9e0     WndText.obj
 0002:00000a14       ??_7KWndText32@@6B@        0049ba14     WndText.obj
 0002:00000a48       ??_7KWndText80@@6B@        0049ba48     WndText.obj
 0002:00000a7c       ??_7KWndText128@@6B@       0049ba7c     WndText.obj
 0002:00000ab0       ??_7KWndText256@@6B@       0049bab0     WndText.obj
 0002:00000ae4       ??_7KWndText512@@6B@       0049bae4     WndText.obj
 0002:00000b18       ??_7KWndToolBar@@6B@       0049bb18     WndToolBar.obj
 0002:00000b4c       ??_7KWndValueImage@@6B@    0049bb4c     WndValueImage.obj
 0002:00000b80       ??_7KWndWindow@@6B@        0049bb80     WndWindow.obj
 0002:00000bb4       ??_7KUiConnectInfo@@6B@    0049bbb4     UiConnectInfo.obj
 0002:00000be8       ??_7KUiLogin@@6B@          0049bbe8     UiLogin.obj
 0002:00000c20       ??_7KUiLoginBackGround@@6B@ 0049bc20     UiLoginBg.obj
 0002:00000c54       ??_7KUiSelServer@@6B@      0049bc54     UiSelServer.obj
 0002:00000c8c       ??_7KUiChooseFace@@6B@     0049bc8c     UiChooseFace.obj
 0002:00000cc4       ??_7KUiFaceSelector@@6B@   0049bcc4     UiFaceSelector.obj
 0002:00000cf8       ??_7GameWorld_DateTime@@6B@ 0049bcf8     UiPlayerBar.obj
 0002:00000d38       ??_7KUiPlayerBar@@6B@      0049bd38     UiPlayerBar.obj
 0002:00000d6c       ??_7KImmediaItem@@6B@      0049bd6c     UiPlayerBar.obj
 0002:00000da0       ??_7KUiStatus@@6B@         0049bda0     UiStatus.obj
 0002:00000dd8       ??_7KUiOptions@@6B@        0049bdd8     UiOptions.obj
 0002:00000e0c       ??_7KUiInit@@6B@           0049be0c     UiInit.obj
 0002:00000e44       ??_7KUiTeamBuild@@6B@      0049be44     UiTeamBuild.obj
 0002:00000e78       ??_7KUiChaPW@@6B@          0049be78     UiChaPW.obj
 0002:00000eb0       ??_7KUiCreatPW@@6B@        0049beb0     UiCreatPW.obj
 0002:00000ee8       ??_7KUiExpandItem@@6B@     0049bee8     UiExpandItem.obj
 0002:00000f20       ??_7KUiGetMoney@@6B@       0049bf20     UiGetMoney.obj
 0002:00000f54       ??_7KUiGiveBox@@6B@        0049bf54     UiGiveBox.obj
 0002:00000f88       ??_7KUiItem@@6B@           0049bf88     UiItem.obj
 0002:00000fc0       ??_7KUiKeyBoard@@6B@       0049bfc0     UiKeyBoard.obj
 0002:00000ff8       ??_7KUiLoginPW@@6B@        0049bff8     UiLoginPW.obj
 0002:00001030       ??_7KUiReWard@@6B@         0049c030     UiReWard.obj
 0002:00001068       ??_7KUiFightSkillSubPage@@6B@ 0049c068     UiSkills.obj
 0002:000010a0       ??_7KWndPage@@6B@          0049c0a0     UiSkills.obj
 0002:000010d8       ??_7KUiLiveSkill@@6B@      0049c0d8     UiSkills.obj
 0002:00001110       ??_7KUiSkills@@6B@         0049c110     UiSkills.obj
 0002:00001148       ??_7KUiFightSkill@@6B@     0049c148     UiSkills.obj
 0002:00001180       ??_7KUiFightSkillSub@@6B@  0049c180     UiSkills.obj
 0002:000011b8       ??_7KUiSkillTree@@6B@      0049c1b8     UiSkillTree.obj
 0002:000011ec       ??_7KUiStoreBox@@6B@       0049c1ec     UiStoreBox.obj
 0002:00001224       ??_7KUiTimeBox@@6B@        0049c224     UiTimeBox.obj
 0002:00001258       ??_7KUiESCDlg@@6B@         0049c258     UiESCDlg.obj
 0002:00001290       ??_7KUiGetNumber@@6B@      0049c290     UiGetNumber.obj
 0002:000012c4       ??_7KUiGetString@@6B@      0049c2c4     UiGetString.obj
 0002:000012f8       ??_7KUiMsgSel@@6B@         0049c2f8     UiMsgSel.obj
 0002:00001330       ??_7KUiMsgSel2@@6B@        0049c330     UiMsgSel2.obj
 0002:00001368       ??_7KUiParadeItem@@6B@     0049c368     UiParadeItem.obj
 0002:000013a0       ??_7KUiParadeItemAttrib@@6B@ 0049c3a0     UiParadeItem.obj
 0002:000013d8       ??_7KUiParadeItemEquip@@6B@ 0049c3d8     UiParadeItem.obj
 0002:00001410       ??_7KUiSelPlayerNearby@@6B@ 0049c410     UiSelPlayerNearby.obj
 0002:00001448       ??_7KUiNewPlayer@@6B@      0049c448     UiNewPlayer.obj
 0002:00001480       ??_7KUiSelNativePlace@@6B@ 0049c480     UiSelNativePlace.obj
 0002:000014b8       ??_7KUiSelPlayer@@6B@      0049c4b8     UiSelPlayer.obj
 0002:000014f4       ??_7ServerNotify@@6B@      0049c4f4     UiChatCentre.obj
 0002:0000151c       ??_7KUiChatCentre@@6B@     0049c51c     UiChatCentre.obj
 0002:00001554       ??_7KUiChatStatus@@6B@     0049c554     UiChatStatus.obj
 0002:00001588       ??_7KUiInformation@@6B@    0049c588     UiInformation.obj
 0002:000015c0       ??_7KUiInformation2@@6B@   0049c5c0     UiInformation2.obj
 0002:000015f8       ??_7KUiInformation3@@6B@   0049c5f8     UiInformation3.obj
 0002:00001630       ??_7KUiTeamManage@@6B@     0049c630     UiTeamManage.obj
 0002:00001668       ??_7KUiTeamManageBar@@6B@  0049c668     UiTeamManage.obj
 0002:000016a0       ??_7KUiTeamStatus@@6B@     0049c6a0     UiTeamStatus.obj
 0002:000016d8       ??_7KUiChatItemInfo@@6B@   0049c6d8     UiChatItemInfo.obj
 0002:0000170c       ??_7KUiHeaderControlBar@@6B@ 0049c70c     UiHeaderControlBar.obj
 0002:00001740       ??_7KUiMsgCentrePad@@6B@   0049c740     UiMsgCentrePad.obj
 0002:00001774       ??_7KSysMsgCentrePad@@6B@  0049c774     UiMsgCentrePad.obj
 0002:000017a8       ??_7KUiMakeAdv@@6B@        0049c7a8     UiMakeAdv.obj
 0002:000017dc       ??_7KUiMarket@@6B@         0049c7dc     UiMarket.obj
 0002:00001814       ??_7KUiMarketGoods@@6B@    0049c814     UiMarket.obj
 0002:0000184c       ??_7KUiMarkPrice@@6B@      0049c84c     UiMarkPrice.obj
 0002:00001880       ??_7KUiPlayerShop@@6B@     0049c880     UiPlayerShop.obj
 0002:000018b8       ??_7KUiShop@@6B@           0049c8b8     UiShop.obj
 0002:000018f0       ??_7KUiShoppingCart@@6B@   0049c8f0     UiShoppingCart.obj
 0002:00001928       ??_7KUiShoppingCartGoods@@6B@ 0049c928     UiShoppingCart.obj
 0002:00001960       ??_7KUiTrade@@6B@          0049c960     UiTrade.obj
 0002:00001998       ??_7KUiTradeConfirm@@6B@   0049c998     UiTradeConfirmWnd.obj
 0002:000019cc       ??_7KUiGameSpace@@6B@      0049c9cc     UiGame.obj
 0002:00001a00       ??_7KUiNotification@@6B@   0049ca00     UiNotification.obj
 0002:00001a38       ??_7KUiSysMsgCentre@@6B@   0049ca38     UiSysMsgCentre.obj
 0002:00001a6c       ??_7KUiCaveMap@@6B@        0049ca6c     UiCaveMap.obj
 0002:00001aa0       ??_7KUiFindPos@@6B@        0049caa0     UiFindPos.obj
 0002:00001ad4       ??_7KUiMiniMap@@6B@        0049cad4     UiMiniMap.obj
 0002:00001b08       ??_7KWndShadow@@6B@        0049cb08     UiMiniMap.obj
 0002:00001b3c       ??_7KUiWorldMap@@6B@       0049cb3c     UiWorldMap.obj
 0002:00001b70       ??_7KUiNewPlayerStartMsg@@6B@ 0049cb70     UiNewPlayerStartMsg.obj
 0002:00001ba8       ??_7KUiPlayVideo@@6B@      0049cba8     UiPlayVideo.obj
 0002:00001bdc       ??_7KUiHelper@@6B@         0049cbdc     UiHelper.obj
 0002:00001c10       ??_7KUiHelper2@@6B@        0049cc10     UiHelper2.obj
 0002:00001c48       ??_7KUiHelperMission@@6B@  0049cc48     UiHelperMission.obj
 0002:00001c80       ??_7KReconnectWnd@@6B@     0049cc80     UiReconnect.obj
 0002:00001cb4       ??_7KReviveWnd@@6B@        0049ccb4     UiRevive.obj
 0002:00001ce8       ??_7KTaskEdit@@6B@         0049cce8     UiTaskNote.obj
 0002:00001d1c       ??_7KUiTaskNote@@6B@       0049cd1c     UiTaskNote.obj
 0002:00001d54       ??_7KUiTaskNote_Personal@@6B@ 0049cd54     UiTaskNote.obj
 0002:00001d8c       ??_7KUiTaskNote_System@@6B@ 0049cd8c     UiTaskNote.obj
 0002:00001dc4       ??_7KUiNewsMessage@@6B@    0049cdc4     UiNewsMessage.obj
 0002:00001dfc       ??_7KUiNewsMessageEx@@6B@  0049cdfc     UiNewsMessageEx.obj
 0002:00001e30       ??_7?$KLinkStruct@UKRankIndexNode@@@@6B@ 0049ce30     UiStrengthRank.obj
 0002:00001e34       ??_7?$KLinkStruct@UKRankNode@@@@6B@ 0049ce34     UiStrengthRank.obj
 0002:00001e38       ??_7KUiStrengthRank@@6B@   0049ce38     UiStrengthRank.obj
 0002:00001e70       ??_7KUiPopupPasswordQuery@@6B@ 0049ce70     UiPopupPasswordQuery.obj
 0002:00001ea4       ??_7KUiTongAssignBox@@6B@  0049cea4     UiTongAssignBox.obj
 0002:00001ed8       ??_7KUiTongChangeTitle@@6B@ 0049ced8     UiTongChangeTitle.obj
 0002:00001f0c       ??_7KUiTongCreateSheet@@6B@ 0049cf0c     UiTongCreateSheet.obj
 0002:00001f40       ??_7KUiTongInformation@@6B@ 0049cf40     UiTongInformation.obj
 0002:00001f78       ??_7KUiTongManager@@6B@    0049cf78     UiTongManager.obj
 0002:00001fb0       ??_7?$KLinkStruct@UKPilgarlicItem@@@@6B@ 0049cfb0     UiTongManager.obj
 0002:00001fb4       ??_7KUiTongInfo@@6B@       0049cfb4     UiTongManager.obj
 0002:00001fec       ??_7KWndRichLabeledButton@@6B@ 0049cfec     UiTongManager.obj
 0002:0000202c       ??_7KUiTongFunUseSubPage@@6B@ 0049d02c     UiTongManager.obj
 0002:00002064       ??_7KUiTongFunUseSub@@6B@  0049d064     UiTongManager.obj
 0002:0000209c       ??_7KUiTongFunUse@@6B@     0049d09c     UiTongManager.obj
 0002:000020d4       ??_7KUiTongRightManage@@6B@ 0049d0d4     UiTongManager.obj
 0002:0000210c       ??_7KUiTongRecord@@6B@     0049d10c     UiTongManager.obj
 0002:00002144       ??_7KUiTongSetTax@@6B@     0049d144     UiTongSetTax .obj
 0002:00002178       ??_7KUiAutoPlay@@6B@       0049d178     UiAutoPlay.obj
 0002:000021b0       ??_7KUiMovePlayer@@6B@     0049d1b0     UiAutoPlay.obj
 0002:000021e8       ??_7KUiRecovery@@6B@       0049d1e8     UiAutoPlay.obj
 0002:00002220       ??_7KUiPick@@6B@           0049d220     UiAutoPlay.obj
 0002:00002258       ??_7KUiFight@@6B@          0049d258     UiAutoPlay.obj
 0002:00002290       ??_7KUiOther@@6B@          0049d290     UiAutoPlay.obj
 0002:000022c8       ??_7KUiSupportPlayer@@6B@  0049d2c8     UiAutoPlay.obj
 0002:00002300       ??_7UiMiniBuff@@6B@        0049d300     UiMiniBuff.obj
 0002:00002334       ??_7KUiTopTKNew@@6B@       0049d334     UiTopTKNew.obj
 0002:00002368       ??_7KUiTrembleItem@@6B@    0049d368     UiTrembleItem.obj
 0002:000023a0       ??_7KCanGetNumImage@@6B@   0049d3a0     UiTrembleItem.obj
 0002:000023d4       ??_7BlacklistNotify@@6B@   0049d3d4     GameSpaceChangedNotify.obj
 0002:00002434       ??_7AddinNotify@@6B@       0049d434     UiBase.obj
 0002:0000245c       ??_7Player_Life@@6B@       0049d45c     UiShell.obj
 0002:0000249c       ??_7Player_Mana@@6B@       0049d49c     UiShell.obj
 0002:000024dc       ??_7Player_Stamina@@6B@    0049d4dc     UiShell.obj
 0002:0000251c       ??_7Player_Exp@@6B@        0049d51c     UiShell.obj
 0002:0000255c       ??_7Player_Level@@6B@      0049d55c     UiShell.obj
 0002:0000259c       ??_7Player_WorldSort@@6B@  0049d59c     UiShell.obj
 0002:000025dc       ??_7Player_Status@@6B@     0049d5dc     UiShell.obj
 0002:0000261c       ??_7Player_Items@@6B@      0049d61c     UiShell.obj
 0002:0000265c       ??_7Player_ItemEx@@6B@     0049d65c     UiShell.obj
 0002:0000269c       ??_7Player_Skills@@6B@     0049d69c     UiShell.obj
 0002:000026dc       ??_7Player_Team@@6B@       0049d6dc     UiShell.obj
 0002:0000271c       ??_7Player_Faction@@6B@    0049d71c     UiShell.obj
 0002:0000275c       ??_7Player_Sit@@6B@        0049d75c     UiShell.obj
 0002:0000279c       ??_7Player_Run@@6B@        0049d79c     UiShell.obj
 0002:000027dc       ??_7Player_Horse@@6B@      0049d7dc     UiShell.obj
 0002:0000281c       ??_7Player_Exchange@@6B@   0049d81c     UiShell.obj
 0002:0000285c       ??_7Player_PK@@6B@         0049d85c     UiShell.obj
 0002:0000289c       ??_7Player_Task@@6B@       0049d89c     UiShell.obj
 0002:000028dc       ??_7Player_AutoPlay@@6B@   0049d8dc     UiShell.obj
 0002:0000291c       ??_7Player_Lock@@6B@       0049d91c     UiShell.obj
 0002:00002960       __real@8@4008fa00000000000000 0049d960     UiShell.obj
 0002:00002968       __real@4@4005c800000000000000 0049d968     UiShell.obj
 0002:0000296c       __real@4@c005c800000000000000 0049d96c     UiShell.obj
 0002:00002970       __real@8@4005c800000000000000 0049d970     UiShell.obj
 0002:00002990       ??_7CChatFilter@@6B@       0049d990     ChatFilter.obj
 0002:00002994       ??_7CFilterTextLib@@6B@    0049d994     FilterTextLib.obj
 0002:00002998       ??_7KClientCallback@@6B@   0049d998     S3Client.obj
 0002:000029bc       ??_7KMyApp@@6B@            0049d9bc     S3Client.obj
 0002:000029e8       _IID_IESClient             0049d9e8     NetConnectAgent.obj
 0002:000029f8       _IID_IClientFactory        0049d9f8     NetConnectAgent.obj
 0002:00002a08       ??_7KLogin@@6B@            0049da08     Login.obj
 0002:00002a50       ??_7CTextFilter@@6B@       0049da50     FilterText_StaticLib:FilterText.obj
 0002:00002a68       ??_7ITextFilter@@6B@       0049da68     FilterText_StaticLib:FilterText.obj
 0002:00002a80       ??_7CRegCompilerBase@@6B@  0049da80     FilterText_StaticLib:Regexp.obj
 0002:00002a94       ??_7CRegValidator@@6B@     0049da94     FilterText_StaticLib:Regexp.obj
 0002:00002aa8       ??_7CRegCompiler@@6B@      0049daa8     FilterText_StaticLib:Regexp.obj
 0002:0000ccc8       __IMPORT_DESCRIPTOR_KERNEL32 004a7cc8     kernel32:KERNEL32.dll
 0002:0000ccdc       __IMPORT_DESCRIPTOR_USER32 004a7cdc     user32:USER32.dll
 0002:0000ccf0       __IMPORT_DESCRIPTOR_GDI32  004a7cf0     gdi32:GDI32.dll
 0002:0000cd04       __IMPORT_DESCRIPTOR_SHELL32 004a7d04     shell32:SHELL32.dll
 0002:0000cd18       __IMPORT_DESCRIPTOR_LuaLibDll 004a7d18     lualibdll:LuaLibDll.dll
 0002:0000cd2c       __IMPORT_DESCRIPTOR_Engine 004a7d2c     engine:Engine.dll
 0002:0000cd40       __IMPORT_DESCRIPTOR_CoreClient 004a7d40     CoreClient:CoreClient.dll
 0002:0000cd54       __IMPORT_DESCRIPTOR_MSVCRT 004a7d54     MSVCRT:MSVCRT.dll
 0002:0000cd68       __IMPORT_DESCRIPTOR_MSVCP60 004a7d68     msvcprt:MSVCP60.dll
 0002:0000cd7c       __NULL_IMPORT_DESCRIPTOR   004a7d7c     kernel32:KERNEL32.dll
 0003:00000000       ___xc_a                    004aa000     MSVCRT:cinitexe.obj
 0003:00000080       ___xc_z                    004aa080     MSVCRT:cinitexe.obj
 0003:00000084       ___xi_a                    004aa084     MSVCRT:cinitexe.obj
 0003:00000088       ___xi_z                    004aa088     MSVCRT:cinitexe.obj
 0003:00000090       ?l_BlueBorder@@3PAIA       004aa090     LightLoop.obj
 0003:000000c4       ?l_PurpleBorder@@3PAIA     004aa0c4     LightLoop.obj
 0003:000000f8       ?l_GoldBorder@@3PAIA       004aa0f8     LightLoop.obj
 0003:000001ac       ?vsColors@@3PAY132HA       004aa1ac     LightLoop.obj
 0003:000002b0       ??_C@_0M@ODBF@RectBgColor?$AA@ 004aa2b0     MouseHover.obj
 0003:000002bc       ??_C@_0L@GFFB@PicBgColor?$AA@ 004aa2bc     MouseHover.obj
 0003:000002c8       ??_C@_0M@GKGL@DescBgColor?$AA@ 004aa2c8     MouseHover.obj
 0003:000002d4       ??_C@_0M@FOLK@PropBgColor?$AA@ 004aa2d4     MouseHover.obj
 0003:000002e0       ??_C@_0N@IGMG@TitleBgColor?$AA@ 004aa2e0     MouseHover.obj
 0003:000002f0       ??_C@_07DLFK@0?0?50?0?50?$AA@ 004aa2f0     MouseHover.obj
 0003:000002f8       ??_C@_05MMOI@Frame?$AA@    004aa2f8     MouseHover.obj
 0003:00000300       ??_C@_05LADG@Image?$AA@    004aa300     MouseHover.obj
 0003:00000308       ??_C@_07HCJH@ImgType?$AA@  004aa308     MouseHover.obj
 0003:00000310       ??_C@_04CLJC@Font?$AA@     004aa310     MouseHover.obj
 0003:00000318       ??_C@_06GDEP@Indent?$AA@   004aa318     MouseHover.obj
 0003:00000320       ??_C@_09IFFD@ImgHeight?$AA@ 004aa320     MouseHover.obj
 0003:0000032c       ??_C@_0N@LCIC@MouseOverWnd?$AA@ 004aa32c     MouseHover.obj
 0003:0000033c       ??_C@_08FIJH@ImgWidth?$AA@ 004aa33c     MouseHover.obj
 0003:00000348       ??_C@_05KEJO@?$CFs?2?$CFs?$AA@ 004aa348     MouseHover.obj
 0003:00000350       ??_C@_0P@JCAF@MouseHover?4ini?$AA@ 004aa350     MouseHover.obj
 0003:00000360       ?m_uDefBorderLineColor@KPopupMenu@@0IA 004aa360     PopupMenu.obj
 0003:00000364       ?m_uDefTextColor@KPopupMenu@@0IA 004aa364     PopupMenu.obj
 0003:00000368       ?m_uDefTextBorderColor@KPopupMenu@@0IA 004aa368     PopupMenu.obj
 0003:0000036c       ?m_uDefSelTextColor@KPopupMenu@@0IA 004aa36c     PopupMenu.obj
 0003:00000370       ?m_uDefSelTextBorderColor@KPopupMenu@@0IA 004aa370     PopupMenu.obj
 0003:00000374       ?m_uDefItemBgColor@KPopupMenu@@0IA 004aa374     PopupMenu.obj
 0003:00000378       ?m_uDefSelItemBgColor@KPopupMenu@@0IA 004aa378     PopupMenu.obj
 0003:0000037c       ??_C@_0BD@ELAN@SelTextBorderColor?$AA@ 004aa37c     PopupMenu.obj
 0003:00000390       ??_C@_0N@HCGI@SelTextColor?$AA@ 004aa390     PopupMenu.obj
 0003:000003a0       ??_C@_0BA@DOFG@TextBorderColor?$AA@ 004aa3a0     PopupMenu.obj
 0003:000003b0       ??_C@_09JLCE@TextColor?$AA@ 004aa3b0     PopupMenu.obj
 0003:000003bc       ??_C@_0P@NJEN@SelItemBgColor?$AA@ 004aa3bc     PopupMenu.obj
 0003:000003cc       ??_C@_0M@FFOC@ItemBgColor?$AA@ 004aa3cc     PopupMenu.obj
 0003:000003d8       ??_C@_04PAPL@Menu?$AA@     004aa3d8     PopupMenu.obj
 0003:000003e0       ??_C@_0BA@LGOK@BorderLineColor?$AA@ 004aa3e0     PopupMenu.obj
 0003:000003f0       ??_C@_05LBOG@0?00?00?$AA@  004aa3f0     PopupMenu.obj
 0003:000003fc       ??_C@_04NLIF@Main?$AA@     004aa3fc     SpaceOver.obj
 0003:00000404       ??_C@_0BB@PBDN@?$LF?$KP?$LD?v?K?$LF?C?w?N?D?W?V?4ini?$AA@ 004aa404     SpaceOver.obj
 0003:00000418       ??_C@_0N@ENEA@?2Screenshot?2?$AA@ 004aa418     SpecialFuncs.obj
 0003:00000428       ??_C@_0BC@EDIC@?$CFY?9?$CFm?9?$CFd_?$CFH?9?$CFM?9?$CFS?$AA@ 004aa428     SpecialFuncs.obj
 0003:0000043c       ??_C@_0L@OBPM@Screenshot?$AA@ 004aa43c     SpecialFuncs.obj
 0003:00000448       ??_C@_04BLEC@?4jpg?$AA@    004aa448     SpecialFuncs.obj
 0003:00000450       ??_C@_04OEJP@?4bmp?$AA@    004aa450     SpecialFuncs.obj
 0003:00000458       ??_C@_02DILL@?$CFs?$AA@    004aa458     SpecialFuncs.obj
 0003:0000045c       ??_C@_01PCFE@?2?$AA@       004aa45c     TextPic.obj
 0003:00000460       ??_C@_02MECO@?$CFd?$AA@    004aa460     TextPic.obj
 0003:00000464       ??_C@_05HCNL@Count?$AA@    004aa464     TextPic.obj
 0003:0000046c       ??_C@_04HIKB@Path?$AA@     004aa46c     TextPic.obj
 0003:00000474       ??_C@_0BC@IBHB@?2spr?2Ui?2?A?D?L?l?2?$LB?m?G?i?$AA@ 004aa474     TextPic.obj
 0003:00000488       ??_C@_0BB@EMBC@?2Ui?2ChatPics?4ini?$AA@ 004aa488     TextPic.obj
 0003:0000049c       ??_C@_04IFAF@KSG_?$AA@     004aa49c     UiCursor.obj
 0003:000004a4       ?ms_uBtnTipTextColor@KWndButton@@0IA 004aa4a4     WndButton.obj
 0003:000004a8       ??_C@_03GOMD@Tip?$AA@      004aa4a8     WndButton.obj
 0003:000004ac       ??_C@_0M@MKOO@SendHoldMsg?$AA@ 004aa4ac     WndButton.obj
 0003:000004b8       ??_C@_09EANJ@CheckOver?$AA@ 004aa4b8     WndButton.obj
 0003:000004c4       ??_C@_08BJCD@CheckBox?$AA@ 004aa4c4     WndButton.obj
 0003:000004d0       ??_C@_09HBHD@OverFrame?$AA@ 004aa4d0     WndButton.obj
 0003:000004dc       ??_C@_04LGEA@Over?$AA@     004aa4dc     WndButton.obj
 0003:000004e4       ??_C@_0M@DFEN@NoOverSound?$AA@ 004aa4e4     WndButton.obj
 0003:000004f0       ??_C@_0N@IMH@DisableFrame?$AA@ 004aa4f0     WndButton.obj
 0003:00000500       ??_C@_04IH@Down?$AA@       004aa500     WndButton.obj
 0003:00000508       ??_C@_02NCFM@Up?$AA@       004aa508     WndButton.obj
 0003:0000050c       ??_C@_07JJA@?$CFs_Text?$AA@ 004aa50c     WndButton.obj
 0003:00000514       ??_C@_08EHCC@?$CFs_Image?$AA@ 004aa514     WndButton.obj
 0003:00000520       ??_C@_04FIMK@Part?$AA@     004aa520     WndButton.obj
 0003:00000528       ??_C@_0BC@JPDO@FocusBKColorAlpha?$AA@ 004aa528     WndEdit.obj
 0003:0000053c       ??_C@_0N@CGPA@FocusBKColor?$AA@ 004aa53c     WndEdit.obj
 0003:0000054c       ??_C@_0M@MMCC@BorderColor?$AA@ 004aa54c     WndEdit.obj
 0003:00000558       ??_C@_05HIMK@Color?$AA@    004aa558     WndEdit.obj
 0003:00000560       ??_C@_06BINN@MaxLen?$AA@   004aa560     WndEdit.obj
 0003:00000568       ??_C@_04FCOP@Type?$AA@     004aa568     WndEdit.obj
 0003:00000570       ??_C@_08NKKK@Password?$AA@ 004aa570     WndEdit.obj
 0003:0000057c       ??_C@_09MOEH@MultiLine?$AA@ 004aa57c     WndEdit.obj
 0003:00000588       ??_C@_01KALE@?$HM?$AA@     004aa588     WndEdit.obj
 0003:0000058c       ??_C@_01FDHG@?$CK?$AA@     004aa58c     WndEdit.obj
 0003:00000590       ??_C@_02BOCF@?$CK?$CK?$AA@ 004aa590     WndEdit.obj
 0003:00000594       ??_C@_05ODAK@Trans?$AA@    004aa594     WndImage.obj
 0003:0000059c       ??_C@_08KAJL@PartType?$AA@ 004aa59c     WndImagePart.obj
 0003:000005a8       ??_C@_06LIAH@Enable?$AA@   004aa5a8     WndLabeledButton.obj
 0003:000005b0       ??_C@_05KBP@Label?$AA@     004aa5b0     WndLabeledButton.obj
 0003:000005b8       ??_C@_0BD@MMML@DisableBorderColor?$AA@ 004aa5b8     WndLabeledButton.obj
 0003:000005cc       ??_C@_0N@LMOF@DisableColor?$AA@ 004aa5cc     WndLabeledButton.obj
 0003:000005dc       ??_C@_0BC@IDGG@SelectBorderColor?$AA@ 004aa5dc     WndLabeledButton.obj
 0003:000005f0       ??_C@_0M@IGCH@SelectColor?$AA@ 004aa5f0     WndLabeledButton.obj
 0003:000005fc       ??_C@_0BA@EGEA@OverBorderColor?$AA@ 004aa5fc     WndLabeledButton.obj
 0003:0000060c       ??_C@_09MFFB@OverColor?$AA@ 004aa60c     WndLabeledButton.obj
 0003:00000618       ??_C@_0N@NCOH@LabelYOffset?$AA@ 004aa618     WndLabeledButton.obj
 0003:00000628       ??_C@_0N@PMHC@LabelXOffset?$AA@ 004aa628     WndLabeledButton.obj
 0003:00000638       ??_C@_09LNMC@?$CFd?5v?$LJn?5?$CFd?$AA@ 004aa638     WndLabeledButton.obj
 0003:00000644       ??_C@_06EPML@?$CFd?5v?$LJn?$AA@ 004aa644     WndLabeledButton.obj
 0003:0000064c       ??_C@_02MHMJ@?$CFu?$AA@    004aa64c     WndLabeledButton.obj
 0003:00000650       ??_C@_0O@IPFP@ItemTextInent?$AA@ 004aa650     WndList.obj
 0003:00000660       ??_C@_08BJHP@MultiSel?$AA@ 004aa660     WndList.obj
 0003:0000066c       ??_C@_0BF@BMLL@HighLightBorderColor?$AA@ 004aa66c     WndList.obj
 0003:00000684       ??_C@_0P@DNAA@HighLightColor?$AA@ 004aa684     WndList.obj
 0003:00000694       ??_C@_09HGAA@HighLight?$AA@ 004aa694     WndList.obj
 0003:000006a0       ??_C@_0P@EAIN@SelBorderColor?$AA@ 004aa6a0     WndList.obj
 0003:000006b0       ??_C@_08ONGG@SelColor?$AA@ 004aa6b0     WndList.obj
 0003:000006bc       ??_C@_06GKPC@HAlign?$AA@   004aa6bc     WndList.obj
 0003:000006c4       ??_C@_06JECN@RowDis?$AA@   004aa6c4     WndList.obj
 0003:000006cc       ??_C@_08NLOF@RowSpace?$AA@ 004aa6cc     WndList.obj
 0003:000006d8       ??_C@_09KDIK@NumColumn?$AA@ 004aa6d8     WndList.obj
 0003:000006e4       ??_C@_0BA@PDDO@SelBgColorAlpha?$AA@ 004aa6e4     WndList2.obj
 0003:000006f4       ??_C@_0L@FHML@SelBgColor?$AA@ 004aa6f4     WndList2.obj
 0003:00000700       ??_C@_0BG@DMJJ@OfflineSelBorderColor?$AA@ 004aa700     WndList2.obj
 0003:00000718       ??_C@_0BA@EGPM@OfflineSelColor?$AA@ 004aa718     WndList2.obj
 0003:00000728       ??_C@_0BD@BHPP@OfflineBorderColor?$AA@ 004aa728     WndList2.obj
 0003:0000073c       ??_C@_0N@PFLF@OfflineColor?$AA@ 004aa73c     WndList2.obj
 0003:0000074c       ??_C@_0BF@IMNB@OnlineSelBorderColor?$AA@ 004aa74c     WndList2.obj
 0003:00000764       ??_C@_0P@JFBD@OnlineSelColor?$AA@ 004aa764     WndList2.obj
 0003:00000774       ??_C@_0BC@HDJI@OnlineBorderColor?$AA@ 004aa774     WndList2.obj
 0003:00000788       ??_C@_0M@HAMM@OnlineColor?$AA@ 004aa788     WndList2.obj
 0003:00000794       ??_C@_07PGNG@?$CFs?5?$DO?5?$CFd?$AA@ 004aa794     WndListFilterItem.obj
 0003:0000079c       ??_C@_07DEMH@?$CFd?5?1?5?$CFd?$AA@ 004aa79c     WndListPoint.obj
 0003:000007a4       ??_C@_0L@HNMA@TextBottom?$AA@ 004aa7a4     WndMessageListBox.obj
 0003:000007b0       ??_C@_07HDMF@Selable?$AA@  004aa7b0     WndMessageListBox.obj
 0003:000007b8       ??_C@_0BE@OFFB@TextLineShadowAlpha?$AA@ 004aa7b8     WndMessageListBox.obj
 0003:000007cc       ??_C@_0P@KGGJ@TextLineShadow?$AA@ 004aa7cc     WndMessageListBox.obj
 0003:000007dc       ??_C@_0P@KOCO@MsgBorderColor?$AA@ 004aa7dc     WndMessageListBox.obj
 0003:000007ec       ??_C@_08IDNK@MsgColor?$AA@ 004aa7ec     WndMessageListBox.obj
 0003:000007f8       ??_C@_07KHIO@HitText?$AA@  004aa7f8     WndMessageListBox.obj
 0003:00000800       ??_C@_0M@FECB@MaxMsgCount?$AA@ 004aa800     WndMessageListBox.obj
 0003:0000080c       ??_C@_0N@KPK@MsgLineCount?$AA@ 004aa80c     WndMessageListBox.obj
 0003:0000081c       ??_C@_09NHKJ@?$CFs_Scroll?$AA@ 004aa81c     WndMessageListBox.obj
 0003:00000828       ??_C@_07CAGF@?$CFs_List?$AA@ 004aa828     WndMessageListBox.obj
 0003:00000830       ??_C@_06KCHC@EndPos?$AA@   004aa830     WndMovingImage.obj
 0003:00000838       ?l_BgColors@@3PAIA         004aa838     WndObjContainer.obj
 0003:00000850       ??_C@_0BB@NGKF@PriceMarkedColor?$AA@ 004aa850     WndObjContainer.obj
 0003:00000864       ??_C@_0N@DDDF@PutdownColor?$AA@ 004aa864     WndObjContainer.obj
 0003:00000874       ??_C@_0P@KHFC@MouseOverColor?$AA@ 004aa874     WndObjContainer.obj
 0003:00000884       ??_C@_0N@GMCE@SpecialColor?$AA@ 004aa884     WndObjContainer.obj
 0003:00000894       ??_C@_0BA@JAKB@NotUseableColor?$AA@ 004aa894     WndObjContainer.obj
 0003:000008a4       ??_C@_0M@LKM@NormalColor?$AA@ 004aa8a4     WndObjContainer.obj
 0003:000008b0       ??_C@_0N@HFGI@ObjContColor?$AA@ 004aa8b0     WndObjContainer.obj
 0003:000008c0       ??_C@_05JJGP@Alpha?$AA@    004aa8c0     WndObjContainer.obj
 0003:000008c8       ??_C@_0M@NAKM@HaveBgColor?$AA@ 004aa8c8     WndObjContainer.obj
 0003:000008d4       ??_C@_0BB@FPBN@EnableClickEmpty?$AA@ 004aa8d4     WndObjContainer.obj
 0003:000008e8       ??_C@_0L@KCPG@UnitBorder?$AA@ 004aa8e8     WndObjContainer.obj
 0003:000008f4       ??_C@_0L@NDOB@AcceptFree?$AA@ 004aa8f4     WndObjContainer.obj
 0003:00000900       ??_C@_06IEAA@VUnits?$AA@   004aa900     WndObjContainer.obj
 0003:00000908       ??_C@_06OMD@HUnits?$AA@    004aa908     WndObjContainer.obj
 0003:00000910       ??_C@_04BNNJ@Text?$AA@     004aa910     WndPureTextBtn.obj
 0003:00000918       ??_C@_0M@LPNB@CentreAlign?$AA@ 004aa918     WndPureTextBtn.obj
 0003:00000924       ??_C@_06HLPD@?$CFs_Btn?$AA@ 004aa924     WndScrollBar.obj
 0003:0000092c       ??_C@_08LAME@SlideEnd?$AA@ 004aa92c     WndScrollBar.obj
 0003:00000938       ??_C@_0L@HHCL@SlideBegin?$AA@ 004aa938     WndScrollBar.obj
 0003:00000944       ??_C@_08NIBM@PageSize?$AA@ 004aa944     WndScrollBar.obj
 0003:00000950       ??_C@_03GMOG@Max?$AA@      004aa950     WndScrollBar.obj
 0003:00000954       ??_C@_03IPLA@Min?$AA@      004aa954     WndScrollBar.obj
 0003:00000958       ??_C@_09CFEL@RepeatImg?$AA@ 004aa958     WndScrollBar.obj
 0003:00000964       ??_C@_0BB@HLIF@ShadowColorAlpha?$AA@ 004aa964     WndShadow.obj
 0003:00000978       ??_C@_0M@KJOC@ShadowColor?$AA@ 004aa978     WndShadow.obj
 0003:00000984       ?ms_nMoveSpeed@KWndShowAnimate@@0HA 004aa984     WndShowAnimate.obj
 0003:00000988       ?ms_nFullRange@KWndShowAnimate@@0HA 004aa988     WndShowAnimate.obj
 0003:0000098c       ?ms_uMoveTimeInterval@KWndShowAnimate@@0IA 004aa98c     WndShowAnimate.obj
 0003:00000990       ??_C@_08ODNC@StartPos?$AA@ 004aa990     WndShowAnimate.obj
 0003:0000099c       ??_C@_06OADB@VAlign?$AA@   004aa99c     WndText.obj
 0003:000009a4       ??_C@_04ELG@?$CFd?$CFc?$AA@ 004aa9a4     WndText.obj
 0003:000009ac       ??_C@_06BFHN@?$CFd?$CFc?$CFd?$AA@ 004aa9ac     WndText.obj
 0003:000009b4       ??_C@_0BB@GLAK@?$CFd?5v?$LJn?5?$CFd?5l?$KN?nng?5?$AA@ 004aa9b4     WndText.obj
 0003:000009c8       ??_C@_0O@DNCG@?$CFd?5v?$LJn?5l?$KN?nng?5?$AA@ 004aa9c8     WndText.obj
 0003:000009d8       ??_C@_08KODL@?$CFd?5l?$KN?nng?$AA@ 004aa9d8     WndText.obj
 0003:000009e4       ??_C@_0N@IPKB@?$CFd?5v?$LJn?5?$CFd?5xu?$AA@ 004aa9e4     WndText.obj
 0003:000009f4       ??_C@_09IHHN@?$CFd?5v?$LJn?5xu?$AA@ 004aa9f4     WndText.obj
 0003:00000a00       ??_C@_05PDNB@?$CFd?5xu?$AA@ 004aaa00     WndText.obj
 0003:00000a08       ??_C@_05KPKH@?$DO5000?$AA@ 004aaa08     WndText.obj
 0003:00000a10       ??_C@_01PKMN@?$DP?$AA@     004aaa10     WndText.obj
 0003:00000a14       ??_C@_01PLJA@0?$AA@        004aaa14     WndText.obj
 0003:00000a18       ??_C@_06LEOK@?$CFu?$CFc?$CFu?$AA@ 004aaa18     WndText.obj
 0003:00000a20       ??_C@_06DHKC@?$CFd?5c?$LIi?$AA@ 004aaa20     WndText.obj
 0003:00000a28       ??_C@_04FOAE@?$CFd?$CF?$CF?$AA@ 004aaa28     WndText.obj
 0003:00000a30       ??_C@_05LLOL@?$CL?$CFd?$CF?$CF?$AA@ 004aaa30     WndText.obj
 0003:00000a38       ??_C@_06ILEH@?$CFs?$CFc?$CFs?$AA@ 004aaa38     WndText.obj
 0003:00000a40       ??_C@_06OJOI@?$CFd?$CFc?$CFs?$AA@ 004aaa40     WndText.obj
 0003:00000a48       ??_C@_06HHNC@?$CFs?$CFc?$CFd?$AA@ 004aaa48     WndText.obj
 0003:00000a50       ??_C@_05HHFG@?1?1?5?9?9?$AA@ 004aaa50     WndText.obj
 0003:00000a58       ??_C@_0BD@FABI@?$FLIDMap?3?$CFd?$FN?$CFc?$CFd?$CFc?$CFd?$AA@ 004aaa58     WndText.obj
 0003:00000a6c       ??_C@_08JPHG@Button?$CFd?$AA@ 004aaa6c     WndToolBar.obj
 0003:00000a78       ??_C@_09GHOH@ClassType?$AA@ 004aaa78     WndToolBar.obj
 0003:00000a84       ??_C@_08OBLH@DummyWnd?$AA@ 004aaa84     WndWindow.obj
 0003:00000a90       ??_C@_0L@GHDB@FollowSize?$AA@ 004aaa90     WndWindow.obj
 0003:00000a9c       ??_C@_0L@MEOF@FollowMove?$AA@ 004aaa9c     WndWindow.obj
 0003:00000aa8       ??_C@_08OBHI@Moveable?$AA@ 004aaaa8     WndWindow.obj
 0003:00000ab4       ??_C@_07MLHD@Disable?$AA@  004aaab4     WndWindow.obj
 0003:00000abc       ??_C@_03BJDM@Top?$AA@      004aaabc     WndWindow.obj
 0003:00000ac0       ??_C@_04MKGK@Left?$AA@     004aaac0     WndWindow.obj
 0003:00000ac8       ??_C@_06FOPC@Height?$AA@   004aaac8     WndWindow.obj
 0003:00000ad0       ??_C@_05PJLH@Width?$AA@    004aaad0     WndWindow.obj
 0003:00000ad8       ??_C@_0BC@PNEM@?0Rect?3?$CFd?0?$CFd?9?$CFd?0?$CFd?$AA@ 004aaad8     WndWindow.obj
 0003:00000aec       ??_C@_0BF@PHCF@Pos?3?$CFd?0?$CFd?0Size?3?$CFd?0?$CFd?$AA@ 004aaaec     WndWindow.obj
 0003:00000b04       ??_C@_08POMI@?$CFd?0?$CFd?0?$CFd?$AA@ 004aab04     WndWindow.obj
 0003:00000b10       ??_C@_07PAHG@LoginBg?$AA@  004aab10     UiConnectInfo.obj
 0003:00000b18       ??_C@_04BBDK@Size?$AA@     004aab18     UiConnectInfo.obj
 0003:00000b20       ??_C@_03KONP@Pos?$AA@      004aab20     UiConnectInfo.obj
 0003:00000b24       ??_C@_0BE@NCKL@ColorChangeInterval?$AA@ 004aab24     UiConnectInfo.obj
 0003:00000b38       ??_C@_0BA@MEBA@MsgBorderColor2?$AA@ 004aab38     UiConnectInfo.obj
 0003:00000b48       ??_C@_09CFDN@MsgColor2?$AA@ 004aab48     UiConnectInfo.obj
 0003:00000b54       ??_C@_07NNP@Message?$AA@   004aab54     UiConnectInfo.obj
 0003:00000b5c       ??_C@_0O@HFNL@CancelDelRole?$AA@ 004aab5c     UiConnectInfo.obj
 0003:00000b6c       ??_C@_0N@DLKA@DelRoleBgImg?$AA@ 004aab6c     UiConnectInfo.obj
 0003:00000b7c       ??_C@_07EJBL@DelRole?$AA@  004aab7c     UiConnectInfo.obj
 0003:00000b84       ??_C@_0L@HELP@ConfirmBtn?$AA@ 004aab84     UiConnectInfo.obj
 0003:00000b90       ??_C@_0M@JJKJ@RuningImgBg?$AA@ 004aab90     UiConnectInfo.obj
 0003:00000b9c       ??_C@_0BC@FMGL@UiConnectInfo?4ini?$AA@ 004aab9c     UiConnectInfo.obj
 0003:00000bb0       ??_C@_0L@MJGG@InfoString?$AA@ 004aabb0     UiConnectInfo.obj
 0003:00000bbc       ??_C@_08FKPK@Remember?$AA@ 004aabbc     UiLogin.obj
 0003:00000bc8       ??_C@_06HLPO@Cancel?$AA@   004aabc8     UiLogin.obj
 0003:00000bd0       ??_C@_05FPPP@Login?$AA@    004aabd0     UiLogin.obj
 0003:00000bd8       ??_C@_07JPGB@Account?$AA@  004aabd8     UiLogin.obj
 0003:00000be0       ??_C@_0M@PEDF@UiLogin?4ini?$AA@ 004aabe0     UiLogin.obj
 0003:00000bec       ??_C@_09FGAK@AutoLogin?$AA@ 004aabec     UiLogin.obj
 0003:00000bf8       ??_C@_0O@KPCO@UiLoginBg?4ini?$AA@ 004aabf8     UiLoginBg.obj
 0003:00000c08       ??_C@_08JAIL@Interval?$AA@ 004aac08     UiLoginBg.obj
 0003:00000c14       ??_C@_0BA@PDMG@?$CFs_Butterfly_?$CFd?$AA@ 004aac14     UiLoginBg.obj
 0003:00000c24       ??_C@_0N@OGGP@SelItemImage?$AA@ 004aac24     UiSelServer.obj
 0003:00000c34       ??_C@_0L@NJJF@NameBigger?$AA@ 004aac34     UiSelServer.obj
 0003:00000c40       ??_C@_0L@INEO@ServerList?$AA@ 004aac40     UiSelServer.obj
 0003:00000c4c       ??_C@_06PAFO@Scroll?$AA@   004aac4c     UiSelServer.obj
 0003:00000c54       ??_C@_0L@LJEF@RegionList?$AA@ 004aac54     UiSelServer.obj
 0003:00000c60       ??_C@_0BA@OKG@UiSelServer?4ini?$AA@ 004aac60     UiSelServer.obj
 0003:00000c70       ??_C@_04DECM@List?$AA@     004aac70     UiSelServer.obj
 0003:00000c78       ??_C@_09CHMN@Region_?$CFd?$AA@ 004aac78     UiSelServer.obj
 0003:00000c84       ??_C@_0BJ@BFMG@?2Settings?2ServerList?4ini?$AA@ 004aac84     UiSelServer.obj
 0003:00000ca0       ??_C@_0M@OEHM@StringQuest?$AA@ 004aaca0     UiChooseFace.obj
 0003:00000cac       ??_C@_0BA@EFNB@TwelveFemaleBtn?$AA@ 004aacac     UiChooseFace.obj
 0003:00000cbc       ??_C@_0BA@FJAL@ElevenFemaleBtn?$AA@ 004aacbc     UiChooseFace.obj
 0003:00000ccc       ??_C@_0N@KABP@TenFemaleBtn?$AA@ 004aaccc     UiChooseFace.obj
 0003:00000cdc       ??_C@_0O@MEDB@NineFemaleBtn?$AA@ 004aacdc     UiChooseFace.obj
 0003:00000cec       ??_C@_0P@GFCP@EightFemaleBtn?$AA@ 004aacec     UiChooseFace.obj
 0003:00000cfc       ??_C@_0P@FFDI@SevenFemaleBtn?$AA@ 004aacfc     UiChooseFace.obj
 0003:00000d0c       ??_C@_0N@IDGC@SixFemaleBtn?$AA@ 004aad0c     UiChooseFace.obj
 0003:00000d1c       ??_C@_0O@LDNM@FiveFemaleBtn?$AA@ 004aad1c     UiChooseFace.obj
 0003:00000d2c       ??_C@_0O@LDFI@FourFemaleBtn?$AA@ 004aad2c     UiChooseFace.obj
 0003:00000d3c       ??_C@_0P@PCMF@ThreeFemaleBtn?$AA@ 004aad3c     UiChooseFace.obj
 0003:00000d4c       ??_C@_0N@FCDO@TwoFemaleBtn?$AA@ 004aad4c     UiChooseFace.obj
 0003:00000d5c       ??_C@_0N@CCGG@OneFemaleBtn?$AA@ 004aad5c     UiChooseFace.obj
 0003:00000d6c       ??_C@_0P@IJAD@FifteenMaleBtn?$AA@ 004aad6c     UiChooseFace.obj
 0003:00000d7c       ??_C@_0BA@LHCF@FourteenMaleBtn?$AA@ 004aad7c     UiChooseFace.obj
 0003:00000d8c       ??_C@_0BA@KBNA@ThirteenMaleBtn?$AA@ 004aad8c     UiChooseFace.obj
 0003:00000d9c       ??_C@_0O@DNF@TwelveMaleBtn?$AA@ 004aad9c     UiChooseFace.obj
 0003:00000dac       ??_C@_0O@CFEK@ElevenMaleBtn?$AA@ 004aadac     UiChooseFace.obj
 0003:00000dbc       ??_C@_0L@CAJD@TenMaleBtn?$AA@ 004aadbc     UiChooseFace.obj
 0003:00000dc8       ??_C@_0M@KPBH@NineMaleBtn?$AA@ 004aadc8     UiChooseFace.obj
 0003:00000dd4       ??_C@_0N@NCEL@EightMaleBtn?$AA@ 004aadd4     UiChooseFace.obj
 0003:00000de4       ??_C@_0N@GHNC@SevenMaleBtn?$AA@ 004aade4     UiChooseFace.obj
 0003:00000df4       ??_C@_0L@KGLD@SixMaleBtn?$AA@ 004aadf4     UiChooseFace.obj
 0003:00000e00       ??_C@_0M@MNKK@FiveMaleBtn?$AA@ 004aae00     UiChooseFace.obj
 0003:00000e0c       ??_C@_0M@NBNP@FourMaleBtn?$AA@ 004aae0c     UiChooseFace.obj
 0003:00000e18       ??_C@_0N@NEIH@ThreeMaleBtn?$AA@ 004aae18     UiChooseFace.obj
 0003:00000e28       ??_C@_0L@MIKP@TwoMaleBtn?$AA@ 004aae28     UiChooseFace.obj
 0003:00000e34       ??_C@_0L@PPHN@OneMaleBtn?$AA@ 004aae34     UiChooseFace.obj
 0003:00000e40       ??_C@_05OBLM@OkBtn?$AA@    004aae40     UiChooseFace.obj
 0003:00000e48       ??_C@_08GABN@CloseBtn?$AA@ 004aae48     UiChooseFace.obj
 0003:00000e54       ??_C@_0BB@EFNK@UiChooseFace?4ini?$AA@ 004aae54     UiChooseFace.obj
 0003:00000e68       ??_C@_0BL@IBEB@C?$LIc?5h?$LJ?5ch?$KNa?5ch?dn?5dung?5m?$LJo?$CB?$AA@ 004aae68     UiChooseFace.obj
 0003:00000e84       ??_C@_08DJDJ@?$DMpic?$DN?$CFd?$DO?$AA@ 004aae84     UiFaceSelector.obj
 0003:00000e90       ??_C@_06DADO@Face?$CFd?$AA@ 004aae90     UiFaceSelector.obj
 0003:00000e98       ??_C@_0BD@NDOH@?2Ui?2FaceDetail?4ini?$AA@ 004aae98     UiFaceSelector.obj
 0003:00000eac       ??_C@_07FFEB@BgAlpha?$AA@  004aaeac     UiFaceSelector.obj
 0003:00000eb4       ??_C@_06JIAN@BgOver?$AA@   004aaeb4     UiFaceSelector.obj
 0003:00000ebc       ??_C@_07LEOE@BgColor?$AA@  004aaebc     UiFaceSelector.obj
 0003:00000ec4       ??_C@_07DHKB@IndentV?$AA@  004aaec4     UiFaceSelector.obj
 0003:00000ecc       ??_C@_07DFBL@IndentH?$AA@  004aaecc     UiFaceSelector.obj
 0003:00000ed4       ??_C@_09EB@BtnHeight?$AA@  004aaed4     UiFaceSelector.obj
 0003:00000ee0       ??_C@_08EKFD@BtnWidth?$AA@ 004aaee0     UiFaceSelector.obj
 0003:00000eec       ??_C@_03KAKO@Row?$AA@      004aaeec     UiFaceSelector.obj
 0003:00000ef0       ??_C@_0P@LGHN@BigColumnCount?$AA@ 004aaef0     UiFaceSelector.obj
 0003:00000f00       ??_C@_0M@IICG@ColumnCount?$AA@ 004aaf00     UiFaceSelector.obj
 0003:00000f0c       ??_C@_07FNOB@BtnLess?$AA@  004aaf0c     UiFaceSelector.obj
 0003:00000f14       ??_C@_07MID@BtnMore?$AA@   004aaf14     UiFaceSelector.obj
 0003:00000f1c       ??_C@_0BD@JMMK@UiFaceSelector?4ini?$AA@ 004aaf1c     UiFaceSelector.obj
 0003:00000f30       ??_C@_06MCMF@?$CFs?$CI?$CFs?$CJ?$AA@ 004aaf30     UiFaceSelector.obj
 0003:00000f38       ?s_TimeName@@3PAPBDA       004aaf38     UiPlayerBar.obj
 0003:00000f68       ?s_TimeStone@@3PAPBDA      004aaf68     UiPlayerBar.obj
 0003:00000f98       ?s_TimeLine@@3PAPBDA       004aaf98     UiPlayerBar.obj
 0003:00000fa8       ?m_one@GameWorld_DateTime@@2UKComClassInfo@@A 004aafa8     UiPlayerBar.obj
 0003:00000fcc       ?g_ActionPKName@@3PAY0CA@DA 004aafcc     UiPlayerBar.obj
 0003:0000102c       ??_C@_03OCIF@B?hn?$AA@     004ab02c     UiPlayerBar.obj
 0003:00001030       ??_C@_02NKEH@Ba?$AA@       004ab030     UiPlayerBar.obj
 0003:00001034       ??_C@_03HFEN@Hai?$AA@      004ab034     UiPlayerBar.obj
 0003:00001038       ??_C@_03HCBN@M?it?$AA@     004ab038     UiPlayerBar.obj
 0003:0000103c       ??_C@_03PEAH@H?ni?$AA@     004ab03c     UiPlayerBar.obj
 0003:00001040       ??_C@_04PLFG@Tu?Jt?$AA@    004ab040     UiPlayerBar.obj
 0003:00001048       ??_C@_03OCCO@D?Ku?$AA@     004ab048     UiPlayerBar.obj
 0003:0000104c       ??_C@_04LMCL@Th?$KJn?$AA@  004ab04c     UiPlayerBar.obj
 0003:00001054       ??_C@_03PIOB@M?oi?$AA@     004ab054     UiPlayerBar.obj
 0003:00001058       ??_C@_04FBNL@Ng?d?4?$AA@   004ab058     UiPlayerBar.obj
 0003:00001060       ??_C@_03ECFM@T?$NO?4?$AA@  004ab060     UiPlayerBar.obj
 0003:00001064       ??_C@_04GLNO@Th?Wn?$AA@    004ab064     UiPlayerBar.obj
 0003:0000106c       ??_C@_03HCML@M?$LHo?$AA@   004ab06c     UiPlayerBar.obj
 0003:00001070       ??_C@_03PKB@D?Gn?$AA@      004ab070     UiPlayerBar.obj
 0003:00001074       ??_C@_03DLIK@S?vu?$AA@     004ab074     UiPlayerBar.obj
 0003:00001078       ??_C@_03HJKD@T?$NN?4?$AA@  004ab078     UiPlayerBar.obj
 0003:0000107c       ??_C@_09LDGF@Nh?$KJn?5?$KO?$NOnh?$AA@ 004ab07c     UiPlayerBar.obj
 0003:00001088       ??_C@_09BMGF@Ho?$LFng?5h?$KLn?$AA@ 004ab088     UiPlayerBar.obj
 0003:00001094       ??_C@_09FMJN@Nh?Kp?5ng?$LFy?$AA@ 004ab094     UiPlayerBar.obj
 0003:000010a0       ??_C@_08EGBF@Gi?j?5th?$KJn?$AA@ 004ab0a0     UiPlayerBar.obj
 0003:000010ac       ??_C@_08DEIO@X?U?5chi?Ru?$AA@ 004ab0ac     UiPlayerBar.obj
 0003:000010b8       ??_C@_09JAIK@Bu?fi?5tr?$KNa?$AA@ 004ab0b8     UiPlayerBar.obj
 0003:000010c4       ??_C@_09DEJF@G?cc?5trong?$AA@ 004ab0c4     UiPlayerBar.obj
 0003:000010d0       ??_C@_06KNEL@Khi?5?$KIn?$AA@ 004ab0d0     UiPlayerBar.obj
 0003:000010d8       ??_C@_0N@BI@M?Ft?5tr?ji?5m?dc?$AA@ 004ab0d8     UiPlayerBar.obj
 0003:000010e8       ??_C@_09FMCP@R?$LJng?5s?$LIng?$AA@ 004ab0e8     UiPlayerBar.obj
 0003:000010f4       ??_C@_06JIEI@G?$LF?5g?$LIy?$AA@ 004ab0f4     UiPlayerBar.obj
 0003:000010fc       ??_C@_07JEPF@N?va?5?$KO?$KKm?$AA@ 004ab0fc     UiPlayerBar.obj
 0003:00001104       ??_C@_0BE@JJDE@Th?ji?5?$CFs?5?$CFs?5Kh?$LOc?5?$CFs?$CB?$AA@ 004ab104     UiPlayerBar.obj
 0003:00001118       ??_C@_0BF@BLN@?$CF02d?3?$CF02d?5?$HM?5?$CFd?9?$CFd?9?$CFd?$AA@ 004ab118     UiPlayerBar.obj
 0003:00001130       ??_C@_0L@CLPH@BlockColor?$AA@ 004ab130     UiPlayerBar.obj
 0003:0000113c       ??_C@_0L@JCL@CrowdColor?$AA@ 004ab13c     UiPlayerBar.obj
 0003:00001148       ??_C@_0M@OOPF@SmoothColor?$AA@ 004ab148     UiPlayerBar.obj
 0003:00001154       ??_C@_0P@BPIO@LastGameServer?$AA@ 004ab154     UiPlayerBar.obj
 0003:00001164       ??_C@_0BB@HNJG@V?b?5L?$KJm?5Truy?Rn?5K?z?$AA@ 004ab164     UiPlayerBar.obj
 0003:00001178       ??_C@_08GOLE@BlockMsg?$AA@ 004ab178     UiPlayerBar.obj
 0003:00001184       ??_C@_08OPO@CrowdMsg?$AA@  004ab184     UiPlayerBar.obj
 0003:00001190       ??_C@_09FMGN@SmoothMsg?$AA@ 004ab190     UiPlayerBar.obj
 0003:0000119c       ??_C@_09CGAM@BlockPing?$AA@ 004ab19c     UiPlayerBar.obj
 0003:000011a8       ??_C@_09PKGM@CrowdPing?$AA@ 004ab1a8     UiPlayerBar.obj
 0003:000011b4       ??_C@_0L@CEDO@SmoothPing?$AA@ 004ab1b4     UiPlayerBar.obj
 0003:000011c0       ??_C@_09FHBD@255?0255?00?$AA@ 004ab1c0     UiPlayerBar.obj
 0003:000011cc       ??_C@_0BA@KFIH@UiPlayerBar?4ini?$AA@ 004ab1cc     UiPlayerBar.obj
 0003:000011dc       ??_C@_0M@HLNB@HelpMission?$AA@ 004ab1dc     UiPlayerBar.obj
 0003:000011e8       ??_C@_09DGIL@NoteQuest?$AA@ 004ab1e8     UiPlayerBar.obj
 0003:000011f4       ??_C@_0L@LOLE@ShowButton?$AA@ 004ab1f4     UiPlayerBar.obj
 0003:00001200       ??_C@_0L@EDPK@HideButton?$AA@ 004ab200     UiPlayerBar.obj
 0003:0000120c       ??_C@_0L@BKBC@HideWindow?$AA@ 004ab20c     UiPlayerBar.obj
 0003:00001218       ??_C@_09HKBA@InputBack?$AA@ 004ab218     UiPlayerBar.obj
 0003:00001224       ??_C@_0P@IKFB@OpenChannelBtn?$AA@ 004ab224     UiPlayerBar.obj
 0003:00001234       ??_C@_0L@FJMK@ChannelBtn?$AA@ 004ab234     UiPlayerBar.obj
 0003:00001240       ??_C@_07LFLM@SendBtn?$AA@  004ab240     UiPlayerBar.obj
 0003:00001248       ??_C@_0BH@DBGO@FocusNoCanBKColorAlpha?$AA@ 004ab248     UiPlayerBar.obj
 0003:00001260       ??_C@_0BC@LGHD@FocusNoCanBKColor?$AA@ 004ab260     UiPlayerBar.obj
 0003:00001274       ??_C@_09KKMO@InputEdit?$AA@ 004ab274     UiPlayerBar.obj
 0003:00001280       ??_C@_0BB@FODA@ImediaRightSkill?$AA@ 004ab280     UiPlayerBar.obj
 0003:00001294       ??_C@_0BA@PIID@ImediaLeftSkill?$AA@ 004ab294     UiPlayerBar.obj
 0003:000012a4       ??_C@_07CIOG@Item_?$CFd?$AA@ 004ab2a4     UiPlayerBar.obj
 0003:000012ac       ??_C@_08GPOP@DateTime?$AA@ 004ab2ac     UiPlayerBar.obj
 0003:000012b8       ??_C@_06CMLL@Market?$AA@   004ab2b8     UiPlayerBar.obj
 0003:000012c0       ??_C@_07MCKA@ToolBox?$AA@  004ab2c0     UiPlayerBar.obj
 0003:000012c8       ??_C@_07BFAH@Options?$AA@  004ab2c8     UiPlayerBar.obj
 0003:000012d0       ??_C@_06JGDO@Friend?$AA@   004ab2d0     UiPlayerBar.obj
 0003:000012d8       ??_C@_04KNOD@Face?$AA@     004ab2d8     UiPlayerBar.obj
 0003:000012e0       ??_C@_0BO@PPMG@Kh?$KLng?5th?S?5l?Jy?5k?$PM?5n?$KIng?5n?$LFy?5ra?$CB?$AA@ 004ab2e0     UiPlayerBar.obj
 0003:00001300       ??_C@_0O@HDLM@OpenMarket?$HM?$CFd?$AA@ 004ab300     UiPlayerBar.obj
 0003:00001310       ??_C@_0BB@MLMC@Open?$CI?$FL?$FLsystem?$FN?$FN?$CJ?$AA@ 004ab310     UiPlayerBar.obj
 0003:00001324       ??_C@_0BB@FMNG@Open?$CI?$FL?$FLfriend?$FN?$FN?$CJ?$AA@ 004ab324     UiPlayerBar.obj
 0003:00001338       ??_C@_0BA@EBGD@Say?$CI?$CC?$CFs?$CC?0?5?$CC?$CFs?$CC?$CJ?$AA@ 004ab338     UiPlayerBar.obj
 0003:00001348       ??_C@_0BB@OANE@Chat?$CI?$CC?$CFs?$CC?0?5?$CC?$CFs?$CC?$CJ?$AA@ 004ab348     UiPlayerBar.obj
 0003:0000135c       ??_C@_0DJ@PHBO@Vui?5l?$NPng?5kh?$KLng?5s?v?5d?tng?5t?u?5ng?w?5kh@ 004ab35c     UiPlayerBar.obj
 0003:00001398       ??_C@_0CD@GGPJ@Th?$KLng?5b?$LIo?5s?O?5?$KO?$KN?nc?5g?vi?5sau?5?$CFd?5gi?$KJ@ 004ab398     UiPlayerBar.obj
 0003:000013bc       ??_C@_08HCF@H?V?5th?hng?$AA@ 004ab3bc     UiPlayerBar.obj
 0003:000013c8       ??_C@_0EO@GJCH@Thi?$KKn?5l?$PN?5truy?Rn?5?$KJm?5kh?$KLng?5c?$LIch?5n?$LF@ 004ab3c8     UiPlayerBar.obj
 0003:00001418       ??_C@_0CC@PIP@Khung?5ph?$NNm?5t?$LOt?5?$KO?$LH?5c?c?5k?$PM?5n?$KIng?5n?$LFy@ 004ab418     UiPlayerBar.obj
 0003:0000143c       ??_C@_0DI@KJIE@B?$LJn?5s?v?5d?tng?5thi?$KKn?5l?$PN?5truy?Rn?5?$KJm?5t@ 004ab43c     UiPlayerBar.obj
 0003:00001474       ??_C@_0DM@JINM@B?$LJn?5s?v?5d?tng?5thi?$KKn?5l?$PN?5truy?Rn?5?$KJm?5t@ 004ab474     UiPlayerBar.obj
 0003:000014b0       ??_C@_0EN@ECGH@N?ii?5l?yc?5c?qa?5b?$LJn?5kh?$KLng?5?$KO?q?5?$CFd?5?$KOi?Sm@ 004ab4b0     UiPlayerBar.obj
 0003:00001500       ??_C@_0EL@BOON@Ti?Rn?5c?qa?5b?$LJn?5kh?$KLng?5?$KO?q?5?$CFd?5l?$KN?nng?0?5@ 004ab500     UiPlayerBar.obj
 0003:0000154c       ??_C@_0EN@JLIJ@?$KH?$LMng?5c?Jp?5c?qa?5b?$LJn?5kh?$KLng?5?$KO?q?5?$CFd?5c?Jp@ 004ab54c     UiPlayerBar.obj
 0003:0000159c       ??_C@_01FCOA@?5?$AA@       004ab59c     UiPlayerBar.obj
 0003:000015a0       ??_C@_01FDLN@?1?$AA@       004ab5a0     UiPlayerBar.obj
 0003:000015a4       ??_C@_02MOMN@PK?$AA@       004ab5a4     UiPlayerBar.obj
 0003:000015a8       ??_C@_08OBKL@ShowName?$AA@ 004ab5a8     UiPlayerBar.obj
 0003:000015b4       ??_C@_07HMJM@ShowObj?$AA@  004ab5b4     UiPlayerBar.obj
 0003:000015bc       ??_C@_08BPPO@ShowMana?$AA@ 004ab5bc     UiPlayerBar.obj
 0003:000015c8       ??_C@_06HJOA@Player?$AA@   004ab5c8     UiPlayerBar.obj
 0003:000015d0       ??_C@_08LFBB@ShowLife?$AA@ 004ab5d0     UiPlayerBar.obj
 0003:000015dc       ??_C@_01FAFK@?$DO?$AA@     004ab5dc     UiPlayerBar.obj
 0003:000015e0       ??_C@_09PKAM@CH_NEARBY?$AA@ 004ab5e0     UiPlayerBar.obj
 0003:00001668       ??_C@_06BHMM@Shipin?$AA@   004ab668     UiStatus.obj
 0003:00001670       ??_C@_06FICF@Signet?$AA@   004ab670     UiStatus.obj
 0003:00001678       ??_C@_06GJOF@Mantle?$AA@   004ab678     UiStatus.obj
 0003:00001680       ??_C@_04CJOG@Mask?$AA@     004ab680     UiStatus.obj
 0003:00001688       ??_C@_05LNOF@Horse?$AA@    004ab688     UiStatus.obj
 0003:00001690       ??_C@_05EEIM@Shoes?$AA@    004ab690     UiStatus.obj
 0003:00001698       ??_C@_07CIKC@Pendant?$AA@  004ab698     UiStatus.obj
 0003:000016a0       ??_C@_05LBOP@Ring2?$AA@    004ab6a0     UiStatus.obj
 0003:000016a8       ??_C@_05EOFG@Ring1?$AA@    004ab6a8     UiStatus.obj
 0003:000016b0       ??_C@_04HGAC@Sash?$AA@     004ab6b0     UiStatus.obj
 0003:000016b8       ??_C@_05KNOD@Cloth?$AA@    004ab6b8     UiStatus.obj
 0003:000016c0       ??_C@_06PLNF@Bangle?$AA@   004ab6c0     UiStatus.obj
 0003:000016c8       ??_C@_08PAOK@Necklace?$AA@ 004ab6c8     UiStatus.obj
 0003:000016d4       ??_C@_06DNLJ@Weapon?$AA@   004ab6d4     UiStatus.obj
 0003:000016dc       ??_C@_03EEJM@Cap?$AA@      004ab6dc     UiStatus.obj
 0003:000016e0       ??_C@_0N@HODN@UiStatus?4ini?$AA@ 004ab6e0     UiStatus.obj
 0003:000016f0       ??_C@_05JIMF@Close?$AA@    004ab6f0     UiStatus.obj
 0003:000016f8       ??_C@_04GFKM@Item?$AA@     004ab6f8     UiStatus.obj
 0003:00001700       ??_C@_0BC@IKHG@?5?5?5?5?5?5?5?5?5Dung?5m?$LJo?$AA@ 004ab700     UiStatus.obj
 0003:00001714       ??_C@_09HEBO@ClickHere?$AA@ 004ab714     UiStatus.obj
 0003:00001720       ??_C@_09JIEO@BtnUnBind?$AA@ 004ab720     UiStatus.obj
 0003:0000172c       ??_C@_07BPBK@BtnBind?$AA@  004ab72c     UiStatus.obj
 0003:00001734       ??_C@_09HJEM@BtnUnLock?$AA@ 004ab734     UiStatus.obj
 0003:00001740       ??_C@_07POBI@BtnLock?$AA@  004ab740     UiStatus.obj
 0003:00001748       ??_C@_06MEGD@FiFong?$AA@   004ab748     UiStatus.obj
 0003:00001750       ??_C@_09IEJ@TransLife?$AA@ 004ab750     UiStatus.obj
 0003:0000175c       ??_C@_07JGLE@PKValue?$AA@  004ab75c     UiStatus.obj
 0003:00001764       ??_C@_0M@GKDB@RemainPoint?$AA@ 004ab764     UiStatus.obj
 0003:00001770       ??_C@_0N@JKPH@ResistPoison?$AA@ 004ab770     UiStatus.obj
 0003:00001780       ??_C@_0L@IMNJ@ResistFire?$AA@ 004ab780     UiStatus.obj
 0003:0000178c       ??_C@_0P@BJKG@ResistLighting?$AA@ 004ab78c     UiStatus.obj
 0003:0000179c       ??_C@_0L@NCCB@ResistCold?$AA@ 004ab79c     UiStatus.obj
 0003:000017a8       ??_C@_09ECBI@ResistPhy?$AA@ 004ab7a8     UiStatus.obj
 0003:000017b4       ??_C@_0M@KMC@AttackSpeed?$AA@ 004ab7b4     UiStatus.obj
 0003:000017c0       ??_C@_09GJAO@MoveSpeed?$AA@ 004ab7c0     UiStatus.obj
 0003:000017cc       ??_C@_07OBBI@Defense?$AA@  004ab7cc     UiStatus.obj
 0003:000017d4       ??_C@_06MBHJ@Attack?$AA@   004ab7d4     UiStatus.obj
 0003:000017dc       ??_C@_0M@FDAC@RightDamage?$AA@ 004ab7dc     UiStatus.obj
 0003:000017e8       ??_C@_0L@LAJA@LeftDamage?$AA@ 004ab7e8     UiStatus.obj
 0003:000017f4       ??_C@_09GGBO@AddEnergy?$AA@ 004ab7f4     UiStatus.obj
 0003:00001800       ??_C@_0M@GONA@AddVitality?$AA@ 004ab800     UiStatus.obj
 0003:0000180c       ??_C@_0N@JJJL@AddDexterity?$AA@ 004ab80c     UiStatus.obj
 0003:0000181c       ??_C@_0M@MHKE@AddStrength?$AA@ 004ab81c     UiStatus.obj
 0003:00001828       ??_C@_06NFBK@Energy?$AA@   004ab828     UiStatus.obj
 0003:00001830       ??_C@_08MCFD@Vitality?$AA@ 004ab830     UiStatus.obj
 0003:0000183c       ??_C@_09OBDH@Dexterity?$AA@ 004ab83c     UiStatus.obj
 0003:00001848       ??_C@_08GLCH@Strength?$AA@ 004ab848     UiStatus.obj
 0003:00001854       ??_C@_03GBLM@Exp?$AA@      004ab854     UiStatus.obj
 0003:00001858       ??_C@_06IOLI@Status?$AA@   004ab858     UiStatus.obj
 0003:00001860       ??_C@_07MDKC@Stamina?$AA@  004ab860     UiStatus.obj
 0003:00001868       ??_C@_04LLIN@Mana?$AA@     004ab868     UiStatus.obj
 0003:00001870       ??_C@_04BBGC@Life?$AA@     004ab870     UiStatus.obj
 0003:00001878       ??_C@_09BIOF@WorldRank?$AA@ 004ab878     UiStatus.obj
 0003:00001884       ??_C@_05PGGH@Level?$AA@    004ab884     UiStatus.obj
 0003:0000188c       ??_C@_08GIDD@Prestige?$AA@ 004ab88c     UiStatus.obj
 0003:00001898       ??_C@_06PNFK@FuYuan?$AA@   004ab898     UiStatus.obj
 0003:000018a0       ??_C@_05LDDM@Title?$AA@    004ab8a0     UiStatus.obj
 0003:000018a8       ??_C@_04EFNI@Name?$AA@     004ab8a8     UiStatus.obj
 0003:000018b0       ??_C@_06KOEB@Female?$AA@   004ab8b0     UiStatus.obj
 0003:000018b8       ??_C@_04DMIE@Male?$AA@     004ab8b8     UiStatus.obj
 0003:000018c0       ??_C@_0CA@EFIA@?2spr?2Ui3?2UiChooseFace?2Nam15?4spr?$AA@ 004ab8c0     UiStatus.obj
 0003:000018e0       ??_C@_0CA@OFKF@?2spr?2Ui3?2UiChooseFace?2Nam14?4spr?$AA@ 004ab8e0     UiStatus.obj
 0003:00001900       ??_C@_0CA@IFFP@?2spr?2Ui3?2UiChooseFace?2Nam13?4spr?$AA@ 004ab900     UiStatus.obj
 0003:00001920       ??_C@_0CA@CFHK@?2spr?2Ui3?2UiChooseFace?2Nam12?4spr?$AA@ 004ab920     UiStatus.obj
 0003:00001940       ??_C@_0CA@MFBF@?2spr?2Ui3?2UiChooseFace?2Nam11?4spr?$AA@ 004ab940     UiStatus.obj
 0003:00001960       ??_C@_0CA@GFDA@?2spr?2Ui3?2UiChooseFace?2Nam10?4spr?$AA@ 004ab960     UiStatus.obj
 0003:00001980       ??_C@_0BP@KPMJ@?2spr?2Ui3?2UiChooseFace?2Nam9?4spr?$AA@ 004ab980     UiStatus.obj
 0003:000019a0       ??_C@_0BP@POM@?2spr?2Ui3?2UiChooseFace?2Nam8?4spr?$AA@ 004ab9a0     UiStatus.obj
 0003:000019c0       ??_C@_0BP@GODM@?2spr?2Ui3?2UiChooseFace?2Nam7?4spr?$AA@ 004ab9c0     UiStatus.obj
 0003:000019e0       ??_C@_0BP@MOBJ@?2spr?2Ui3?2UiChooseFace?2Nam6?4spr?$AA@ 004ab9e0     UiStatus.obj
 0003:00001a00       ??_C@_0BP@COHG@?2spr?2Ui3?2UiChooseFace?2Nam5?4spr?$AA@ 004aba00     UiStatus.obj
 0003:00001a20       ??_C@_0BP@IOFD@?2spr?2Ui3?2UiChooseFace?2Nam4?4spr?$AA@ 004aba20     UiStatus.obj
 0003:00001a40       ??_C@_0BP@OOKJ@?2spr?2Ui3?2UiChooseFace?2Nam3?4spr?$AA@ 004aba40     UiStatus.obj
 0003:00001a60       ??_C@_0BP@EOIM@?2spr?2Ui3?2UiChooseFace?2Nam2?4spr?$AA@ 004aba60     UiStatus.obj
 0003:00001a80       ??_C@_0BP@KOOD@?2spr?2Ui3?2UiChooseFace?2Nam1?4spr?$AA@ 004aba80     UiStatus.obj
 0003:00001aa0       ??_C@_0BP@NEAK@?2spr?2Ui3?2UiChooseFace?2Nu12?4spr?$AA@ 004abaa0     UiStatus.obj
 0003:00001ac0       ??_C@_0BP@DEGF@?2spr?2Ui3?2UiChooseFace?2Nu11?4spr?$AA@ 004abac0     UiStatus.obj
 0003:00001ae0       ??_C@_0BP@JEEA@?2spr?2Ui3?2UiChooseFace?2Nu10?4spr?$AA@ 004abae0     UiStatus.obj
 0003:00001b00       ??_C@_0BO@NPPN@?2spr?2Ui3?2UiChooseFace?2Nu9?4spr?$AA@ 004abb00     UiStatus.obj
 0003:00001b20       ??_C@_0BO@HPNI@?2spr?2Ui3?2UiChooseFace?2Nu8?4spr?$AA@ 004abb20     UiStatus.obj
 0003:00001b40       ??_C@_0BO@BOAI@?2spr?2Ui3?2UiChooseFace?2Nu7?4spr?$AA@ 004abb40     UiStatus.obj
 0003:00001b60       ??_C@_0BO@LOCN@?2spr?2Ui3?2UiChooseFace?2Nu6?4spr?$AA@ 004abb60     UiStatus.obj
 0003:00001b80       ??_C@_0BO@FOEC@?2spr?2Ui3?2UiChooseFace?2Nu5?4spr?$AA@ 004abb80     UiStatus.obj
 0003:00001ba0       ??_C@_0BO@POGH@?2spr?2Ui3?2UiChooseFace?2Nu4?4spr?$AA@ 004abba0     UiStatus.obj
 0003:00001bc0       ??_C@_0BO@JOJN@?2spr?2Ui3?2UiChooseFace?2Nu3?4spr?$AA@ 004abbc0     UiStatus.obj
 0003:00001be0       ??_C@_0BO@DOLI@?2spr?2Ui3?2UiChooseFace?2Nu2?4spr?$AA@ 004abbe0     UiStatus.obj
 0003:00001c00       ??_C@_0BO@NONH@?2spr?2Ui3?2UiChooseFace?2Nu1?4spr?$AA@ 004abc00     UiStatus.obj
 0003:00001c20       ??_C@_0BA@CHKN@Open?$CI?$FL?$FLitems?$FN?$FN?$CJ?$AA@ 004abc20     UiStatus.obj
 0003:00001c30       ??_C@_0O@DMPG@N?$KJng?5N?ii?5C?$KLng?$AA@ 004abc30     UiStatus.obj
 0003:00001c40       ??_C@_0O@KGFD@N?$KJng?5Sinh?5Kh?$NN?$AA@ 004abc40     UiStatus.obj
 0003:00001c50       ??_C@_0P@KAAA@N?$KJng?5Th?$KJn?5Ph?$LIp?$AA@ 004abc50     UiStatus.obj
 0003:00001c60       ??_C@_0O@KHBH@N?$KJng?5S?xc?5M?$LJnh?$AA@ 004abc60     UiStatus.obj
 0003:00001c70       ??_C@_0DA@MEKP@C?$LIc?5h?$LJ?5ch?$KNa?5thi?Ut?5l?Kp?5m?Kt?5kh?Hu?5b@ 004abc70     UiStatus.obj
 0003:00001ca0       ??_C@_05BNIA@Tho?$LIt?$AA@ 004abca0     UiStatus.obj
 0003:00001ca8       ??_C@_06BKLO@OnBind?$AA@   004abca8     UiStatus.obj
 0003:00001cb0       ??_C@_08JAOJ@OnUnBind?$AA@ 004abcb0     UiStatus.obj
 0003:00001cbc       ?ls_ToggleOptionName@@3PAPBDA 004abcbc     UiOptions.obj
 0003:00001cc8       ??_C@_0M@FOOP@Perspective?$AA@ 004abcc8     UiOptions.obj
 0003:00001cd4       ??_C@_07GGMB@Weather?$AA@  004abcd4     UiOptions.obj
 0003:00001cdc       ??_C@_0N@DAMP@DynamicLight?$AA@ 004abcdc     UiOptions.obj
 0003:00001cec       ??_C@_0O@DMEN@UiOptions?4ini?$AA@ 004abcec     UiOptions.obj
 0003:00001cfc       ??_C@_0BC@FJEL@ToggleOptionsName?$AA@ 004abcfc     UiOptions.obj
 0003:00001d10       ??_C@_0N@OLGC@CountPerLine?$AA@ 004abd10     UiOptions.obj
 0003:00001d20       ??_C@_09HCDP@ToggleBtn?$AA@ 004abd20     UiOptions.obj
 0003:00001d2c       ??_C@_0L@MIBO@CheckFrame?$AA@ 004abd2c     UiOptions.obj
 0003:00001d38       ??_C@_0O@KGJP@NotCheckFrame?$AA@ 004abd38     UiOptions.obj
 0003:00001d48       ??_C@_0N@BBAE@ToggleStatus?$AA@ 004abd48     UiOptions.obj
 0003:00001d58       ??_C@_08BIGC@Settings?$AA@ 004abd58     UiOptions.obj
 0003:00001d64       ??_C@_0M@OMKI@EnableColor?$AA@ 004abd64     UiOptions.obj
 0003:00001d70       ??_C@_0N@GJFG@ShortcutText?$AA@ 004abd70     UiOptions.obj
 0003:00001d80       ??_C@_07OBCI@SoundEx?$AA@  004abd80     UiOptions.obj
 0003:00001d88       ??_C@_09NBKA@SoundText?$AA@ 004abd88     UiOptions.obj
 0003:00001d94       ??_C@_07MDOB@MusicEx?$AA@  004abd94     UiOptions.obj
 0003:00001d9c       ??_C@_09FGPE@MusicText?$AA@ 004abd9c     UiOptions.obj
 0003:00001da8       ??_C@_0N@DBEC@BrightnessEx?$AA@ 004abda8     UiOptions.obj
 0003:00001db8       ??_C@_0P@GCLM@BrightnessText?$AA@ 004abdb8     UiOptions.obj
 0003:00001dc8       ??_C@_0M@BKKJ@ShortcutSet?$AA@ 004abdc8     UiOptions.obj
 0003:00001dd4       ??_C@_05NJPO@Sound?$AA@    004abdd4     UiOptions.obj
 0003:00001ddc       ??_C@_05PHIM@Music?$AA@    004abddc     UiOptions.obj
 0003:00001de4       ??_C@_0L@IKOB@Brightness?$AA@ 004abde4     UiOptions.obj
 0003:00001df0       ??_C@_0P@HMCP@ShortcutKeyBtn?$AA@ 004abdf0     UiOptions.obj
 0003:00001e00       ??_C@_07EPHM@?$CFd_File?$AA@ 004abe00     UiOptions.obj
 0003:00001e08       ??_C@_07ODPD@?$CFd_Name?$AA@ 004abe08     UiOptions.obj
 0003:00001e10       ??_C@_0L@DBKC@SoundValue?$AA@ 004abe10     UiOptions.obj
 0003:00001e1c       ??_C@_0L@LACF@MusicValue?$AA@ 004abe1c     UiOptions.obj
 0003:00001e28       ??_C@_0O@HCH@TitleMusic_?$CFd?$AA@ 004abe28     UiInit.obj
 0003:00001e38       ??_C@_0N@FEAF@JustLaunched?$AA@ 004abe38     UiInit.obj
 0003:00001e48       ??_C@_0BA@NPLG@TitleMusicCount?$AA@ 004abe48     UiInit.obj
 0003:00001e58       ??_C@_0BD@GOBP@?2Ui?2LaunchGame?4ini?$AA@ 004abe58     UiInit.obj
 0003:00001e6c       ??_C@_08KIJC@ExitGame?$AA@ 004abe6c     UiInit.obj
 0003:00001e78       ??_C@_07NFJN@OpenRep?$AA@  004abe78     UiInit.obj
 0003:00001e80       ??_C@_0L@GGKL@GameConfig?$AA@ 004abe80     UiInit.obj
 0003:00001e8c       ??_C@_09JIIB@EnterGame?$AA@ 004abe8c     UiInit.obj
 0003:00001e98       ??_C@_0P@BACE@ExitGameBorder?$AA@ 004abe98     UiInit.obj
 0003:00001ea8       ??_C@_0O@CIEH@OpenRepBorder?$AA@ 004abea8     UiInit.obj
 0003:00001eb8       ??_C@_0BB@MLIA@GameConfigBorder?$AA@ 004abeb8     UiInit.obj
 0003:00001ecc       ??_C@_0BA@PBEC@EnterGameBorder?$AA@ 004abecc     UiInit.obj
 0003:00001edc       ??_C@_0L@NEKK@UiInit?4ini?$AA@ 004abedc     UiInit.obj
 0003:00001ee8       ??_C@_07KAOO@explore?$AA@  004abee8     UiInit.obj
 0003:00001ef0       ??_C@_0FJ@JGDF@Th?$KLng?5tin?5phi?$KKn?5b?$LGn?3?5S?$KMn?5H?$LF?5X?$LH?5T@ 004abef0     UiTeamBuild.obj
 0003:00001f4c       ??_C@_08GNAI@TextTeam?$AA@ 004abf4c     UiTeamBuild.obj
 0003:00001f58       ??_C@_0LN@OCNF@C?$LGnh?5b?$LIo?3?5Tr?$NP?5ch?$KMi?5kh?$KLng?5ph?$LGi?5l?$LF@ 004abf58     UiTeamBuild.obj
 0003:00002018       ??_C@_0M@MKKC@TextWarning?$AA@ 004ac018     UiTeamBuild.obj
 0003:00002024       ??_C@_09EKKD@CancelBtn?$AA@ 004ac024     UiTeamBuild.obj
 0003:00002030       ??_C@_09ILCI@WarningBg?$AA@ 004ac030     UiTeamBuild.obj
 0003:0000203c       ??_C@_0BA@KGJL@UiTeamBuild?4ini?$AA@ 004ac03c     UiTeamBuild.obj
 0003:0000204c       ??_C@_0L@EAIE@ReInputBtn?$AA@ 004ac04c     UiChaPW.obj
 0003:00002058       ??_C@_07OGJD@ReInput?$AA@  004ac058     UiChaPW.obj
 0003:00002060       ??_C@_08EDNA@InputBtn?$AA@ 004ac060     UiChaPW.obj
 0003:0000206c       ??_C@_05OIKH@Input?$AA@    004ac06c     UiChaPW.obj
 0003:00002074       ??_C@_0M@IMCM@InputOldBtn?$AA@ 004ac074     UiChaPW.obj
 0003:00002080       ??_C@_08BHEC@InputOld?$AA@ 004ac080     UiChaPW.obj
 0003:0000208c       ??_C@_0M@MHGP@UiChaPW?4ini?$AA@ 004ac08c     UiChaPW.obj
 0003:00002098       ??_C@_06NFJB@?$CK?$CK?$CK?$CK?$CK?$CK?$AA@ 004ac098     UiChaPW.obj
 0003:000020a0       ??_C@_0GI@NENO@?5M?Kt?5kh?Hu?5c?$LIc?5h?$LJ?5nh?Kp?5ph?$LGi?5c?c?5?$KO?q@ 004ac0a0     UiChaPW.obj
 0003:00002108       ??_C@_0BO@LDOB@?5Vui?5l?$NPng?5nh?Kp?5m?Kt?5m?$LH?5b?$LGo?5v?V?$CB?$AA@ 004ac108     UiChaPW.obj
 0003:00002128       ??_C@_0CN@EDBL@?5M?Kt?5kh?Hu?5c?$LIc?5h?$LJ?5nh?Kp?5kh?$KLng?5tr?on@ 004ac128     UiChaPW.obj
 0003:00002158       ??_C@_0O@COIH@UiCreatPW?4ini?$AA@ 004ac158     UiCreatPW.obj
 0003:00002168       ??_C@_07OGEF@ItemBox?$AA@  004ac168     UiExpandItem.obj
 0003:00002170       ??_C@_0BB@EBKP@UiExpandItem?4ini?$AA@ 004ac170     UiExpandItem.obj
 0003:00002184       ??_C@_0L@PCAO@MoneyInput?$AA@ 004ac184     UiGetMoney.obj
 0003:00002190       ??_C@_0P@NJDI@UiGetMoney?4ini?$AA@ 004ac190     UiGetMoney.obj
 0003:000021a0       ??_C@_05GMIM@Items?$AA@    004ac1a0     UiGiveBox.obj
 0003:000021a8       ??_C@_08NLOP@Assemble?$AA@ 004ac1a8     UiGiveBox.obj
 0003:000021b4       ??_C@_0O@CIFD@ContentScroll?$AA@ 004ac1b4     UiGiveBox.obj
 0003:000021c4       ??_C@_0M@PJPM@ContentList?$AA@ 004ac1c4     UiGiveBox.obj
 0003:000021d0       ??_C@_0O@MGKG@UiGiveBox?4ini?$AA@ 004ac1d0     UiGiveBox.obj
 0003:000021e0       ??_C@_0L@NCBE@OpenStatus?$AA@ 004ac1e0     UiItem.obj
 0003:000021ec       ??_C@_0M@CHAA@GetMoneyBtn?$AA@ 004ac1ec     UiItem.obj
 0003:000021f8       ??_C@_0N@OCFM@MakeStallBtn?$AA@ 004ac1f8     UiItem.obj
 0003:00002208       ??_C@_0N@IMEE@MarkPriceBtn?$AA@ 004ac208     UiItem.obj
 0003:00002218       ??_C@_0L@GFDD@MakeAdvBtn?$AA@ 004ac218     UiItem.obj
 0003:00002224       ??_C@_09DEHC@MoneyIcon?$AA@ 004ac224     UiItem.obj
 0003:00002230       ??_C@_05COBC@Money?$AA@    004ac230     UiItem.obj
 0003:00002238       ??_C@_09LIJ@TitleIcon?$AA@ 004ac238     UiItem.obj
 0003:00002244       ??_C@_0L@EMKN@UiItem?4ini?$AA@ 004ac244     UiItem.obj
 0003:00002250       ??_C@_0FH@MLFE@?Jn?5gi?w?5?$DMcolor?$DNgreen?$DOShift?5?$CL?5chu?i@ 004ac250     UiItem.obj
 0003:000022a8       ??_C@_0BB@PEFL@Open?$CI?$FL?$FLstatus?$FN?$FN?$CJ?$AA@ 004ac2a8     UiItem.obj
 0003:000022bc       ??_C@_0CD@NDOP@R?$KN?$KMng?5?$KOang?5m?k?5kh?$KLng?5c?$NPn?5ch?g?5tr?hn@ 004ac2bc     UiItem.obj
 0003:000022e0       ??_C@_0BN@OFHL@B?$LJn?5ch?$KNa?5m?k?5r?$KN?$KMng?5ch?xa?5n?$LFy?5?$CB?$AA@ 004ac2e0     UiItem.obj
 0003:00002300       ??_C@_0BN@HPGF@R?$KN?$KMng?5?$KOang?5m?k?5kh?$KLng?5h?np?5l?V?5?$CB?$AA@ 004ac300     UiItem.obj
 0003:00002320       ??_C@_0L@PEIA@ReInPutBtn?$AA@ 004ac320     UiKeyBoard.obj
 0003:0000232c       ??_C@_0L@PDGJ@NumberList?$AA@ 004ac32c     UiKeyBoard.obj
 0003:00002338       ??_C@_0BA@CIJF@Number_?$CFd_Image?$AA@ 004ac338     UiKeyBoard.obj
 0003:00002348       ??_C@_05PBOI@Pos?$CFd?$AA@ 004ac348     UiKeyBoard.obj
 0003:00002350       ??_C@_0P@LOEO@UiKeyBoard?4ini?$AA@ 004ac350     UiKeyBoard.obj
 0003:00002360       ??_C@_0O@NIJD@UiLoginPW?4ini?$AA@ 004ac360     UiLoginPW.obj
 0003:00002370       ??_C@_07BLBO@ImgRoll?$AA@  004ac370     UiReWard.obj
 0003:00002378       ??_C@_09MOBJ@ImgViolet?$AA@ 004ac378     UiReWard.obj
 0003:00002384       ??_C@_07KKJN@ImgGold?$AA@  004ac384     UiReWard.obj
 0003:0000238c       ??_C@_0M@HGIJ@ImgMedicine?$AA@ 004ac38c     UiReWard.obj
 0003:00002398       ??_C@_08HIHA@ImgEquip?$AA@ 004ac398     UiReWard.obj
 0003:000023a4       ??_C@_09ODAK@ImgRandom?$AA@ 004ac3a4     UiReWard.obj
 0003:000023b0       ??_C@_08NHPM@ImgStone?$AA@ 004ac3b0     UiReWard.obj
 0003:000023bc       ??_C@_06BJAJ@ImgExp?$AA@   004ac3bc     UiReWard.obj
 0003:000023c4       ??_C@_08IPDC@ImgMoney?$AA@ 004ac3c4     UiReWard.obj
 0003:000023d0       ??_C@_0L@BNF@StringRoll?$AA@ 004ac3d0     UiReWard.obj
 0003:000023dc       ??_C@_0N@FGOL@StringViolet?$AA@ 004ac3dc     UiReWard.obj
 0003:000023ec       ??_C@_0L@LAFG@StringGold?$AA@ 004ac3ec     UiReWard.obj
 0003:000023f8       ??_C@_0P@KBKI@StringMedicine?$AA@ 004ac3f8     UiReWard.obj
 0003:00002408       ??_C@_0M@IKGK@StringEquip?$AA@ 004ac408     UiReWard.obj
 0003:00002414       ??_C@_0N@HLPI@StringRandom?$AA@ 004ac414     UiReWard.obj
 0003:00002424       ??_C@_0M@CFOG@StringStone?$AA@ 004ac424     UiReWard.obj
 0003:00002430       ??_C@_09NCLK@StringExp?$AA@ 004ac430     UiReWard.obj
 0003:0000243c       ??_C@_0M@HNCI@StringMoney?$AA@ 004ac43c     UiReWard.obj
 0003:00002448       ??_C@_0L@DPOC@BtnReward3?$AA@ 004ac448     UiReWard.obj
 0003:00002454       ??_C@_0L@JFHF@BtnReward2?$AA@ 004ac454     UiReWard.obj
 0003:00002460       ??_C@_0L@GKMM@BtnReward1?$AA@ 004ac460     UiReWard.obj
 0003:0000246c       ??_C@_06FMHH@Notice?$AA@   004ac46c     UiReWard.obj
 0003:00002474       ??_C@_0N@NHLP@UiReWard?4ini?$AA@ 004ac474     UiReWard.obj
 0003:00002484       ??_C@_06BGLH@Offset?$AA@   004ac484     UiSkills.obj
 0003:0000248c       ??_C@_09PMNB@SkillText?$AA@ 004ac48c     UiSkills.obj
 0003:00002498       ??_C@_0M@MLMG@AddPointBtn?$AA@ 004ac498     UiSkills.obj
 0003:000024a4       ??_C@_08EGDI@Skill_?$CFd?$AA@ 004ac4a4     UiSkills.obj
 0003:000024b0       ??_C@_0BJ@LOCE@?$CFs?2UiSkills_FightSub?4ini?$AA@ 004ac4b0     UiSkills.obj
 0003:000024cc       ??_C@_0O@NDLI@SubPageBtn_?$CFd?$AA@ 004ac4cc     UiSkills.obj
 0003:000024dc       ??_C@_0BG@MCGM@?$CFs?2UiSkills_Fight?4ini?$AA@ 004ac4dc     UiSkills.obj
 0003:000024f4       ??_C@_0BC@HPKI@UiSkills_Live?4ini?$AA@ 004ac4f4     UiSkills.obj
 0003:00002508       ??_C@_07DMAP@LiveBtn?$AA@  004ac508     UiSkills.obj
 0003:00002510       ??_C@_08KCCI@FightBtn?$AA@ 004ac510     UiSkills.obj
 0003:0000251c       ??_C@_0N@LJCG@UiSkills?4ini?$AA@ 004ac51c     UiSkills.obj
 0003:0000252c       ??_C@_02MDGC@24?$AA@       004ac52c     UiSkills.obj
 0003:00002530       ??_C@_0L@PBKL@RightSkill?$AA@ 004ac530     UiSkillTree.obj
 0003:0000253c       ??_C@_09GDHJ@LeftSkill?$AA@ 004ac53c     UiSkillTree.obj
 0003:00002548       ??_C@_0L@DNIJ@ShortSkill?$AA@ 004ac548     UiSkillTree.obj
 0003:00002554       ??_C@_0BB@MPJI@ShortcutSkill_?$CFd?$AA@ 004ac554     UiSkillTree.obj
 0003:00002568       ??_C@_0BC@GGOO@MaxBtnCountPerRow?$AA@ 004ac568     UiSkillTree.obj
 0003:0000257c       ??_C@_08LHNJ@KeyColor?$AA@ 004ac57c     UiSkillTree.obj
 0003:00002588       ??_C@_07DIGA@KeyFont?$AA@  004ac588     UiSkillTree.obj
 0003:00002590       ??_C@_07PFPN@BtnSize?$AA@  004ac590     UiSkillTree.obj
 0003:00002598       ??_C@_0M@LBCO@RightBtnPos?$AA@ 004ac598     UiSkillTree.obj
 0003:000025a4       ??_C@_0L@FCLM@LeftBtnPos?$AA@ 004ac5a4     UiSkillTree.obj
 0003:000025b0       ??_C@_0BA@CFMI@UiSkillTree?4ini?$AA@ 004ac5b0     UiSkillTree.obj
 0003:000025c0       ??_C@_0BI@CFAG@DirectShortcutSkill?$CI?$CFd?$CJ?$AA@ 004ac5c0     UiSkillTree.obj
 0003:000025d8       ??_C@_0BC@NKFI@ShortcutSkill?$CI?$CFd?$CJ?$AA@ 004ac5d8     UiSkillTree.obj
 0003:000025ec       ??_C@_0O@DDJK@R?$KN?$KMng?5ch?xa?5?$KO?e?$AA@ 004ac5ec     UiStoreBox.obj
 0003:000025fc       ??_C@_0BA@BHOA@R?$KN?$KMng?5m?k?5r?ing?55?$AA@ 004ac5fc     UiStoreBox.obj
 0003:0000260c       ??_C@_0BA@LNHH@R?$KN?$KMng?5m?k?5r?ing?54?$AA@ 004ac60c     UiStoreBox.obj
 0003:0000261c       ??_C@_0BA@OIJC@R?$KN?$KMng?5m?k?5r?ing?53?$AA@ 004ac61c     UiStoreBox.obj
 0003:0000262c       ??_C@_0BA@ECAF@R?$KN?$KMng?5m?k?5r?ing?52?$AA@ 004ac62c     UiStoreBox.obj
 0003:0000263c       ??_C@_0BA@LNLM@R?$KN?$KMng?5m?k?5r?ing?51?$AA@ 004ac63c     UiStoreBox.obj
 0003:0000264c       ??_C@_08FLII@ChaPWBtn?$AA@ 004ac64c     UiStoreBox.obj
 0003:00002658       ??_C@_08MNNE@CrePWBtn?$AA@ 004ac658     UiStoreBox.obj
 0003:00002664       ??_C@_09BEFD@UnLockBtn?$AA@ 004ac664     UiStoreBox.obj
 0003:00002670       ??_C@_07JGFG@LockBtn?$AA@  004ac670     UiStoreBox.obj
 0003:00002678       ??_C@_08HL@RightBtn?$AA@   004ac678     UiStoreBox.obj
 0003:00002684       ??_C@_07LFKI@LeftBtn?$AA@  004ac684     UiStoreBox.obj
 0003:0000268c       ??_C@_07KBJM@CurPage?$AA@  004ac68c     UiStoreBox.obj
 0003:00002694       ??_C@_0P@DLAF@UiStoreBox?4ini?$AA@ 004ac694     UiStoreBox.obj
 0003:000026a4       ??_C@_0CF@HMI@C?$LIc?5h?$LJ?5ch?$KNa?5m?k?5kh?ca?5b?$LGo?5v?V?5nh?$KJn?5@ 004ac6a4     UiStoreBox.obj
 0003:000026cc       ??_C@_04OAHI@Time?$AA@     004ac6cc     UiTimeBox.obj
 0003:000026d4       ??_C@_0O@CBNB@UiTimeBox?4ini?$AA@ 004ac6d4     UiTimeBox.obj
 0003:000026e4       ??_C@_04KNMG@?$CFd?$CFs?$AA@ 004ac6e4     UiTimeBox.obj
 0003:000026ec       ??_C@_01FCCL@?$CF?$AA@     004ac6ec     UiTimeBox.obj
 0003:000026f0       ??_C@_0N@JOPH@ContinueGame?$AA@ 004ac6f0     UiESCDlg.obj
 0003:00002700       ??_C@_07HKLF@Offline?$AA@  004ac700     UiESCDlg.obj
 0003:00002708       ??_C@_08FIDI@GameHelp?$AA@ 004ac708     UiESCDlg.obj
 0003:00002714       ??_C@_0N@OKGL@UiESCDlg?4ini?$AA@ 004ac714     UiESCDlg.obj
 0003:00002724       ??_C@_0M@PGGA@NumberInput?$AA@ 004ac724     UiGetNumber.obj
 0003:00002730       ??_C@_0BA@NPGK@UiGetNumber?4ini?$AA@ 004ac730     UiGetNumber.obj
 0003:00002740       ??_C@_0BN@FHJL@Gi?$LI?5tr?$NO?5nh?Kp?5v?$LFo?5kh?$KLng?5?$KO?sng?$CB?$AA@ 004ac740     UiGetNumber.obj
 0003:00002760       ??_C@_04NMHP@?$KH?cng?$AA@ 004ac760     UiGetNumber.obj
 0003:00002768       ??_C@_0M@LLJN@StringInput?$AA@ 004ac768     UiGetString.obj
 0003:00002774       ??_C@_0BA@CCJM@UiGetString?4ini?$AA@ 004ac774     UiGetString.obj
 0003:00002784       ??_C@_0BE@IMMA@Nh?Kp?5chu?gi?5qu?$LI?5d?$LFi?$CB?$AA@ 004ac784     UiGetString.obj
 0003:00002798       ??_C@_0BD@FFA@Nh?Kp?5chu?gi?5qu?$LI?5?$NNt?$CB?$AA@ 004ac798     UiGetString.obj
 0003:000027ac       ??_C@_08DGMJ@InfoText?$AA@ 004ac7ac     UiMsgSel.obj
 0003:000027b8       ??_C@_06ININ@Select?$AA@   004ac7b8     UiMsgSel.obj
 0003:000027c0       ??_C@_0BA@OFIG@?$CFs?2UiMsgSel?4ini?$AA@ 004ac7c0     UiMsgSel.obj
 0003:000027d0       ??_C@_0BN@HEHD@?$FL?1?1?5?9?9Script?5x?v?5l?$PN?5l?gi?1?1?5?9?9?$FN?$AA@ 004ac7d0     UiMsgSel.obj
 0003:000027f0       ??_C@_0BE@MPG@K?Ut?5th?sc?5?$KO?hi?5tho?$LJi?4?$AA@ 004ac7f0     UiMsgSel.obj
 0003:00002804       ??_C@_0L@HAII@Msg_Scroll?$AA@ 004ac804     UiMsgSel2.obj
 0003:00002810       ??_C@_0M@JGNB@MessageList?$AA@ 004ac810     UiMsgSel2.obj
 0003:0000281c       ??_C@_0BB@HLAP@?$CFs?2UiMsgSel2?4ini?$AA@ 004ac81c     UiMsgSel2.obj
 0003:00002830       ??_C@_07EIBI@Picture?$AA@  004ac830     UiMsgSel2.obj
 0003:00002838       ??_C@_0BE@NKME@?2Ui?2PictureList?4ini?$AA@ 004ac838     UiMsgSel2.obj
 0003:000028c8       ??_C@_0BB@NBHK@UiParadeItem?4ini?$AA@ 004ac8c8     UiParadeItem.obj
 0003:000028dc       ??_C@_0N@GOM@BtnEquipPage?$AA@ 004ac8dc     UiParadeItem.obj
 0003:000028ec       ??_C@_0O@LMOO@BtnAttribPage?$AA@ 004ac8ec     UiParadeItem.obj
 0003:000028fc       ??_C@_04PCN@Luck?$AA@      004ac8fc     UiParadeItem.obj
 0003:00002904       ??_C@_0BI@CIJD@UiParadeItem_Attrib?4ini?$AA@ 004ac904     UiParadeItem.obj
 0003:0000291c       ??_C@_05FDGM@?9?9?1?9?9?$AA@ 004ac91c     UiParadeItem.obj
 0003:00002924       ??_C@_06IIFM@?1?1?5?9?9?$CF?$AA@ 004ac924     UiParadeItem.obj
 0003:0000292c       ??_C@_0M@GIOD@?1?1?5?9?9?1?1?1?5?9?9?$AA@ 004ac92c     UiParadeItem.obj
 0003:00002938       ??_C@_08MDBF@MateName?$AA@ 004ac938     UiParadeItem.obj
 0003:00002944       ??_C@_08LBBK@MateCall?$AA@ 004ac944     UiParadeItem.obj
 0003:00002950       ??_C@_0L@OBGO@MateNameBg?$AA@ 004ac950     UiParadeItem.obj
 0003:0000295c       ??_C@_0BH@NNLN@UiParadeItem_Equip?4ini?$AA@ 004ac95c     UiParadeItem.obj
 0003:00002974       ??_C@_05LNMF@V?$KL?5h?V?$AA@ 004ac974     UiParadeItem.obj
 0003:0000297c       ??_C@_0L@MCDE@T?$KN?mng?5c?$KLng?$AA@ 004ac97c     UiParadeItem.obj
 0003:00002988       ??_C@_08OIME@Phu?5nh?$KJn?$AA@ 004ac988     UiParadeItem.obj
 0003:00002994       ??_C@_0BH@CFNK@?2UiSelPlayerNearby?4ini?$AA@ 004ac994     UiSelPlayerNearby.obj
 0003:000029ac       ??_C@_05JBKG@?$CFd_Id?$AA@ 004ac9ac     UiSelPlayerNearby.obj
 0003:000029b4       ??_C@_0BC@IHMF@InterPlayerAction?$AA@ 004ac9b4     UiSelPlayerNearby.obj
 0003:000029c8       ??_C@_0BG@JGAN@UiSelPlayerNearby?4ini?$AA@ 004ac9c8     UiSelPlayerNearby.obj
 0003:000029e0       ??_C@_0N@MABA@ActionBtn_?$CFd?$AA@ 004ac9e0     UiSelPlayerNearby.obj
 0003:000029f0       ??_C@_07HCFN@Refresh?$AA@  004ac9f0     UiSelPlayerNearby.obj
 0003:000029f8       ??_C@_0L@CKNO@PlayerList?$AA@ 004ac9f8     UiSelPlayerNearby.obj
 0003:00002a18       ??_C@_05FMCF@Earth?$AA@    004aca18     UiNewPlayer.obj
 0003:00002a20       ??_C@_04EBFF@Fire?$AA@     004aca20     UiNewPlayer.obj
 0003:00002a28       ??_C@_05CGKI@Water?$AA@    004aca28     UiNewPlayer.obj
 0003:00002a30       ??_C@_04OEDL@Wood?$AA@     004aca30     UiNewPlayer.obj
 0003:00002a38       ??_C@_04IKOF@Gold?$AA@     004aca38     UiNewPlayer.obj
 0003:00002a40       ??_C@_0L@PCBF@SelSound_f?$AA@ 004aca40     UiNewPlayer.obj
 0003:00002a4c       ??_C@_0L@FJBE@SelSound_m?$AA@ 004aca4c     UiNewPlayer.obj
 0003:00002a58       ??_C@_08MBPP@PropText?$AA@ 004aca58     UiNewPlayer.obj
 0003:00002a64       ??_C@_0P@FIBF@?2Ui?2Series?4ini?$AA@ 004aca64     UiNewPlayer.obj
 0003:00002a74       ??_C@_09GLE@FemaleImg?$AA@ 004aca74     UiNewPlayer.obj
 0003:00002a80       ??_C@_07KNFI@MaleImg?$AA@  004aca80     UiNewPlayer.obj
 0003:00002a88       ??_C@_09IIHA@Container?$AA@ 004aca88     UiNewPlayer.obj
 0003:00002a94       ??_C@_0N@EPFE@PropertyShow?$AA@ 004aca94     UiNewPlayer.obj
 0003:00002aa4       ??_C@_02HAGF@OK?$AA@       004acaa4     UiNewPlayer.obj
 0003:00002aa8       ??_C@_0BA@GPFL@PlayerImgPrefix?$AA@ 004acaa8     UiNewPlayer.obj
 0003:00002ab8       ??_C@_09EFJH@NewPlayer?$AA@ 004acab8     UiNewPlayer.obj
 0003:00002ac4       ??_C@_0BA@ODEP@UiNewPlayer?4ini?$AA@ 004acac4     UiNewPlayer.obj
 0003:00002ad4       ??_C@_04DKMG@Desc?$AA@     004acad4     UiSelNativePlace.obj
 0003:00002adc       ??_C@_03GDGP@Img?$AA@      004acadc     UiSelNativePlace.obj
 0003:00002ae0       ??_C@_02FECH@Id?$AA@       004acae0     UiSelNativePlace.obj
 0003:00002ae4       ??_C@_0BO@KGLN@?2Settings?2NativePlaceList?4ini?$AA@ 004acae4     UiSelNativePlace.obj
 0003:00002b04       ??_C@_0O@MCHD@PlaceDescText?$AA@ 004acb04     UiSelNativePlace.obj
 0003:00002b14       ??_C@_08LJOF@PlaceImg?$AA@ 004acb14     UiSelNativePlace.obj
 0003:00002b20       ??_C@_0BF@GAPN@UiSelNativePlace?4ini?$AA@ 004acb20     UiSelNativePlace.obj
 0003:00002b54       ??_C@_02BEE@?E?$KO?$AA@    004acb54     UiSelPlayer.obj
 0003:00002b58       ??_C@_02OCHE@?D?P?$AA@     004acb58     UiSelPlayer.obj
 0003:00002b5c       ??_C@_02ECGN@?M?A?$AA@     004acb5c     UiSelPlayer.obj
 0003:00002b60       ??_C@_02HBML@?$LL?p?$AA@   004acb60     UiSelPlayer.obj
 0003:00002b64       ??_C@_02MDOP@?K?$KO?$AA@   004acb64     UiSelPlayer.obj
 0003:00002b68       ??_C@_02LOJO@?D?$LO?$AA@   004acb68     UiSelPlayer.obj
 0003:00002b6c       ??_C@_02GDE@?$LN?p?$AA@    004acb6c     UiSelPlayer.obj
 0003:00002b70       ??_C@_08CLHE@LifeTime?$AA@ 004acb70     UiSelPlayer.obj
 0003:00002b7c       ??_C@_0N@HKAD@Player3Pos_2?$AA@ 004acb7c     UiSelPlayer.obj
 0003:00002b8c       ??_C@_0N@IFLK@Player3Pos_1?$AA@ 004acb8c     UiSelPlayer.obj
 0003:00002b9c       ??_C@_0N@CPCN@Player3Pos_0?$AA@ 004acb9c     UiSelPlayer.obj
 0003:00002bac       ??_C@_0N@BABK@Player2Pos_1?$AA@ 004acbac     UiSelPlayer.obj
 0003:00002bbc       ??_C@_0N@LKIN@Player2Pos_0?$AA@ 004acbbc     UiSelPlayer.obj
 0003:00002bcc       ??_C@_0N@NEIG@PlayerInfoBg?$AA@ 004acbcc     UiSelPlayer.obj
 0003:00002bdc       ??_C@_09NBLM@Butterfly?$AA@ 004acbdc     UiSelPlayer.obj
 0003:00002be8       ??_C@_03MBCK@New?$AA@      004acbe8     UiSelPlayer.obj
 0003:00002bec       ??_C@_03PHMD@Del?$AA@      004acbec     UiSelPlayer.obj
 0003:00002bf0       ??_C@_02CCIF@Ok?$AA@       004acbf0     UiSelPlayer.obj
 0003:00002bf4       ??_C@_07GJKJ@SelRole?$AA@  004acbf4     UiSelPlayer.obj
 0003:00002bfc       ??_C@_0BA@KJDG@UiSelPlayer?4ini?$AA@ 004acbfc     UiSelPlayer.obj
 0003:00002c0c       ??_C@_06IBPP@?5?$CFd?5?$CFs?$AA@ 004acc0c     UiSelPlayer.obj
 0003:00002c14       ??_C@_05DFPL@?$CFd?5?$CFs?$AA@ 004acc14     UiSelPlayer.obj
 0003:00002c1c       ??_C@_02JHBB@29?$AA@       004acc1c     UiSelPlayer.obj
 0003:00002c20       ??_C@_02DNIG@28?$AA@       004acc20     UiSelPlayer.obj
 0003:00002c24       ??_C@_02DMNL@27?$AA@       004acc24     UiSelPlayer.obj
 0003:00002c28       ??_C@_02JGEM@26?$AA@       004acc28     UiSelPlayer.obj
 0003:00002c2c       ??_C@_02GJPF@25?$AA@       004acc2c     UiSelPlayer.obj
 0003:00002c30       ??_C@_09LFDD@second?$CIs?$CJ?$AA@ 004acc30     UiSelPlayer.obj
 0003:00002c3c       ??_C@_09DFME@minute?$CIs?$CJ?$AA@ 004acc3c     UiSelPlayer.obj
 0003:00002c48       ??_C@_07EEK@hour?$CIs?$CJ?$AA@ 004acc48     UiSelPlayer.obj
 0003:00002c50       ??_C@_06NDHM@day?$CIs?$CJ?$AA@ 004acc50     UiSelPlayer.obj
 0003:00002c58       ??_C@_0BA@EEGE@?$CFs_?$CFs_?$CFs_?$CFd?4spr?$AA@ 004acc58     UiSelPlayer.obj
 0003:00002c68       ?l_pGrupMenuItemTitle@@3PAPBDA 004acc68     UiChatCentre.obj
 0003:00002c74       ?l_pFriendMenuItemTitle@@3PAPBDA 004acc74     UiChatCentre.obj
 0003:00002c80       ??_C@_09ONJD@Di?5chuy?Sn?$AA@ 004acc80     UiChatCentre.obj
 0003:00002c8c       ??_C@_03HIIB@X?ca?$AA@     004acc8c     UiChatCentre.obj
 0003:00002c90       ??_C@_0M@PIHO@G?vi?5tin?5t?xc?$AA@ 004acc90     UiChatCentre.obj
 0003:00002c9c       ??_C@_06LNKD@?I?$LO?$LD?$PN?W?i?$AA@ 004acc9c     UiChatCentre.obj
 0003:00002ca4       ??_C@_08GJMD@?V?X?C?$PM?C?$PL?W?i?$AA@ 004acca4     UiChatCentre.obj
 0003:00002cb0       ??_C@_06BKOE@?P?B?$LN?$KI?W?i?$AA@ 004accb0     UiChatCentre.obj
 0003:00002cb8       ??_C@_01BJG@?6?$AA@        004accb8     UiChatCentre.obj
 0003:00002cbc       ??_C@_08PBLK@C?uu?5nh?$KJn?$AA@ 004accbc     UiChatCentre.obj
 0003:00002cc8       ??_C@_09BJOM@Th?$KJn?5nh?$KJn?$AA@ 004accc8     UiChatCentre.obj
 0003:00002cd4       ??_C@_07LAKO@B?$LJn?5h?wu?$AA@ 004accd4     UiChatCentre.obj
 0003:00002cdc       ??_C@_0BE@CKNI@?$CFs?2UiChatCentre?4ini?$AA@ 004accdc     UiChatCentre.obj
 0003:00002cf0       ??_C@_09JNPI@ListBgImg?$AA@ 004accf0     UiChatCentre.obj
 0003:00002cfc       ??_C@_08BPMJ@GroupBtn?$AA@ 004accfc     UiChatCentre.obj
 0003:00002d08       ??_C@_08CJFH@InitLine?$AA@ 004acd08     UiChatCentre.obj
 0003:00002d14       ??_C@_07PLMF@NumLine?$AA@  004acd14     UiChatCentre.obj
 0003:00002d1c       ??_C@_0L@EHKN@MemberList?$AA@ 004acd1c     UiChatCentre.obj
 0003:00002d28       ??_C@_04BBFE@Kh?$LIc?$AA@  004acd28     UiChatCentre.obj
 0003:00002d30       ??_C@_0N@CCDH@UnitBtnOther?$AA@ 004acd30     UiChatCentre.obj
 0003:00002d40       ??_C@_0N@MCOO@UnitBtnEnemy?$AA@ 004acd40     UiChatCentre.obj
 0003:00002d50       ??_C@_0P@JBIL@UnitBtnBrother?$AA@ 004acd50     UiChatCentre.obj
 0003:00002d60       ??_C@_0O@NCCF@UnitBtnFriend?$AA@ 004acd60     UiChatCentre.obj
 0003:00002d70       ??_C@_0L@HMDG@ScrollDown?$AA@ 004acd70     UiChatCentre.obj
 0003:00002d7c       ??_C@_08BIOP@ScrollUp?$AA@ 004acd7c     UiChatCentre.obj
 0003:00002d88       ??_C@_07DDKE@FindBtn?$AA@  004acd88     UiChatCentre.obj
 0003:00002d90       ??_C@_07DBEI@TailImg?$AA@  004acd90     UiChatCentre.obj
 0003:00002d98       ??_C@_07EGJC@group?$CFd?$AA@ 004acd98     UiChatCentre.obj
 0003:00002da0       ??_C@_0P@KEIE@?J?d?H?k?P?B?W?i?$LF?D?C?$PL?$LD?F?$AA@ 004acda0     UiChatCentre.obj
 0003:00002db0       ??_C@_0P@NKAJ@?J?d?H?k?P?B?$LF?D?W?i?C?$PL?$LD?F?$AA@ 004acdb0     UiChatCentre.obj
 0003:00002dc0       ??_C@_07KIAB@offline?$AA@  004acdc0     UiChatCentre.obj
 0003:00002dc8       ??_C@_06FLBD@online?$AA@   004acdc8     UiChatCentre.obj
 0003:00002dd0       ??_C@_0BE@IFKC@SetPhrase?$CI?$CFd?0?5?$CC?$CFs?$CC?$CJ?$AA@ 004acdd0     UiChatPhrase.obj
 0003:00002de4       ??_C@_0M@OANC@TargetColor?$AA@ 004acde4     UiChatPhrase.obj
 0003:00002df0       ??_C@_0M@JOH@MyNameColor?$AA@ 004acdf0     UiChatPhrase.obj
 0003:00002dfc       ??_C@_0BB@BEAP@?2Ui?2?A?D?L?l?$LG?$KP?W?w?4ini?$AA@ 004acdfc     UiChatPhrase.obj
 0003:00002e10       ??_C@_06JDLO@Phrase?$AA@   004ace10     UiChatPhrase.obj
 0003:00002e18       ??_C@_0L@NIIH@?$CFd_Command?$AA@ 004ace18     UiChatPhrase.obj
 0003:00002e24       ??_C@_0BA@BAFB@?$CFd_StringOnlyMe?$AA@ 004ace24     UiChatPhrase.obj
 0003:00002e34       ??_C@_09KFAF@?$CFd_String?$AA@ 004ace34     UiChatPhrase.obj
 0003:00002e40       ??_C@_08KKMF@SayEmote?$AA@ 004ace40     UiChatPhrase.obj
 0003:00002e4c       ??_C@_0BI@OLEK@GetCurrentChannelName?$CI?$CJ?$AA@ 004ace4c     UiChatPhrase.obj
 0003:00002e64       ??_C@_0BG@PBPG@GetRecentPlayerName?$CI?$CJ?$AA@ 004ace64     UiChatPhrase.obj
 0003:00002e7c       ??_C@_07CEMB@MsgList?$AA@  004ace7c     UiChatStatus.obj
 0003:00002e84       ??_C@_0N@CPGA@ReplyMsgEdit?$AA@ 004ace84     UiChatStatus.obj
 0003:00002e94       ??_C@_0O@BPLI@SetDefaultMsg?$AA@ 004ace94     UiChatStatus.obj
 0003:00002ea4       ??_C@_09FILK@RemoveMsg?$AA@ 004acea4     UiChatStatus.obj
 0003:00002eb0       ??_C@_06JIHK@AddMsg?$AA@   004aceb0     UiChatStatus.obj
 0003:00002eb8       ??_C@_07MEEG@HideBtn?$AA@  004aceb8     UiChatStatus.obj
 0003:00002ec0       ??_C@_0N@CGLB@AutoReplyBtn?$AA@ 004acec0     UiChatStatus.obj
 0003:00002ed0       ??_C@_07MEBF@BusyBtn?$AA@  004aced0     UiChatStatus.obj
 0003:00002ed8       ??_C@_08HDOJ@LeaveBtn?$AA@ 004aced8     UiChatStatus.obj
 0003:00002ee4       ??_C@_09PCG@OnLineBtn?$AA@ 004acee4     UiChatStatus.obj
 0003:00002ef0       ??_C@_0BI@KNBD@?$CFs?2?A?D?L?l?W?$LE?L?$KM?I?h?V?C?$LE?$LA?$LP?Z?4ini?$AA@ 004acef0     UiChatStatus.obj
 0003:00002f08       ??_C@_09JOKB@SecondBtn?$AA@ 004acf08     UiInformation.obj
 0003:00002f14       ??_C@_08NIBK@FirstBtn?$AA@ 004acf14     UiInformation.obj
 0003:00002f20       ??_C@_04BOIP@Info?$AA@     004acf20     UiInformation.obj
 0003:00002f28       ??_C@_0BC@PJGM@UiInformation?4ini?$AA@ 004acf28     UiInformation.obj
 0003:00002f3c       ??_C@_0BD@CIBD@UiInformation2?4ini?$AA@ 004acf3c     UiInformation2.obj
 0003:00002f50       ??_C@_08FINM@ThirdBtn?$AA@ 004acf50     UiInformation3.obj
 0003:00002f5c       ??_C@_0BD@IIDG@UiInformation3?4ini?$AA@ 004acf5c     UiInformation3.obj
 0003:00002f70       ?szArray_TeamBarPlayer@@3PAY0CA@DA 004acf70     UiTeamManage.obj
 0003:00003010       ??_C@_09OHID@CloseTeam?$AA@ 004ad010     UiTeamManage.obj
 0003:0000301c       ??_C@_07PKIP@Dismiss?$AA@  004ad01c     UiTeamManage.obj
 0003:00003024       ??_C@_05MGBF@Leave?$AA@    004ad024     UiTeamManage.obj
 0003:0000302c       ??_C@_07GADM@Appoint?$AA@  004ad02c     UiTeamManage.obj
 0003:00003034       ??_C@_04MBG@Kick?$AA@      004ad034     UiTeamManage.obj
 0003:0000303c       ??_C@_06FFGK@Invite?$AA@   004ad03c     UiTeamManage.obj
 0003:00003044       ??_C@_0N@JNPP@NearbyScroll?$AA@ 004ad044     UiTeamManage.obj
 0003:00003054       ??_C@_0N@LBID@MemberScroll?$AA@ 004ad054     UiTeamManage.obj
 0003:00003064       ??_C@_0L@FGFK@NearbyList?$AA@ 004ad064     UiTeamManage.obj
 0003:00003070       ??_C@_0O@NAOJ@LeaderAbility?$AA@ 004ad070     UiTeamManage.obj
 0003:00003080       ??_C@_0BB@CJAP@UiTeamManage?4ini?$AA@ 004ad080     UiTeamManage.obj
 0003:00003094       ??_C@_0P@OOHE@ButtonShowHide?$AA@ 004ad094     UiTeamManage.obj
 0003:000030a4       ??_C@_0N@ODGB@CaptainFlag1?$AA@ 004ad0a4     UiTeamManage.obj
 0003:000030b4       ??_C@_04OAEN@Map7?$AA@     004ad0b4     UiTeamManage.obj
 0003:000030bc       ??_C@_06CJID@Level7?$AA@   004ad0bc     UiTeamManage.obj
 0003:000030c4       ??_C@_05MPGE@Life7?$AA@    004ad0c4     UiTeamManage.obj
 0003:000030cc       ??_C@_09OAOJ@RoleName7?$AA@ 004ad0cc     UiTeamManage.obj
 0003:000030d8       ??_C@_0N@CMKD@IconFaction7?$AA@ 004ad0d8     UiTeamManage.obj
 0003:000030e8       ??_C@_04PJPF@Box7?$AA@     004ad0e8     UiTeamManage.obj
 0003:000030f0       ??_C@_04EKNK@Map6?$AA@     004ad0f0     UiTeamManage.obj
 0003:000030f8       ??_C@_06IDBE@Level6?$AA@   004ad0f8     UiTeamManage.obj
 0003:00003100       ??_C@_05GFPD@Life6?$AA@    004ad100     UiTeamManage.obj
 0003:00003108       ??_C@_09EKHO@RoleName6?$AA@ 004ad108     UiTeamManage.obj
 0003:00003114       ??_C@_0N@IGDE@IconFaction6?$AA@ 004ad114     UiTeamManage.obj
 0003:00003124       ??_C@_04FDGC@Box6?$AA@     004ad124     UiTeamManage.obj
 0003:0000312c       ??_C@_04LFGD@Map5?$AA@     004ad12c     UiTeamManage.obj
 0003:00003134       ??_C@_06HMKN@Level5?$AA@   004ad134     UiTeamManage.obj
 0003:0000313c       ??_C@_05JKEK@Life5?$AA@    004ad13c     UiTeamManage.obj
 0003:00003144       ??_C@_09LFMH@RoleName5?$AA@ 004ad144     UiTeamManage.obj
 0003:00003150       ??_C@_0N@HJIN@IconFaction5?$AA@ 004ad150     UiTeamManage.obj
 0003:00003160       ??_C@_04KMNL@Box5?$AA@     004ad160     UiTeamManage.obj
 0003:00003168       ??_C@_04BPPE@Map4?$AA@     004ad168     UiTeamManage.obj
 0003:00003170       ??_C@_06NGDK@Level4?$AA@   004ad170     UiTeamManage.obj
 0003:00003178       ??_C@_05DANN@Life4?$AA@    004ad178     UiTeamManage.obj
 0003:00003180       ??_C@_09BPFA@RoleName4?$AA@ 004ad180     UiTeamManage.obj
 0003:0000318c       ??_C@_0N@NDBK@IconFaction4?$AA@ 004ad18c     UiTeamManage.obj
 0003:0000319c       ??_C@_04GEM@Box4?$AA@      004ad19c     UiTeamManage.obj
 0003:000031a4       ??_C@_04EKBB@Map3?$AA@     004ad1a4     UiTeamManage.obj
 0003:000031ac       ??_C@_06IDNP@Level3?$AA@   004ad1ac     UiTeamManage.obj
 0003:000031b4       ??_C@_05GFDI@Life3?$AA@    004ad1b4     UiTeamManage.obj
 0003:000031bc       ??_C@_09EKLF@RoleName3?$AA@ 004ad1bc     UiTeamManage.obj
 0003:000031c8       ??_C@_0N@IGPP@IconFaction3?$AA@ 004ad1c8     UiTeamManage.obj
 0003:000031d8       ??_C@_04FDKJ@Box3?$AA@     004ad1d8     UiTeamManage.obj
 0003:000031e0       ??_C@_04OAIG@Map2?$AA@     004ad1e0     UiTeamManage.obj
 0003:000031e8       ??_C@_06CJEI@Level2?$AA@   004ad1e8     UiTeamManage.obj
 0003:000031f0       ??_C@_05MPKP@Life2?$AA@    004ad1f0     UiTeamManage.obj
 0003:000031f8       ??_C@_09OACC@RoleName2?$AA@ 004ad1f8     UiTeamManage.obj
 0003:00003204       ??_C@_0N@CMGI@IconFaction2?$AA@ 004ad204     UiTeamManage.obj
 0003:00003214       ??_C@_04PJDO@Box2?$AA@     004ad214     UiTeamManage.obj
 0003:0000321c       ??_C@_04BPDP@Map1?$AA@     004ad21c     UiTeamManage.obj
 0003:00003224       ??_C@_06NGPB@Level1?$AA@   004ad224     UiTeamManage.obj
 0003:0000322c       ??_C@_05DABG@Life1?$AA@    004ad22c     UiTeamManage.obj
 0003:00003234       ??_C@_09BPJL@RoleName1?$AA@ 004ad234     UiTeamManage.obj
 0003:00003240       ??_C@_0N@NDNB@IconFaction1?$AA@ 004ad240     UiTeamManage.obj
 0003:00003250       ??_C@_04GIH@Box1?$AA@      004ad250     UiTeamManage.obj
 0003:00003258       ??_C@_0BE@LOAC@UiTeamManageBar?4ini?$AA@ 004ad258     UiTeamManage.obj
 0003:0000326c       ??_C@_0CH@NKDN@?2spr?2Ui3?2UiTeamManageBar?2team_hi@ 004ad26c     UiTeamManage.obj
 0003:00003294       ??_C@_0CH@LOLI@?2spr?2Ui3?2UiTeamManageBar?2team_sh@ 004ad294     UiTeamManage.obj
 0003:000032bc       ??_C@_0BC@PJJJ@Kh?$KLng?5x?$LIc?5?$KO?$NOnh?4?4?4?$AA@ 004ad2bc     UiTeamManage.obj
 0003:000032d0       ??_C@_0BA@OBKD@Khu?5v?yc?5V?$KN?nt?5?$LGi?$AA@ 004ad2d0     UiTeamManage.obj
 0003:000032e0       ??_C@_0BH@NBEM@Th?$LIch?5th?xc?5th?ji?5gian?59?$AA@ 004ad2e0     UiTeamManage.obj
 0003:000032f8       ??_C@_0BH@HLNL@Th?$LIch?5th?xc?5th?ji?5gian?58?$AA@ 004ad2f8     UiTeamManage.obj
 0003:00003310       ??_C@_0BH@HKIG@Th?$LIch?5th?xc?5th?ji?5gian?57?$AA@ 004ad310     UiTeamManage.obj
 0003:00003328       ??_C@_0BH@NABB@Th?$LIch?5th?xc?5th?ji?5gian?56?$AA@ 004ad328     UiTeamManage.obj
 0003:00003340       ??_C@_0BH@CPKI@Th?$LIch?5th?xc?5th?ji?5gian?55?$AA@ 004ad340     UiTeamManage.obj
 0003:00003358       ??_C@_0BH@IFDP@Th?$LIch?5th?xc?5th?ji?5gian?54?$AA@ 004ad358     UiTeamManage.obj
 0003:00003370       ??_C@_0BH@NANK@Th?$LIch?5th?xc?5th?ji?5gian?53?$AA@ 004ad370     UiTeamManage.obj
 0003:00003388       ??_C@_0BH@HKEN@Th?$LIch?5th?xc?5th?ji?5gian?52?$AA@ 004ad388     UiTeamManage.obj
 0003:000033a0       ??_C@_0BH@IFPE@Th?$LIch?5th?xc?5th?ji?5gian?51?$AA@ 004ad3a0     UiTeamManage.obj
 0003:000033b8       ??_C@_0BE@HMHA@H?ii?5Tr?$KN?jng?5Li?$KKn?5?$KH?Ju?$AA@ 004ad3b8     UiTeamManage.obj
 0003:000033cc       ??_C@_0O@JJBA@Thi?$KKn?5B?$LGo?5Kh?$KK?$AA@ 004ad3cc     UiTeamManage.obj
 0003:000033dc       ??_C@_0BC@OPKH@Ho?$LFng?5Sa?5L?$KJm?5Ngao?$AA@ 004ad3dc     UiTeamManage.obj
 0003:000033f0       ??_C@_0BF@MKHL@M?$LJng?5B?$LOc?5Th?$LGo?5Nguy?$KKn?$AA@ 004ad3f0     UiTeamManage.obj
 0003:00003408       ??_C@_0N@FEIE@M?$LJc?5Cao?5Qu?Kt?$AA@ 004ad408     UiTeamManage.obj
 0003:00003418       ??_C@_0L@NIEK@Thuy?Rn?5PL?$KH?$AA@ 004ad418     UiTeamManage.obj
 0003:00003424       ??_C@_0O@JKFL@Phong?5L?$KIng?5?$KH?i?$AA@ 004ad424     UiTeamManage.obj
 0003:00003434       ??_C@_0BC@ENAJ@B?$LIo?5danh?5T?hng?5Kim?$AA@ 004ad434     UiTeamManage.obj
 0003:00003448       ??_C@_0BE@NIIL@Tr?$KN?jng?5B?$LJch?5S?$KMn?5B?$LOc?$AA@ 004ad448     UiTeamManage.obj
 0003:0000345c       ??_C@_0BE@OKOI@Tr?$KN?jng?5B?$LJch?5S?$KMn?5Nam?$AA@ 004ad45c     UiTeamManage.obj
 0003:00003470       ??_C@_0BF@BOMO@Ch?$KJn?5N?si?5Tr?$KN?jng?5B?$LJch?$AA@ 004ad470     UiTeamManage.obj
 0003:00003488       ??_C@_0M@DINF@?$KH?$LGo?5T?Hy?5T?qy?$AA@ 004ad488     UiTeamManage.obj
 0003:00003494       ??_C@_08CNCJ@Sa?5M?$LJc?53?$AA@ 004ad494     UiTeamManage.obj
 0003:000034a0       ??_C@_08IHLO@Sa?5M?$LJc?52?$AA@ 004ad4a0     UiTeamManage.obj
 0003:000034ac       ??_C@_08HIAH@Sa?5M?$LJc?51?$AA@ 004ad4ac     UiTeamManage.obj
 0003:000034b8       ??_C@_0BA@INKF@Sa?5M?$LJc?5?$KH?ra?5Bi?Su?$AA@ 004ad4b8     UiTeamManage.obj
 0003:000034c8       ??_C@_09JLDF@Thi?$KKn?5Lao?$AA@ 004ad4c8     UiTeamManage.obj
 0003:000034d4       ??_C@_0N@JKLM@Ng?r?5?$KH?hc?5Gi?$LIo?$AA@ 004ad4d4     UiTeamManage.obj
 0003:000034e4       ??_C@_06KOI@L?bm?5An?$AA@  004ad4e4     UiTeamManage.obj
 0003:000034ec       ??_C@_0BA@HMJ@Long?5Tuy?Rn?5Th?$KLn?$AA@ 004ad4ec     UiTeamManage.obj
 0003:000034fc       ??_C@_0O@LLMG@?$LIc?5B?$LI?5?$KH?$NOa?5?$KH?$LJo?$AA@ 004ad4fc     UiTeamManage.obj
 0003:0000350c       ??_C@_06IOAH@?$KH?$LJi?5L?$PN?$AA@ 004ad50c     UiTeamManage.obj
 0003:00003514       ??_C@_0N@NFAC@Th?sy?5Y?$KKn?5M?$KLn?$AA@ 004ad514     UiTeamManage.obj
 0003:00003524       ??_C@_0N@FDNF@C?$KLn?5L?$KLn?5Ph?$LIi?$AA@ 004ad524     UiTeamManage.obj
 0003:00003534       ??_C@_0O@GDEK@L?$KNu?5Ti?$KKn?5?$KH?ing?$AA@ 004ad534     UiTeamManage.obj
 0003:00003544       ??_C@_0O@BNEO@C?$LIn?5Vi?$KKn?5?$KH?ing?$AA@ 004ad544     UiTeamManage.obj
 0003:00003554       ??_C@_0M@KPOP@L?$LHo?5H?$LJ?5?$KH?ing?$AA@ 004ad554     UiTeamManage.obj
 0003:00003560       ??_C@_0O@FDND@Long?5M?$KLn?5Tr?Jn?$AA@ 004ad560     UiTeamManage.obj
 0003:00003570       ??_C@_0P@IAGA@Thi?Ru?5L?bm?5Ph?$LIi?$AA@ 004ad570     UiTeamManage.obj
 0003:00003580       ??_C@_0P@OACK@?$KH?$LJo?5H?$KN?$KMng?5Th?$KLn?$AA@ 004ad580     UiTeamManage.obj
 0003:00003590       ??_C@_0O@OLG@Chu?5Ti?$KKn?5Tr?Jn?$AA@ 004ad590     UiTeamManage.obj
 0003:000035a0       ??_C@_0O@LKND@Th?$LJch?5C?f?5Tr?Jn?$AA@ 004ad5a0     UiTeamManage.obj
 0003:000035b0       ??_C@_0O@FPDL@Ti?Rn?5C?hc?5?$KH?ing?$AA@ 004ad5b0     UiTeamManage.obj
 0003:000035c0       ??_C@_0O@OKAH@Th?$KLc?5C?$KLng?5S?$KMn?$AA@ 004ad5c0     UiTeamManage.obj
 0003:000035d0       ??_C@_0BE@FLDP@Ph?tc?5Ng?$KN?$KNu?5S?$KMn?5?$KH?$KLng?$AA@ 004ad5d0     UiTeamManage.obj
 0003:000035e4       ??_C@_0N@OADG@V?b?5?$KHang?5Ph?$LIi?$AA@ 004ad5e4     UiTeamManage.obj
 0003:000035f4       ??_C@_0L@MNPI@D?$KN?$KMng?5Ch?$KJu?$AA@ 004ad5f4     UiTeamManage.obj
 0003:00003600       ??_C@_0M@GLNE@T?$KN?$KMng?5D?$KN?$KMng?$AA@ 004ad600     UiTeamManage.obj
 0003:0000360c       ??_C@_0P@EHAF@Kh?aa?5Lang?5?$KH?ing?$AA@ 004ad60c     UiTeamManage.obj
 0003:0000361c       ??_C@_0M@BLKI@V?r?5L?$KIng?5S?$KMn?$AA@ 004ad61c     UiTeamManage.obj
 0003:00003628       ??_C@_0BB@DCKJ@Thi?$KKn?5V?$KN?$KMng?5Bang?$AA@ 004ad628     UiTeamManage.obj
 0003:0000363c       ??_C@_0P@PIFO@Ho?$LFnh?5S?$KMn?5Ph?$LIi?$AA@ 004ad63c     UiTeamManage.obj
 0003:0000364c       ??_C@_0O@LACJ@Ba?5L?$KIng?5Huy?Vn?$AA@ 004ad64c     UiTeamManage.obj
 0003:0000365c       ??_C@_0BA@BIEB@Thi?$KKn?5Nh?In?5Gi?$LIo?$AA@ 004ad65c     UiTeamManage.obj
 0003:0000366c       ??_C@_0BD@CDBH@Ph?tc?5Ng?$KNu?$KN?5S?$KMn?5T?$KJy?$AA@ 004ad66c     UiTeamManage.obj
 0003:00003680       ??_C@_09PCLE@Bi?Vn?5Kinh?$AA@ 004ad680     UiTeamManage.obj
 0003:0000368c       ??_C@_0M@MMCJ@Nga?5My?5Ph?$LIi?$AA@ 004ad68c     UiTeamManage.obj
 0003:00003698       ??_C@_08FOBH@Th?$LFnh?5?$KH?$KL?$AA@ 004ad698     UiTeamManage.obj
 0003:000036a4       ??_C@_0BI@IKBE@Tr?$KN?jng?5Giang?5Nguy?$KKn?5?$KH?Gu?$AA@ 004ad6a4     UiTeamManage.obj
 0003:000036bc       ??_C@_0BB@ELIF@Ki?Um?5C?$LIc?5T?$KJy?5B?$LOc?$AA@ 004ad6bc     UiTeamManage.obj
 0003:000036d0       ??_C@_07COMG@Hoa?5S?$KMn?$AA@ 004ad6d0     UiTeamManage.obj
 0003:000036d8       ??_C@_0N@LFIJ@Ph?$KN?nng?5T?$KN?jng?$AA@ 004ad6d8     UiTeamManage.obj
 0003:000036e8       ??_C@_0CA@HJIF@?2spr?2Ui3?2UiTeamManageBar?2?$CFd?4spr?$AA@ 004ad6e8     UiTeamManage.obj
 0003:00003708       ??_C@_07DAJE@?$CFs?5?9?5?$CFs?$AA@ 004ad708     UiTeamManage.obj
 0003:00003710       ??_C@_0P@NPPJ@Ch?$KNa?5nh?Kp?5ph?$LIi?$AA@ 004ad710     UiTeamManage.obj
 0003:00003720       ??_C@_07MIHF@C?$KLn?5L?$KLn?$AA@ 004ad720     UiTeamManage.obj
 0003:00003728       ??_C@_07PLLN@V?b?5?$KHang?$AA@ 004ad728     UiTeamManage.obj
 0003:00003730       ??_C@_0L@LCJA@Thi?$KKn?5Nh?In?$AA@ 004ad730     UiTeamManage.obj
 0003:0000373c       ??_C@_08KCJC@C?$LIi?5Bang?$AA@ 004ad73c     UiTeamManage.obj
 0003:00003748       ??_C@_08GEAN@Th?sy?5Y?$KKn?$AA@ 004ad748     UiTeamManage.obj
 0003:00003754       ??_C@_06LPAC@Nga?5My?$AA@  004ad754     UiTeamManage.obj
 0003:0000375c       ??_C@_07IDOF@Ng?r?5?$KH?ic?$AA@ 004ad75c     UiTeamManage.obj
 0003:00003764       ??_C@_09JLJJ@?$KH?$KN?jng?5M?$KLn?$AA@ 004ad764     UiTeamManage.obj
 0003:00003770       ??_C@_0M@JDKP@Thi?$KKn?5V?$KN?$KMng?$AA@ 004ad770     UiTeamManage.obj
 0003:0000377c       ??_C@_09KENP@Thi?Uu?5L?$KJm?$AA@ 004ad77c     UiTeamManage.obj
 0003:00003788       ??_C@_07GOOF@Team_?$CFd?$AA@ 004ad788     UiTeamStatus.obj
 0003:00003790       ??_C@_09CAII@IconCount?$AA@ 004ad790     UiTeamStatus.obj
 0003:0000379c       ??_C@_0L@JBKA@IconHeight?$AA@ 004ad79c     UiTeamStatus.obj
 0003:000037a8       ??_C@_09KLOE@IconWidth?$AA@ 004ad7a8     UiTeamStatus.obj
 0003:000037b4       ??_C@_0BB@BDLC@UiTeamStatus?4ini?$AA@ 004ad7b4     UiTeamStatus.obj
 0003:000037c8       ??_C@_09PINN@RectColor?$AA@ 004ad7c8     UiChatItemInfo.obj
 0003:000037d4       ??_C@_08LOIP@PicColor?$AA@ 004ad7d4     UiChatItemInfo.obj
 0003:000037e0       ??_C@_0BD@CODD@UiChatItemInfo?4ini?$AA@ 004ad7e0     UiChatItemInfo.obj
 0003:000037f4       ??_C@_0O@EAJG@RankWorldText?$AA@ 004ad7f4     UiHeaderControlBar.obj
 0003:00003804       ??_C@_09BIMH@LevelText?$AA@ 004ad804     UiHeaderControlBar.obj
 0003:00003810       ??_C@_0BK@GJEP@?$CFs?2UiHeaderControlBar?4ini?$AA@ 004ad810     UiHeaderControlBar.obj
 0003:0000390c       ??_C@_0BK@LAIG@B?Kt?5ch?U?5?$KO?i?5t?y?5?$KO?ing?5h?ei?5?$KJm?$AA@ 004ad90c     UiMsgCentrePad.obj
 0003:00003928       ??_C@_0BK@ELMP@H?qy?5ch?U?5?$KO?i?5t?y?5?$KO?ing?5h?ei?5?$KJm?$AA@ 004ad928     UiMsgCentrePad.obj
 0003:00003944       ??_C@_03KLCE@Off?$AA@      004ad944     UiMsgCentrePad.obj
 0003:00003948       ??_C@_0BJ@ENLF@UiMsgCentrePad_Right?4ini?$AA@ 004ad948     UiMsgCentrePad.obj
 0003:00003964       ??_C@_0BI@HPJE@UiMsgCentrePad_Left?4ini?$AA@ 004ad964     UiMsgCentrePad.obj
 0003:0000397c       ??_C@_07BDGG@ChatTab?$AA@  004ad97c     UiMsgCentrePad.obj
 0003:00003984       ??_C@_0BA@OFOD@ChatTabLabel_?$CFd?$AA@ 004ad984     UiMsgCentrePad.obj
 0003:00003994       ??_C@_09NIKI@TabButton?$AA@ 004ad994     UiMsgCentrePad.obj
 0003:000039a0       ??_C@_07COCI@XOffset?$AA@  004ad9a0     UiMsgCentrePad.obj
 0003:000039a8       ??_C@_0BE@HOFE@NameTextBorderColor?$AA@ 004ad9a8     UiMsgCentrePad.obj
 0003:000039bc       ??_C@_0O@FIJD@NameTextColor?$AA@ 004ad9bc     UiMsgCentrePad.obj
 0003:000039cc       ??_C@_0BH@IBPD@DefaultChannelSendName?$AA@ 004ad9cc     UiMsgCentrePad.obj
 0003:000039e4       ??_C@_04BGBF@?O?$LF?M?$LD?$AA@ 004ad9e4     UiMsgCentrePad.obj
 0003:000039ec       ??_C@_0P@OMEC@DefaultChannel?$AA@ 004ad9ec     UiMsgCentrePad.obj
 0003:000039fc       ??_C@_0L@FAAI@SendMsgNum?$AA@ 004ad9fc     UiMsgCentrePad.obj
 0003:00003a08       ??_C@_0BA@EHPF@SendMsgInterval?$AA@ 004ada08     UiMsgCentrePad.obj
 0003:00003a18       ??_C@_0L@FEIH@NeverClose?$AA@ 004ada18     UiMsgCentrePad.obj
 0003:00003a24       ??_C@_0M@OALO@MenuBkColor?$AA@ 004ada24     UiMsgCentrePad.obj
 0003:00003a30       ??_C@_09FDNI@TextImage?$AA@ 004ada30     UiMsgCentrePad.obj
 0003:00003a3c       ??_C@_0BE@JHAE@DeactivateMenuImage?$AA@ 004ada3c     UiMsgCentrePad.obj
 0003:00003a50       ??_C@_09DMNE@MenuImage?$AA@ 004ada50     UiMsgCentrePad.obj
 0003:00003a5c       ??_C@_0BD@CPHA@DeactivateMenuText?$AA@ 004ada5c     UiMsgCentrePad.obj
 0003:00003a70       ??_C@_08PPFE@MenuText?$AA@ 004ada70     UiMsgCentrePad.obj
 0003:00003a7c       ??_C@_0L@FOJC@FormatName?$AA@ 004ada7c     UiMsgCentrePad.obj
 0003:00003a88       ??_C@_09BCGC@ShortName?$AA@ 004ada88     UiMsgCentrePad.obj
 0003:00003a94       ??_C@_0BG@OJEE@TextBorderColorOrther?$AA@ 004ada94     UiMsgCentrePad.obj
 0003:00003aac       ??_C@_0BA@DAPO@TextColorOrther?$AA@ 004adaac     UiMsgCentrePad.obj
 0003:00003abc       ??_C@_08LCGJ@Channels?$AA@ 004adabc     UiMsgCentrePad.obj
 0003:00003ac8       ??_C@_04MOFI@?$CFs?$CFd?$AA@ 004adac8     UiMsgCentrePad.obj
 0003:00003ad0       ??_C@_07IADE@Channel?$AA@  004adad0     UiMsgCentrePad.obj
 0003:00003ad8       ??_C@_0BF@HBCP@Stranger_MenuBkColor?$AA@ 004adad8     UiMsgCentrePad.obj
 0003:00003af0       ??_C@_0P@IPLE@Self_TextImage?$AA@ 004adaf0     UiMsgCentrePad.obj
 0003:00003b00       ??_C@_0BD@CKNO@Stranger_TextImage?$AA@ 004adb00     UiMsgCentrePad.obj
 0003:00003b14       ??_C@_0BD@EFNC@Stranger_MenuImage?$AA@ 004adb14     UiMsgCentrePad.obj
 0003:00003b28       ??_C@_0N@OMKA@Friend_Sound?$AA@ 004adb28     UiMsgCentrePad.obj
 0003:00003b38       ??_C@_0BD@LACN@Friend_MenuBkColor?$AA@ 004adb38     UiMsgCentrePad.obj
 0003:00003b4c       ??_C@_0BB@CLBA@Friend_TextImage?$AA@ 004adb4c     UiMsgCentrePad.obj
 0003:00003b60       ??_C@_0BB@EEBM@Friend_MenuImage?$AA@ 004adb60     UiMsgCentrePad.obj
 0003:00003b74       ??_C@_0BG@EMBO@TextBorderColorFriend?$AA@ 004adb74     UiMsgCentrePad.obj
 0003:00003b8c       ??_C@_0BA@JFKE@TextColorFriend?$AA@ 004adb8c     UiMsgCentrePad.obj
 0003:00003b9c       ??_C@_0BH@CFKN@TextBorderColorUnknown?$AA@ 004adb9c     UiMsgCentrePad.obj
 0003:00003bb4       ??_C@_0BB@DNHE@TextColorUnknown?$AA@ 004adbb4     UiMsgCentrePad.obj
 0003:00003bc8       ??_C@_0BF@FOC@TextBKColorSelfAlpha?$AA@ 004adbc8     UiMsgCentrePad.obj
 0003:00003be0       ??_C@_0BA@LNNE@TextBKColorSelf?$AA@ 004adbe0     UiMsgCentrePad.obj
 0003:00003bf0       ??_C@_0BE@DNJE@TextBorderColorSelf?$AA@ 004adbf0     UiMsgCentrePad.obj
 0003:00003c04       ??_C@_07KLEC@MSNRoom?$AA@  004adc04     UiMsgCentrePad.obj
 0003:00003c0c       ??_C@_0O@PHFE@TextColorSelf?$AA@ 004adc0c     UiMsgCentrePad.obj
 0003:00003c1c       ??_C@_0N@FLI@SysRoom_Down?$AA@ 004adc1c     UiMsgCentrePad.obj
 0003:00003c2c       ??_C@_0L@DPMG@SysRoom_Up?$AA@ 004adc2c     UiMsgCentrePad.obj
 0003:00003c38       ??_C@_0N@DBBD@SysRoom_List?$AA@ 004adc38     UiMsgCentrePad.obj
 0003:00003c48       ??_C@_0N@IJM@SysRoom_Open?$AA@ 004adc48     UiMsgCentrePad.obj
 0003:00003c58       ??_C@_07MEOI@SysRoom?$AA@  004adc58     UiMsgCentrePad.obj
 0003:00003c60       ??_C@_08LMDK@ChatRoom?$AA@ 004adc60     UiMsgCentrePad.obj
 0003:00003c6c       ??_C@_0O@JGJK@CheckOffImage?$AA@ 004adc6c     UiMsgCentrePad.obj
 0003:00003c7c       ??_C@_0N@HMIL@CheckOnImage?$AA@ 004adc7c     UiMsgCentrePad.obj
 0003:00003c8c       ??_C@_09EHBC@BorderImg?$AA@ 004adc8c     UiMsgCentrePad.obj
 0003:00003c98       ??_C@_06OEKH@SizeUp?$AA@   004adc98     UiMsgCentrePad.obj
 0003:00003ca0       ??_C@_07OJKP@SizeBtn?$AA@  004adca0     UiMsgCentrePad.obj
 0003:00003ca8       ??_C@_09GDHJ@ShadowBtn?$AA@ 004adca8     UiMsgCentrePad.obj
 0003:00003cb4       ??_C@_07DOKM@MoveImg?$AA@  004adcb4     UiMsgCentrePad.obj
 0003:00003cbc       ??_C@_0M@GLEG@WindowRange?$AA@ 004adcbc     UiMsgCentrePad.obj
 0003:00003cc8       ??_C@_04NNGL@?$LJ?X?$LB?U?$AA@ 004adcc8     UiMsgCentrePad.obj
 0003:00003cd0       ??_C@_04KMAK@?$LE?r?$LP?$KK?$AA@ 004adcd0     UiMsgCentrePad.obj
 0003:00003cd8       ??_C@_09CFEN@BtnCancel?$AA@ 004adcd8     UiMakeAdv.obj
 0003:00003ce4       ??_C@_05LMGI@BtnOK?$AA@    004adce4     UiMakeAdv.obj
 0003:00003cec       ??_C@_09NOPF@AdvEditor?$AA@ 004adcec     UiMakeAdv.obj
 0003:00003cf8       ??_C@_0O@GFNE@UiMakeAdv?4ini?$AA@ 004adcf8     UiMakeAdv.obj
 0003:00003d08       ??_C@_0BI@CILM@Chu?gi?5nh?Kp?5vao?5qu?$LI?5d?$LFi?$CB?$AA@ 004add08     UiMakeAdv.obj
 0003:00003d20       ??_C@_0BJ@EIIC@Chu?gi?5nh?Kp?5v?$LFo?5qu?$LI?5ng?$LOn?$CB?$AA@ 004add20     UiMakeAdv.obj
 0003:00003d3c       ??_C@_04MEEL@Diff?$AA@     004add3c     UiMarket.obj
 0003:00003d44       ??_C@_0M@MFID@MarketGoods?$AA@ 004add44     UiMarket.obj
 0003:00003d50       ??_C@_05IMKO@Start?$AA@    004add50     UiMarket.obj
 0003:00003d58       ??_C@_0M@NOPN@LockCoinTxt?$AA@ 004add58     UiMarket.obj
 0003:00003d64       ??_C@_0O@OGIL@LockCoinTitle?$AA@ 004add64     UiMarket.obj
 0003:00003d74       ??_C@_08NHKJ@PageInfo?$AA@ 004add74     UiMarket.obj
 0003:00003d80       ??_C@_08ELAC@SellType?$AA@ 004add80     UiMarket.obj
 0003:00003d8c       ??_C@_0N@DAOH@ShoppingCart?$AA@ 004add8c     UiMarket.obj
 0003:00003d9c       ??_C@_07NJIL@PrePaid?$AA@  004add9c     UiMarket.obj
 0003:00003da4       ??_C@_0BA@ODNF@?$CFs?2UiMarket?4ini?$AA@ 004adda4     UiMarket.obj
 0003:00003db4       ??_C@_0CE@OAHC@Trinh?5Duyet?5Web?5Khong?5Duoc?5Tim?5T@ 004addb4     UiMarket.obj
 0003:00003dd8       ??_C@_07JAL@NN?5Team?$AA@  004addd8     UiMarket.obj
 0003:00003de0       ??_C@_0N@PCFI@iexplore?4exe?$AA@ 004adde0     UiMarket.obj
 0003:00003df0       ??_C@_0CD@BOOE@C?3?2Program?5Files?2Internet?5Explor@ 004addf0     UiMarket.obj
 0003:00003e14       ??_C@_0CB@LNAA@C?3?2Program?5Files?2Mozilla?5Firefox@ 004ade14     UiMarket.obj
 0003:00003e38       ??_C@_0M@LLHM@firefox?4exe?$AA@ 004ade38     UiMarket.obj
 0003:00003e44       ??_C@_0CH@DJMK@C?3?2Program?5Files?5?$CIx86?$CJ?2Mozilla?5F@ 004ade44     UiMarket.obj
 0003:00003e6c       ??_C@_0CM@GDKJ@C?3?2Program?5Files?2Google?2Chrome?2A@ 004ade6c     UiMarket.obj
 0003:00003e98       ??_C@_0DC@NOHD@C?3?2Program?5Files?5?$CIx86?$CJ?2Google?2Ch@ 004ade98     UiMarket.obj
 0003:00003ecc       ??_C@_04KHOB@open?$AA@     004adecc     UiMarket.obj
 0003:00003ed4       ??_C@_0CE@JKMH@http?3?1?1chuaphattrientinhnangnay?4@ 004aded4     UiMarket.obj
 0003:00003ef8       ??_C@_0L@MNAG@chrome?4exe?$AA@ 004adef8     UiMarket.obj
 0003:00003f04       ??_C@_0BK@HHPE@MarketGoods_imgNewArrival?$AA@ 004adf04     UiMarket.obj
 0003:00003f20       ??_C@_0BF@KNAP@MarketGoods_DisCount?$AA@ 004adf20     UiMarket.obj
 0003:00003f38       ??_C@_0BJ@JBKM@MarketGoods_Price_Number?$AA@ 004adf38     UiMarket.obj
 0003:00003f54       ??_C@_0CB@IOFP@MarketGoods_OriginalPrice_Number@ 004adf54     UiMarket.obj
 0003:00003f78       ??_C@_0BC@GND@MarketGoods_Price?$AA@ 004adf78     UiMarket.obj
 0003:00003f8c       ??_C@_0BK@GPEN@MarketGoods_OriginalPrice?$AA@ 004adf8c     UiMarket.obj
 0003:00003fa8       ??_C@_0BG@GINA@MarketGoods_GoodsName?$AA@ 004adfa8     UiMarket.obj
 0003:00003fc0       ??_C@_0BA@KCMA@MarketGoods_Buy?$AA@ 004adfc0     UiMarket.obj
 0003:00003fd0       ??_C@_0BE@CGOI@MarketGoods_ItemBox?$AA@ 004adfd0     UiMarket.obj
 0003:00003fe4       ??_C@_0N@HBB@UiMarket?4ini?$AA@ 004adfe4     UiMarket.obj
 0003:00003ff4       ??_C@_09KBMN@Gi?$LI?5th?yc?3?$AA@ 004adff4     UiMarket.obj
 0003:00004000       ??_C@_08KPNP@Gi?$LI?5g?hc?3?$AA@ 004ae000     UiMarket.obj
 0003:0000400c       ??_C@_0L@IDGP@PriceInput?$AA@ 004ae00c     UiMarkPrice.obj
 0003:00004018       ??_C@_0L@OKBL@ObjectName?$AA@ 004ae018     UiMarkPrice.obj
 0003:00004024       ??_C@_0BA@NHJD@UiMarkPrice?4ini?$AA@ 004ae024     UiMarkPrice.obj
 0003:00004034       ??_C@_05LKOI@Owner?$AA@    004ae034     UiPlayerShop.obj
 0003:0000403c       ??_C@_0BE@LCEG@?$CFs?2UiPlayerShop?4ini?$AA@ 004ae03c     UiPlayerShop.obj
 0003:00004050       ??_C@_09PMPL@RepairBtn?$AA@ 004ae050     UiShop.obj
 0003:0000405c       ??_C@_07NPGG@SellBtn?$AA@  004ae05c     UiShop.obj
 0003:00004064       ??_C@_06PKOP@BuyBtn?$AA@   004ae064     UiShop.obj
 0003:0000406c       ??_C@_0O@POAN@?$CFs?2UiShop?4ini?$AA@ 004ae06c     UiShop.obj
 0003:0000407c       ??_C@_0FH@HLFI@?Jn?5gi?w?5?$DMcolor?$DNgreen?$DOShift?5?$CL?5chu?i@ 004ae07c     UiShop.obj
 0003:000040d4       ??_C@_0N@DMIC@OwnValueText?$AA@ 004ae0d4     UiShoppingCart.obj
 0003:000040e4       ??_C@_0BD@NMNC@TotalSaveValueText?$AA@ 004ae0e4     UiShoppingCart.obj
 0003:000040f8       ??_C@_0BD@PKHB@TotalCostValueText?$AA@ 004ae0f8     UiShoppingCart.obj
 0003:0000410c       ??_C@_0N@GDC@OwnTitleText?$AA@ 004ae10c     UiShoppingCart.obj
 0003:0000411c       ??_C@_0BD@OGGC@TotalSaveTitleText?$AA@ 004ae11c     UiShoppingCart.obj
 0003:00004130       ??_C@_0BD@MAMB@TotalCostTitleText?$AA@ 004ae130     UiShoppingCart.obj
 0003:00004144       ??_C@_0M@KGEN@TitleHeader?$AA@ 004ae144     UiShoppingCart.obj
 0003:00004150       ??_C@_0L@JOIA@ConfirmBuy?$AA@ 004ae150     UiShoppingCart.obj
 0003:0000415c       ??_C@_0BG@FMIB@?$CFs?2UiShoppingCart?4ini?$AA@ 004ae15c     UiShoppingCart.obj
 0003:00004174       ??_C@_0BE@IFLA@GoodsInfo_CountEdit?$AA@ 004ae174     UiShoppingCart.obj
 0003:00004188       ??_C@_0BD@DMKH@GoodsInfo_DelCount?$AA@ 004ae188     UiShoppingCart.obj
 0003:0000419c       ??_C@_0BD@NHKH@GoodsInfo_AddCount?$AA@ 004ae19c     UiShoppingCart.obj
 0003:000041b0       ??_C@_0BF@HNLJ@GoodsInfo_TotalPrice?$AA@ 004ae1b0     UiShoppingCart.obj
 0003:000041c8       ??_C@_0BE@KMJA@GoodsInfo_GoodsName?$AA@ 004ae1c8     UiShoppingCart.obj
 0003:000041dc       ??_C@_0BC@BJHF@GoodsInfo_DelItem?$AA@ 004ae1dc     UiShoppingCart.obj
 0003:000041f0       ??_C@_0BC@BGMO@GoodsInfo_ItemBox?$AA@ 004ae1f0     UiShoppingCart.obj
 0003:00004204       ??_C@_09NLGG@GoodsInfo?$AA@ 004ae204     UiShoppingCart.obj
 0003:00004210       ??_C@_0BD@JCMM@UiShoppingCart?4ini?$AA@ 004ae210     UiShoppingCart.obj
 0003:00004224       ??_C@_0P@MFIF@?$CFs?2UiTrade?4ini?$AA@ 004ae224     UiTrade.obj
 0003:00004234       ??_C@_0P@JCJI@UnlockMsgColor?$AA@ 004ae234     UiTrade.obj
 0003:00004244       ??_C@_0N@FFE@LockMsgColor?$AA@ 004ae244     UiTrade.obj
 0003:00004254       ??_C@_0BC@CIFL@WaitTradeMsgColor?$AA@ 004ae254     UiTrade.obj
 0003:00004268       ??_C@_0M@ONEK@255?0255?0255?$AA@ 004ae268     UiTrade.obj
 0003:00004274       ??_C@_0L@PICC@OtherMoney?$AA@ 004ae274     UiTrade.obj
 0003:00004280       ??_C@_0O@PMHB@OtherItemsBox?$AA@ 004ae280     UiTrade.obj
 0003:00004290       ??_C@_09HFPD@OtherName?$AA@ 004ae290     UiTrade.obj
 0003:0000429c       ??_C@_0M@GFHK@ReduceMoney?$AA@ 004ae29c     UiTrade.obj
 0003:000042a8       ??_C@_08CKJO@AddMoney?$AA@ 004ae2a8     UiTrade.obj
 0003:000042b4       ??_C@_08NCNJ@TradeBtn?$AA@ 004ae2b4     UiTrade.obj
 0003:000042c0       ??_C@_09KAEK@SelfMoney?$AA@ 004ae2c0     UiTrade.obj
 0003:000042cc       ??_C@_0N@OOBN@SelfItemsBox?$AA@ 004ae2cc     UiTrade.obj
 0003:000042dc       ??_C@_0O@EPGK@TakewithMoney?$AA@ 004ae2dc     UiTrade.obj
 0003:000042ec       ??_C@_0BB@EMEF@TakewithItemsBox?$AA@ 004ae2ec     UiTrade.obj
 0003:00004300       ??_C@_0BH@DHNB@?$KH?hi?5ph?$KN?$KMng?5ch?$KNa?5?$KO?eng?5?$PN?$AA@ 004ae300     UiTrade.obj
 0003:00004318       ??_C@_0BF@JMKH@?$KH?hi?5ph?$KN?$KMng?5?$KO?$LH?5?$KO?eng?5?$PN?$AA@ 004ae318     UiTrade.obj
 0003:00004330       ??_C@_0N@HEGG@Ch?j?5x?$LIc?5nh?Kn?$AA@ 004ae330     UiTrade.obj
 0003:00004340       ??_C@_08OHPC@Decrease?$AA@ 004ae340     UiTradeConfirmWnd.obj
 0003:0000434c       ??_C@_08MJAB@Increase?$AA@ 004ae34c     UiTradeConfirmWnd.obj
 0003:00004358       ??_C@_09JOGK@BuyNumber?$AA@ 004ae358     UiTradeConfirmWnd.obj
 0003:00004364       ??_C@_09KNAN@RepairImg?$AA@ 004ae364     UiTradeConfirmWnd.obj
 0003:00004370       ??_C@_07NHNC@SaleImg?$AA@  004ae370     UiTradeConfirmWnd.obj
 0003:00004378       ??_C@_06KLBJ@BuyImg?$AA@   004ae378     UiTradeConfirmWnd.obj
 0003:00004380       ??_C@_0N@CDCK@CantBuyColor?$AA@ 004ae380     UiTradeConfirmWnd.obj
 0003:00004390       ??_C@_05FMHM@Price?$AA@    004ae390     UiTradeConfirmWnd.obj
 0003:00004398       ??_C@_08FALO@ItemName?$AA@ 004ae398     UiTradeConfirmWnd.obj
 0003:000043a4       ??_C@_0BG@IIK@UiTradeConfirmWnd?4ini?$AA@ 004ae3a4     UiTradeConfirmWnd.obj
 0003:000043bc       ?g_ActionName@@3PAY0CA@DA  004ae3bc     UiGame.obj
 0003:0000453c       ??_C@_0BD@MNBP@UiNotification?4ini?$AA@ 004ae53c     UiNotification.obj
 0003:00004550       ??_C@_08DIP@H?V?5Th?hng?$AA@ 004ae550     UiSysMsgCentre.obj
 0003:0000455c       ??_C@_0BI@IHPD@SysMsgDisappearInterval?$AA@ 004ae55c     UiSysMsgCentre.obj
 0003:00004574       ??_C@_0BD@FHCP@SysMsgMoveInterval?$AA@ 004ae574     UiSysMsgCentre.obj
 0003:00004588       ??_C@_0BD@IENN@UiSysMsgCentre?4ini?$AA@ 004ae588     UiSysMsgCentre.obj
 0003:0000459c       ??_C@_0P@HMHL@NormalMsgColor?$AA@ 004ae59c     UiSysMsgCentre.obj
 0003:000045ac       ??_C@_0L@MFLD@MsgIcon_?$CFd?$AA@ 004ae5ac     UiSysMsgCentre.obj
 0003:000045b8       ??_C@_07NDE@MsgText?$AA@   004ae5b8     UiSysMsgCentre.obj
 0003:000045c0       ??_C@_08BANN@Xem?5nh?Q?5?$AA@ 004ae5c0     UiSysMsgCentre.obj
 0003:000045cc       ??_C@_08EPHM@C?y?5tuy?Vt?$AA@ 004ae5cc     UiSysMsgCentre.obj
 0003:000045d8       ??_C@_06FFMF@?$KH?eng?5?$PN?$AA@ 004ae5d8     UiSysMsgCentre.obj
 0003:000045e0       ??_C@_0BK@JFOE@?$CFs?5mu?hn?5xin?5v?$LFo?5bang?5h?ii?$CB?$AA@ 004ae5e0     UiSysMsgCentre.obj
 0003:000045fc       ??_C@_0BL@MANE@?$CFs?5mu?hn?5giao?5d?$NOch?5v?mi?5b?$LJn?$CB?$AA@ 004ae5fc     UiSysMsgCentre.obj
 0003:00004618       ??_C@_0CL@KGPE@?$CFs?5mong?5mu?hn?5c?ong?5ng?$KN?ji?5tr?k?5th?$LFn@ 004ae618     UiSysMsgCentre.obj
 0003:00004644       ??_C@_0BO@ENPI@?$CFs?5xin?5gia?5nh?Kp?5nh?cm?5c?qa?5b?$LJn?$CB?$AA@ 004ae644     UiSysMsgCentre.obj
 0003:00004664       ??_C@_0BJ@KKFF@?$CFs?5m?ji?5b?$LJn?5tham?5gia?5?$KO?ii?$CB?$AA@ 004ae664     UiSysMsgCentre.obj
 0003:00004680       ??_C@_04CJMG@Sign?$AA@     004ae680     UiCaveMap.obj
 0003:00004688       ??_C@_07CGIM@CaveMap?$AA@  004ae688     UiCaveMap.obj
 0003:00004690       ??_C@_0P@OMKG@?2UiCaveMap?4ini?$AA@ 004ae690     UiCaveMap.obj
 0003:000046a0       ??_C@_09PDBN@?$CFd_MapPos?$AA@ 004ae6a0     UiCaveMap.obj
 0003:000046ac       ??_C@_0BG@HNC@?2Settings?2MapList?4ini?$AA@ 004ae6ac     UiCaveMap.obj
 0003:000046c4       ??_C@_0BF@NDCC@Nh?Kp?5t?da?5?$KO?i?5?$KO?$NNch?5?$KO?Un?$AA@ 004ae6c4     UiFindPos.obj
 0003:000046dc       ??_C@_07KPBG@Input_Y?$AA@  004ae6dc     UiFindPos.obj
 0003:000046e4       ??_C@_07FIB@Input_X?$AA@   004ae6e4     UiFindPos.obj
 0003:000046ec       ??_C@_07MBGO@Symbols?$AA@  004ae6ec     UiFindPos.obj
 0003:000046f4       ??_C@_0O@HPA@UiFindPos?4ini?$AA@ 004ae6f4     UiFindPos.obj
 0003:00004704       ??_C@_0BN@JGOF@Vui?5l?$NPng?5nh?Kp?5t?da?5?$KO?i?5h?np?5l?V?$CB?$AA@ 004ae704     UiFindPos.obj
 0003:00004724       ?s_ModeName@@3PAPBDA       004ae724     UiMiniMap.obj
 0003:0000473c       ??_C@_0O@CHFD@?5?$KH?cng?5b?$LGn?5?$KO?e?5?$AA@ 004ae73c     UiMiniMap.obj
 0003:0000474c       ??_C@_0BA@KMOM@B?$LGn?5?$KO?e?5s?$KMn?5?$KO?ing?$AA@ 004ae74c     UiMiniMap.obj
 0003:0000475c       ??_C@_0BA@BAFJ@B?$LGn?5?$KO?e?5th?U?5gi?mi?$AA@ 004ae75c     UiMiniMap.obj
 0003:0000476c       ??_C@_0L@LHIG@B?$LGn?5?$KO?e?5l?mn?$AA@ 004ae76c     UiMiniMap.obj
 0003:00004778       ??_C@_0L@EADN@B?$LGn?5?$KO?e?5nh?a?$AA@ 004ae778     UiMiniMap.obj
 0003:00004784       ??_C@_0BC@HPPC@UiMiniMap_Big?4ini?$AA@ 004ae784     UiMiniMap.obj
 0003:00004798       ??_C@_0BE@JAA@UiMiniMap_Small?4ini?$AA@ 004ae798     UiMiniMap.obj
 0003:000047ac       ??_C@_0BE@OCIM@UiMiniMapNotpic?4ini?$AA@ 004ae7ac     UiMiniMap.obj
 0003:000047c0       ??_C@_09KNBA@FlagImage?$AA@ 004ae7c0     UiMiniMap.obj
 0003:000047cc       ??_C@_07CFDH@MapRect?$AA@  004ae7cc     UiMiniMap.obj
 0003:000047d4       ??_C@_0L@DDGK@PriceParam?$AA@ 004ae7d4     UiMiniMap.obj
 0003:000047e0       ??_C@_0M@ECAL@ExchangeTax?$AA@ 004ae7e0     UiMiniMap.obj
 0003:000047ec       ??_C@_0L@NPN@TongMaster?$AA@ 004ae7ec     UiMiniMap.obj
 0003:000047f8       ??_C@_08EHHP@TongName?$AA@ 004ae7f8     UiMiniMap.obj
 0003:00004804       ??_C@_07LLKG@BtnFlag?$AA@  004ae804     UiMiniMap.obj
 0003:0000480c       ??_C@_0L@JEHI@CaveMapBtn?$AA@ 004ae80c     UiMiniMap.obj
 0003:00004818       ??_C@_0M@KMIG@WorldMapBtn?$AA@ 004ae818     UiMiniMap.obj
 0003:00004824       ??_C@_09HCDC@SwitchBtn?$AA@ 004ae824     UiMiniMap.obj
 0003:00004830       ??_C@_08GGHJ@ScenePos?$AA@ 004ae830     UiMiniMap.obj
 0003:0000483c       ??_C@_09KBBA@SceneName?$AA@ 004ae83c     UiMiniMap.obj
 0003:00004848       ??_C@_0L@HAP@NameShadow?$AA@ 004ae848     UiMiniMap.obj
 0003:00004854       ??_C@_07KEPK@MiniMap?$AA@  004ae854     UiMiniMap.obj
 0003:0000485c       ??_C@_09CIIH@?$CFd?1?$CFd?5T?Wm?$AA@ 004ae85c     UiMiniMap.obj
 0003:00004868       ??_C@_04GHOA@dali?$AA@     004ae868     UiWorldMap.obj
 0003:00004870       ??_C@_07FBED@chengdu?$AA@  004ae870     UiWorldMap.obj
 0003:00004878       ??_C@_09PMLF@xiangyang?$AA@ 004ae878     UiWorldMap.obj
 0003:00004884       ??_C@_05PDEO@linan?$AA@    004ae884     UiWorldMap.obj
 0003:0000488c       ??_C@_08NEDA@yangzhou?$AA@ 004ae88c     UiWorldMap.obj
 0003:00004898       ??_C@_08LCNO@bianjing?$AA@ 004ae898     UiWorldMap.obj
 0003:000048a4       ??_C@_09JFEI@fengxiang?$AA@ 004ae8a4     UiWorldMap.obj
 0003:000048b0       ??_C@_0M@BKDE@BtnStartPos?$AA@ 004ae8b0     UiWorldMap.obj
 0003:000048bc       ??_C@_05CIMI@Field?$AA@    004ae8bc     UiWorldMap.obj
 0003:000048c4       ??_C@_04DLFA@Cave?$AA@     004ae8c4     UiWorldMap.obj
 0003:000048cc       ??_C@_07KPAD@Capital?$AA@  004ae8cc     UiWorldMap.obj
 0003:000048d4       ??_C@_04NBCE@City?$AA@     004ae8d4     UiWorldMap.obj
 0003:000048dc       ??_C@_07FNCB@Country?$AA@  004ae8dc     UiWorldMap.obj
 0003:000048e4       ??_C@_08MJMD@WorldMap?$AA@ 004ae8e4     UiWorldMap.obj
 0003:000048f0       ??_C@_0BA@HPCB@?2UiWorldMap?4ini?$AA@ 004ae8f0     UiWorldMap.obj
 0003:00004900       ??_C@_0L@PLLC@?$CFd_MapType?$AA@ 004ae900     UiWorldMap.obj
 0003:0000490c       ??_C@_09DIJP@ColorList?$AA@ 004ae90c     UiSelColor.obj
 0003:00004918       ??_C@_0BC@JMEP@?$CFs?2UiSelColor?4ini?$AA@ 004ae918     UiSelColor.obj
 0003:0000492c       ??_C@_0M@NFEL@AdvanceList?$AA@ 004ae92c     UiNewPlayerStartMsg.obj
 0003:00004938       ??_C@_0BF@HJPE@?2Ui?2NewEnterInfo?4ini?$AA@ 004ae938     UiNewPlayerStartMsg.obj
 0003:00004950       ??_C@_0BA@JE@AdvanceNewerBtn?$AA@ 004ae950     UiNewPlayerStartMsg.obj
 0003:00004960       ??_C@_08IJND@NewerBtn?$AA@ 004ae960     UiNewPlayerStartMsg.obj
 0003:0000496c       ??_C@_0BI@DKEF@UiNewPlayerStartMsg?4ini?$AA@ 004ae96c     UiNewPlayerStartMsg.obj
 0003:00004984       ??_C@_0BG@PLIA@KLVideoSetSoundVolume?$AA@ 004ae984     UiPlayVideo.obj
 0003:0000499c       ??_C@_0BH@HFEM@KLVideoGetCurrentFrame?$AA@ 004ae99c     UiPlayVideo.obj
 0003:000049b4       ??_C@_0BB@FBDB@KLVideoNextFrame?$AA@ 004ae9b4     UiPlayVideo.obj
 0003:000049c8       ??_C@_0P@DNMI@KLVideoDoFrame?$AA@ 004ae9c8     UiPlayVideo.obj
 0003:000049d8       ??_C@_0BE@HMOK@KLVideoCopyToBuffer?$AA@ 004ae9d8     UiPlayVideo.obj
 0003:000049ec       ??_C@_0M@LNHM@KLVideoWait?$AA@ 004ae9ec     UiPlayVideo.obj
 0003:000049f8       ??_C@_0N@BFDO@KLVideoClose?$AA@ 004ae9f8     UiPlayVideo.obj
 0003:00004a08       ??_C@_0M@PGKJ@KLVideoOpen?$AA@ 004aea08     UiPlayVideo.obj
 0003:00004a14       ??_C@_0BF@IMFE@KLVideoSetSoundTrack?$AA@ 004aea14     UiPlayVideo.obj
 0003:00004a2c       ??_C@_0BG@MMNP@KLVideoSetSoundSystem?$AA@ 004aea2c     UiPlayVideo.obj
 0003:00004a44       ??_C@_0M@LCNM@KLVideo?4dll?$AA@ 004aea44     UiPlayVideo.obj
 0003:00004a50       ??_C@_0P@KIEE@VideoBitmap_?$CFd?$AA@ 004aea50     UiPlayVideo.obj
 0003:00004a60       ??_C@_0O@PELD@KeyboardImage?$AA@ 004aea60     UiHelper.obj
 0003:00004a70       ??_C@_0M@FACA@WuxingImage?$AA@ 004aea70     UiHelper.obj
 0003:00004a7c       ??_C@_0N@ODBG@UiHelper?4ini?$AA@ 004aea7c     UiHelper.obj
 0003:00004a8c       ??_C@_0O@CEBJ@MessageScroll?$AA@ 004aea8c     UiHelper2.obj
 0003:00004a9c       ??_C@_0M@OFPN@IndexScroll?$AA@ 004aea9c     UiHelper2.obj
 0003:00004aa8       ??_C@_09FFOM@IndexList?$AA@ 004aeaa8     UiHelper2.obj
 0003:00004ab4       ??_C@_09DAPA@BtnWuxing?$AA@ 004aeab4     UiHelper2.obj
 0003:00004ac0       ??_C@_0M@KFLG@BtnKeyboard?$AA@ 004aeac0     UiHelper2.obj
 0003:00004acc       ??_C@_06LHJM@BtnPic?$AA@   004aeacc     UiHelper2.obj
 0003:00004ad4       ??_C@_08CLCB@BtnClose?$AA@ 004aead4     UiHelper2.obj
 0003:00004ae0       ??_C@_0O@HJAJ@UiHelper2?4ini?$AA@ 004aeae0     UiHelper2.obj
 0003:00004af0       ??_C@_0O@MACM@?$CFd_IniSection?$AA@ 004aeaf0     UiHelper2.obj
 0003:00004b00       ??_C@_06NIJP@?$CFd_Ini?$AA@ 004aeb00     UiHelper2.obj
 0003:00004b08       ??_C@_0N@POM@HelpList?4ini?$AA@ 004aeb08     UiHelper2.obj
 0003:00004b18       ??_C@_07CJHM@Content?$AA@  004aeb18     UiHelperMission.obj
 0003:00004b20       ??_C@_0BE@DBCC@UiHelperMission?4ini?$AA@ 004aeb20     UiHelperMission.obj
 0003:00004b34       ??_C@_0BE@FOLH@HelpListMission?4ini?$AA@ 004aeb34     UiHelperMission.obj
 0003:00004b48       ?m_uLastReconnectTime@@3IA 004aeb48     UiReconnect.obj
 0003:00004b4c       ??_C@_0BH@ENGJ@AutoReconnectHideTimes?$AA@ 004aeb4c     UiReconnect.obj
 0003:00004b64       ??_C@_02MDKJ@21?$AA@       004aeb64     UiReconnect.obj
 0003:00004b68       ??_C@_0DP@KHCA@?$KHang?5th?yc?5hi?Vn?5k?Ut?5n?hi?5l?$LJi?5l?Gn?5t@ 004aeb68     UiReconnect.obj
 0003:00004ba8       ??_C@_0ED@HDMO@T?$LFi?5kho?$LGn?5?$KO?$LH?5h?Ut?5h?$LJn?0?5vui?5l?$NPng?5g@ 004aeba8     UiReconnect.obj
 0003:00004bec       ??_C@_0BM@HFGM@?$KHang?5?$KO?$KIng?5nh?Kp?5v?$LFo?5tr?$NP?5ch?$KMi?$AA@ 004aebec     UiReconnect.obj
 0003:00004c08       ??_C@_0BF@LAGL@?$KHang?5k?Ut?5n?hi?5m?$LIy?5ch?q?$AA@ 004aec08     UiReconnect.obj
 0003:00004c20       ??_C@_0BB@HLPJ@?$KHang?5l?Jy?5d?w?5li?Vu?$AA@ 004aec20     UiReconnect.obj
 0003:00004c34       ??_C@_0BM@EKIE@?$KHang?5l?Jy?5th?$KLng?5tin?5nh?$KJn?5v?Kt?$AA@ 004aec34     UiReconnect.obj
 0003:00004c50       ??_C@_0CE@PBDL@?$KHang?5x?$LIc?5th?yc?5t?$LFi?5kho?$LGn?5v?$LF?5m?Kt?5k@ 004aec50     UiReconnect.obj
 0003:00004c74       ??_C@_0BG@CKLL@K?Ut?5n?hi?5l?$LJi?5th?Jt?5b?$LJi?4?$AA@ 004aec74     UiReconnect.obj
 0003:00004c8c       ??_C@_07ILGE@K?Ut?5n?hi?$AA@ 004aec8c     UiReconnect.obj
 0003:00004c94       ??_C@_0CD@ECBP@Sau?5?$CFd?5gi?$KJy?5ti?Un?5h?$LFnh?5t?$LIi?5k?Ut?5n?h@ 004aec94     UiReconnect.obj
 0003:00004cb8       ??_C@_0DG@CKLL@K?Ut?5n?hi?5l?$LJi?5l?Gn?5th?x?5?$DMcolor?$DNred?$DO?$CF@ 004aecb8     UiReconnect.obj
 0003:00004cf0       ??_C@_0HH@GBDC@B?$LJn?5kh?$KLng?5c?c?5?$KO?q?5?$DMcolor?$DNgreen?$DO5?$DMc@ 004aecf0     UiRevive.obj
 0003:00004d68       ??_C@_08OBGN@V?R?5th?$LFnh?$AA@ 004aed68     UiRevive.obj
 0003:00004d74       ??_C@_0EK@LCEO@B?$LJn?5?$KO?$LH?5b?$NO?5tr?dng?5th?$KN?$KMng?4?5T?y?5?$KO?ing?5@ 004aed74     UiRevive.obj
 0003:00004dc0       ??_C@_0BC@NBLJ@MissionMemory?4dat?$AA@ 004aedc0     UiTaskDataFile.obj
 0003:00004dd4       ??_C@_0N@HDEK@EditorScroll?$AA@ 004aedd4     UiTaskNote.obj
 0003:00004de4       ??_C@_06NJIA@Editor?$AA@   004aede4     UiTaskNote.obj
 0003:00004dec       ??_C@_07MFBB@SaveBtn?$AA@  004aedec     UiTaskNote.obj
 0003:00004df4       ??_C@_0BI@KCHJ@UiTaskNote_Personal?4ini?$AA@ 004aedf4     UiTaskNote.obj
 0003:00004e0c       ??_C@_09KILI@DeleteBtn?$AA@ 004aee0c     UiTaskNote.obj
 0003:00004e18       ??_C@_0BG@GLN@UiTaskNote_System?4ini?$AA@ 004aee18     UiTaskNote.obj
 0003:00004e30       ??_C@_0M@IEOF@PersonalBtn?$AA@ 004aee30     UiTaskNote.obj
 0003:00004e3c       ??_C@_09DDLI@SystemBtn?$AA@ 004aee3c     UiTaskNote.obj
 0003:00004e48       ??_C@_0P@FPEL@UiTaskNote?4ini?$AA@ 004aee48     UiTaskNote.obj
 0003:00004e58       ??_C@_0BH@JGOE@?2Ui?2DefaultMessage?4ini?$AA@ 004aee58     UiNewsMessage.obj
 0003:00004e70       ??_C@_0P@JMLN@ScrollInterval?$AA@ 004aee70     UiNewsMessage.obj
 0003:00004e80       ??_C@_0N@ENDL@ShowInterval?$AA@ 004aee80     UiNewsMessage.obj
 0003:00004e90       ??_C@_0M@PICF@MaxIdleTime?$AA@ 004aee90     UiNewsMessage.obj
 0003:00004e9c       ??_C@_0BC@DBGF@UiNewsMessage?4ini?$AA@ 004aee9c     UiNewsMessage.obj
 0003:00004eb0       ??_C@_0BE@JLIA@UiNewsMessageEx?4ini?$AA@ 004aeeb0     UiNewsMessageEx.obj
 0003:00004ec4       ??_C@_09MBCL@ListCount?$AA@ 004aeec4     UiStrengthRank.obj
 0003:00004ed0       ??_C@_0BA@BKMP@?2Ui?2RankMap?4ini?$AA@ 004aeed0     UiStrengthRank.obj
 0003:00004ee0       ??_C@_09OCEI@DefaultID?$AA@ 004aeee0     UiStrengthRank.obj
 0003:00004eec       ??_C@_09KPNI@SteadyPic?$AA@ 004aeeec     UiStrengthRank.obj
 0003:00004ef8       ??_C@_07JCOI@DownPic?$AA@  004aeef8     UiStrengthRank.obj
 0003:00004f00       ??_C@_05PAAH@UpPic?$AA@    004aef00     UiStrengthRank.obj
 0003:00004f08       ??_C@_0BD@LNNA@UiStrengthRank?4ini?$AA@ 004aef08     UiStrengthRank.obj
 0003:00004f1c       ??_C@_0BB@LLJJ@RankTempData?4ini?$AA@ 004aef1c     UiStrengthRank.obj
 0003:00004f30       ??_C@_0M@CLBM@?$CFd_SortFlag?$AA@ 004aef30     UiStrengthRank.obj
 0003:00004f3c       ??_C@_0L@DDOP@?$CFd_Appened?$AA@ 004aef3c     UiStrengthRank.obj
 0003:00004f48       ??_C@_05MDEG@?$CFd_ID?$AA@ 004aef48     UiStrengthRank.obj
 0003:00004f50       ??_C@_05BFNK@Index?$AA@    004aef50     UiStrengthRank.obj
 0003:00004f58       ??_C@_05JKGE@?$CFs?5?$CFs?$AA@ 004aef58     UiStrengthRank.obj
 0003:00004f60       ??_C@_0M@LNCE@TS?3?5?$CFd?5?9?5?$CFd?$AA@ 004aef60     UiStrengthRank.obj
 0003:00004f6c       ??_C@_01IJJ@c?$AA@         004aef6c     UiStrengthRank.obj
 0003:00004f70       ??_C@_07IECN@?$CFd_Unit?$AA@ 004aef70     UiStrengthRank.obj
 0003:00004f78       ??_C@_08GEJK@?$CFd_Title?$AA@ 004aef78     UiStrengthRank.obj
 0003:00004f84       ??_C@_01LLF@w?$AA@         004aef84     UiStrengthRank.obj
 0003:00004f88       ??_C@_01LHO@r?$AA@         004aef88     UiStrengthRank.obj
 0003:00004f8c       ??_C@_0L@NKEA@BtnConfirm?$AA@ 004aef8c     UiPopupPasswordQuery.obj
 0003:00004f98       ??_C@_0BB@HCNC@?C?$NM?B?k?Q?$KP?N?J?$LE?$LA?$LP?Z?4ini?$AA@ 004aef98     UiPopupPasswordQuery.obj
 0003:00004fac       ??_C@_0O@HAHO@WithoutFigure?$AA@ 004aefac     UiTongAssignBox.obj
 0003:00004fbc       ??_C@_0N@PHPD@AssignString?$AA@ 004aefbc     UiTongAssignBox.obj
 0003:00004fcc       ??_C@_08CG@ErrorBox?$AA@   004aefcc     UiTongAssignBox.obj
 0003:00004fd8       ??_C@_0L@FLCK@PlayerName?$AA@ 004aefd8     UiTongAssignBox.obj
 0003:00004fe4       ??_C@_0M@OAOK@BtnDirector?$AA@ 004aefe4     UiTongAssignBox.obj
 0003:00004ff0       ??_C@_0L@LMPM@BtnManager?$AA@ 004aeff0     UiTongAssignBox.obj
 0003:00004ffc       ??_C@_09EKED@BtnMember?$AA@ 004aeffc     UiTongAssignBox.obj
 0003:00005008       ??_C@_0BC@LHOM@TitlePositionName?$AA@ 004af008     UiTongAssignBox.obj
 0003:0000501c       ??_C@_0BA@OHAM@TitlePlayerName?$AA@ 004af01c     UiTongAssignBox.obj
 0003:0000502c       ??_C@_0BE@OIPL@UiTongAssignBox?4ini?$AA@ 004af02c     UiTongAssignBox.obj
 0003:00005040       ??_C@_07NBKC@M?$KLn?5?$KO?V?5?$AA@ 004af040     UiTongAssignBox.obj
 0003:00005048       ??_C@_0L@PPDL@?$KH?ii?5tr?$KN?kng?$AA@ 004af048     UiTongAssignBox.obj
 0003:00005054       ??_C@_0L@OAEG@Tr?$KN?kng?5l?$LHo?$AA@ 004af054     UiTongAssignBox.obj
 0003:00005060       ??_C@_0L@NKDB@TitleInput?$AA@ 004af060     UiTongChangeTitle.obj
 0003:0000506c       ??_C@_0BG@IPII@UiTongChangeTitle?4ini?$AA@ 004af06c     UiTongChangeTitle.obj
 0003:00005084       ??_C@_0P@LPLJ@WithoutFaction?$AA@ 004af084     UiTongCreateSheet.obj
 0003:00005094       ??_C@_0M@JLFH@WithoutName?$AA@ 004af094     UiTongCreateSheet.obj
 0003:000050a0       ??_C@_07IGBG@BtnDone?$AA@  004af0a0     UiTongCreateSheet.obj
 0003:000050a8       ??_C@_0N@LAAM@EditTongName?$AA@ 004af0a8     UiTongCreateSheet.obj
 0003:000050b8       ??_C@_0M@JKAN@TxtTongName?$AA@ 004af0b8     UiTongCreateSheet.obj
 0003:000050c4       ??_C@_0L@CPCI@BtnNatural?$AA@ 004af0c4     UiTongCreateSheet.obj
 0003:000050d0       ??_C@_08BBPO@BtnChaos?$AA@ 004af0d0     UiTongCreateSheet.obj
 0003:000050dc       ??_C@_08INIO@BtnOrder?$AA@ 004af0dc     UiTongCreateSheet.obj
 0003:000050e8       ??_C@_0M@KJDM@TxtTongCamp?$AA@ 004af0e8     UiTongCreateSheet.obj
 0003:000050f4       ??_C@_0BA@HFCO@ImageChangeCamp?$AA@ 004af0f4     UiTongCreateSheet.obj
 0003:00005104       ??_C@_0BA@KKFH@ImageCreateTong?$AA@ 004af104     UiTongCreateSheet.obj
 0003:00005114       ??_C@_08BCBM@ImgTitle?$AA@ 004af114     UiTongCreateSheet.obj
 0003:00005120       ??_C@_0BG@COGF@UiTongCreateSheet?4ini?$AA@ 004af120     UiTongCreateSheet.obj
 0003:00005138       ??_C@_0BG@MIOP@UiTongInformation?4ini?$AA@ 004af138     UiTongInformation.obj
 0003:00005150       ??_C@_0L@JEAD@BtnRefresh?$AA@ 004af150     UiTongManager.obj
 0003:0000515c       ??_C@_0M@MPGN@BtnTongList?$AA@ 004af15c     UiTongManager.obj
 0003:00005168       ??_C@_0M@FKAG@BtnEnterMap?$AA@ 004af168     UiTongManager.obj
 0003:00005174       ??_C@_0M@JGDO@BtnTongHelp?$AA@ 004af174     UiTongManager.obj
 0003:00005180       ??_C@_0O@FDDH@BtnTongRecord?$AA@ 004af180     UiTongManager.obj
 0003:00005190       ??_C@_0P@LBNL@BtnRightManage?$AA@ 004af190     UiTongManager.obj
 0003:000051a0       ??_C@_09IBM@BtnFunUse?$AA@ 004af1a0     UiTongManager.obj
 0003:000051ac       ??_C@_0M@DAHJ@BtnBaseInfo?$AA@ 004af1ac     UiTongManager.obj
 0003:000051b8       ??_C@_0BC@BCFB@UiTongManager?4ini?$AA@ 004af1b8     UiTongManager.obj
 0003:000051cc       ??_C@_07MAGO@?$CFd_Hash?$AA@ 004af1cc     UiTongManager.obj
 0003:000051d4       ??_C@_09NDCP@?$CFd_Figure?$AA@ 004af1d4     UiTongManager.obj
 0003:000051e0       ??_C@_09NDGP@?$CFd_Status?$AA@ 004af1e0     UiTongManager.obj
 0003:000051ec       ??_C@_09IIKC@?$CFd_AgName?$AA@ 004af1ec     UiTongManager.obj
 0003:000051f8       ??_C@_09DDAH@?$CFs_Member?$AA@ 004af1f8     UiTongManager.obj
 0003:00005204       ??_C@_0L@JLIF@?$CFs_Manager?$AA@ 004af204     UiTongManager.obj
 0003:00005210       ??_C@_0M@IHMN@?$CFs_Director?$AA@ 004af210     UiTongManager.obj
 0003:0000521c       ??_C@_0BB@CLAN@TongTempData?4ini?$AA@ 004af21c     UiTongManager.obj
 0003:00005230       ??_C@_0CH@LHIE@Kh?$KLng?5th?S?5th?yc?5hi?Vn?5thao?5t?$LIc?5li?$KK@ 004af230     UiTongManager.obj
 0003:00005258       ??_C@_0L@BID@StringEvil?$AA@ 004af258     UiTongManager.obj
 0003:00005264       ??_C@_0O@DKCH@StringBalance?$AA@ 004af264     UiTongManager.obj
 0003:00005274       ??_C@_0O@HKNH@StringJustice?$AA@ 004af274     UiTongManager.obj
 0003:00005284       ??_C@_0BC@OEDB@BtnOnlinePriority?$AA@ 004af284     UiTongManager.obj
 0003:00005298       ??_C@_0BA@LNMC@EditBoxDestPage?$AA@ 004af298     UiTongManager.obj
 0003:000052a8       ??_C@_07PENM@BtnJump?$AA@  004af2a8     UiTongManager.obj
 0003:000052b0       ??_C@_0M@DJHL@BtnNextPage?$AA@ 004af2b0     UiTongManager.obj
 0003:000052bc       ??_C@_0M@BONK@BtnPrevPage?$AA@ 004af2bc     UiTongManager.obj
 0003:000052c8       ??_C@_07LL@TxtType?$AA@    004af2c8     UiTongManager.obj
 0003:000052d0       ??_C@_08CAGO@TxtTitle?$AA@ 004af2d0     UiTongManager.obj
 0003:000052dc       ??_C@_07GNEA@TxtRank?$AA@  004af2dc     UiTongManager.obj
 0003:000052e4       ??_C@_0P@LAHJ@TxtTongCapital?$AA@ 004af2e4     UiTongManager.obj
 0003:000052f4       ??_C@_0BB@JKEL@TitleTongCapital?$AA@ 004af2f4     UiTongManager.obj
 0003:00005308       ??_C@_0N@PILI@TxtTongLevel?$AA@ 004af308     UiTongManager.obj
 0003:00005318       ??_C@_0P@IAB@TitleTongLevel?$AA@ 004af318     UiTongManager.obj
 0003:00005328       ??_C@_0N@FEIK@TxtMemberNum?$AA@ 004af328     UiTongManager.obj
 0003:00005338       ??_C@_0P@KEDD@TitleMemberNum?$AA@ 004af338     UiTongManager.obj
 0003:00005348       ??_C@_07CELN@TxtCamp?$AA@  004af348     UiTongManager.obj
 0003:00005350       ??_C@_09OAHP@TitleCamp?$AA@ 004af350     UiTongManager.obj
 0003:0000535c       ??_C@_09OEGL@TxtLeague?$AA@ 004af35c     UiTongManager.obj
 0003:00005368       ??_C@_0M@JAMK@TitleLeague?$AA@ 004af368     UiTongManager.obj
 0003:00005374       ??_C@_09KPLG@TxtMaster?$AA@ 004af374     UiTongManager.obj
 0003:00005380       ??_C@_0M@NLBH@TitleMaster?$AA@ 004af380     UiTongManager.obj
 0003:0000538c       ??_C@_0O@CDEN@TitleTongName?$AA@ 004af38c     UiTongManager.obj
 0003:0000539c       ??_C@_0O@HIBK@TitleTongInfo?$AA@ 004af39c     UiTongManager.obj
 0003:000053ac       ??_C@_0P@LLPH@UiTongInfo?4ini?$AA@ 004af3ac     UiTongManager.obj
 0003:000053bc       ??_C@_0N@IFFH@ImgSubPage?$CFd?$AA@ 004af3bc     UiTongManager.obj
 0003:000053cc       ??_C@_0P@FGGC@ImgSubPageMask?$AA@ 004af3cc     UiTongManager.obj
 0003:000053dc       ??_C@_0BB@KBNH@UiTongFunUse?4ini?$AA@ 004af3dc     UiTongManager.obj
 0003:000053f0       ??_C@_0BB@MLN@StrSelfLeaveTong?$AA@ 004af3f0     UiTongManager.obj
 0003:00005404       ??_C@_0BA@HHNH@StrMemberDemise?$AA@ 004af404     UiTongManager.obj
 0003:00005414       ??_C@_0BA@ENCC@StrMemberAssign?$AA@ 004af414     UiTongManager.obj
 0003:00005424       ??_C@_0O@OAJO@StrMemberKick?$AA@ 004af424     UiTongManager.obj
 0003:00005434       ??_C@_0N@FGG@BtnLeaveTong?$AA@ 004af434     UiTongManager.obj
 0003:00005444       ??_C@_0BE@DJON@BtnConfigureTongMap?$AA@ 004af444     UiTongManager.obj
 0003:00005458       ??_C@_0BB@GCCE@BtnCreateTongMap?$AA@ 004af458     UiTongManager.obj
 0003:0000546c       ??_C@_0O@OKAD@BtnChangeCamp?$AA@ 004af46c     UiTongManager.obj
 0003:0000547c       ??_C@_0BD@MKGC@BtnAssignTongMoney?$AA@ 004af47c     UiTongManager.obj
 0003:00005490       ??_C@_0BA@FJNN@BtnGetTongMoney?$AA@ 004af490     UiTongManager.obj
 0003:000054a0       ??_C@_0P@KLKA@BtnChangeTitle?$AA@ 004af4a0     UiTongManager.obj
 0003:000054b0       ??_C@_0BF@GPAE@BtnChangeFemaleTitle?$AA@ 004af4b0     UiTongManager.obj
 0003:000054c8       ??_C@_0BD@BNNF@BtnChangeMaleTitle?$AA@ 004af4c8     UiTongManager.obj
 0003:000054dc       ??_C@_09NGHD@BtnDepose?$AA@ 004af4dc     UiTongManager.obj
 0003:000054e8       ??_C@_0L@PAJF@BtnKickOut?$AA@ 004af4e8     UiTongManager.obj
 0003:000054f4       ??_C@_09PFKP@BtnDemise?$AA@ 004af4f4     UiTongManager.obj
 0003:00005500       ??_C@_0N@LLOB@BtnSubPage?$CFd?$AA@ 004af500     UiTongManager.obj
 0003:00005510       ??_C@_0BC@OJPK@BtnStoreTongMoney?$AA@ 004af510     UiTongManager.obj
 0003:00005524       ??_C@_0O@NOJO@TxtTongMoney2?$AA@ 004af524     UiTongManager.obj
 0003:00005534       ??_C@_0BA@OMGO@TitleTongMoney2?$AA@ 004af534     UiTongManager.obj
 0003:00005544       ??_C@_0BA@HIOM@TxtPersonalInfo?$AA@ 004af544     UiTongManager.obj
 0003:00005554       ??_C@_0N@CAMN@TxtTongMoney?$AA@ 004af554     UiTongManager.obj
 0003:00005564       ??_C@_0P@NAHE@TitleTongMoney?$AA@ 004af564     UiTongManager.obj
 0003:00005574       ??_C@_0N@NMBF@TxtTongUnion?$AA@ 004af574     UiTongManager.obj
 0003:00005584       ??_C@_0P@CMKM@TitleTongUnion?$AA@ 004af584     UiTongManager.obj
 0003:00005594       ??_C@_0O@MLDN@BtnDistribute?$AA@ 004af594     UiTongManager.obj
 0003:000055a4       ??_C@_0N@KKAP@BtnSelectAll?$AA@ 004af5a4     UiTongManager.obj
 0003:000055b4       ??_C@_07EKJD@SubPage?$AA@  004af5b4     UiTongManager.obj
 0003:000055bc       ??_C@_07OEGO@RightID?$AA@  004af5bc     UiTongManager.obj
 0003:000055c4       ??_C@_0L@EAGM@PromptInfo?$AA@ 004af5c4     UiTongManager.obj
 0003:000055d0       ??_C@_0O@NAEF@BtnSubPage_?$CFd?$AA@ 004af5d0     UiTongManager.obj
 0003:000055e0       ??_C@_0BG@GNAG@UiTongRightManage?4ini?$AA@ 004af5e0     UiTongManager.obj
 0003:000055f8       ??_C@_0BA@IOAB@BtnEditAnnounce?$AA@ 004af5f8     UiTongManager.obj
 0003:00005608       ??_C@_0N@BAHO@BtnLeaveWord?$AA@ 004af608     UiTongManager.obj
 0003:00005618       ??_C@_0P@LFJO@AnnounceEditor?$AA@ 004af618     UiTongManager.obj
 0003:00005628       ??_C@_0L@LMB@RecordList?$AA@ 004af628     UiTongManager.obj
 0003:00005634       ??_C@_0P@OKKG@BtnTongHistory?$AA@ 004af634     UiTongManager.obj
 0003:00005644       ??_C@_0O@CJGC@BtnTongAffair?$AA@ 004af644     UiTongManager.obj
 0003:00005654       ??_C@_0M@CNCB@BtnAnnounce?$AA@ 004af654     UiTongManager.obj
 0003:00005660       ??_C@_0N@NDGG@BtnWeekDaily?$AA@ 004af660     UiTongManager.obj
 0003:00005670       ??_C@_0BB@EIHF@UiTongRecord?4ini?$AA@ 004af670     UiTongManager.obj
 0003:00005684       ??_C@_0O@EBHE@DeExchangeTax?$AA@ 004af684     UiTongSetTax .obj
 0003:00005694       ??_C@_0O@HKK@InExchangeTax?$AA@ 004af694     UiTongSetTax .obj
 0003:000056a4       ??_C@_0BA@BKCI@ExchangeTaxEdit?$AA@ 004af6a4     UiTongSetTax .obj
 0003:000056b4       ??_C@_0N@EMNL@DePriceParam?$AA@ 004af6b4     UiTongSetTax .obj
 0003:000056c4       ??_C@_0N@JCCB@InPriceParam?$AA@ 004af6c4     UiTongSetTax .obj
 0003:000056d4       ??_C@_0P@HGEA@PriceParamEdit?$AA@ 004af6d4     UiTongSetTax .obj
 0003:000056e4       ??_C@_0O@JLLO@TongMasterTxt?$AA@ 004af6e4     UiTongSetTax .obj
 0003:000056f4       ??_C@_0M@GPME@TongNameTxt?$AA@ 004af6f4     UiTongSetTax .obj
 0003:00005700       ??_C@_0BB@OGGC@UiTongSetTax?4ini?$AA@ 004af700     UiTongSetTax .obj
 0003:00005714       ?szArray_SelRoom@@3PAY0EA@DA 004af714     UiAutoPlay.obj
 0003:00005814       ?Data_Pick@@3PAY0EA@DA     004af814     UiAutoPlay.obj
 0003:00005914       ?Data_Magic@@3PAY11EA@DA   004af914     UiAutoPlay.obj
 0003:00006d14       ?szArray_FightBack@@3PAY0EA@DA 004b0d14     UiAutoPlay.obj
 0003:00006d94       ?szArray_FightBoss@@3PAY0EA@DA 004b0d94     UiAutoPlay.obj
 0003:00006ed4       ?szArray_Ingore@@3PAY0EA@DA 004b0ed4     UiAutoPlay.obj
 0003:00006f94       ?szArray_Team@@3PAY0EA@DA  004b0f94     UiAutoPlay.obj
 0003:00007054       ?szArray_Team_Join_Group@@3PAY0EA@DA 004b1054     UiAutoPlay.obj
 0003:00007154       ?szArray_Map@@3PAY0EA@DA   004b1154     UiAutoPlay.obj
 0003:00007414       ??_C@_0EM@ICGA@?5?$CIxh?$CJ?$DMcolor?$DNorange?$DOV?b?5L?$KJm?5Truy?Rn@ 004b1414     UiAutoPlay.obj
 0003:00007460       ??_C@_0BC@DKIO@OtherSpamChatEdit?$AA@ 004b1460     UiAutoPlay.obj
 0003:00007474       ??_C@_0BA@IHEI@OtherSpamChatCK?$AA@ 004b1474     UiAutoPlay.obj
 0003:00007484       ??_C@_05ODNO@?550?$CF?5?$AA@ 004b1484     UiAutoPlay.obj
 0003:0000748c       ??_C@_0BC@OJCH@OtherEmeiBuffEdit?$AA@ 004b148c     UiAutoPlay.obj
 0003:000074a0       ??_C@_0BA@PFDA@OtherEmeiBuffCK?$AA@ 004b14a0     UiAutoPlay.obj
 0003:000074b0       ??_C@_0BA@HNCO@OtherEatBloodCK?$AA@ 004b14b0     UiAutoPlay.obj
 0003:000074c0       ??_C@_0BA@BKEI@OtherRePortPKCK?$AA@ 004b14c0     UiAutoPlay.obj
 0003:000074d0       ??_C@_0BF@JBID@OtherInventoryItemCK?$AA@ 004b14d0     UiAutoPlay.obj
 0003:000074e8       ??_C@_0BG@LEED@OtherInventoryMoneyCK?$AA@ 004b14e8     UiAutoPlay.obj
 0003:00007500       ??_C@_0BE@KNBM@OtherOpenMedicineCK?$AA@ 004b1500     UiAutoPlay.obj
 0003:00007514       ??_C@_0BA@LHGK@OtherRepairEqCK?$AA@ 004b1514     UiAutoPlay.obj
 0003:00007524       ??_C@_0BC@OPMM@OtherEnchaseExpCK?$AA@ 004b1524     UiAutoPlay.obj
 0003:00007538       ??_C@_0BC@OOGH@OtherAntiPoisonCK?$AA@ 004b1538     UiAutoPlay.obj
 0003:0000754c       ??_C@_0BE@LLCI@TPNotEquipmentPopup?$AA@ 004b154c     UiAutoPlay.obj
 0003:00007560       ??_C@_0BD@MGOM@TPNotEquipmentText?$AA@ 004b1560     UiAutoPlay.obj
 0003:00007574       ??_C@_0BG@IGNH@TPNotEquipmentChecker?$AA@ 004b1574     UiAutoPlay.obj
 0003:0000758c       ??_C@_0BC@EJCI@TPDamageEquipEdit?$AA@ 004b158c     UiAutoPlay.obj
 0003:000075a0       ??_C@_0BA@DLFG@TPDamageEquipCK?$AA@ 004b15a0     UiAutoPlay.obj
 0003:000075b0       ??_C@_0BB@JCLJ@TPHightMoneyEdit?$AA@ 004b15b0     UiAutoPlay.obj
 0003:000075c4       ??_C@_0P@KDMM@TPHightMoneyCK?$AA@ 004b15c4     UiAutoPlay.obj
 0003:000075d4       ??_C@_0BE@BMBI@TPNotMedicineManaCK?$AA@ 004b15d4     UiAutoPlay.obj
 0003:000075e8       ??_C@_0BF@BAAA@TPNotMedicineBloodCK?$AA@ 004b15e8     UiAutoPlay.obj
 0003:00007600       ??_C@_0L@BMJC@TPManaEdit?$AA@ 004b1600     UiAutoPlay.obj
 0003:0000760c       ??_C@_0N@GMGO@TPManaLessCK?$AA@ 004b160c     UiAutoPlay.obj
 0003:0000761c       ??_C@_0L@NIF@TPLifeEdit?$AA@ 004b161c     UiAutoPlay.obj
 0003:00007628       ??_C@_0N@KMP@TPLifeLessCK?$AA@ 004b1628     UiAutoPlay.obj
 0003:00007638       ??_C@_09KMLA@ManaEdit3?$AA@ 004b1638     UiAutoPlay.obj
 0003:00007644       ??_C@_09GCH@ManaEdit2?$AA@ 004b1644     UiAutoPlay.obj
 0003:00007650       ??_C@_09PJJO@ManaEdit1?$AA@ 004b1650     UiAutoPlay.obj
 0003:0000765c       ??_C@_06KKLK@ManaCK?$AA@   004b165c     UiAutoPlay.obj
 0003:00007664       ??_C@_09NKB@LifeEdit3?$AA@ 004b1664     UiAutoPlay.obj
 0003:00007670       ??_C@_09KHDG@LifeEdit2?$AA@ 004b1670     UiAutoPlay.obj
 0003:0000767c       ??_C@_09FIIP@LifeEdit1?$AA@ 004b167c     UiAutoPlay.obj
 0003:00007688       ??_C@_06FMPK@LifeCK?$AA@   004b1688     UiAutoPlay.obj
 0003:00007690       ??_C@_0BA@DJFF@TownPortalGuide?$AA@ 004b1690     UiAutoPlay.obj
 0003:000076a0       ??_C@_09KEPD@LifeGuide?$AA@ 004b16a0     UiAutoPlay.obj
 0003:000076ac       ??_C@_0L@LOGA@BgRecovery?$AA@ 004b16ac     UiAutoPlay.obj
 0003:000076b8       ??_C@_04HNIE@Page?$AA@     004b16b8     UiAutoPlay.obj
 0003:000076c0       ??_C@_03POMM@F29?$AA@      004b16c0     UiAutoPlay.obj
 0003:000076c4       ??_C@_03FEFL@F28?$AA@      004b16c4     UiAutoPlay.obj
 0003:000076c8       ??_C@_03FFAG@F27?$AA@      004b16c8     UiAutoPlay.obj
 0003:000076cc       ??_C@_03PPJB@F26?$AA@      004b16cc     UiAutoPlay.obj
 0003:000076d0       ??_C@_03CI@F25?$AA@        004b16d0     UiAutoPlay.obj
 0003:000076d4       ??_C@_03KKLP@F24?$AA@      004b16d4     UiAutoPlay.obj
 0003:000076d8       ??_C@_03PPFK@F23?$AA@      004b16d8     UiAutoPlay.obj
 0003:000076dc       ??_C@_03FFMN@F22?$AA@      004b16dc     UiAutoPlay.obj
 0003:000076e0       ??_C@_03KKHE@F21?$AA@      004b16e0     UiAutoPlay.obj
 0003:000076e4       ??_C@_03OD@F20?$AA@        004b16e4     UiAutoPlay.obj
 0003:000076e8       ??_C@_03MFDD@F19?$AA@      004b16e8     UiAutoPlay.obj
 0003:000076ec       ??_C@_03GPKE@F18?$AA@      004b16ec     UiAutoPlay.obj
 0003:000076f0       ??_C@_03GOPJ@F17?$AA@      004b16f0     UiAutoPlay.obj
 0003:000076f4       ??_C@_03MEGO@F16?$AA@      004b16f4     UiAutoPlay.obj
 0003:000076f8       ??_C@_03DLNH@F15?$AA@      004b16f8     UiAutoPlay.obj
 0003:000076fc       ??_C@_03JBEA@F14?$AA@      004b16fc     UiAutoPlay.obj
 0003:00007700       ??_C@_03MEKF@F13?$AA@      004b1700     UiAutoPlay.obj
 0003:00007704       ??_C@_03GODC@F12?$AA@      004b1704     UiAutoPlay.obj
 0003:00007708       ??_C@_03JBIL@F11?$AA@      004b1708     UiAutoPlay.obj
 0003:0000770c       ??_C@_03DLBM@F10?$AA@      004b170c     UiAutoPlay.obj
 0003:00007710       ??_C@_02NIOF@F9?$AA@       004b1710     UiAutoPlay.obj
 0003:00007714       ??_C@_02HCHC@F8?$AA@       004b1714     UiAutoPlay.obj
 0003:00007718       ??_C@_02HDCP@F7?$AA@       004b1718     UiAutoPlay.obj
 0003:0000771c       ??_C@_02NJLI@F6?$AA@       004b171c     UiAutoPlay.obj
 0003:00007720       ??_C@_02CGAB@F5?$AA@       004b1720     UiAutoPlay.obj
 0003:00007724       ??_C@_02IMJG@F4?$AA@       004b1724     UiAutoPlay.obj
 0003:00007728       ??_C@_02NJHD@F3?$AA@       004b1728     UiAutoPlay.obj
 0003:0000772c       ??_C@_02HDOE@F2?$AA@       004b172c     UiAutoPlay.obj
 0003:00007730       ??_C@_08IENC@F?30x0542?$AA@ 004b1730     UiAutoPlay.obj
 0003:0000773c       ??_C@_02IMFN@F1?$AA@       004b173c     UiAutoPlay.obj
 0003:00007740       ??_C@_0O@FPKL@PickJewelryCK?$AA@ 004b1740     UiAutoPlay.obj
 0003:00007750       ??_C@_0BD@BHNB@PickLevelItemsEdit?$AA@ 004b1750     UiAutoPlay.obj
 0003:00007764       ??_C@_0BB@OFIE@PickLevelItemsCK?$AA@ 004b1764     UiAutoPlay.obj
 0003:00007778       ??_C@_0BD@PEP@PickPriceItemsEdit?$AA@ 004b1778     UiAutoPlay.obj
 0003:0000778c       ??_C@_0BB@HHBC@PickPriceItemsCK?$AA@ 004b178c     UiAutoPlay.obj
 0003:000077a0       ??_C@_0BB@OLAL@PickFilterDelAll?$AA@ 004b17a0     UiAutoPlay.obj
 0003:000077b4       ??_C@_0O@OJAO@PickFilterDel?$AA@ 004b17b4     UiAutoPlay.obj
 0003:000077c4       ??_C@_0O@LBFA@PickFilterAdd?$AA@ 004b17c4     UiAutoPlay.obj
 0003:000077d4       ??_C@_0BC@DCFP@PickFilterListScb?$AA@ 004b17d4     UiAutoPlay.obj
 0003:000077e8       ??_C@_0BC@DODO@PickFilterListTxt?$AA@ 004b17e8     UiAutoPlay.obj
 0003:000077fc       ??_C@_0BF@BGGH@PickChooseFilterEdit?$AA@ 004b17fc     UiAutoPlay.obj
 0003:00007814       ??_C@_0BG@BJKG@PickChooseFilterPopup?$AA@ 004b1814     UiAutoPlay.obj
 0003:0000782c       ??_C@_0BE@GADG@PickChooseFilterTxt?$AA@ 004b182c     UiAutoPlay.obj
 0003:00007840       ??_C@_0BA@IGEL@PickAutoSortTxt?$AA@ 004b1840     UiAutoPlay.obj
 0003:00007850       ??_C@_0P@EIPJ@PickAutoSortCK?$AA@ 004b1850     UiAutoPlay.obj
 0003:00007860       ??_C@_0N@FCJC@PickFilterCK?$AA@ 004b1860     UiAutoPlay.obj
 0003:00007870       ??_C@_0N@OGCL@PickAllPopup?$AA@ 004b1870     UiAutoPlay.obj
 0003:00007880       ??_C@_0M@JLCO@PickAllEdit?$AA@ 004b1880     UiAutoPlay.obj
 0003:0000788c       ??_C@_09BCEP@PickAllCK?$AA@ 004b188c     UiAutoPlay.obj
 0003:00007898       ??_C@_0P@DHFM@PickJewelryTxt?$AA@ 004b1898     UiAutoPlay.obj
 0003:000078a8       ??_C@_0BC@NGOG@PickLevelItemsTxt?$AA@ 004b18a8     UiAutoPlay.obj
 0003:000078bc       ??_C@_0BC@EIHE@PickPriceItemsTxt?$AA@ 004b18bc     UiAutoPlay.obj
 0003:000078d0       ??_C@_09NPBC@PickGuide?$AA@ 004b18d0     UiAutoPlay.obj
 0003:000078dc       ??_C@_06DCBM@BgPick?$AA@   004b18dc     UiAutoPlay.obj
 0003:000078e4       ??_C@_08BAGC@?$CFs?5?$DO?$DN?5?$CFd?$AA@ 004b18e4     UiAutoPlay.obj
 0003:000078f0       ??_C@_0O@BOHO@PopupPosition?$AA@ 004b18f0     UiAutoPlay.obj
 0003:00007900       ??_C@_09CEPP@PickMagic?$AA@ 004b1900     UiAutoPlay.obj
 0003:0000790c       ??_C@_08EPFC@PickItem?$AA@ 004b190c     UiAutoPlay.obj
 0003:00007918       ??_C@_06FFDP@F8VL?$CFd?$AA@ 004b1918     UiAutoPlay.obj
 0003:00007920       ??_C@_06BECJ@F8CN?$CFd?$AA@ 004b1920     UiAutoPlay.obj
 0003:00007928       ??_C@_08KABG@F?30x6114?$AA@ 004b1928     UiAutoPlay.obj
 0003:00007934       ??_C@_04BMFB@Pick?$AA@     004b1934     UiAutoPlay.obj
 0003:0000793c       ??_C@_0BP@JFAI@FightMenuSupportRightHandPopup?$AA@ 004b193c     UiAutoPlay.obj
 0003:0000795c       ??_C@_0BK@DEKM@FightMenuSupportRightHand?$AA@ 004b195c     UiAutoPlay.obj
 0003:00007978       ??_C@_0BO@OGDP@FightMenuSupportRightHandText?$AA@ 004b1978     UiAutoPlay.obj
 0003:00007998       ??_C@_0CD@MKCM@FightMenuSupportWhenManaSmallPop@ 004b1998     UiAutoPlay.obj
 0003:000079bc       ??_C@_0BO@DAIK@FightMenuSupportWhenManaSmall?$AA@ 004b19bc     UiAutoPlay.obj
 0003:000079dc       ??_C@_0CC@MCAM@FightMenuSupportWhenManaSmallTex@ 004b19dc     UiAutoPlay.obj
 0003:00007a00       ??_C@_0BL@EHMB@FightMenuSupportAura2Popup?$AA@ 004b1a00     UiAutoPlay.obj
 0003:00007a1c       ??_C@_0BG@LHEE@FightMenuSupportAura2?$AA@ 004b1a1c     UiAutoPlay.obj
 0003:00007a34       ??_C@_0BL@PJCB@FightMenuSupportAura1Popup?$AA@ 004b1a34     UiAutoPlay.obj
 0003:00007a50       ??_C@_0BG@EIPN@FightMenuSupportAura1?$AA@ 004b1a50     UiAutoPlay.obj
 0003:00007a68       ??_C@_0BM@CPPK@FightMenuSuportSkillPopup03?$AA@ 004b1a68     UiAutoPlay.obj
 0003:00007a84       ??_C@_0BH@OJKJ@FightMenuSuportSkill03?$AA@ 004b1a84     UiAutoPlay.obj
 0003:00007a9c       ??_C@_0BM@IFGN@FightMenuSuportSkillPopup02?$AA@ 004b1a9c     UiAutoPlay.obj
 0003:00007ab8       ??_C@_0BH@EDDO@FightMenuSuportSkill02?$AA@ 004b1ab8     UiAutoPlay.obj
 0003:00007ad0       ??_C@_0BM@HKNE@FightMenuSuportSkillPopup01?$AA@ 004b1ad0     UiAutoPlay.obj
 0003:00007aec       ??_C@_0BH@LMIH@FightMenuSuportSkill01?$AA@ 004b1aec     UiAutoPlay.obj
 0003:00007b04       ??_C@_0BJ@KIAN@FightMenuSuportBossPopup?$AA@ 004b1b04     UiAutoPlay.obj
 0003:00007b20       ??_C@_0BE@BNOC@FightMenuSuportBoss?$AA@ 004b1b20     UiAutoPlay.obj
 0003:00007b34       ??_C@_0BK@HEAA@FightMenuSelfDefensePopup?$AA@ 004b1b34     UiAutoPlay.obj
 0003:00007b50       ??_C@_0BA@POCG@Kh?$KLng?5thi?Ut?5l?Kp?$AA@ 004b1b50     UiAutoPlay.obj
 0003:00007b60       ??_C@_0BF@OKMC@FightMenuSelfDefense?$AA@ 004b1b60     UiAutoPlay.obj
 0003:00007b78       ??_C@_0P@JKIP@FightMenuPopup?$AA@ 004b1b78     UiAutoPlay.obj
 0003:00007b88       ??_C@_06OGJD@B?a?5qua?$AA@ 004b1b88     UiAutoPlay.obj
 0003:00007b90       ??_C@_09KIGL@FightMenu?$AA@ 004b1b90     UiAutoPlay.obj
 0003:00007b9c       ??_C@_0M@GKKF@FightPeople?$AA@ 004b1b9c     UiAutoPlay.obj
 0003:00007ba8       ??_C@_0M@MCEF@FightNormal?$AA@ 004b1ba8     UiAutoPlay.obj
 0003:00007bb4       ??_C@_0BG@BOJ@TextFightFollowTarget?$AA@ 004b1bb4     UiAutoPlay.obj
 0003:00007bcc       ??_C@_0BC@FEK@FightFollowTarget?$AA@ 004b1bcc     UiAutoPlay.obj
 0003:00007be0       ??_C@_0O@OLFH@FightUseSpace?$AA@ 004b1be0     UiAutoPlay.obj
 0003:00007bf0       ??_C@_0BC@CHDA@FightVicinityEdit?$AA@ 004b1bf0     UiAutoPlay.obj
 0003:00007c04       ??_C@_0O@KFCH@FightVicinity?$AA@ 004b1c04     UiAutoPlay.obj
 0003:00007c14       ??_C@_0BA@ODNL@FightRadiusEdit?$AA@ 004b1c14     UiAutoPlay.obj
 0003:00007c24       ??_C@_0BJ@NLGC@FightMenuSuportLight2Txt?$AA@ 004b1c24     UiAutoPlay.obj
 0003:00007c40       ??_C@_0BJ@LEJE@FightMenuSuportLight1Txt?$AA@ 004b1c40     UiAutoPlay.obj
 0003:00007c5c       ??_C@_0P@OOB@FightEmeiGuide?$AA@ 004b1c5c     UiAutoPlay.obj
 0003:00007c6c       ??_C@_0BB@CBFO@FightSkillsGuide?$AA@ 004b1c6c     UiAutoPlay.obj
 0003:00007c80       ??_C@_0L@FLGA@FightGuide?$AA@ 004b1c80     UiAutoPlay.obj
 0003:00007c8c       ??_C@_07LDBB@BgFight?$AA@  004b1c8c     UiAutoPlay.obj
 0003:00007c94       ??_C@_05BAAG@F12?$CFd?$AA@ 004b1c94     UiAutoPlay.obj
 0003:00007c9c       ??_C@_05OGDN@F11?$CFd?$AA@ 004b1c9c     UiAutoPlay.obj
 0003:00007ca4       ??_C@_05LECL@F10?$CFd?$AA@ 004b1ca4     UiAutoPlay.obj
 0003:00007cac       ??_C@_04OOFL@F9?$CFd?$AA@  004b1cac     UiAutoPlay.obj
 0003:00007cb4       ??_C@_04LMEN@F8?$CFd?$AA@  004b1cb4     UiAutoPlay.obj
 0003:00007cbc       ??_C@_08IEFA@F?30x5198?$AA@ 004b1cbc     UiAutoPlay.obj
 0003:00007cc8       ??_C@_0BC@ENED@OtherOptimalAniCK?$AA@ 004b1cc8     UiAutoPlay.obj
 0003:00007cdc       ??_C@_0BF@EIIN@OtherOptimalPlayerCK?$AA@ 004b1cdc     UiAutoPlay.obj
 0003:00007cf4       ??_C@_0BC@LIFG@OtherOptimalNpcCK?$AA@ 004b1cf4     UiAutoPlay.obj
 0003:00007d08       ??_C@_0BE@IDML@OtherPartyJoinPopup?$AA@ 004b1d08     UiAutoPlay.obj
 0003:00007d1c       ??_C@_0BC@IMDA@OtherPartyJoinTxt?$AA@ 004b1d1c     UiAutoPlay.obj
 0003:00007d30       ??_C@_0BB@DDND@OtherPartyJoinCK?$AA@ 004b1d30     UiAutoPlay.obj
 0003:00007d44       ??_C@_0BC@JGEA@OtherPartyListAll?$AA@ 004b1d44     UiAutoPlay.obj
 0003:00007d58       ??_C@_0BC@CPPC@OtherPartyListDel?$AA@ 004b1d58     UiAutoPlay.obj
 0003:00007d6c       ??_C@_0BD@PAFP@OtherPartyListDown?$AA@ 004b1d6c     UiAutoPlay.obj
 0003:00007d80       ??_C@_0BB@ODOM@OtherPartyListUp?$AA@ 004b1d80     UiAutoPlay.obj
 0003:00007d94       ??_C@_0BC@HHKM@OtherPartyListAdd?$AA@ 004b1d94     UiAutoPlay.obj
 0003:00007da8       ??_C@_0BC@NAPB@OtherPartyListSbc?$AA@ 004b1da8     UiAutoPlay.obj
 0003:00007dbc       ??_C@_0BC@GAKN@OtherPartyListTxt?$AA@ 004b1dbc     UiAutoPlay.obj
 0003:00007dd0       ??_C@_0BE@NCMP@OtherPartyNamePopup?$AA@ 004b1dd0     UiAutoPlay.obj
 0003:00007de4       ??_C@_0BC@CDFE@OtherPartyNameTxt?$AA@ 004b1de4     UiAutoPlay.obj
 0003:00007df8       ??_C@_0BA@FCBN@OtherPartyPopup?$AA@ 004b1df8     UiAutoPlay.obj
 0003:00007e08       ??_C@_0P@KNEE@OtherPartyEdit?$AA@ 004b1e08     UiAutoPlay.obj
 0003:00007e18       ??_C@_0N@FBDI@OtherPartyCK?$AA@ 004b1e18     UiAutoPlay.obj
 0003:00007e28       ??_C@_0BD@HPEO@OtherOptimalAniTxt?$AA@ 004b1e28     UiAutoPlay.obj
 0003:00007e3c       ??_C@_0BG@NBEL@OtherOptimalPlayerTxt?$AA@ 004b1e3c     UiAutoPlay.obj
 0003:00007e54       ??_C@_0BD@JJLL@OtherOptimalNpcTxt?$AA@ 004b1e54     UiAutoPlay.obj
 0003:00007e68       ??_C@_0BC@NAPG@OtherOptimalGuide?$AA@ 004b1e68     UiAutoPlay.obj
 0003:00007e7c       ??_C@_0BA@DDNG@OtherPartyGuide?$AA@ 004b1e7c     UiAutoPlay.obj
 0003:00007e8c       ??_C@_07PFEH@BgOther?$AA@  004b1e8c     UiAutoPlay.obj
 0003:00007e94       ??_C@_0BP@NMFK@Danh?5s?$LIch?5tr?hng?5th?$KNa?5?$KO?$LJi?5hi?Vp?$CB?$AA@ 004b1e94     UiAutoPlay.obj
 0003:00007eb4       ??_C@_0DF@BKKI@N?$KMi?5n?$LFy?5?$KO?eng?5kh?$KLng?5m?$KLng?5qu?$LJnh?0?5k@ 004b1eb4     UiAutoPlay.obj
 0003:00007eec       ??_C@_06FFEJ@F2CN?$CFd?$AA@ 004b1eec     UiAutoPlay.obj
 0003:00007ef4       ??_C@_08JPAF@F?30x9831?$AA@ 004b1ef4     UiAutoPlay.obj
 0003:00007f00       ??_C@_0BG@OEPF@MoveCoordiNatesDelAll?$AA@ 004b1f00     UiAutoPlay.obj
 0003:00007f18       ??_C@_0BD@BNCJ@MoveCoordiNatesDel?$AA@ 004b1f18     UiAutoPlay.obj
 0003:00007f2c       ??_C@_0BE@ELGN@MoveCoordiNatesDown?$AA@ 004b1f2c     UiAutoPlay.obj
 0003:00007f40       ??_C@_0BC@DIBO@MoveCoordiNatesUp?$AA@ 004b1f40     UiAutoPlay.obj
 0003:00007f54       ??_C@_0BD@EFHH@MoveCoordiNatesAdd?$AA@ 004b1f54     UiAutoPlay.obj
 0003:00007f68       ??_C@_0BH@LIFA@MoveCoordiNatesListScb?$AA@ 004b1f68     UiAutoPlay.obj
 0003:00007f80       ??_C@_0BH@LEDB@MoveCoordiNatesListTxt?$AA@ 004b1f80     UiAutoPlay.obj
 0003:00007f98       ??_C@_0BC@HFNJ@MoveCoordiNatesCK?$AA@ 004b1f98     UiAutoPlay.obj
 0003:00007fac       ??_C@_0O@DLBH@MoveAroundAdd?$AA@ 004b1fac     UiAutoPlay.obj
 0003:00007fbc       ??_C@_0P@JOEN@MoveAroundText?$AA@ 004b1fbc     UiAutoPlay.obj
 0003:00007fcc       ??_C@_0L@OHEC@MoveAround?$AA@ 004b1fcc     UiAutoPlay.obj
 0003:00007fd8       ??_C@_0BF@BKPC@MoveFollowRadiusEdit?$AA@ 004b1fd8     UiAutoPlay.obj
 0003:00007ff0       ??_C@_0BF@EEJE@MoveFollowRadiusText?$AA@ 004b1ff0     UiAutoPlay.obj
 0003:00008008       ??_C@_0BA@FIDO@MoveFollowPopup?$AA@ 004b2008     UiAutoPlay.obj
 0003:00008018       ??_C@_0BB@DIMH@MoveFollowPeople?$AA@ 004b2018     UiAutoPlay.obj
 0003:0000802c       ??_C@_0L@OALB@MoveFollow?$AA@ 004b202c     UiAutoPlay.obj
 0003:00008038       ??_C@_06JMKD@BgMove?$AA@   004b2038     UiAutoPlay.obj
 0003:00008040       ??_C@_0CA@CCOO@T?da?5?$KO?i?5ch?X?5?$KO?$NOnh?5ch?$KNa?5thi?Ut?5l?Kp?$CB?$AA@ 004b2040     UiAutoPlay.obj
 0003:00008060       ??_C@_08CPDB@?$CFd?3?$CFd?1?$CFd?$AA@ 004b2060     UiAutoPlay.obj
 0003:0000806c       ??_C@_05PLFD@F3Y?$CFd?$AA@ 004b206c     UiAutoPlay.obj
 0003:00008074       ??_C@_05KJEF@F3X?$CFd?$AA@ 004b2074     UiAutoPlay.obj
 0003:0000807c       ??_C@_05FAMA@F3D?$CFd?$AA@ 004b207c     UiAutoPlay.obj
 0003:00008084       ??_C@_04CFJA@F1CN?$AA@     004b2084     UiAutoPlay.obj
 0003:0000808c       ??_C@_08JCNK@F?30x2643?$AA@ 004b208c     UiAutoPlay.obj
 0003:00008098       ??_C@_0P@PMAD@NameCombackMap?$AA@ 004b2098     UiAutoPlay.obj
 0003:000080a8       ??_C@_0BA@MKGN@PopupCombackMap?$AA@ 004b20a8     UiAutoPlay.obj
 0003:000080b8       ??_C@_0L@MMMA@CombackMap?$AA@ 004b20b8     UiAutoPlay.obj
 0003:000080c4       ??_C@_0BE@MIKA@SupportMoveItemText?$AA@ 004b20c4     UiAutoPlay.obj
 0003:000080d8       ??_C@_0BA@PDDJ@SupportMoveItem?$AA@ 004b20d8     UiAutoPlay.obj
 0003:000080e8       ??_C@_0BE@NJPJ@SupportSellItemText?$AA@ 004b20e8     UiAutoPlay.obj
 0003:000080fc       ??_C@_0BA@NEIJ@SupportSellItem?$AA@ 004b20fc     UiAutoPlay.obj
 0003:0000810c       ??_C@_0BG@OLFI@SupportBackToTownEdit?$AA@ 004b210c     UiAutoPlay.obj
 0003:00008124       ??_C@_0BC@BNBO@SupportBackToTown?$AA@ 004b2124     UiAutoPlay.obj
 0003:00008138       ??_C@_09BLGH@BgSupport?$AA@ 004b2138     UiAutoPlay.obj
 0003:00008144       ??_C@_08KKEN@F?30x0279?$AA@ 004b2144     UiAutoPlay.obj
 0003:00008150       ??_C@_08BJFB@OtherBtn?$AA@ 004b2150     UiAutoPlay.obj
 0003:0000815c       ??_C@_0L@GALG@SupportBtn?$AA@ 004b215c     UiAutoPlay.obj
 0003:00008168       ??_C@_0O@DAHK@MovePlayerBtn?$AA@ 004b2168     UiAutoPlay.obj
 0003:00008178       ??_C@_07MMDH@PickBtn?$AA@  004b2178     UiAutoPlay.obj
 0003:00008180       ??_C@_0M@PDJF@RecoveryBtn?$AA@ 004b2180     UiAutoPlay.obj
 0003:0000818c       ??_C@_09HJIL@CloseText?$AA@ 004b218c     UiAutoPlay.obj
 0003:00008198       ??_C@_09PCON@PauseText?$AA@ 004b2198     UiAutoPlay.obj
 0003:000081a4       ??_C@_0L@KIBO@ActiveText?$AA@ 004b21a4     UiAutoPlay.obj
 0003:000081b0       ??_C@_0P@OFAD@UiAutoPlay?4ini?$AA@ 004b21b0     UiAutoPlay.obj
 0003:000081c0       ??_C@_08MJHN@BuffList?$AA@ 004b21c0     UiMiniBuff.obj
 0003:000081cc       ??_C@_09LBCG@BuffCount?$AA@ 004b21cc     UiMiniBuff.obj
 0003:000081d8       ??_C@_0M@JBKD@txtBuffTime?$AA@ 004b21d8     UiMiniBuff.obj
 0003:000081e4       ??_C@_0L@MCEF@txtBuffTop?$AA@ 004b21e4     UiMiniBuff.obj
 0003:000081f0       ??_C@_07EIFK@BuffTop?$AA@  004b21f0     UiMiniBuff.obj
 0003:000081f8       ??_C@_09HDML@BuffImage?$AA@ 004b21f8     UiMiniBuff.obj
 0003:00008204       ??_C@_09ODAG@StartDiff?$AA@ 004b2204     UiMiniBuff.obj
 0003:00008210       ??_C@_0P@FBHB@UiMiniBuff?4ini?$AA@ 004b2210     UiMiniBuff.obj
 0003:00008220       ??_C@_0L@EBOP@Buff_?$CFd_ID?$AA@ 004b2220     UiMiniBuff.obj
 0003:0000822c       ??_C@_03NMCN@?$CFds?$AA@   004b222c     UiMiniBuff.obj
 0003:00008230       ??_C@_03NOJH@?$CFdm?$AA@   004b2230     UiMiniBuff.obj
 0003:00008234       ??_C@_03NOFM@?$CFdh?$AA@   004b2234     UiMiniBuff.obj
 0003:00008238       ??_C@_0BC@HPBJ@?$CF02dh?3?$CF02dm?3?$CF02ds?$AA@ 004b2238     UiMiniBuff.obj
 0003:0000824c       ??_C@_0BC@BJNI@Duy?5tr?W?5v?$NMnh?5vi?Tn?$AA@ 004b224c     UiMiniBuff.obj
 0003:00008260       ??_C@_03PHGM@N?1A?$AA@     004b2260     UiMiniBuff.obj
 0003:00008264       ??_C@_07KNPP@?$DMenter?$DO?$AA@ 004b2264     UiMiniBuff.obj
 0003:0000826c       ??_C@_0N@GJMG@Buff_?$CFd_Desc?$AA@ 004b226c     UiMiniBuff.obj
 0003:0000827c       ??_C@_0N@BGNI@Buff_?$CFd_Name?$AA@ 004b227c     UiMiniBuff.obj
 0003:0000828c       ??_C@_0O@BDGF@Buff_?$CFd_Image?$AA@ 004b228c     UiMiniBuff.obj
 0003:0000829c       ??_C@_06HOHA@10?3Kim?$AA@  004b229c     UiTopTKNew.obj
 0003:000082a4       ??_C@_07GLAI@10?3T?hng?$AA@ 004b22a4     UiTopTKNew.obj
 0003:000082ac       ??_C@_05KENJ@9?3Kim?$AA@   004b22ac     UiTopTKNew.obj
 0003:000082b4       ??_C@_06EGNC@9?3T?hng?$AA@ 004b22b4     UiTopTKNew.obj
 0003:000082bc       ??_C@_05EPM@8?3Kim?$AA@    004b22bc     UiTopTKNew.obj
 0003:000082c4       ??_C@_06NDHC@8?3T?hng?$AA@ 004b22c4     UiTopTKNew.obj
 0003:000082cc       ??_C@_05GFCM@7?3Kim?$AA@   004b22cc     UiTopTKNew.obj
 0003:000082d4       ??_C@_06JGBD@7?3T?hng?$AA@ 004b22d4     UiTopTKNew.obj
 0003:000082dc       ??_C@_05MFAJ@6?3Kim?$AA@   004b22dc     UiTopTKNew.obj
 0003:000082e4       ??_C@_06DLD@6?3T?hng?$AA@  004b22e4     UiTopTKNew.obj
 0003:000082ec       ??_C@_05CFGG@5?3Kim?$AA@   004b22ec     UiTopTKNew.obj
 0003:000082f4       ??_C@_06LNFD@5?3T?hng?$AA@ 004b22f4     UiTopTKNew.obj
 0003:000082fc       ??_C@_05IFED@4?3Kim?$AA@   004b22fc     UiTopTKNew.obj
 0003:00008304       ??_C@_06CIPD@4?3T?hng?$AA@ 004b2304     UiTopTKNew.obj
 0003:0000830c       ??_C@_05OFLJ@3?3Kim?$AA@   004b230c     UiTopTKNew.obj
 0003:00008314       ??_C@_06MAJD@3?3T?hng?$AA@ 004b2314     UiTopTKNew.obj
 0003:0000831c       ??_C@_05EFJM@2?3Kim?$AA@   004b231c     UiTopTKNew.obj
 0003:00008324       ??_C@_06FFDD@2?3T?hng?$AA@ 004b2324     UiTopTKNew.obj
 0003:0000832c       ??_C@_05KFPD@1?3Kim?$AA@   004b232c     UiTopTKNew.obj
 0003:00008334       ??_C@_06OLND@1?3T?hng?$AA@ 004b2334     UiTopTKNew.obj
