 CoreServer

 Timestamp is 6915da88 (Thu Nov 13 08:18:00 2025)

 Preferred load address is 10000000

 Start         Length     Name                   Class
 0001:00000000 00085c32H .text                   CODE
 0001:00085c40 0000282dH .text$x                 CODE
 0002:00000000 0000034cH .idata$5                DATA
 0002:00000350 0000b5f8H .rdata                  DATA
 0002:0000b948 000006ecH .rdata$r                DATA
 0002:0000c038 00003700H .xdata$x                DATA
 0002:0000f738 0000008cH .idata$2                DATA
 0002:0000f7c4 00000014H .idata$3                DATA
 0002:0000f7d8 0000034cH .idata$4                DATA
 0002:0000fb24 000011d6H .idata$6                DATA
 0002:00010d00 00001c2fH .edata                  DATA
 0003:00000000 00000004H .CRT$XCA                DATA
 0003:00000004 000002a4H .CRT$XCU                DATA
 0003:000002a8 00000004H .CRT$XCZ                DATA
 0003:000002ac 00000004H .CRT$XIA                DATA
 0003:000002b0 0000000cH .CRT$XIC                DATA
 0003:000002bc 00000004H .CRT$XIY                DATA
 0003:000002c0 00000004H .CRT$XIZ                DATA
 0003:000002c4 00000004H .CRT$XPA                DATA
 0003:000002c8 00000004H .CRT$XPX                DATA
 0003:000002cc 00000004H .CRT$XPZ                DATA
 0003:000002d0 00000004H .CRT$XTA                DATA
 0003:000002d4 00000004H .CRT$XTB                DATA
 0003:000002d8 00000004H .CRT$XTZ                DATA
 0003:000002e0 00007ca0H .data                   DATA
 0003:00007f80 281b6b6cH .bss                    DATA

  Address         Publics by Value              Rva+Base     Lib:Object

 0001:00000000       ??_H@YGXPAXIHP6EX0@Z@Z     10001000 f i KPartnerSkill.obj
 0001:00000060       ?id@?$ctype@G@std@@$E      10001060 f i KPartnerSkill.obj
 0001:000000a0       ?GetMoney@KInventory@@QAEHXZ 100010a0 f i KThiefSkill.obj
 0001:000000b0       ?SetMoney@KInventory@@QAEHH@Z 100010b0 f i KThiefSkill.obj
 0001:000000d0       ??4KInventory@@QAEAAV0@ABV0@@Z 100010d0 f i KThiefSkill.obj
 0001:00000100       ?GetBuildItem@KItemList@@QAEHH@Z 10001100 f i KThiefSkill.obj
 0001:00000110       ?GetEquipment@KItemList@@QBEHH@Z 10001110 f i KThiefSkill.obj
 0001:00000120       ?GetMoney@KItemList@@QAEHH@Z 10001120 f i KThiefSkill.obj
 0001:00000140       ?Hand@KItemList@@QAEHXZ    10001140 f i KThiefSkill.obj
 0001:00000150       ?GetMaskLock@KItemList@@QAEHXZ 10001150 f i KThiefSkill.obj
 0001:00000160       ?GetItemCount@KItemList@@QAEHXZ 10001160 f i KThiefSkill.obj
 0001:00000170       ??4KItemList@@QAEAAV0@ABV0@@Z 10001170 f i KThiefSkill.obj
 0001:00000190       ??0KThiefSkill@@QAE@XZ     10001190 f   KThiefSkill.obj
 0001:000001c0       ?GetSkillCostType@KThiefSkill@@UBE?AW4NPCATTRIB@@XZ 100011c0 f i KThiefSkill.obj
 0001:000001d0       ?GetAttackRadius@KThiefSkill@@UBEHXZ 100011d0 f i KThiefSkill.obj
 0001:000001e0       ?IsTargetOnly@KThiefSkill@@UBEHXZ 100011e0 f i KThiefSkill.obj
 0001:000001f0       ?IsTargetSelf@KThiefSkill@@UBEHXZ 100011f0 f i KThiefSkill.obj
 0001:00000200       ?IsTargetEnemy@KThiefSkill@@UBEHXZ 10001200 f i KThiefSkill.obj
 0001:00000210       ?IsTargetAlly@KThiefSkill@@UBEHXZ 10001210 f i KThiefSkill.obj
 0001:00000220       ?IsTargetObj@KThiefSkill@@UBEHXZ 10001220 f i KThiefSkill.obj
 0001:00000230       ??_EKThiefSkill@@UAEPAXI@Z 10001230 f i KThiefSkill.obj
 0001:00000230       ??_GKThiefSkill@@UAEPAXI@Z 10001230 f i KThiefSkill.obj
 0001:00000250       ??1KThiefSkill@@UAE@XZ     10001250 f   KThiefSkill.obj
 0001:00000260       ?GetSkillId@KThiefSkill@@UAEHXZ 10001260 f   KThiefSkill.obj
 0001:00000270       ?GetSkillName@KThiefSkill@@UAEPBDXZ 10001270 f   KThiefSkill.obj
 0001:00000280       ?GetSkillStyle@KThiefSkill@@UAEHXZ 10001280 f   KThiefSkill.obj
 0001:00000290       ?LoadSkillLevelData@KThiefSkill@@UAEXKH@Z 10001290 f   KThiefSkill.obj
 0001:000002a0       ?DoSkill@KThiefSkill@@QAEHPAVKNpc@@HH@Z 100012a0 f   KThiefSkill.obj
 0001:000002f0       ?Cast_Redress@KThiefSkill@@AAEHPAVKPlayer@@0@Z 100012f0 f   KThiefSkill.obj
 0001:00000500       ?Cast_ShowLife@KThiefSkill@@AAEHPAVKPlayer@@0@Z 10001500 f   KThiefSkill.obj
 0001:00000590       ?Cast_ShowMana@KThiefSkill@@AAEHPAVKPlayer@@0@Z 10001590 f   KThiefSkill.obj
 0001:00000620       ?Cast_ShowMoney@KThiefSkill@@AAEHPAVKPlayer@@0@Z 10001620 f   KThiefSkill.obj
 0001:000006a0       ?Cast_RunScript@KThiefSkill@@AAEHPAVKPlayer@@0@Z 100016a0 f   KThiefSkill.obj
 0001:000006d0       ?Cast@KThiefSkill@@QAEHPAVKPlayer@@0@Z 100016d0 f   KThiefSkill.obj
 0001:00000750       ?OnSkill@KThiefSkill@@QAEHPAVKNpc@@@Z 10001750 f   KThiefSkill.obj
 0001:00000850       ?CanCastSkill@KThiefSkill@@UBEHHAAH0@Z 10001850 f   KThiefSkill.obj
 0001:00000920       ?LoadSetting@KThiefSkill@@QAEHPAD@Z 10001920 f   KThiefSkill.obj
 0001:00000b10       ?GetSkillCost@KThiefSkill@@UBEHPAX@Z 10001b10 f   KThiefSkill.obj
 0001:00000b60       ?IsAura@ISkill@@UBEHXZ     10001b60 f i KThiefSkill.obj
 0001:00000b70       ?IsPhysical@ISkill@@UBEHXZ 10001b70 f i KThiefSkill.obj
 0001:00000b80       ?GetSkillAttrib@ISkill@@UBEFXZ 10001b80 f i KThiefSkill.obj
 0001:00000b90       ?IsExpSkill@ISkill@@UBEHXZ 10001b90 f i KThiefSkill.obj
 0001:00000ba0       ?GetSkillLevelUpScriptId@ISkill@@UBEKXZ 10001ba0 f i KThiefSkill.obj
 0001:00000bb0       ??_GISkill@@UAEPAXI@Z      10001bb0 f i KThiefSkill.obj
 0001:00000bb0       ??_EISkill@@UAEPAXI@Z      10001bb0 f i KThiefSkill.obj
 0001:00000bd0       ??0KMissleSet@@QAE@XZ      10001bd0 f i KMissle.obj
 0001:00000be0       ??4KMissleSet@@QAEAAV0@ABV0@@Z 10001be0 f i KMissle.obj
 0001:00000c10       ??1KMissleSet@@QAE@XZ      10001c10 f i KMissle.obj
 0001:00000d20       ??0KMissle@@QAE@XZ         10001d20 f   KMissle.obj
 0001:00000d90       ??_GKMissle@@UAEPAXI@Z     10001d90 f i KMissle.obj
 0001:00000d90       ??_EKMissle@@UAEPAXI@Z     10001d90 f i KMissle.obj
 0001:00000db0       ?Release@KMissle@@AAEXXZ   10001db0 f   KMissle.obj
 0001:00000e00       ??1KMissle@@UAE@XZ         10001e00 f   KMissle.obj
 0001:00000e10       ??_EKNode@@UAEPAXI@Z       10001e10 f i KMissle.obj
 0001:00000e10       ??_GKNode@@UAEPAXI@Z       10001e10 f i KMissle.obj
 0001:00000e30       ?GetInfoFromTabFile@KMissle@@QAEHH@Z 10001e30 f   KMissle.obj
 0001:00000e50       ?GetInfoFromTabFile@KMissle@@QAEHPAVKITabFile@@H@Z 10001e50 f   KMissle.obj
 0001:00001060       ?Init@KMissle@@AAEHHHHHH@Z 10002060 f   KMissle.obj
 0001:00001070       ?Activate@KMissle@@QAEHXZ  10002070 f   KMissle.obj
 0001:000012c0       ?OnWait@KMissle@@AAEXXZ    100022c0 f   KMissle.obj
 0001:000012d0       ?OnCollision@KMissle@@AAEXXZ 100022d0 f   KMissle.obj
 0001:000012e0       ?CheckCollision@KMissle@@AAEHXZ 100022e0 f   KMissle.obj
 0001:000014a0       ?OnFly@KMissle@@AAEXXZ     100024a0 f   KMissle.obj
 0001:00001da0       ?OnVanish@KMissle@@AAEXXZ  10002da0 f   KMissle.obj
 0001:00001db0       ?CheckBeyondRegion@KMissle@@AAEHHH@Z 10002db0 f   KMissle.obj
 0001:00002040       ??4KMissle@@AAEAAV0@AAV0@@Z 10003040 f   KMissle.obj
 0001:000021b0       ?ProcessDamage@KMissle@@AAEHH@Z 100031b0 f   KMissle.obj
 0001:00002650       ?DoVanish@KMissle@@AAEXXZ  10003650 f   KMissle.obj
 0001:000026f0       ?DoCollision@KMissle@@AAEXXZ 100036f0 f   KMissle.obj
 0001:00002770       ?DoFly@KMissle@@AAEXXZ     10003770 f   KMissle.obj
 0001:00002790       ?GetOffsetAxis@KMissle@@SAHHHHHHHAAH00@Z 10003790 f   KMissle.obj
 0001:000028c0       ?ProcessCollision@KMissle@@AAEHHHHHHH@Z 100038c0 f   KMissle.obj
 0001:00002a30       ?ProcessCollision@KMissle@@AAEHXZ 10003a30 f   KMissle.obj
 0001:00002a70       ?DoWait@KMissle@@AAEXXZ    10003a70 f   KMissle.obj
 0001:00002a80       ?PrePareFly@KMissle@@AAEHXZ 10003a80 f   KMissle.obj
 0001:00002ce0       ?CheckNearestCollision@KMissle@@AAEHXZ 10003ce0 f   KMissle.obj
 0001:00002ea0       ?FindNearestCollision@KMissle@@AAEHHH@Z 10003ea0 f   KMissle.obj
 0001:00002f70       ?GetMpsPos@KMissle@@QAEXPAH0@Z 10003f70 f   KMissle.obj
 0001:00002fc0       ??_GKIndexNode@@UAEPAXI@Z  10003fc0 f i KMissle.obj
 0001:00002fc0       ??_EKIndexNode@@UAEPAXI@Z  10003fc0 f i KMissle.obj
 0001:00002fe0       ??1KIndexNode@@UAE@XZ      10003fe0 f i KMissle.obj
 0001:00002ff0       ?Send@KWorldMsg@@QAEHKHHH@Z 10003ff0 f i KMissle.obj
 0001:00003060       ??_EKWorldMsgNode@@UAEPAXI@Z 10004060 f i KMissle.obj
 0001:00003060       ??_GKWorldMsgNode@@UAEPAXI@Z 10004060 f i KMissle.obj
 0001:00003080       ??1KWorldMsgNode@@UAE@XZ   10004080 f i KMissle.obj
 0001:00003130       ?Init@KMissleSet@@QAEXXZ   10004130 f   KMissleSet.obj
 0001:00003180       ?FindFree@KMissleSet@@QAEHXZ 10004180 f   KMissleSet.obj
 0001:00003190       ?Add@KMissleSet@@QAEHHHHHHH@Z 10004190 f   KMissleSet.obj
 0001:00003230       ?Add@KMissleSet@@QAEHHHH@Z 10004230 f   KMissleSet.obj
 0001:00003380       ?CreateMissile@KMissleSet@@QAEHHHHHHHHH@Z 10004380 f   KMissleSet.obj
 0001:000033b0       ?Activate@KMissleSet@@QAEHXZ 100043b0 f   KMissleSet.obj
 0001:000033e0       ?Remove@KMissleSet@@QAEXH@Z 100043e0 f   KMissleSet.obj
 0001:00003430       ?Draw@KMissleSet@@QAEXXZ   10004430 f   KMissleSet.obj
 0001:00003440       ?GetCount@KMissleSet@@QAEHXZ 10004440 f   KMissleSet.obj
 0001:00003460       ?ClearMissles@KMissleSet@@QAEXXZ 10004460 f   KMissleSet.obj
 0001:000034c0       ??0KSkillList@@QAE@XZ      100044c0 f   KSkillList.obj
 0001:000034f0       ??1KSkillList@@QAE@XZ      100044f0 f   KSkillList.obj
 0001:00003500       ?FindSame@KSkillList@@QAEHH@Z 10004500 f   KSkillList.obj
 0001:00003530       ?FindFree@KSkillList@@QAEHXZ 10004530 f   KSkillList.obj
 0001:00003550       ?SetNpcSkill@KSkillList@@QAEXHHH@Z 10004550 f   KSkillList.obj
 0001:000035e0       ?RemoveNpcSkill@KSkillList@@QAEXH@Z 100045e0 f   KSkillList.obj
 0001:00003610       ?GetCount@KSkillList@@QAEHXZ 10004610 f   KSkillList.obj
 0001:00003630       ?IncreaseLevel@KSkillList@@QAEHHHH@Z 10004630 f   KSkillList.obj
 0001:00003730       ?Add@KSkillList@@QAEHHH_N@Z 10004730 f   KSkillList.obj
 0001:00003890       ?Remove@KSkillList@@QAEXH@Z 10004890 f   KSkillList.obj
 0001:00003920       ?GetLevel@KSkillList@@QAEHH@Z 10004920 f   KSkillList.obj
 0001:00003950       ?GetCurrentLevel@KSkillList@@QAEHH@Z 10004950 f   KSkillList.obj
 0001:00003980       ?GetPointAdd@KSkillList@@QAEDH@Z 10004980 f   KSkillList.obj
 0001:000039b0       ?CanCast@KSkillList@@QAEHHK@Z 100049b0 f   KSkillList.obj
 0001:00003a00       ?SetNextCastTime@KSkillList@@QAEXHK@Z 10004a00 f   KSkillList.obj
 0001:00003a30       ?SetMaxCastTime@KSkillList@@QAEXHK@Z 10004a30 f   KSkillList.obj
 0001:00003a60       ?GetEnhanceSkills@KSkillList@@QAEHH@Z 10004a60 f   KSkillList.obj
 0001:00003af0       ?UpdateDBSkillList@KSkillList@@QAEHPAE@Z 10004af0 f   KSkillList.obj
 0001:00003b40       ?ClearSkillLevel@KSkillList@@QAEH_N@Z 10004b40 f   KSkillList.obj
 0001:00003bd0       ?SetNpcSkill120@KSkillList@@QAEXHH@Z 10004bd0 f   KSkillList.obj
 0001:00003c00       ?AddExpSkill120@KSkillList@@QAEXH@Z 10004c00 f   KSkillList.obj
 0001:00003fc0       ?IncreaseSkill120@KSkillList@@QAEXXZ 10004fc0 f   KSkillList.obj
 0001:00004090       ?IsAddExp@KSkillList@@QAEHH@Z 10005090 f   KSkillList.obj
 0001:00004190       ??0KSkillManager@@QAE@XZ   10005190 f   KSkillManager.obj
 0001:000041a0       ??1KSkillManager@@QAE@XZ   100051a0 f   KSkillManager.obj
 0001:000041e0       ?Init@KSkillManager@@QAEHXZ 100051e0 f   KSkillManager.obj
 0001:000043a0       ?InstanceSkill@KSkillManager@@AAEPAVISkill@@KK@Z 100053a0 f   KSkillManager.obj
 0001:00004510       ??4KSkill@@QAEAAV0@ABV0@@Z 10005510 f i KSkillManager.obj
 0001:00004910       ??0KSkill@@QAE@XZ          10005910 f   KSkills.obj
 0001:00004a30       ??_EKSkill@@UAEPAXI@Z      10005a30 f i KSkills.obj
 0001:00004a30       ??_GKSkill@@UAEPAXI@Z      10005a30 f i KSkills.obj
 0001:00004a50       ??1KSkill@@UAE@XZ          10005a50 f   KSkills.obj
 0001:00004a60       ?CanCastSkill@KSkill@@UBEHHAAH0@Z 10005a60 f   KSkills.obj
 0001:00004c50       ?Cast@KSkill@@QBEHHHHHW4eSkillLauncherType@@H@Z 10005c50 f   KSkills.obj
 0001:00004e70       ?Vanish@KSkill@@ABEXPAVKMissle@@@Z 10005e70 f   KSkills.obj
 0001:00004e80       ?OnMissleEvent@KSkill@@QBEHGPAVKMissle@@@Z 10005e80 f   KSkills.obj
 0001:00005090       ?FlyEvent@KSkill@@ABEXPAVKMissle@@@Z 10006090 f   KSkills.obj
 0001:000050a0       ?Collidsion@KSkill@@ABEXPAVKMissle@@@Z 100060a0 f   KSkills.obj
 0001:000050b0       ?CastMissles@KSkill@@ABEHHHHHW4eSkillLauncherType@@@Z 100060b0 f   KSkills.obj
 0001:00006960       ?qsqrt@@YAMM@Z             10007960 f i KSkills.obj
 0001:00006990       ?g_GetDistance@@YAHHHHH@Z  10007990 f i KSkills.obj
 0001:00006a00       ?CastZone@KSkill@@ABEHPAUTOrdinSkillParam@@HHHHH@Z 10007a00 f   KSkills.obj
 0001:00006f70       ?CastLine@KSkill@@ABEHPAUTOrdinSkillParam@@HHHHH@Z 10007f70 f   KSkills.obj
 0001:000073d0       ?CastExtractiveLineMissle@KSkill@@ABEHPAUTOrdinSkillParam@@HHHHHHH@Z 100083d0 f   KSkills.obj
 0001:000077c0       ?CastWall@KSkill@@ABEHPAUTOrdinSkillParam@@HHHHH@Z 100087c0 f   KSkills.obj
 0001:00007cb0       ?CastCircle@KSkill@@ABEHPAUTOrdinSkillParam@@HHH@Z 10008cb0 f   KSkills.obj
 0001:00008050       ?CastSpread@KSkill@@ABEHPAUTOrdinSkillParam@@HHH@Z 10009050 f   KSkills.obj
 0001:000085b0       ?GetChildSkillNum@KSkill@@QBEHH@Z 100095b0 f   KSkills.obj
 0001:000085c0       ?CreateMissle@KSkill@@ABEXHHH@Z 100095c0 f   KSkills.obj
 0001:000087c0       ?GetInfoFromTabFile@KSkill@@QAEHH@Z 100097c0 f   KSkills.obj
 0001:000087e0       ?GetInfoFromTabFile@KSkill@@QAEHPAVKITabFile@@H@Z 100097e0 f   KSkills.obj
 0001:00008dc0       ?LoadSkillLevelData@KSkill@@UAEXKH@Z 10009dc0 f   KSkills.obj
 0001:00009000       ?CreateMissleMagicAttribsData@KSkill@@QBEPAVKMissleMagicAttribsData@@H@Z 1000a000 f   KSkills.obj
 0001:00009130       ?GetMissleGenerateTime@KSkill@@QBEIH@Z 1000a130 f   KSkills.obj
 0001:00009230       ?GetSkillIdFromName@KSkill@@SAHPAD@Z 1000a230 f   KSkills.obj
 0001:000092d0       ?CastInitiativeSkill@KSkill@@ABEHHHHH@Z 1000a2d0 f   KSkills.obj
 0001:00009370       ?CastInitiativeSkill@KSkill@@ABEXHH@Z 1000a370 f   KSkills.obj
 0001:00009490       ?CastPassivitySkill@KSkill@@ABEHHHHHH@Z 1000a490 f   KSkills.obj
 0001:00009570       ?CastStateSkill@KSkill@@QBEHHHHHH@Z 1000a570 f   KSkills.obj
 0001:000095c0       ?ParseString2MagicAttrib@KSkill@@AAEHKPAD0@Z 1000a5c0 f   KSkills.obj
 0001:00009d70       ?IsTargetOnly@KSkill@@UBEHXZ 1000ad70 f i KSkills.obj
 0001:00009d80       ?IsTargetSelf@KSkill@@UBEHXZ 1000ad80 f i KSkills.obj
 0001:00009d90       ?IsTargetEnemy@KSkill@@UBEHXZ 1000ad90 f i KSkills.obj
 0001:00009da0       ?IsTargetAlly@KSkill@@UBEHXZ 1000ada0 f i KSkills.obj
 0001:00009db0       ?IsTargetObj@KSkill@@UBEHXZ 1000adb0 f i KSkills.obj
 0001:00009dc0       ?GetSkillLevelUpScriptId@KSkill@@UBEKXZ 1000adc0 f i KSkills.obj
 0001:00009dd0       ?GetSkillName@KSkill@@UAEPBDXZ 1000add0 f i KSkills.obj
 0001:00009de0       ?GetSkillStyle@KSkill@@UAEHXZ 1000ade0 f i KSkills.obj
 0001:00009df0       ?GetAttackRadius@KSkill@@UBEHXZ 1000adf0 f i KSkills.obj
 0001:00009e00       ?GetSkillCost@KSkill@@UBEHPAX@Z 1000ae00 f i KSkills.obj
 0001:00009e10       ?GetSkillCostType@KSkill@@UBE?AW4NPCATTRIB@@XZ 1000ae10 f i KSkills.obj
 0001:00009e20       ?GetSkillId@KSkill@@UAEHXZ 1000ae20 f i KSkills.obj
 0001:00009e30       ?IsAura@KSkill@@UBEHXZ     1000ae30 f i KSkills.obj
 0001:00009e40       ?IsPhysical@KSkill@@UBEHXZ 1000ae40 f i KSkills.obj
 0001:00009e50       ?GetSkillAttrib@KSkill@@UBEFXZ 1000ae50 f i KSkills.obj
 0001:00009e60       ?IsExpSkill@KSkill@@UBEHXZ 1000ae60 f i KSkills.obj
 0001:00009f00       ?Init@KFaction@@QAEHXZ     1000af00 f   KFaction.obj
 0001:0000a3b0       ?GetID@KFaction@@QAEHHH@Z  1000b3b0 f   KFaction.obj
 0001:0000a3e0       ?GetID@KFaction@@QAEHHPAD@Z 1000b3e0 f   KFaction.obj
 0001:0000a470       ?GetCamp@KFaction@@QAEHH@Z 1000b470 f   KFaction.obj
 0001:0000a5a0       ??1KNpc@@QAE@XZ            1000b5a0 f i KNpc.obj
 0001:0000a600       ??1KList@@QAE@XZ           1000b600 f i KNpc.obj
 0001:0000a610       ??0KNpc@@QAE@XZ            1000b610 f   KNpc.obj
 0001:0000a8b0       ??1KNode@@UAE@XZ           1000b8b0 f i KNpc.obj
 0001:0000a8c0       ??0KNode@@QAE@XZ           1000b8c0 f i KNpc.obj
 0001:0000a8e0       ??0KMagicAttrib@@QAE@XZ    1000b8e0 f i KNpc.obj
 0001:0000a900       ?Init@KNpc@@QAEXXZ         1000b900 f   KNpc.obj
 0001:0000acc0       ?GetActiveSkill@KNpc@@QAEPAVISkill@@XZ 1000bcc0 f   KNpc.obj
 0001:0000ad50       ?SetCurrentCamp@KNpc@@QAEXH@Z 1000bd50 f   KNpc.obj
 0001:0000aeb0       ?SetCamp@KNpc@@QAEXH@Z     1000beb0 f   KNpc.obj
 0001:0000b010       ?RestoreCurrentCamp@KNpc@@QAEXXZ 1000c010 f   KNpc.obj
 0001:0000b170       ?Activate@KNpc@@QAEXXZ     1000c170 f   KNpc.obj
 0001:0000b370       ?ProcStatus@KNpc@@QAEXXZ   1000c370 f   KNpc.obj
 0001:0000b450       ?ProcCommand@KNpc@@QAEXH@Z 1000c450 f   KNpc.obj
 0001:0000b680       ?ProcessState@KNpc@@QAEHXZ 1000c680 f   KNpc.obj
 0001:0000c320       ?DoDeath@KNpc@@AAEXHH@Z    1000d320 f   KNpc.obj
 0001:0000c580       ?OnDeath@KNpc@@AAEXXZ      1000d580 f   KNpc.obj
 0001:0000c880       ?DoDefense@KNpc@@AAEXXZ    1000d880 f   KNpc.obj
 0001:0000c890       ?OnDefense@KNpc@@AAEXXZ    1000d890 f   KNpc.obj
 0001:0000c8a0       ?DoIdle@KNpc@@AAEXXZ       1000d8a0 f   KNpc.obj
 0001:0000c8c0       ?OnIdle@KNpc@@AAEXXZ       1000d8c0 f   KNpc.obj
 0001:0000c8d0       ?DoHurt@KNpc@@AAEXHHH@Z    1000d8d0 f   KNpc.obj
 0001:0000cb00       ?OnHurt@KNpc@@AAEXXZ       1000db00 f   KNpc.obj
 0001:0000cb50       ?DoSpecial1@KNpc@@AAEXXZ   1000db50 f   KNpc.obj
 0001:0000cb60       ?OnSpecial1@KNpc@@AAEXXZ   1000db60 f   KNpc.obj
 0001:0000cc20       ?DoSpecial2@KNpc@@AAEXXZ   1000dc20 f   KNpc.obj
 0001:0000cc30       ?OnSpecial2@KNpc@@AAEXXZ   1000dc30 f   KNpc.obj
 0001:0000cca0       ?DoSpecial3@KNpc@@AAEXXZ   1000dca0 f   KNpc.obj
 0001:0000ccb0       ?OnSpecial3@KNpc@@AAEXXZ   1000dcb0 f   KNpc.obj
 0001:0000ccc0       ?DoSpecial4@KNpc@@AAEXXZ   1000dcc0 f   KNpc.obj
 0001:0000ccd0       ?OnSpecial4@KNpc@@AAEXXZ   1000dcd0 f   KNpc.obj
 0001:0000cce0       ?DoGlide@KNpc@@AAEHF@Z     1000dce0 f   KNpc.obj
 0001:0000d2a0       ?OnGlide@KNpc@@AAEXXZ      1000e2a0 f   KNpc.obj
 0001:0000d2b0       ?GlideTo@KNpc@@AAEXHHF@Z   1000e2b0 f   KNpc.obj
 0001:0000d2f0       ?DoStand@KNpc@@AAEXXZ      1000e2f0 f   KNpc.obj
 0001:0000d330       ?OnStand@KNpc@@AAEXXZ      1000e330 f   KNpc.obj
 0001:0000d340       ?DoRevive@KNpc@@AAEXXZ     1000e340 f   KNpc.obj
 0001:0000d460       ?OnRevive@KNpc@@AAEXXZ     1000e460 f   KNpc.obj
 0001:0000d480       ?DoRun@KNpc@@AAEXXZ        1000e480 f   KNpc.obj
 0001:0000d6a0       ?OnRun@KNpc@@AAEXH@Z       1000e6a0 f   KNpc.obj
 0001:0000d740       ?DoSit@KNpc@@AAEXXZ        1000e740 f   KNpc.obj
 0001:0000d8b0       ?OnSit@KNpc@@AAEXXZ        1000e8b0 f   KNpc.obj
 0001:0000d8d0       ?DoSkill@KNpc@@AAEXHH@Z    1000e8d0 f   KNpc.obj
 0001:0000dc40       ?UnDoSkill@KNpc@@AAEXXZ    1000ec40 f   KNpc.obj
 0001:0000dc60       ?DoOrdinSkill@KNpc@@AAEHPAVKSkill@@HH@Z 1000ec60 f   KNpc.obj
 0001:0000dda0       ?DoAttack@KNpc@@AAEXXZ     1000eda0 f   KNpc.obj
 0001:0000ddf0       ?CastMeleeSkill@KNpc@@AAEHPAVKSkill@@@Z 1000edf0 f   KNpc.obj
 0001:0000e030       ?DoBlurAttack@KNpc@@AAEHXZ 1000f030 f   KNpc.obj
 0001:0000e090       ?DoMagic@KNpc@@AAEXXZ      1000f090 f   KNpc.obj
 0001:0000e0e0       ?OnSkill@KNpc@@AAEXXZ      1000f0e0 f   KNpc.obj
 0001:0000e1f0       ?JumpTo@KNpc@@AAEXHH@Z     1000f1f0 f   KNpc.obj
 0001:0000e230       ?RunTo@KNpc@@AAEXHH@Z      1000f230 f   KNpc.obj
 0001:0000e260       ?Goto@KNpc@@AAEXHH@Z       1000f260 f   KNpc.obj
 0001:0000e290       ?DoWalk@KNpc@@AAEXXZ       1000f290 f   KNpc.obj
 0001:0000e470       ?DoPlayerTalk@KNpc@@QAEXPAD@Z 1000f470 f   KNpc.obj
 0001:0000e630       ?OnPlayerTalk@KNpc@@AAEXXZ 1000f630 f   KNpc.obj
 0001:0000e640       ?OnWalk@KNpc@@AAEXXZ       1000f640 f   KNpc.obj
 0001:0000e660       ?GetSkillLevel@KNpc@@QAEHH@Z 1000f660 f   KNpc.obj
 0001:0000e690       ?ModifyAttrib@KNpc@@QAEXHPAX@Z 1000f690 f   KNpc.obj
 0001:0000e6b0       ?CalcDamage@KNpc@@QAEHHHHHW4DAMAGE_TYPE@@HHHHHHHH@Z 1000f6b0 f   KNpc.obj
 0001:0000f1d0       ?ReceiveDamage@KNpc@@QAEHHHPAXHHH@Z 100101d0 f   KNpc.obj
 0001:0000fef0       ?SetImmediatelySkillEffect@KNpc@@QAEXHPAXH@Z 10010ef0 f   KNpc.obj
 0001:0000ff30       ?AppendSkillEffect@KNpc@@QAEXKHHPAX0@Z 10010f30 f   KNpc.obj
 0001:00010860       ?ProcMove@KNpc@@AAEXH@Z    10011860 f   KNpc.obj
 0001:00010de0       ?ProcJump@KNpc@@AAEXH@Z    10011de0 f   KNpc.obj
 0001:00011100       ?SendCommand@KNpc@@QAEXW4NPCCMD@@HHH@Z 10012100 f   KNpc.obj
 0001:00011150       ?SendCommandRandMove@KNpc@@QAEXHHH@Z 10012150 f   KNpc.obj
 0001:00011180       ?NewPath@KNpc@@AAEHHH@Z    10012180 f   KNpc.obj
 0001:000111a0       ?NewJump@KNpc@@AAEHHH@Z    100121a0 f   KNpc.obj
 0001:00011530       ?NewGlide@KNpc@@AAEHHHH@Z  10012530 f   KNpc.obj
 0001:000118c0       ?SelfDamage@KNpc@@QAEXH@Z  100128c0 f   KNpc.obj
 0001:000118f0       ?Cost@KNpc@@QAEHW4NPCATTRIB@@HH@Z 100128f0 f   KNpc.obj
 0001:00011960       ?DoJump@KNpc@@AAEXXZ       10012960 f   KNpc.obj
 0001:00011b20       ?OnJump@KNpc@@AAEHXZ       10012b20 f   KNpc.obj
 0001:00011b70       ?WaitForFrame@KNpc@@AAEHXZ 10012b70 f   KNpc.obj
 0001:00011ba0       ?IsReachFrame@KNpc@@AAEHH@Z 10012ba0 f   KNpc.obj
 0001:00011bd0       ?Load@KNpc@@QAEXHHH@Z      10012bd0 f   KNpc.obj
 0001:00011c70       ?GetMpsPos@KNpc@@QAEXPAH0@Z 10012c70 f   KNpc.obj
 0001:00011cc0       ?SetActiveSkill@KNpc@@QAEHH@Z 10012cc0 f   KNpc.obj
 0001:00011d80       ?SetAuraSkill@KNpc@@QAEXH@Z 10012d80 f   KNpc.obj
 0001:00011e70       ?SetPlayerIdx@KNpc@@QAEHH@Z 10012e70 f   KNpc.obj
 0001:00011ea0       ?SendSyncData@KNpc@@QAEHH@Z 10012ea0 f   KNpc.obj
 0001:000122e0       ?NormalSync@KNpc@@QAEXXZ   100132e0 f   KNpc.obj
 0001:00012a40       ?BroadCastRevive@KNpc@@QAEXH@Z 10013a40 f   KNpc.obj
 0001:00012ba0       ?SetPos@KNpc@@QAE_NHH@Z    10013ba0 f   KNpc.obj
 0001:00012dc0       ?MoveNpc@KNpc@@QAEXHHHHH_N@Z 10013dc0 f   KNpc.obj
 0001:00012ee0       ?AddBaseLifeMax@KNpc@@QAEXH@Z 10013ee0 f   KNpc.obj
 0001:00012f00       ?AddCurLifeMax@KNpc@@QAEXH@Z 10013f00 f   KNpc.obj
 0001:00012f20       ?AddBaseStaminaMax@KNpc@@QAEXH@Z 10013f20 f   KNpc.obj
 0001:00012f40       ?AddCurStaminaMax@KNpc@@QAEXH@Z 10013f40 f   KNpc.obj
 0001:00012f60       ?AddBaseManaMax@KNpc@@QAEXH@Z 10013f60 f   KNpc.obj
 0001:00012f80       ?AddCurManaMax@KNpc@@QAEXH@Z 10013f80 f   KNpc.obj
 0001:00012fa0       ?CalcCurLifeReplenish@KNpc@@QAEXXZ 10013fa0 f   KNpc.obj
 0001:00012fb0       ?Remove@KNpc@@QAEXXZ       10013fb0 f   KNpc.obj
 0001:00012fc0       ?SetSeries@KNpc@@QAEXH@Z   10013fc0 f   KNpc.obj
 0001:00012fe0       ?SetStateSkillEffect@KNpc@@QAEXHHHPAXHHH@Z 10013fe0 f   KNpc.obj
 0001:000133f0       ??_EKStateNode@@UAEPAXI@Z  100143f0 f i KNpc.obj
 0001:000133f0       ??_GKStateNode@@UAEPAXI@Z  100143f0 f i KNpc.obj
 0001:00013410       ??1KStateNode@@UAE@XZ      10014410 f i KNpc.obj
 0001:00013420       ?ModifyMissleCollsion@KNpc@@QAEHH@Z 10014420 f   KNpc.obj
 0001:00013450       ?ModifyMissleLifeTime@KNpc@@QAEHH@Z 10014450 f   KNpc.obj
 0001:00013460       ?ModifyMissleSpeed@KNpc@@QAEHH@Z 10014460 f   KNpc.obj
 0001:00013480       ?DoManyAttack@KNpc@@AAEHXZ 10014480 f   KNpc.obj
 0001:00013540       ?OnManyAttack@KNpc@@AAEXXZ 10014540 f   KNpc.obj
 0001:000135e0       ?DoRunAttack@KNpc@@AAEHXZ  100145e0 f   KNpc.obj
 0001:000136f0       ?OnRunAttack@KNpc@@AAEXXZ  100146f0 f   KNpc.obj
 0001:00013890       ?DoJumpAttack@KNpc@@AAEHXZ 10014890 f   KNpc.obj
 0001:00013930       ?OnJumpAttack@KNpc@@AAEHXZ 10014930 f   KNpc.obj
 0001:00013a70       ?CheckHitTarget@KNpc@@AAEHHHH@Z 10014a70 f   KNpc.obj
 0001:00013ae0       ?AddStateInfo@KNpc@@AAEXH@Z 10014ae0 f   KNpc.obj
 0001:00013b30       ?AddStateSkillList@KNpc@@AAEXPAVKStateNode@@@Z 10014b30 f   KNpc.obj
 0001:00013b90       ?GetNpcCopyFromTemplate@KNpc@@QAEXHHH@Z 10014b90 f   KNpc.obj
 0001:00013f70       ?LoadDataFromTemplate@KNpc@@QAEXHHH@Z 10014f70 f   KNpc.obj
 0001:000143d0       ?SetPhysicsDamage@KNpc@@QAEXHH@Z 100153d0 f   KNpc.obj
 0001:000143f0       ?SetBaseAttackRating@KNpc@@QAEXH@Z 100153f0 f   KNpc.obj
 0001:00014410       ?SetBaseDefence@KNpc@@QAEXH@Z 10015410 f   KNpc.obj
 0001:00014430       ?DeathPunish@KNpc@@QAEXHH@Z 10015430 f   KNpc.obj
 0001:000149b0       ??1tagSHOW_MSG_SYNC@@QAE@XZ 100159b0 f i KNpc.obj
 0001:000149d0       ?PlayerDeadCreateMoneyObj@KNpc@@AAEXH@Z 100159d0 f   KNpc.obj
 0001:00014aa0       ?LoseMoney@KNpc@@AAEXH@Z   10015aa0 f   KNpc.obj
 0001:00014bc0       ?LoseSingleItem@KNpc@@AAEXH@Z 10015bc0 f   KNpc.obj
 0001:00015010       ?Revive@KNpc@@QAEXXZ       10016010 f   KNpc.obj
 0001:00015230       ?RestoreLiveData@KNpc@@QAEXXZ 10016230 f   KNpc.obj
 0001:00015240       ?SendDataToNearRegion@KNpc@@QAEXPAXK@Z 10016240 f   KNpc.obj
 0001:00015390       ?DeathCalcPKValue@KNpc@@QAEHH@Z 10016390 f   KNpc.obj
 0001:00015600       ?CheckPlayerAround@KNpc@@QAEHH@Z 10016600 f   KNpc.obj
 0001:000156c0       ?SendBloodNo@KNpc@@QAEXKH@Z 100166c0 f   KNpc.obj
 0001:00015770       ?getRandomLevel@KNpc@@QAEHQBNH@Z 10016770 f   KNpc.obj
 0001:000157f0       ?IsMagicAttribLuckyLevel@KNpc@@QAEHH@Z 100167f0 f   KNpc.obj
 0001:00015920       ?DropRateItem@KNpc@@QAEXHPBDHHHH@Z 10016920 f   KNpc.obj
 0001:00016100       ?DropObj@KNpc@@QAEXHHPADHH@Z 10017100 f   KNpc.obj
 0001:000161e0       ?UpdateNpcStateInfo@KNpc@@AAEXXZ 100171e0 f   KNpc.obj
 0001:000162c0       ?BroadCastState@KNpc@@QAEXXZ 100172c0 f   KNpc.obj
 0001:00016430       ?AddPoisonState@KNpc@@AAEXHHHH@Z 10017430 f   KNpc.obj
 0001:00016560       ?ClearNpcState@KNpc@@QAEXXZ 10017560 f   KNpc.obj
 0001:000165c0       ?RestoreNpcBaseInfo@KNpc@@QAEXXZ 100175c0 f   KNpc.obj
 0001:00016a00       ?ChangeWorld@KNpc@@QAEHKHH@Z 10017a00 f   KNpc.obj
 0001:00017080       ?TobeExchangeServer@KNpc@@QAEXKHH@Z 10018080 f   KNpc.obj
 0001:000170f0       ?IsPlayer@KNpc@@QAEHXZ     100180f0 f   KNpc.obj
 0001:00017100       ?IsAlive@KNpc@@QAEHXZ      10018100 f   KNpc.obj
 0001:00017120       ?ClearStateSkillEffect@KNpc@@QAEXXZ 10018120 f   KNpc.obj
 0001:000171f0       ?ClearNormalState@KNpc@@QAEXXZ 100181f0 f   KNpc.obj
 0001:000172c0       ?CheckTrap@KNpc@@QAEXXZ    100182c0 f   KNpc.obj
 0001:00017360       ?SetFightMode@KNpc@@QAEXH@Z 10018360 f   KNpc.obj
 0001:000173a0       ?TurnTo@KNpc@@QAEXH@Z      100183a0 f   KNpc.obj
 0001:00017500       ?ReCalcStateEffect@KNpc@@QAEXXZ 10018500 f   KNpc.obj
 0001:00017590       ?GetCurActiveWeaponSkill@KNpc@@QAEHXZ 10018590 f   KNpc.obj
 0001:00017620       ?BroadCastPosition@KNpc@@QAEXXZ 10018620 f   KNpc.obj
 0001:000177d0       ?GetFrameCopyFromTemplate@KNpc@@QAEXHHH@Z 100187d0 f   KNpc.obj
 0001:00017ba0       ?LoadFrameFromTemplate@KNpc@@QAEXHHH@Z 10018ba0 f   KNpc.obj
 0001:00017c10       ?ReSetRes@KNpc@@QAEXH@Z    10018c10 f   KNpc.obj
 0001:00017c60       ?AutoDoSkill@KNpc@@QAEXHHHH@Z 10018c60 f   KNpc.obj
 0001:00018220       ?RandMove@KNpc@@QAEXHHH@Z  10019220 f   KNpc.obj
 0001:00018420       ?ExecuteRevive@KNpc@@QAEXXZ 10019420 f   KNpc.obj
 0001:00018440       ?SetTitleEffect@KNpc@@QAEXH@Z 10019440 f   KNpc.obj
 0001:00018600       ?SetTimer@KNpc@@QAEXKH@Z   10019600 f   KNpc.obj
 0001:00018620       ?CloseTimer@KNpc@@QAEXXZ   10019620 f   KNpc.obj
 0001:00018630       ?SaveTimerTask@KNpc@@QAEXXZ 10019630 f   KNpc.obj
 0001:00018650       ?LoadTimerTask@KNpc@@QAEXXZ 10019650 f   KNpc.obj
 0001:00018670       ?ExecuteTimerScript@KNpc@@QAEHPAD0H@Z 10019670 f   KNpc.obj
 0001:000186b0       ?ExecuteTimerScript@KNpc@@QAEHKPADH@Z 100196b0 f   KNpc.obj
 0001:000188b0       ?ExecuteScript@KNpc@@QAEHPAD0H@Z 100198b0 f   KNpc.obj
 0001:000188f0       ?ExecuteScript@KNpc@@QAEHKPADH@Z 100198f0 f   KNpc.obj
 0001:00018a60       ?ExecuteScript@KNpc@@QAEHKPAD0@Z 10019a60 f   KNpc.obj
 0001:00018bf0       ?ExecuteScript@KNpc@@QAEHPAD00@Z 10019bf0 f   KNpc.obj
 0001:00018c40       ?ExecuteScript2@KNpc@@QAEHKPAD00@Z 10019c40 f   KNpc.obj
 0001:00018de0       ?ExecuteScript2@KNpc@@QAEHKPADHH@Z 10019de0 f   KNpc.obj
 0001:00018f50       ?ExecuteScript2@KNpc@@QAEHPAD0HH@Z 10019f50 f   KNpc.obj
 0001:00018fa0       ?ExecuteScript2@KNpc@@QAEHPAD000@Z 10019fa0 f   KNpc.obj
 0001:00018ff0       ?MaintainAura@KNpc@@QAEXXZ 10019ff0 f   KNpc.obj
 0001:00019190       ??0KNpcAI@@QAE@XZ          1001a190 f   KNpcAI.obj
 0001:000191a0       ?Activate@KNpcAI@@QAEXH@Z  1001a1a0 f   KNpcAI.obj
 0001:000192b0       ?ProcessPlayer@KNpcAI@@AAEXXZ 1001a2b0 f   KNpcAI.obj
 0001:000192d0       ?TriggerMapTrap@KNpcAI@@AAEXXZ 1001a2d0 f   KNpcAI.obj
 0001:000192f0       ?TriggerObjectTrap@KNpcAI@@AAEXXZ 1001a2f0 f   KNpcAI.obj
 0001:00019300       ?GetNearestNpc@KNpcAI@@AAEHH@Z 1001a300 f   KNpcAI.obj
 0001:00019860       ?GetNpcNumber@KNpcAI@@AAEHH@Z 1001a860 f   KNpcAI.obj
 0001:00019a70       ?KeepAttackRange@KNpcAI@@AAEXHH@Z 1001aa70 f   KNpcAI.obj
 0001:00019c10       ?FollowAttack@KNpcAI@@AAEXH@Z 1001ac10 f   KNpcAI.obj
 0001:00019d10       ?InEyeshot@KNpcAI@@AAEHH@Z 1001ad10 f   KNpcAI.obj
 0001:00019d50       ?CommonAction@KNpcAI@@AAEXXZ 1001ad50 f   KNpcAI.obj
 0001:00019e40       ?KeepActiveRange@KNpcAI@@AAEHXZ 1001ae40 f   KNpcAI.obj
 0001:00019f60       ?Flee@KNpcAI@@AAEXH@Z      1001af60 f   KNpcAI.obj
 0001:0001a000       ?ProcessAIType01@KNpcAI@@AAEXXZ 1001b000 f   KNpcAI.obj
 0001:0001a1c0       ?ProcessAIType02@KNpcAI@@AAEXXZ 1001b1c0 f   KNpcAI.obj
 0001:0001a450       ?ProcessAIType03@KNpcAI@@AAEXXZ 1001b450 f   KNpcAI.obj
 0001:0001a660       ?ProcessAIType04@KNpcAI@@AAEXXZ 1001b660 f   KNpcAI.obj
 0001:0001a830       ?ProcessAIType05@KNpcAI@@AAEXXZ 1001b830 f   KNpcAI.obj
 0001:0001aa60       ?ProcessAIType06@KNpcAI@@AAEXXZ 1001ba60 f   KNpcAI.obj
 0001:0001ac30       ?ProcessAIType07@KNpcAI@@AAEXXZ 1001bc30 f   KNpcAI.obj
 0001:0001add0       ??0KNpcAttribModify@@QAE@XZ 1001bdd0 f   KNpcAttribModify.obj
 0001:0001b290       ??1KNpcAttribModify@@QAE@XZ 1001c290 f   KNpcAttribModify.obj
 0001:0001b2a0       ?ModifyAttrib@KNpcAttribModify@@QAEXPAVKNpc@@PAX@Z 1001c2a0 f   KNpcAttribModify.obj
 0001:0001b2d0       ?AddColdDamageV@KNpcAttribModify@@AAEXPAVKNpc@@PAX@Z 1001c2d0 f   KNpcAttribModify.obj
 0001:0001b360       ?AddFireDamageV@KNpcAttribModify@@AAEXPAVKNpc@@PAX@Z 1001c360 f   KNpcAttribModify.obj
 0001:0001b390       ?AddLightingDamageV@KNpcAttribModify@@AAEXPAVKNpc@@PAX@Z 1001c390 f   KNpcAttribModify.obj
 0001:0001b3c0       ?AddPhysicsDamageP@KNpcAttribModify@@AAEXPAVKNpc@@PAX@Z 1001c3c0 f   KNpcAttribModify.obj
 0001:0001b480       ?AddPoisonDamageV@KNpcAttribModify@@AAEXPAVKNpc@@PAX@Z 1001c480 f   KNpcAttribModify.obj
 0001:0001b4d0       ?AddPhysicsDamageV@KNpcAttribModify@@AAEXPAVKNpc@@PAX@Z 1001c4d0 f   KNpcAttribModify.obj
 0001:0001b4f0       ?AllresP@KNpcAttribModify@@AAEXPAVKNpc@@PAX@Z 1001c4f0 f   KNpcAttribModify.obj
 0001:0001b540       ?AllSkillV@KNpcAttribModify@@AAEXPAVKNpc@@PAX@Z 1001c540 f   KNpcAttribModify.obj
 0001:0001b5b0       ?AttackRatingP@KNpcAttribModify@@AAEXPAVKNpc@@PAX@Z 1001c5b0 f   KNpcAttribModify.obj
 0001:0001b5e0       ?AttackRatingV@KNpcAttribModify@@AAEXPAVKNpc@@PAX@Z 1001c5e0 f   KNpcAttribModify.obj
 0001:0001b600       ?AttackSpeedV@KNpcAttribModify@@AAEXPAVKNpc@@PAX@Z 1001c600 f   KNpcAttribModify.obj
 0001:0001b620       ?BadStatusTimeReduceV@KNpcAttribModify@@AAEXPAVKNpc@@PAX@Z 1001c620 f   KNpcAttribModify.obj
 0001:0001b630       ?BurnTimeReduceP@KNpcAttribModify@@AAEXPAVKNpc@@PAX@Z 1001c630 f   KNpcAttribModify.obj
 0001:0001b640       ?CastSpeedV@KNpcAttribModify@@AAEXPAVKNpc@@PAX@Z 1001c640 f   KNpcAttribModify.obj
 0001:0001b660       ?ChangeCampV@KNpcAttribModify@@AAEXPAVKNpc@@PAX@Z 1001c660 f   KNpcAttribModify.obj
 0001:0001b6a0       ?ColdArmorV@KNpcAttribModify@@AAEXPAVKNpc@@PAX@Z 1001c6a0 f   KNpcAttribModify.obj
 0001:0001b6b0       ?ColdresP@KNpcAttribModify@@AAEXPAVKNpc@@PAX@Z 1001c6b0 f   KNpcAttribModify.obj
 0001:0001b6d0       ?DeadlyStrikeP@KNpcAttribModify@@AAEXPAVKNpc@@PAX@Z 1001c6d0 f   KNpcAttribModify.obj
 0001:0001b6f0       ?DexterityV@KNpcAttribModify@@AAEXPAVKNpc@@PAX@Z 1001c6f0 f   KNpcAttribModify.obj
 0001:0001b730       ?EarthSkillV@KNpcAttribModify@@AAEXPAVKNpc@@PAX@Z 1001c730 f   KNpcAttribModify.obj
 0001:0001b740       ?EnergyV@KNpcAttribModify@@AAEXPAVKNpc@@PAX@Z 1001c740 f   KNpcAttribModify.obj
 0001:0001b780       ?FastHitRecoverV@KNpcAttribModify@@AAEXPAVKNpc@@PAX@Z 1001c780 f   KNpcAttribModify.obj
 0001:0001b7a0       ?FastWalkRunP@KNpcAttribModify@@AAEXPAVKNpc@@PAX@Z 1001c7a0 f   KNpcAttribModify.obj
 0001:0001b810       ?FireArmorV@KNpcAttribModify@@AAEXPAVKNpc@@PAX@Z 1001c810 f   KNpcAttribModify.obj
 0001:0001b820       ?FireSkillV@KNpcAttribModify@@AAEXPAVKNpc@@PAX@Z 1001c820 f   KNpcAttribModify.obj
 0001:0001b830       ?FreezeTimeReduceP@KNpcAttribModify@@AAEXPAVKNpc@@PAX@Z 1001c830 f   KNpcAttribModify.obj
 0001:0001b850       ?KnockBackP@KNpcAttribModify@@AAEXPAVKNpc@@PAX@Z 1001c850 f   KNpcAttribModify.obj
 0001:0001b870       ?LifeMaxP@KNpcAttribModify@@AAEXPAVKNpc@@PAX@Z 1001c870 f   KNpcAttribModify.obj
 0001:0001b8c0       ?LifeMaxV@KNpcAttribModify@@AAEXPAVKNpc@@PAX@Z 1001c8c0 f   KNpcAttribModify.obj
 0001:0001b8e0       ?LifeReplenishV@KNpcAttribModify@@AAEXPAVKNpc@@PAX@Z 1001c8e0 f   KNpcAttribModify.obj
 0001:0001b900       ?LifeV@KNpcAttribModify@@AAEXPAVKNpc@@PAX@Z 1001c900 f   KNpcAttribModify.obj
 0001:0001b920       ?LightingArmorV@KNpcAttribModify@@AAEXPAVKNpc@@PAX@Z 1001c920 f   KNpcAttribModify.obj
 0001:0001b930       ?LightingresP@KNpcAttribModify@@AAEXPAVKNpc@@PAX@Z 1001c930 f   KNpcAttribModify.obj
 0001:0001b950       ?LuckyV@KNpcAttribModify@@AAEXPAVKNpc@@PAX@Z 1001c950 f   KNpcAttribModify.obj
 0001:0001b990       ?ManaMaxP@KNpcAttribModify@@AAEXPAVKNpc@@PAX@Z 1001c990 f   KNpcAttribModify.obj
 0001:0001b9d0       ?ManaMaxV@KNpcAttribModify@@AAEXPAVKNpc@@PAX@Z 1001c9d0 f   KNpcAttribModify.obj
 0001:0001b9f0       ?ManaReplenishV@KNpcAttribModify@@AAEXPAVKNpc@@PAX@Z 1001c9f0 f   KNpcAttribModify.obj
 0001:0001ba10       ?ManaV@KNpcAttribModify@@AAEXPAVKNpc@@PAX@Z 1001ca10 f   KNpcAttribModify.obj
 0001:0001ba30       ?ManaShieldP@KNpcAttribModify@@AAEXPAVKNpc@@PAX@Z 1001ca30 f   KNpcAttribModify.obj
 0001:0001ba50       ?MeleeDamageReturnP@KNpcAttribModify@@AAEXPAVKNpc@@PAX@Z 1001ca50 f   KNpcAttribModify.obj
 0001:0001ba70       ?MeleeDamageReturnV@KNpcAttribModify@@AAEXPAVKNpc@@PAX@Z 1001ca70 f   KNpcAttribModify.obj
 0001:0001ba90       ?MetalSkillV@KNpcAttribModify@@AAEXPAVKNpc@@PAX@Z 1001ca90 f   KNpcAttribModify.obj
 0001:0001baa0       ?PhysicsArmorV@KNpcAttribModify@@AAEXPAVKNpc@@PAX@Z 1001caa0 f   KNpcAttribModify.obj
 0001:0001bab0       ?PhysicsresP@KNpcAttribModify@@AAEXPAVKNpc@@PAX@Z 1001cab0 f   KNpcAttribModify.obj
 0001:0001bad0       ?Damage2ManaP@KNpcAttribModify@@AAEXPAVKNpc@@PAX@Z 1001cad0 f   KNpcAttribModify.obj
 0001:0001baf0       ?PoisonArmorV@KNpcAttribModify@@AAEXPAVKNpc@@PAX@Z 1001caf0 f   KNpcAttribModify.obj
 0001:0001bb00       ?PoisonDamageReduceV@KNpcAttribModify@@AAEXPAVKNpc@@PAX@Z 1001cb00 f   KNpcAttribModify.obj
 0001:0001bb30       ?PoisonresP@KNpcAttribModify@@AAEXPAVKNpc@@PAX@Z 1001cb30 f   KNpcAttribModify.obj
 0001:0001bb50       ?PoisonTimeReduceP@KNpcAttribModify@@AAEXPAVKNpc@@PAX@Z 1001cb50 f   KNpcAttribModify.obj
 0001:0001bb70       ?RangeDamageReturnV@KNpcAttribModify@@AAEXPAVKNpc@@PAX@Z 1001cb70 f   KNpcAttribModify.obj
 0001:0001bb90       ?RangeDamageReturnP@KNpcAttribModify@@AAEXPAVKNpc@@PAX@Z 1001cb90 f   KNpcAttribModify.obj
 0001:0001bbb0       ?SlowMissleB@KNpcAttribModify@@AAEXPAVKNpc@@PAX@Z 1001cbb0 f   KNpcAttribModify.obj
 0001:0001bbe0       ?StaminaMaxP@KNpcAttribModify@@AAEXPAVKNpc@@PAX@Z 1001cbe0 f   KNpcAttribModify.obj
 0001:0001bc20       ?StaminaMaxV@KNpcAttribModify@@AAEXPAVKNpc@@PAX@Z 1001cc20 f   KNpcAttribModify.obj
 0001:0001bc40       ?StaminaReplenishV@KNpcAttribModify@@AAEXPAVKNpc@@PAX@Z 1001cc40 f   KNpcAttribModify.obj
 0001:0001bc60       ?StaminaV@KNpcAttribModify@@AAEXPAVKNpc@@PAX@Z 1001cc60 f   KNpcAttribModify.obj
 0001:0001bc80       ?StealLifeP@KNpcAttribModify@@AAEXPAVKNpc@@PAX@Z 1001cc80 f   KNpcAttribModify.obj
 0001:0001bca0       ?StealManaP@KNpcAttribModify@@AAEXPAVKNpc@@PAX@Z 1001cca0 f   KNpcAttribModify.obj
 0001:0001bcc0       ?StealStaminaP@KNpcAttribModify@@AAEXPAVKNpc@@PAX@Z 1001ccc0 f   KNpcAttribModify.obj
 0001:0001bce0       ?StrengthV@KNpcAttribModify@@AAEXPAVKNpc@@PAX@Z 1001cce0 f   KNpcAttribModify.obj
 0001:0001bd20       ?StunTimeReduceP@KNpcAttribModify@@AAEXPAVKNpc@@PAX@Z 1001cd20 f   KNpcAttribModify.obj
 0001:0001bd40       ?VisionRadiusP@KNpcAttribModify@@AAEXPAVKNpc@@PAX@Z 1001cd40 f   KNpcAttribModify.obj
 0001:0001bd60       ?VitalityV@KNpcAttribModify@@AAEXPAVKNpc@@PAX@Z 1001cd60 f   KNpcAttribModify.obj
 0001:0001bda0       ?WaterSkillV@KNpcAttribModify@@AAEXPAVKNpc@@PAX@Z 1001cda0 f   KNpcAttribModify.obj
 0001:0001bdb0       ?WoodSkillV@KNpcAttribModify@@AAEXPAVKNpc@@PAX@Z 1001cdb0 f   KNpcAttribModify.obj
 0001:0001bdc0       ?FireresP@KNpcAttribModify@@AAEXPAVKNpc@@PAX@Z 1001cdc0 f   KNpcAttribModify.obj
 0001:0001bde0       ?ArmorDefenseV@KNpcAttribModify@@AAEXPAVKNpc@@PAX@Z 1001cde0 f   KNpcAttribModify.obj
 0001:0001be00       ?ColdEnhanceP@KNpcAttribModify@@AAEXPAVKNpc@@PAX@Z 1001ce00 f   KNpcAttribModify.obj
 0001:0001be20       ?FireEnhanceP@KNpcAttribModify@@AAEXPAVKNpc@@PAX@Z 1001ce20 f   KNpcAttribModify.obj
 0001:0001be40       ?LightingEnhanceP@KNpcAttribModify@@AAEXPAVKNpc@@PAX@Z 1001ce40 f   KNpcAttribModify.obj
 0001:0001be60       ?PoisonEnhanceP@KNpcAttribModify@@AAEXPAVKNpc@@PAX@Z 1001ce60 f   KNpcAttribModify.obj
 0001:0001be80       ?LifePotionV@KNpcAttribModify@@AAEXPAVKNpc@@PAX@Z 1001ce80 f   KNpcAttribModify.obj
 0001:0001bed0       ?ManaPotionV@KNpcAttribModify@@AAEXPAVKNpc@@PAX@Z 1001ced0 f   KNpcAttribModify.obj
 0001:0001bf20       ?PhysicsResMaxP@KNpcAttribModify@@AAEXPAVKNpc@@PAX@Z 1001cf20 f   KNpcAttribModify.obj
 0001:0001bf40       ?ColdResMaxP@KNpcAttribModify@@AAEXPAVKNpc@@PAX@Z 1001cf40 f   KNpcAttribModify.obj
 0001:0001bf60       ?FireResMaxP@KNpcAttribModify@@AAEXPAVKNpc@@PAX@Z 1001cf60 f   KNpcAttribModify.obj
 0001:0001bf80       ?LightingResMaxP@KNpcAttribModify@@AAEXPAVKNpc@@PAX@Z 1001cf80 f   KNpcAttribModify.obj
 0001:0001bfa0       ?PoisonResMaxP@KNpcAttribModify@@AAEXPAVKNpc@@PAX@Z 1001cfa0 f   KNpcAttribModify.obj
 0001:0001bfc0       ?AllResMaxP@KNpcAttribModify@@AAEXPAVKNpc@@PAX@Z 1001cfc0 f   KNpcAttribModify.obj
 0001:0001c010       ?FatallyStrikeP@KNpcAttribModify@@AAEXPAVKNpc@@PAX@Z 1001d010 f   KNpcAttribModify.obj
 0001:0001c020       ?MixPoisonDamage@KNpcAttribModify@@QAEXPAUKMagicAttrib@@0@Z 1001d020 f   KNpcAttribModify.obj
 0001:0001c0d0       ?AddPhysicsMagicV@KNpcAttribModify@@AAEXPAVKNpc@@PAX@Z 1001d0d0 f   KNpcAttribModify.obj
 0001:0001c100       ?AddColdMagicV@KNpcAttribModify@@AAEXPAVKNpc@@PAX@Z 1001d100 f   KNpcAttribModify.obj
 0001:0001c190       ?AddFireMagicV@KNpcAttribModify@@AAEXPAVKNpc@@PAX@Z 1001d190 f   KNpcAttribModify.obj
 0001:0001c1c0       ?AddLightingMagicV@KNpcAttribModify@@AAEXPAVKNpc@@PAX@Z 1001d1c0 f   KNpcAttribModify.obj
 0001:0001c1f0       ?AddPoisonMagicV@KNpcAttribModify@@AAEXPAVKNpc@@PAX@Z 1001d1f0 f   KNpcAttribModify.obj
 0001:0001c240       ?DynamicMagicShieldV@KNpcAttribModify@@AAEXPAVKNpc@@PAX@Z 1001d240 f   KNpcAttribModify.obj
 0001:0001c260       ?ReturnResP@KNpcAttribModify@@AAEXPAVKNpc@@PAX@Z 1001d260 f   KNpcAttribModify.obj
 0001:0001c280       ?ExpEnhanceP@KNpcAttribModify@@AAEXPAVKNpc@@PAX@Z 1001d280 f   KNpcAttribModify.obj
 0001:0001c2a0       ?PoisonDamageReturnP@KNpcAttribModify@@AAEXPAVKNpc@@PAX@Z 1001d2a0 f   KNpcAttribModify.obj
 0001:0001c2c0       ?ReturnSkillP@KNpcAttribModify@@AAEXPAVKNpc@@PAX@Z 1001d2c0 f   KNpcAttribModify.obj
 0001:0001c2e0       ?AutoReplySkill@KNpcAttribModify@@AAEXPAVKNpc@@PAX@Z 1001d2e0 f   KNpcAttribModify.obj
 0001:0001c330       ?LifeReplenishP@KNpcAttribModify@@AAEXPAVKNpc@@PAX@Z 1001d330 f   KNpcAttribModify.obj
 0001:0001c350       ?IgnoreSkillP@KNpcAttribModify@@AAEXPAVKNpc@@PAX@Z 1001d350 f   KNpcAttribModify.obj
 0001:0001c370       ?AutoAttackSkill@KNpcAttribModify@@AAEXPAVKNpc@@PAX@Z 1001d370 f   KNpcAttribModify.obj
 0001:0001c3a0       ?Poison2DecManaP@KNpcAttribModify@@AAEXPAVKNpc@@PAX@Z 1001d3a0 f   KNpcAttribModify.obj
 0001:0001c3f0       ?SkillAppendSkill@KNpcAttribModify@@AAEXPAVKNpc@@PAX@Z 1001d3f0 f   KNpcAttribModify.obj
 0001:0001c500       ?HideNpc@KNpcAttribModify@@AAEXPAVKNpc@@PAX@Z 1001d500 f   KNpcAttribModify.obj
 0001:0001c520       ?AutoDeathSkill@KNpcAttribModify@@AAEXPAVKNpc@@PAX@Z 1001d520 f   KNpcAttribModify.obj
 0001:0001c550       ?RandMove@KNpcAttribModify@@AAEXPAVKNpc@@PAX@Z 1001d550 f   KNpcAttribModify.obj
 0001:0001c580       ?IgnoreNegativeStateP@KNpcAttribModify@@AAEXPAVKNpc@@PAX@Z 1001d580 f   KNpcAttribModify.obj
 0001:0001c5c0       ?AutoRescueSkill@KNpcAttribModify@@AAEXPAVKNpc@@PAX@Z 1001d5c0 f   KNpcAttribModify.obj
 0001:0001c5f0       ?StaticMagicShieldP@KNpcAttribModify@@AAEXPAVKNpc@@PAX@Z 1001d5f0 f   KNpcAttribModify.obj
 0001:0001c640       ?Init@KNpcDeathCalcExp@@QAEXH@Z 1001d640 f   KNpcDeathCalcExp.obj
 0001:0001c670       ?Active@KNpcDeathCalcExp@@QAEXXZ 1001d670 f   KNpcDeathCalcExp.obj
 0001:0001c6c0       ?AddDamage@KNpcDeathCalcExp@@QAEXHH@Z 1001d6c0 f   KNpcDeathCalcExp.obj
 0001:0001c800       ?CalcExp@KNpcDeathCalcExp@@QAEHH@Z 1001d800 f   KNpcDeathCalcExp.obj
 0001:0001cb40       ?GetDamage@KNpcDeathCalcExp@@QBEHXZ 1001db40 f   KNpcDeathCalcExp.obj
 0001:0001cb50       ?Clear@KNpcDeathCalcExp@@QAEXXZ 1001db50 f   KNpcDeathCalcExp.obj
 0001:0001cba0       ??0KNpcFindPath@@QAE@XZ    1001dba0 f   KNpcFindPath.obj
 0001:0001cbc0       ?Init@KNpcFindPath@@QAEXH@Z 1001dbc0 f   KNpcFindPath.obj
 0001:0001cbf0       ?GetDir@KNpcFindPath@@QAEHHHHHHHPAH0@Z 1001dbf0 f   KNpcFindPath.obj
 0001:0001d1c0       ?Dir64To8@KNpcFindPath@@QAEHH@Z 1001e1c0 f   KNpcFindPath.obj
 0001:0001d1d0       ?Dir8To64@KNpcFindPath@@QAEHH@Z 1001e1d0 f   KNpcFindPath.obj
 0001:0001d1e0       ?CheckDistance@KNpcFindPath@@QAEHHHHHH@Z 1001e1e0 f   KNpcFindPath.obj
 0001:0001d220       ?CheckBarrier@KNpcFindPath@@QAEHHH@Z 1001e220 f   KNpcFindPath.obj
 0001:0001d2b0       ?Init@KNpcGold@@QAEXH@Z    1001e2b0 f   KNpcGold.obj
 0001:0001d2c0       ?Release@KNpcGold@@QAEXXZ  1001e2c0 f   KNpcGold.obj
 0001:0001d310       ?SetGoldType@KNpcGold@@QAEXH@Z 1001e310 f   KNpcGold.obj
 0001:0001d320       ?SetGoldTypeAndBackData@KNpcGold@@QAEXXZ 1001e320 f   KNpcGold.obj
 0001:0001d3d0       ?RecoverBackData@KNpcGold@@QAEXXZ 1001e3d0 f   KNpcGold.obj
 0001:0001dc70       ?UpdateNpcData@KNpcGold@@AAEXH@Z 1001ec70 f   KNpcGold.obj
 0001:0001e8b0       ?RandChangeGold@KNpcGold@@QAEXHH@Z 1001f8b0 f   KNpcGold.obj
 0001:0001e8f0       ?GetGoldType@KNpcGold@@QAEHXZ 1001f8f0 f   KNpcGold.obj
 0001:0001e900       ?SetGoldCurrentType@KNpcGold@@QAEXH@Z 1001f900 f   KNpcGold.obj
 0001:0001e980       ??0KNpcGoldTemplate@@QAE@XZ 1001f980 f   KNpcGold.obj
 0001:0001e9a0       ?Init@KNpcGoldTemplate@@QAEHXZ 1001f9a0 f   KNpcGold.obj
 0001:0001eea0       ??1KNpcSet@@QAE@XZ         1001fea0 f i KNpcSet.obj
 0001:0001ef00       ??0KNpcSet@@QAE@XZ         1001ff00 f   KNpcSet.obj
 0001:0001ef30       ?Init@KNpcSet@@QAEXXZ      1001ff30 f   KNpcSet.obj
 0001:0001f110       ?LoadPlayerBaseValue@KNpcSet@@QAEXPAD@Z 10020110 f   KNpcSet.obj
 0001:0001f1f0       ?IsNpcExist@KNpcSet@@QAEHHK@Z 100201f0 f   KNpcSet.obj
 0001:0001f220       ?GenOneRelation@KNpcSet@@AAE?AW4NPC_RELATION@@W4NPCKIND@@0W4NPCCAMP@@1W4NPCFIGHT@@2@Z 10020220 f   KNpcSet.obj
 0001:0001f330       ?GenRelationTable@KNpcSet@@AAEHXZ 10020330 f   KNpcSet.obj
 0001:0001f3d0       ?SearchID@KNpcSet@@QAEHK@Z 100203d0 f   KNpcSet.obj
 0001:0001f410       ?SearchName@KNpcSet@@QAEHPAD@Z 10020410 f   KNpcSet.obj
 0001:0001f470       ?SearchNameID@KNpcSet@@QAEHK@Z 10020470 f   KNpcSet.obj
 0001:0001f4d0       ?SearchNpcById@KNpcSet@@QAEPAVKNpc@@K@Z 100204d0 f   KNpcSet.obj
 0001:0001f540       ?FindFree@KNpcSet@@AAEHXZ  10020540 f   KNpcSet.obj
 0001:0001f560       ?Add@KNpcSet@@QAEHHHPAX@Z  10020560 f   KNpcSet.obj
 0001:0001f730       ?Add@KNpcSet@@QAEHHHHHH@Z  10020730 f   KNpcSet.obj
 0001:0001f7c0       ?Add@KNpcSet@@QAEHHHHHHHHH@Z 100207c0 f   KNpcSet.obj
 0001:0001f980       ?Remove@KNpcSet@@QAEXH@Z   10020980 f   KNpcSet.obj
 0001:0001fb50       ?RemoveAll@KNpcSet@@QAEXXZ 10020b50 f   KNpcSet.obj
 0001:0001fc00       ?SetID@KNpcSet@@AAEHH@Z    10020c00 f   KNpcSet.obj
 0001:0001fc40       ?GetDistance@KNpcSet@@SAHHH@Z 10020c40 f   KNpcSet.obj
 0001:0001fdc0       ?GetDistanceSquare@KNpcSet@@SAHHH@Z 10020dc0 f   KNpcSet.obj
 0001:0001ff20       ?GetNextIdx@KNpcSet@@QAEHH@Z 10020f20 f   KNpcSet.obj
 0001:0001ff50       ?SyncNpc@KNpcSet@@QAEHKH@Z 10020f50 f   KNpcSet.obj
 0001:0001ffd0       ?ExecuteScript@KNpcSet@@QAEHHPAD0H@Z 10020fd0 f   KNpcSet.obj
 0001:00020000       ?ExecuteScript@KNpcSet@@QAEHHKPADH@Z 10021000 f   KNpcSet.obj
 0001:00020100       ?ClearActivateFlagOfAllNpc@KNpcSet@@QAEXXZ 10021100 f   KNpcSet.obj
 0001:00020130       ?GetRelation@KNpcSet@@QAE?AW4NPC_RELATION@@HH@Z 10021130 f   KNpcSet.obj
 0001:00020480       ?g_GenItemDropRate@@YAPAUKItemDropRate@@PAD@Z 10021480 f   KNpcTemplate.obj
 0001:000206b0       ??M@YAHVKItemDropRateNode@@0@Z 100216b0 f   KNpcTemplate.obj
 0001:000206f0       ??8@YAHVKItemDropRateNode@@0@Z 100216f0 f   KNpcTemplate.obj
 0001:00020740       ?InitNpcBaseData@KNpcTemplate@@QAEXH@Z 10021740 f   KNpcTemplate.obj
 0001:00020ee0       ??1KItemDropRateNode@@QAE@XZ 10021ee0 f i KNpcTemplate.obj
 0001:00020ef0       ?InitNpcLevelData@KNpcTemplate@@QAEXPAVKTabFile@@HPAVKLuaScript@@HH@Z 10021ef0 f   KNpcTemplate.obj
 0001:00021e40       ?GetNpcLevelDataFromScript@KNpcTemplate@@SAHPAVKLuaScript@@PADHH1@Z 10022e40 f   KNpcTemplate.obj
 0001:00021ed0       ?GetNpcLevelDataFromScript@KNpcTemplate@@SAHPAVKLuaScript@@PADHHNNN@Z 10022ed0 f   KNpcTemplate.obj
 0001:00021f70       ?UpdateDropRate@KNpcTemplate@@SAPAUKItemDropRate@@PBD@Z 10022f70 f   KNpcTemplate.obj
 0001:00021f80       ?SkillString2Id@KNpcTemplate@@SAHPAD@Z 10022f80 f   KNpcTemplate.obj
 0001:00022060       ?DeleteTree@?$BinSTree@VKItemDropRateNode@@@@AAEXPAV?$TreeNode@VKItemDropRateNode@@@@@Z 10023060 f i KNpcTemplate.obj
 0001:000220a0       ??1?$TreeNode@VKItemDropRateNode@@@@QAE@XZ 100230a0 f i KNpcTemplate.obj
 0001:00022110       ??0KPlayer@@QAE@XZ         10023110 f   KPlayer.obj
 0001:00022280       ??1KPlayerAI@@QAE@XZ       10023280 f i KPlayer.obj
 0001:00022290       ??1KEquipmentArray@@QAE@XZ 10023290 f i KPlayer.obj
 0001:000222a0       ??1KPlayerChat@@QAE@XZ     100232a0 f i KPlayer.obj
 0001:000222c0       ??1CChatFriendTeam@@QAE@XZ 100232c0 f i KPlayer.obj
 0001:000222d0       ??1KPlayer@@QAE@XZ         100232d0 f   KPlayer.obj
 0001:00022380       ?Release@KPlayer@@QAEXXZ   10023380 f   KPlayer.obj
 0001:00022590       ?SetPlayerIndex@KPlayer@@QAEXH@Z 10023590 f   KPlayer.obj
 0001:000225b0       ?GetPlayerIndex@KPlayer@@QAEHXZ 100235b0 f   KPlayer.obj
 0001:000225c0       ?Active@KPlayer@@QAEXXZ    100235c0 f   KPlayer.obj
 0001:00022700       ?ProcessMsg@KPlayer@@QAEXPAVKWorldMsgNode@@@Z 10023700 f   KPlayer.obj
 0001:00022710       ?IsWaitingRemove@KPlayer@@QAEHXZ 10023710 f   KPlayer.obj
 0001:00022730       ?WaitForRemove@KPlayer@@QAEXXZ 10023730 f   KPlayer.obj
 0001:00022740       ?IsLoginTimeOut@KPlayer@@QAEHXZ 10023740 f   KPlayer.obj
 0001:00022780       ?LoginTimeOut@KPlayer@@QAEXXZ 10023780 f   KPlayer.obj
 0001:000227b0       ?Save@KPlayer@@QAEHXZ      100237b0 f   KPlayer.obj
 0001:00022810       ?CanSave@KPlayer@@QAEHXZ   10023810 f   KPlayer.obj
 0001:000228a0       ?SendSyncData@KPlayer@@QAEHAAHAAI@Z 100238a0 f   KPlayer.obj
 0001:00022b30       ?SendSyncData_Skill@KPlayer@@QAEHXZ 10023b30 f   KPlayer.obj
 0001:00022c00       ?SendCurNormalSyncData@KPlayer@@QAEXXZ 10023c00 f   KPlayer.obj
 0001:00022ca0       ?QuitGame@KPlayer@@QAEXH@Z 10023ca0 f   KPlayer.obj
 0001:00022cb0       ?BuyItem@KPlayer@@QAEXPAE@Z 10023cb0 f   KPlayer.obj
 0001:00022cf0       ?SellItem@KPlayer@@QAEXPAE@Z 10023cf0 f   KPlayer.obj
 0001:00022d30       ?GetLoginRevivalPos@KPlayer@@QAEXPAH00@Z 10023d30 f   KPlayer.obj
 0001:00022d50       ?GetDeathRevivalPos@KPlayer@@QAEXPAH00@Z 10023d50 f   KPlayer.obj
 0001:00022d70       ?SetRevivalPos@KPlayer@@QAEXHH@Z 10023d70 f   KPlayer.obj
 0001:00022df0       ?S2CSendTeamInfo@KPlayer@@QAEXPAE@Z 10023df0 f   KPlayer.obj
 0001:00023030       ?SendSelfTeamInfo@KPlayer@@QAEXXZ 10024030 f   KPlayer.obj
 0001:000232d0       ?CreateTeam@KPlayer@@QAEHPAE@Z 100242d0 f   KPlayer.obj
 0001:000232f0       ?SetTeamState@KPlayer@@QAEHPAE@Z 100242f0 f   KPlayer.obj
 0001:000233b0       ?S2CSendAddTeamInfo@KPlayer@@QAEHPAE@Z 100243b0 f   KPlayer.obj
 0001:00023620       ?AddTeamMember@KPlayer@@QAEHPAE@Z 10024620 f   KPlayer.obj
 0001:00023c20       ?LeaveTeam@KPlayer@@QAEXPAE@Z 10024c20 f   KPlayer.obj
 0001:00023dd0       ?TeamKickOne@KPlayer@@QAEXPAE@Z 10024dd0 f   KPlayer.obj
 0001:00024010       ?TeamChangeCaptain@KPlayer@@QAEXPAE@Z 10025010 f   KPlayer.obj
 0001:00024470       ?TeamDismiss@KPlayer@@QAEXPAE@Z 10025470 f   KPlayer.obj
 0001:000246f0       ?SetPK@KPlayer@@QAEXPAE@Z  100256f0 f   KPlayer.obj
 0001:00024750       ?SendFactionData@KPlayer@@QAEXPAE@Z 10025750 f   KPlayer.obj
 0001:00024760       ?SendFactionData@KPlayer@@AAEXXZ 10025760 f   KPlayer.obj
 0001:000247e0       ?GetAboutPos@KPlayer@@QAEXPAUKMapPos@@@Z 100257e0 f   KPlayer.obj
 0001:000248e0       ?FindAroundPlayer@KPlayer@@QAEHK@Z 100258e0 f   KPlayer.obj
 0001:000249c0       ?CheckPlayerAround@KPlayer@@QAEHH@Z 100259c0 f   KPlayer.obj
 0001:00024aa0       ?FindAroundNpc@KPlayer@@QAEHK@Z 10025aa0 f   KPlayer.obj
 0001:00024b70       ?ResetBaseAttribute@KPlayer@@QAEXD@Z 10025b70 f   KPlayer.obj
 0001:00024e70       ?CalcCurLucky@KPlayer@@AAEXXZ 10025e70 f   KPlayer.obj
 0001:00024e80       ?AddBaseStrength@KPlayer@@AAEXH@Z 10025e80 f   KPlayer.obj
 0001:00024f30       ?AddBaseDexterity@KPlayer@@AAEXH@Z 10025f30 f   KPlayer.obj
 0001:00024ff0       ?AddBaseVitality@KPlayer@@AAEXH@Z 10025ff0 f   KPlayer.obj
 0001:00025130       ?AddBaseEngergy@KPlayer@@AAEXH@Z 10026130 f   KPlayer.obj
 0001:00025230       ?ChangeCurStrength@KPlayer@@QAEXH@Z 10026230 f   KPlayer.obj
 0001:00025250       ?ChangeCurDexterity@KPlayer@@QAEXH@Z 10026250 f   KPlayer.obj
 0001:000252c0       ?ChangeCurVitality@KPlayer@@QAEXH@Z 100262c0 f   KPlayer.obj
 0001:00025370       ?ChangeCurEngergy@KPlayer@@QAEXH@Z 10026370 f   KPlayer.obj
 0001:000253e0       ?AddBaseLucky@KPlayer@@QAEXH@Z 100263e0 f   KPlayer.obj
 0001:00025400       ?SetNpcPhysicsDamage@KPlayer@@AAEXXZ 10026400 f   KPlayer.obj
 0001:000254c0       ?SetNpcAttackRating@KPlayer@@AAEXXZ 100264c0 f   KPlayer.obj
 0001:000254f0       ?SetNpcDefence@KPlayer@@AAEXXZ 100264f0 f   KPlayer.obj
 0001:00025520       ?AddExp@KPlayer@@QAEXMHH@Z 10026520 f   KPlayer.obj
 0001:00025aa0       ?AddSelfExp@KPlayer@@QAEXHH@Z 10026aa0 f   KPlayer.obj
 0001:00025c90       ?DirectAddExp@KPlayer@@QAEXH@Z 10026c90 f   KPlayer.obj
 0001:00025d40       ?LevelUp@KPlayer@@QAEXXZ   10026d40 f   KPlayer.obj
 0001:000263a0       ?UpdataCurData@KPlayer@@QAEXXZ 100273a0 f   KPlayer.obj
 0001:00026dc0       ?ReCalcEquip@KPlayer@@QAEXXZ 10027dc0 f   KPlayer.obj
 0001:00026e50       ?ReCalcState@KPlayer@@QAEXXZ 10027e50 f   KPlayer.obj
 0001:00026e70       ?AddLeadExp@KPlayer@@QAEXH@Z 10027e70 f   KPlayer.obj
 0001:00026f30       ?LevelAddBaseLifeMax@KPlayer@@AAEXXZ 10027f30 f   KPlayer.obj
 0001:00026fa0       ?LevelAddBaseStaminaMax@KPlayer@@AAEXXZ 10027fa0 f   KPlayer.obj
 0001:00027020       ?LevelAddBaseManaMax@KPlayer@@AAEXXZ 10028020 f   KPlayer.obj
 0001:00027090       ?ChangePlayerCamp@KPlayer@@QAEXH@Z 10028090 f   KPlayer.obj
 0001:000270c0       ?AddFaction@KPlayer@@QAEHPAD@Z 100280c0 f   KPlayer.obj
 0001:00027160       ?AddFaction@KPlayer@@QAEHH@Z 10028160 f   KPlayer.obj
 0001:00027200       ?LeaveCurFaction@KPlayer@@QAEHXZ 10028200 f   KPlayer.obj
 0001:00027270       ?CurFactionOpenSkill@KPlayer@@QAEHH@Z 10028270 f   KPlayer.obj
 0001:00027300       ?TaskClearTempVal@KPlayer@@QAEXXZ 10028300 f   KPlayer.obj
 0001:00027310       ?TaskGetSaveVal@KPlayer@@QAEHH@Z 10028310 f   KPlayer.obj
 0001:00027330       ?TaskSetSaveVal@KPlayer@@QAEXHH@Z 10028330 f   KPlayer.obj
 0001:00027410       ?TaskGetClearVal@KPlayer@@QAEHH@Z 10028410 f   KPlayer.obj
 0001:00027430       ?TaskSetClearVal@KPlayer@@QAEXHH@Z 10028430 f   KPlayer.obj
 0001:000274a0       ?CheckRideHorse@KPlayer@@QAEXH@Z 100284a0 f   KPlayer.obj
 0001:000275b0       ?SetLevel@KPlayer@@QAEXE@Z 100285b0 f   KPlayer.obj
 0001:00027d70       ?RefeshPlayer@KPlayer@@QAEX_N@Z 10028d70 f   KPlayer.obj
 0001:00027e10       ?AddAllSkillPoint@KPlayer@@QAEXH@Z 10028e10 f   KPlayer.obj
 0001:00027e60       ?AddSkillPoint@KPlayer@@QAEXHH@Z 10028e60 f   KPlayer.obj
 0001:00027fb0       ?UpdateSkillPointAdd@KPlayer@@QAEXXZ 10028fb0 f   KPlayer.obj
 0001:00028000       ?ServerSendChat@KPlayer@@QAEXPAE@Z 10029000 f   KPlayer.obj
 0001:00028020       ?AddBaseAttribute@KPlayer@@QAEXPAE@Z 10029020 f   KPlayer.obj
 0001:00028080       ?AddSkillPoint@KPlayer@@QAEXPAE@Z 10029080 f   KPlayer.obj
 0001:00028490       ?ServerPickUpItem@KPlayer@@QAEHPAE@Z 10029490 f   KPlayer.obj
 0001:00028ad0       ?EatItem@KPlayer@@QAEXPAE@Z 10029ad0 f   KPlayer.obj
 0001:00028b00       ?ServerMoveItem@KPlayer@@QAEXPAE@Z 10029b00 f   KPlayer.obj
 0001:00028cd0       ?ServerThrowAwayItem@KPlayer@@QAEXPAE@Z 10029cd0 f   KPlayer.obj
 0001:00028f30       ?ChatSetTakeChannel@KPlayer@@QAEXPAE@Z 10029f30 f   KPlayer.obj
 0001:00028f50       ?ChatTransmitApplyAddFriend@KPlayer@@QAEXPAE@Z 10029f50 f   KPlayer.obj
 0001:00029060       ?ChatAddFriend@KPlayer@@QAEHPAE@Z 1002a060 f   KPlayer.obj
 0001:00029140       ?ChatRefuseFriend@KPlayer@@QAEXPAE@Z 1002a140 f   KPlayer.obj
 0001:00029240       ?ChatResendAllFriend@KPlayer@@QAEXPAE@Z 1002a240 f   KPlayer.obj
 0001:00029280       ?ChatSendOneFriendData@KPlayer@@QAEXPAE@Z 1002a280 f   KPlayer.obj
 0001:000292a0       ?ChatDeleteFriend@KPlayer@@QAEXPAE@Z 1002a2a0 f   KPlayer.obj
 0001:000292c0       ?ChatRedeleteFriend@KPlayer@@QAEXPAE@Z 1002a2c0 f   KPlayer.obj
 0001:000292e0       ?TradeApplyOpen@KPlayer@@QAEXPAE@Z 1002a2e0 f   KPlayer.obj
 0001:00029390       ?TradeApplyClose@KPlayer@@QAEXPAE@Z 1002a390 f   KPlayer.obj
 0001:000293c0       ?TradeApplyStart@KPlayer@@QAEXPAE@Z 1002a3c0 f   KPlayer.obj
 0001:000294c0       ?TradeMoveMoney@KPlayer@@QAEXPAE@Z 1002a4c0 f   KPlayer.obj
 0001:00029520       ?TradeDecision@KPlayer@@QAEXPAE@Z 1002a520 f   KPlayer.obj
 0001:00029b90       ?c2sTradeReplyStart@KPlayer@@QAEXPAE@Z 1002ab90 f   KPlayer.obj
 0001:00029e50       ?SyncTradeState@KPlayer@@QAEXXZ 1002ae50 f   KPlayer.obj
 0001:00029f50       ?SendEquipItemInfo@KPlayer@@QAEXH@Z 1002af50 f   KPlayer.obj
 0001:0002a0c0       ?UseTownPortal@KPlayer@@QAEXXZ 1002b0c0 f   KPlayer.obj
 0001:0002a220       ?BackToTownPortal@KPlayer@@QAEXH@Z 1002b220 f   KPlayer.obj
 0001:0002a400       ?ClearPortal@KPlayer@@QAEXXZ 1002b400 f   KPlayer.obj
 0001:0002a440       ?Revive@KPlayer@@QAEXH@Z   1002b440 f   KPlayer.obj
 0001:0002a600       ?RestoreLiveData@KPlayer@@QAEXXZ 1002b600 f   KPlayer.obj
 0001:0002a620       ?Pay@KPlayer@@QAEHH@Z      1002b620 f   KPlayer.obj
 0001:0002a640       ?PrePay@KPlayer@@QAEHH@Z   1002b640 f   KPlayer.obj
 0001:0002a670       ?Earn@KPlayer@@QAEHH@Z     1002b670 f   KPlayer.obj
 0001:0002a690       ?LaunchPlayer@KPlayer@@QAEXXZ 1002b690 f   KPlayer.obj
 0001:0002a780       ?StopMove@KPlayer@@QAEXXZ  1002b780 f   KPlayer.obj
 0001:0002a7c0       ?ExecuteScript@KPlayer@@QAEHPAD0H@Z 1002b7c0 f   KPlayer.obj
 0001:0002a800       ?ExecuteScript@KPlayer@@QAEHKPADH@Z 1002b800 f   KPlayer.obj
 0001:0002a9d0       ?ExecuteScript@KPlayer@@QAEHKPAD0@Z 1002b9d0 f   KPlayer.obj
 0001:0002ab90       ?ExecuteScript@KPlayer@@QAEHPAD00@Z 1002bb90 f   KPlayer.obj
 0001:0002abe0       ?ExecuteScript2@KPlayer@@QAEHPAD0HHH@Z 1002bbe0 f   KPlayer.obj
 0001:0002ac30       ?ExecuteScript2@KPlayer@@QAEHKPADHHH@Z 1002bc30 f   KPlayer.obj
 0001:0002ae10       ?ExecuteScript2@KPlayer@@QAEHPAD0H0H@Z 1002be10 f   KPlayer.obj
 0001:0002ae60       ?ExecuteScript2@KPlayer@@QAEHKPADH0H@Z 1002be60 f   KPlayer.obj
 0001:0002b040       ?DoScriptAction@KPlayer@@QAEXPAUPLAYER_SCRIPTACTION_SYNC@@@Z 1002c040 f   KPlayer.obj
 0001:0002b090       ?ProcessPlayerSelectFromUI@KPlayer@@QAEXPAE@Z 1002c090 f   KPlayer.obj
 0001:0002b1d0       ?ChatFriendOnLine@KPlayer@@QAEXKH@Z 1002c1d0 f   KPlayer.obj
 0001:0002b2a0       ?GetFactionName@KPlayer@@QAEXPADH@Z 1002c2a0 f   KPlayer.obj
 0001:0002b2c0       ?S2CExecuteScript@KPlayer@@AAEXPAD0@Z 1002c2c0 f   KPlayer.obj
 0001:0002b3b0       ?AddTempTaskValue@KPlayer@@QAEHPAX@Z 1002c3b0 f   KPlayer.obj
 0001:0002b3d0       ?DialogNpc@KPlayer@@QAEXPAE@Z 1002c3d0 f   KPlayer.obj
 0001:0002b470       ?CheckTrading@KPlayer@@QAEHXZ 1002c470 f   KPlayer.obj
 0001:0002b480       ?SetFirstDamage@KPlayer@@QAEXXZ 1002c480 f   KPlayer.obj
 0001:0002b8f0       ?SetBaseAttackRating@KPlayer@@QAEXXZ 1002c8f0 f   KPlayer.obj
 0001:0002b920       ?SetBaseDefence@KPlayer@@QAEXXZ 1002c920 f   KPlayer.obj
 0001:0002b950       ?SetBaseResistData@KPlayer@@QAEXXZ 1002c950 f   KPlayer.obj
 0001:0002bb60       ?SetBaseSpeedAndRadius@KPlayer@@QAEXXZ 1002cb60 f   KPlayer.obj
 0001:0002bc20       ?SetNpcDamageAttrib@KPlayer@@QAEXXZ 1002cc20 f   KPlayer.obj
 0001:0002bc30       ?TobeExchangeServer@KPlayer@@QAEXKHH@Z 1002cc30 f   KPlayer.obj
 0001:0002bc70       ?IsExchangingServer@KPlayer@@QAEHXZ 1002cc70 f   KPlayer.obj
 0001:0002bc80       ?SetLastNetOperationTime@KPlayer@@QAEXH@Z 1002cc80 f   KPlayer.obj
 0001:0002bd00       ?CreateTong@KPlayer@@QAEHHPAD@Z 1002cd00 f   KPlayer.obj
 0001:0002bd20       ?RepairItem@KPlayer@@QAEXK@Z 1002cd20 f   KPlayer.obj
 0001:0002bdd0       ?SetExtPoint@KPlayer@@QAEXHH@Z 1002cdd0 f   KPlayer.obj
 0001:0002bdf0       ?GetExtPoint@KPlayer@@QAEHXZ 1002cdf0 f   KPlayer.obj
 0001:0002be00       ?PayExtPoint@KPlayer@@QAEHH@Z 1002ce00 f   KPlayer.obj
 0001:0002be30       ?GetExtPointChanged@KPlayer@@QAEHXZ 1002ce30 f   KPlayer.obj
 0001:0002be40       ?SetExtPoint2@KPlayer@@QAEXH@Z 1002ce40 f   KPlayer.obj
 0001:0002be50       ?SyncBronzeCoin@KPlayer@@QAEXXZ 1002ce50 f   KPlayer.obj
 0001:0002beb0       ?SetBronzeCoin@KPlayer@@QAEXH@Z 1002ceb0 f   KPlayer.obj
 0001:0002bee0       ?GetBronzeCoin@KPlayer@@QAEHXZ 1002cee0 f   KPlayer.obj
 0001:0002bf30       ?PayBronzeCoin@KPlayer@@QAEHH@Z 1002cf30 f   KPlayer.obj
 0001:0002bf70       ?SyncLockBronzeCoin@KPlayer@@QAEXXZ 1002cf70 f   KPlayer.obj
 0001:0002bfd0       ?SetLockBronzeCoin@KPlayer@@QAEXH@Z 1002cfd0 f   KPlayer.obj
 0001:0002c000       ?GetLockBronzeCoin@KPlayer@@QAEHXZ 1002d000 f   KPlayer.obj
 0001:0002c050       ?PayLockBronzeCoin@KPlayer@@QAEHH@Z 1002d050 f   KPlayer.obj
 0001:0002c090       ?ProcessEnhance@KPlayer@@QAEXXZ 1002d090 f   KPlayer.obj
 0001:0002c240       ?ProcessRemoveEnhance@KPlayer@@QAEXXZ 1002d240 f   KPlayer.obj
 0001:0002c290       ?ExeScriptButton@KPlayer@@QAEXPAE@Z 1002d290 f   KPlayer.obj
 0001:0002c780       ?BreakItem@KPlayer@@QAEXKH@Z 1002d780 f   KPlayer.obj
 0001:0002c8b0       ?HideMask@KPlayer@@QAEXH@Z 1002d8b0 f   KPlayer.obj
 0001:0002c920       ?SendShopItemInfo@KPlayer@@QAEXHH@Z 1002d920 f   KPlayer.obj
 0001:0002cbe0       ?BuyPlayerShop@KPlayer@@QAEXPAE@Z 1002dbe0 f   KPlayer.obj
 0001:0002cdb0       ?RestoreTask@KPlayer@@QAEXXZ 1002ddb0 f   KPlayer.obj
 0001:0002ce10       ?ExecuteScriptRet@KPlayer@@QAEHPAD0H@Z 1002de10 f   KPlayer.obj
 0001:0002ce50       ?ExecuteScriptRet@KPlayer@@QAEHKPADH@Z 1002de50 f   KPlayer.obj
 0001:0002d040       ?ExecuteScriptRet@KPlayer@@QAEHPAD00@Z 1002e040 f   KPlayer.obj
 0001:0002d090       ?ExecuteScriptRet@KPlayer@@QAEHKPAD0@Z 1002e090 f   KPlayer.obj
 0001:0002d280       ?SetTitle@KPlayer@@QAEXG_N@Z 1002e280 f   KPlayer.obj
 0001:0002d5a0       ?GetTaxShopItem@KPlayer@@AAEHH@Z 1002e5a0 f   KPlayer.obj
 0001:0002d5d0       ?AddAntiPaket@KPlayer@@QAEHKK@Z 1002e5d0 f   KPlayer.obj
 0001:0002d630       ?SaveLog@KPlayer@@QAEXHPBD00@Z 1002e630 f   KPlayer.obj
 0001:0002d640       ?SetAutoFlag@KPlayer@@QAEXH@Z 1002e640 f   KPlayer.obj
 0001:0002d6b0       ?LockPlayerInfo@KPlayer@@QAEXEHH@Z 1002e6b0 f   KPlayer.obj
 0001:0002dc50       ?SetStoreBoxNum@KPlayer@@QAEXE@Z 1002ec50 f   KPlayer.obj
 0001:0002dcb0       ?SetExpandBoxNum@KPlayer@@QAEXE@Z 1002ecb0 f   KPlayer.obj
 0001:0002dd10       ?SetNumImgAvatar@KPlayer@@QAEXH@Z 1002ed10 f   KPlayer.obj
 0001:0002dd30       ?GiveBoxCmd@KPlayer@@QAEXKHH@Z 1002ed30 f   KPlayer.obj
 0001:0002dfc0       ?Release@KPlayerChat@@QAEXXZ 1002efc0 f   KPlayerChat.obj
 0001:0002e030       ?CheckExist@KPlayerChat@@QAEHK@Z 1002f030 f   KPlayerChat.obj
 0001:0002e080       ?CheckExist@KPlayerChat@@QAEHPAD@Z 1002f080 f   KPlayerChat.obj
 0001:0002e120       ?GetFriendNode@KPlayerChat@@QAEPAVCChatFriend@@K@Z 1002f120 f   KPlayerChat.obj
 0001:0002e170       ?GetTeamNo@KPlayerChat@@QAEHK@Z 1002f170 f   KPlayerChat.obj
 0001:0002e1c0       ?GetName@KPlayerChat@@QAEHKPAD@Z 1002f1c0 f   KPlayerChat.obj
 0001:0002e230       ?SetTakeChannel@KPlayerChat@@QAEXK@Z 1002f230 f   KPlayerChat.obj
 0001:0002e260       ?ServerSendChat@KPlayerChat@@QAEXHPAE@Z 1002f260 f   KPlayerChat.obj
 0001:0002ed30       ?DataBaseAddOne@KPlayerChat@@QAEXHKPAD@Z 1002fd30 f   KPlayerChat.obj
 0001:0002ed50       ?AddFriendData@KPlayerChat@@QAEXHH@Z 1002fd50 f   KPlayerChat.obj
 0001:0002eeb0       ??_ECChatFriend@@UAEPAXI@Z 1002feb0 f i KPlayerChat.obj
 0001:0002eeb0       ??_GCChatFriend@@UAEPAXI@Z 1002feb0 f i KPlayerChat.obj
 0001:0002eed0       ??1CChatFriend@@UAE@XZ     1002fed0 f i KPlayerChat.obj
 0001:0002eee0       ?ResendOneFriendData@KPlayerChat@@QAEXKH@Z 1002fee0 f   KPlayerChat.obj
 0001:0002ef90       ?SyncFriendData@KPlayerChat@@QAEHHAAI@Z 1002ff90 f   KPlayerChat.obj
 0001:0002f110       ?StartSendFriendData@KPlayerChat@@QAEXXZ 10030110 f   KPlayerChat.obj
 0001:0002f140       ?DeleteFriend@KPlayerChat@@QAEXKK@Z 10030140 f   KPlayerChat.obj
 0001:0002f200       ?DeleteFriendData@KPlayerChat@@QAEXKH@Z 10030200 f   KPlayerChat.obj
 0001:0002f2d0       ?RedeleteFriend@KPlayerChat@@QAEXKH@Z 100302d0 f   KPlayerChat.obj
 0001:0002f330       ?OffLine@KPlayerChat@@QAEXK@Z 10030330 f   KPlayerChat.obj
 0001:0002f380       ?GetMsgOffLine@KPlayerChat@@QAEXKH@Z 10030380 f   KPlayerChat.obj
 0001:0002f410       ?TimerAdd@KPlayerChat@@QAEXXZ 10030410 f   KPlayerChat.obj
 0001:0002f420       ?CheckTalkChannel@KPlayerChat@@QAEHH@Z 10030420 f   KPlayerChat.obj
 0001:0002f450       ?SendSystemInfo@KPlayerChat@@SAXHHPAD0H@Z 10030450 f   KPlayerChat.obj
 0001:0002f580       ?SendGlobalSystemInfo@KPlayerChat@@SAXPAD0H@Z 10030580 f   KPlayerChat.obj
 0001:0002f620       ?SendInfoToGM@KPlayerChat@@SAXPAD00H@Z 10030620 f   KPlayerChat.obj
 0001:0002f720       ?SendInfoToIP@KPlayerChat@@SAXKKPAD00H@Z 10030720 f   KPlayerChat.obj
 0001:0002f810       ?SendInfoToFaction@KPlayerChat@@SAXHPAD0H@Z 10030810 f   KPlayerChat.obj
 0001:0002f820       ?MakeBrother@KPlayerChat@@SAXABV?$list@V?$basic_string@DU?$char_traits@D@std@@V?$allocator@D@2@@std@@V?$allocator@V?$basic_string@DU?$char_traits@D@std@@V?$allocator@D@2@@std@@@2@@std@@@Z 10030820 f   KPlayerChat.obj
 0001:0002f9e0       ?MakeEnemy@KPlayerChat@@SAXPAD0@Z 100309e0 f   KPlayerChat.obj
 0001:0002faf0       ??0CChatFriendTeam@@QAE@XZ 10030af0 f   KPlayerChat.obj
 0001:0002fb40       ?Release@CChatFriendTeam@@QAEXXZ 10030b40 f   KPlayerChat.obj
 0001:0002fbb0       ?DataBaseAddOne@CChatFriendTeam@@QAEXHKPAD@Z 10030bb0 f   KPlayerChat.obj
 0001:0002fc90       ??1?$basic_string@DU?$char_traits@D@std@@V?$allocator@D@2@@std@@QAE@XZ 10030c90 f i KPlayerChat.obj
 0001:0002fcd0       ?assign@?$basic_string@DU?$char_traits@D@std@@V?$allocator@D@2@@std@@QAEAAV12@ABV12@II@Z 10030cd0 f i KPlayerChat.obj
 0001:0002fed0       ?_Tidy@?$basic_string@DU?$char_traits@D@std@@V?$allocator@D@2@@std@@AAEX_N@Z 10030ed0 f i KPlayerChat.obj
 0001:0002ff20       ?_Eos@?$basic_string@DU?$char_traits@D@std@@V?$allocator@D@2@@std@@AAEXI@Z 10030f20 f i KPlayerChat.obj
 0001:0002ff40       ?_Grow@?$basic_string@DU?$char_traits@D@std@@V?$allocator@D@2@@std@@AAE_NI_N@Z 10030f40 f i KPlayerChat.obj
 0001:00030060       ?max_size@?$basic_string@DU?$char_traits@D@std@@V?$allocator@D@2@@std@@QBEIXZ 10031060 f i KPlayerChat.obj
 0001:00030070       ?_Copy@?$basic_string@DU?$char_traits@D@std@@V?$allocator@D@2@@std@@AAEXI@Z 10031070 f i KPlayerChat.obj
 0001:00030180       ?_Split@?$basic_string@DU?$char_traits@D@std@@V?$allocator@D@2@@std@@AAEXXZ 10031180 f i KPlayerChat.obj
 0001:000302a0       ??0KList@@QAE@XZ           100312a0 f i KPlayerDBFuns.obj
 0001:000302f0       ?AddDBPlayer@KPlayer@@QAEHPADHPAK@Z 100312f0 f   KPlayerDBFuns.obj
 0001:00030300       ?LoadDBPlayerInfo@KPlayer@@QAEHPAEAAHAAI@Z 10031300 f   KPlayerDBFuns.obj
 0001:000305c0       ?UpdateDBPlayerInfo@KPlayer@@QAEHPAE@Z 100315c0 f   KPlayerDBFuns.obj
 0001:00030610       ?LoadPlayerBaseInfo@KPlayer@@AAEHPAEAAPAEAAI@Z 10031610 f   KPlayerDBFuns.obj
 0001:00030b50       ?LoadPlayerItemList@KPlayer@@AAEHPAEAAPAEAAI@Z 10031b50 f   KPlayerDBFuns.obj
 0001:00030f30       ?LoadPlayerFightSkillList@KPlayer@@AAEHPAEAAPAEAAI@Z 10031f30 f   KPlayerDBFuns.obj
 0001:00030fe0       ?LoadPlayerLifeSkilllList@KPlayer@@AAEHPAEAAPAEAAI@Z 10031fe0 f   KPlayerDBFuns.obj
 0001:00031080       ?LoadPlayerFriendList@KPlayer@@AAEHPAEAAPAEAAI@Z 10032080 f   KPlayerDBFuns.obj
 0001:00031170       ?LoadPlayerTaskList@KPlayer@@AAEHPAEAAPAEAAI@Z 10032170 f   KPlayerDBFuns.obj
 0001:00031310       ?SavePlayerBaseInfo@KPlayer@@AAEHPAE@Z 10032310 f   KPlayerDBFuns.obj
 0001:00031680       ?SavePlayerItemList@KPlayer@@AAEHPAE@Z 10032680 f   KPlayerDBFuns.obj
 0001:000317f0       ?SavePlayerFightSkillList@KPlayer@@AAEHPAE@Z 100327f0 f   KPlayerDBFuns.obj
 0001:00031870       ?SavePlayerLifeSkilllList@KPlayer@@AAEHPAE@Z 10032870 f   KPlayerDBFuns.obj
 0001:00031890       ?SavePlayerFriendList@KPlayer@@AAEHPAE@Z 10032890 f   KPlayerDBFuns.obj
 0001:00031930       ?SavePlayerTaskList@KPlayer@@AAEHPAE@Z 10032930 f   KPlayerDBFuns.obj
 0001:00031ab0       ??0KPlayerFaction@@QAE@XZ  10032ab0 f   KPlayerFaction.obj
 0001:00031ac0       ?Release@KPlayerFaction@@QAEXXZ 10032ac0 f   KPlayerFaction.obj
 0001:00031ae0       ?SetSeries@KPlayerFaction@@QAEXH@Z 10032ae0 f   KPlayerFaction.obj
 0001:00031af0       ?AddFaction@KPlayerFaction@@QAEHHPAD@Z 10032af0 f   KPlayerFaction.obj
 0001:00031b30       ?AddFaction@KPlayerFaction@@QAEHHH@Z 10032b30 f   KPlayerFaction.obj
 0001:00031b90       ?LeaveFaction@KPlayerFaction@@QAEXXZ 10032b90 f   KPlayerFaction.obj
 0001:00031ba0       ?OpenCurSkillLevel@KPlayerFaction@@QAEHHPAVKSkillList@@@Z 10032ba0 f   KPlayerFaction.obj
 0001:00031bb0       ?GetGurFactionCamp@KPlayerFaction@@QAEHXZ 10032bb0 f   KPlayerFaction.obj
 0001:00031bf0       ?GetCurFactionNo@KPlayerFaction@@QAEHXZ 10032bf0 f   KPlayerFaction.obj
 0001:00031c00       ?GetCurFactionName@KPlayerFaction@@QAEXPAD@Z 10032c00 f   KPlayerFaction.obj
 0001:00031c90       ??0KPlayerMenuState@@QAE@XZ 10032c90 f   KPlayerMenuState.obj
 0001:00031ca0       ?Release@KPlayerMenuState@@QAEXXZ 10032ca0 f   KPlayerMenuState.obj
 0001:00031ce0       ?BackupState@KPlayerMenuState@@QAEXXZ 10032ce0 f   KPlayerMenuState.obj
 0001:00031d00       ?RestoreState@KPlayerMenuState@@QAEXXZ 10032d00 f   KPlayerMenuState.obj
 0001:00031d20       ?SetState@KPlayerMenuState@@QAEXHHPADHK@Z 10032d20 f   KPlayerMenuState.obj
 0001:00032040       ?RestoreBackupState@KPlayerMenuState@@QAEXH@Z 10033040 f   KPlayerMenuState.obj
 0001:000320f0       ?Init@KPlayerMenuStateGraph@@QAEHXZ 100330f0 f   KPlayerMenuState.obj
 0001:000321b0       ?GetStateSpr@KPlayerMenuStateGraph@@QAEXHPAD@Z 100331b0 f   KPlayerMenuState.obj
 0001:00032250       ??0KPlayerPK@@QAE@XZ       10033250 f   KPlayerPK.obj
 0001:00032260       ?Init@KPlayerPK@@QAEXH@Z   10033260 f   KPlayerPK.obj
 0001:00032290       ?Active@KPlayerPK@@QAEXXZ  10033290 f   KPlayerPK.obj
 0001:000322a0       ?SetNormalPKState@KPlayerPK@@QAEXE@Z 100332a0 f   KPlayerPK.obj
 0001:00032370       ?GetNormalPKState@KPlayerPK@@QAEEXZ 10033370 f   KPlayerPK.obj
 0001:00032380       ?EnmityPKClose@KPlayerPK@@QAEXXZ 10033380 f   KPlayerPK.obj
 0001:000324a0       ?EnmityPKOpen@KPlayerPK@@QAEHH@Z 100334a0 f   KPlayerPK.obj
 0001:000329b0       ?GetEnmityPKState@KPlayerPK@@QAEHXZ 100339b0 f   KPlayerPK.obj
 0001:000329c0       ?GetEnmityPKAim@KPlayerPK@@QAEHXZ 100339c0 f   KPlayerPK.obj
 0001:000329d0       ?ExercisePKClose@KPlayerPK@@QAEXXZ 100339d0 f   KPlayerPK.obj
 0001:00032ad0       ?ExercisePKOpen@KPlayerPK@@QAEHH@Z 10033ad0 f   KPlayerPK.obj
 0001:00032d20       ?GetExercisePKAim@KPlayerPK@@QAEHXZ 10033d20 f   KPlayerPK.obj
 0001:00032d30       ?SetPKValue@KPlayerPK@@QAEXD@Z 10033d30 f   KPlayerPK.obj
 0001:00032da0       ?GetPKValue@KPlayerPK@@QBEDXZ 10033da0 f   KPlayerPK.obj
 0001:00032db0       ?AddPKValue@KPlayerPK@@QAEXD@Z 10033db0 f   KPlayerPK.obj
 0001:00032e30       ?CloseAll@KPlayerPK@@QAEXXZ 10033e30 f   KPlayerPK.obj
 0001:00032e50       ?EnmityPKCountDown@KPlayerPK@@QAEXXZ 10033e50 f   KPlayerPK.obj
 0001:00033030       ??0KPlayerSet@@QAE@XZ      10034030 f   KPlayerSet.obj
 0001:000330c0       ??1KPlayerSet@@QAE@XZ      100340c0 f   KPlayerSet.obj
 0001:00033140       ?Init@KPlayerSet@@QAEHXZ   10034140 f   KPlayerSet.obj
 0001:000335f0       ?Activate@KPlayerSet@@QAEXXZ 100345f0 f   KPlayerSet.obj
 0001:00033600       ?FindFree@KPlayerSet@@AAEHXZ 10034600 f   KPlayerSet.obj
 0001:00033610       ?FindSame@KPlayerSet@@QAEHK@Z 10034610 f   KPlayerSet.obj
 0001:00033660       ?GetFirstPlayer@KPlayerSet@@QAEHXZ 10034660 f   KPlayerSet.obj
 0001:00033680       ?GetNextPlayer@KPlayerSet@@QAEHXZ 10034680 f   KPlayerSet.obj
 0001:000336a0       ?Add@KPlayerSet@@QAEHPADPAX@Z 100346a0 f   KPlayerSet.obj
 0001:00033770       ?Broadcasting@KPlayerSet@@QAEHPADH@Z 10034770 f   KPlayerSet.obj
 0001:000337e0       ?PrepareRemove@KPlayerSet@@QAEXH@Z 100347e0 f   KPlayerSet.obj
 0001:00033a00       ?PrepareLoginFailed@KPlayerSet@@QAEXH@Z 10034a00 f   KPlayerSet.obj
 0001:00033ab0       ?PrepareExchange@KPlayerSet@@QAEXH@Z 10034ab0 f   KPlayerSet.obj
 0001:00033b40       ?RemoveQuiting@KPlayerSet@@QAEXH@Z 10034b40 f   KPlayerSet.obj
 0001:00033e10       ?RemoveLoginTimeOut@KPlayerSet@@QAEXH@Z 10034e10 f   KPlayerSet.obj
 0001:00033f60       ?RemoveExchanging@KPlayerSet@@QAEXH@Z 10034f60 f   KPlayerSet.obj
 0001:00034220       ?ProcessClientMessage@KPlayerSet@@QAEXHPBDH@Z 10035220 f   KPlayerSet.obj
 0001:00034280       ?GetPlayerName@KPlayerSet@@QAEHHPAD@Z 10035280 f   KPlayerSet.obj
 0001:000342e0       ?GetPlayerAccount@KPlayerSet@@QAEHHPAD@Z 100352e0 f   KPlayerSet.obj
 0001:00034340       ?AttachPlayer@KPlayerSet@@QAEHKPAU_GUID@@@Z 10035340 f   KPlayerSet.obj
 0001:000343f0       ?GetPlayerIndexByGuid@KPlayerSet@@QAEHPAU_GUID@@@Z 100353f0 f   KPlayerSet.obj
 0001:00034480       ?AutoSave@KPlayerSet@@QAEXXZ 10035480 f   KPlayerSet.obj
 0001:00034530       ?GetFirstPlayerEx@KPlayerSet@@QAEHXZ 10035530 f   KPlayerSet.obj
 0001:00034540       ?GetNextPlayerEx@KPlayerSet@@QAEHH@Z 10035540 f   KPlayerSet.obj
 0001:00034560       ??0KLevelAdd@@QAE@XZ       10035560 f   KPlayerSet.obj
 0001:00034620       ?Init@KLevelAdd@@QAEHXZ    10035620 f   KPlayerSet.obj
 0001:00034830       ?GetLevelExp@KLevelAdd@@QAEHE@Z 10035830 f   KPlayerSet.obj
 0001:00034850       ?GetLifePerLevel@KLevelAdd@@QAEHH@Z 10035850 f   KPlayerSet.obj
 0001:00034870       ?GetStaminaPerLevel@KLevelAdd@@QAEHHH@Z 10035870 f   KPlayerSet.obj
 0001:000348a0       ?GetManaPerLevel@KLevelAdd@@QAEHH@Z 100358a0 f   KPlayerSet.obj
 0001:000348c0       ?GetLifePerVitality@KLevelAdd@@QAEHH@Z 100358c0 f   KPlayerSet.obj
 0001:000348e0       ?GetStaminaPerVitality@KLevelAdd@@QAEHH@Z 100358e0 f   KPlayerSet.obj
 0001:00034900       ?GetManaPerEnergy@KLevelAdd@@QAEHH@Z 10035900 f   KPlayerSet.obj
 0001:00034920       ?GetLeadExpShare@KLevelAdd@@QAEHH@Z 10035920 f   KPlayerSet.obj
 0001:00034940       ?GetFireResist@KLevelAdd@@QAEHHH@Z 10035940 f   KPlayerSet.obj
 0001:00034990       ?GetColdResist@KLevelAdd@@QAEHHH@Z 10035990 f   KPlayerSet.obj
 0001:000349e0       ?GetPoisonResist@KLevelAdd@@QAEHHH@Z 100359e0 f   KPlayerSet.obj
 0001:00034a30       ?GetLightResist@KLevelAdd@@QAEHHH@Z 10035a30 f   KPlayerSet.obj
 0001:00034a80       ?GetPhysicsResist@KLevelAdd@@QAEHHH@Z 10035a80 f   KPlayerSet.obj
 0001:00034ad0       ??0KTeamLeadExp@@QAE@XZ    10035ad0 f   KPlayerSet.obj
 0001:00034af0       ?Init@KTeamLeadExp@@QAEHXZ 10035af0 f   KPlayerSet.obj
 0001:00034bc0       ?GetLevel@KTeamLeadExp@@QAEHKH@Z 10035bc0 f   KPlayerSet.obj
 0001:00034c10       ?GetMemNumFromExp@KTeamLeadExp@@QAEHK@Z 10035c10 f   KPlayerSet.obj
 0001:00034c30       ?GetMemNumFromLevel@KTeamLeadExp@@QAEHH@Z 10035c30 f   KPlayerSet.obj
 0001:00034c50       ?GetLevelExp@KTeamLeadExp@@QAEHH@Z 10035c50 f   KPlayerSet.obj
 0001:00034c70       ??0KNewPlayerAttribute@@QAE@XZ 10035c70 f   KPlayerSet.obj
 0001:00034cd0       ?Init@KNewPlayerAttribute@@QAEHXZ 10035cd0 f   KPlayerSet.obj
 0001:00034ea0       ?Remove@?$KLinkArrayTemplate@UTMissionPlayerInfo@@$0ELA@@@QAEKPAUTMissionPlayerInfo@@@Z 10035ea0 f i KPlayerSet.obj
 0001:00034f20       ??0KShop@@QAE@XZ           10035f20 f   KPlayerShop.obj
 0001:00034f30       ?Release@KShop@@QAEXXZ     10035f30 f   KPlayerShop.obj
 0001:00035100       ??0KPlayerTask@@QAE@XZ     10036100 f   KPlayerTask.obj
 0001:00035110       ?Release@KPlayerTask@@QAEXXZ 10036110 f   KPlayerTask.obj
 0001:00035130       ?ClearTempVar@KPlayerTask@@QAEXXZ 10036130 f   KPlayerTask.obj
 0001:00035150       ?GetSaveVal@KPlayerTask@@QAEHH@Z 10036150 f   KPlayerTask.obj
 0001:00035170       ?SetSaveVal@KPlayerTask@@QAEXHH@Z 10036170 f   KPlayerTask.obj
 0001:00035190       ?GetClearVal@KPlayerTask@@QAEHH@Z 10036190 f   KPlayerTask.obj
 0001:000351b0       ?SetClearVal@KPlayerTask@@QAEXHH@Z 100361b0 f   KPlayerTask.obj
 0001:00035230       ?Release@KPlayerTeam@@QAEXXZ 10036230 f   KPlayerTeam.obj
 0001:00035260       ?CreateTeam@KPlayerTeam@@QAEHHPAUPLAYER_APPLY_CREATE_TEAM@@@Z 10036260 f   KPlayerTeam.obj
 0001:00035450       ?InviteAdd@KPlayerTeam@@QAEXHPAUTEAM_INVITE_ADD_COMMAND@@@Z 10036450 f   KPlayerTeam.obj
 0001:00035620       ?GetInviteReply@KPlayerTeam@@QAEXHHH@Z 10036620 f   KPlayerTeam.obj
 0001:00035c50       ?SetCanTeamFlag@KPlayerTeam@@QAEXHH@Z 10036c50 f   KPlayerTeam.obj
 0001:00035cb0       ??0KTeam@@QAE@XZ           10036cb0 f   KPlayerTeam.obj
 0001:00035cc0       ?Release@KTeam@@QAEXXZ     10036cc0 f   KPlayerTeam.obj
 0001:00035cf0       ?SetIndex@KTeam@@QAEXH@Z   10036cf0 f   KPlayerTeam.obj
 0001:00035d00       ?FindFree@KTeam@@QAEHXZ    10036d00 f   KPlayerTeam.obj
 0001:00035d20       ?FindMemberID@KTeam@@QAEHK@Z 10036d20 f   KPlayerTeam.obj
 0001:00035d80       ?CheckFull@KTeam@@QAEHXZ   10036d80 f   KPlayerTeam.obj
 0001:00035da0       ?SetTeamOpen@KTeam@@QAEHXZ 10036da0 f   KPlayerTeam.obj
 0001:00035ea0       ?SetTeamClose@KTeam@@QAEHXZ 10036ea0 f   KPlayerTeam.obj
 0001:00035f90       ?IsOpen@KTeam@@QAEHXZ      10036f90 f   KPlayerTeam.obj
 0001:00035fa0       ?CalcCaptainPower@KTeam@@QAEHXZ 10036fa0 f   KPlayerTeam.obj
 0001:00035fd0       ?CheckAddCondition@KTeam@@AAEHH@Z 10036fd0 f   KPlayerTeam.obj
 0001:00036050       ?CreateTeam@KTeam@@QAEHH@Z 10037050 f   KPlayerTeam.obj
 0001:00036070       ?AddMember@KTeam@@QAEHH@Z  10037070 f   KPlayerTeam.obj
 0001:000360d0       ?DeleteMember@KTeam@@QAEHH@Z 100370d0 f   KPlayerTeam.obj
 0001:00036480       ?CheckIn@KTeam@@QAEHH@Z    10037480 f   KPlayerTeam.obj
 0001:000364c0       ?Init@KTeamSet@@QAEXXZ     100374c0 f   KPlayerTeam.obj
 0001:000364e0       ?FindFree@KTeamSet@@AAEHXZ 100374e0 f   KPlayerTeam.obj
 0001:00036500       ?CreateTeam@KTeamSet@@QAEHH@Z 10037500 f   KPlayerTeam.obj
 0001:00036570       ?Init@KPlayerTong@@QAEXH@Z 10037570 f   KPlayerTong.obj
 0001:00036580       ?Clear@KPlayerTong@@QAEXXZ 10037580 f   KPlayerTong.obj
 0001:000365a0       ?CheckCreateCondition@KPlayerTong@@QAEHHPAD@Z 100375a0 f   KPlayerTong.obj
 0001:00036780       ?Create@KPlayerTong@@QAEHHPBD@Z 10037780 f   KPlayerTong.obj
 0001:00036a10       ?GetOpenFlag@KPlayerTong@@QAEHXZ 10037a10 f   KPlayerTong.obj
 0001:00036a30       ?TransferAddApply@KPlayerTong@@QAEHK@Z 10037a30 f   KPlayerTong.obj
 0001:00036bd0       ?CheckAcceptAddApplyCondition@KPlayerTong@@AAEHXZ 10037bd0 f   KPlayerTong.obj
 0001:00036bf0       ?SendRefuseMessage@KPlayerTong@@QAEXHK@Z 10037bf0 f   KPlayerTong.obj
 0001:00036dd0       ?GetTongName@KPlayerTong@@QAEXPAD@Z 10037dd0 f   KPlayerTong.obj
 0001:00036e10       ?GetTongTitle@KPlayerTong@@QAEXPAD@Z 10037e10 f   KPlayerTong.obj
 0001:00036e50       ?CheckAddCondition@KPlayerTong@@QAEHH@Z 10037e50 f   KPlayerTong.obj
 0001:00036f00       ?AddTong@KPlayerTong@@QAEHHPAD00@Z 10037f00 f   KPlayerTong.obj
 0001:00037120       ?GetTongNameID@KPlayerTong@@QAEKXZ 10038120 f   KPlayerTong.obj
 0001:00037130       ?CanGetManagerInfo@KPlayerTong@@QAEHK@Z 10038130 f   KPlayerTong.obj
 0001:00037180       ?CanGetMemberInfo@KPlayerTong@@QAEHK@Z 10038180 f   KPlayerTong.obj
 0001:000371d0       ?SendSelfInfo@KPlayerTong@@QAEXXZ 100381d0 f   KPlayerTong.obj
 0001:000372a0       ?CheckInstatePower@KPlayerTong@@QAEHPAUTONG_APPLY_INSTATE_COMMAND@@@Z 100382a0 f   KPlayerTong.obj
 0001:000373f0       ?CheckKickPower@KPlayerTong@@QAEHPAUTONG_APPLY_KICK_COMMAND@@@Z 100383f0 f   KPlayerTong.obj
 0001:00037450       ?BeInstated@KPlayerTong@@QAEXPAUSTONG_SERVER_TO_CORE_BE_INSTATED@@@Z 10038450 f   KPlayerTong.obj
 0001:000374a0       ?BeKicked@KPlayerTong@@QAEXPAUSTONG_SERVER_TO_CORE_BE_KICKED@@@Z 100384a0 f   KPlayerTong.obj
 0001:000375c0       ?CheckLeavePower@KPlayerTong@@QAEHPAUTONG_APPLY_LEAVE_COMMAND@@@Z 100385c0 f   KPlayerTong.obj
 0001:00037640       ?Leave@KPlayerTong@@QAEXPAUSTONG_SERVER_TO_CORE_LEAVE@@@Z 10038640 f   KPlayerTong.obj
 0001:00037840       ?CheckChangeMasterPower@KPlayerTong@@QAEHPAUTONG_APPLY_CHANGE_MASTER_COMMAND@@@Z 10038840 f   KPlayerTong.obj
 0001:000378d0       ?CheckGetMasterPower@KPlayerTong@@QAEHPAUSTONG_SERVER_TO_CORE_CHECK_GET_MASTER_POWER@@@Z 100388d0 f   KPlayerTong.obj
 0001:000379b0       ?ChangeAs@KPlayerTong@@QAEXPAUSTONG_SERVER_TO_CORE_CHANGE_AS@@@Z 100389b0 f   KPlayerTong.obj
 0001:00037ae0       ?ChangeMaster@KPlayerTong@@QAEXPAD@Z 10038ae0 f   KPlayerTong.obj
 0001:00037b40       ?Login@KPlayerTong@@QAEXPAUSTONG_SERVER_TO_CORE_LOGIN@@@Z 10038b40 f   KPlayerTong.obj
 0001:00037d30       ?CheckChangeCampPower@KPlayerTong@@QAEHPAUTONG_CHANGE_CAMP_COMMAND@@@Z 10038d30 f   KPlayerTong.obj
 0001:00037dd0       ?ChangeCamp@KPlayerTong@@QAEXPAUSTONG_SERVER_TO_CORE_CHANGE_CAMP@@@Z 10038dd0 f   KPlayerTong.obj
 0001:00037e70       ?CheckChangeMemberTitlePower@KPlayerTong@@QAEHPAUTONG_CHANGE_MEMBER_TITLE_COMMAND@@@Z 10038e70 f   KPlayerTong.obj
 0001:00037ed0       ?CheckChangeOneTitlePower@KPlayerTong@@QAEHPAUTONG_CHANGE_ONE_TITLE_COMMAND@@@Z 10038ed0 f   KPlayerTong.obj
 0001:00037f70       ?ChangeTitle@KPlayerTong@@QAEXPBD@Z 10038f70 f   KPlayerTong.obj
 0001:00037fc0       ?CheckSaveMoneyPower@KPlayerTong@@QAEHPAUTONG_APPLY_SAVE_MONEY_COMMAND@@@Z 10038fc0 f   KPlayerTong.obj
 0001:00038070       ?SaveMoney@KPlayerTong@@QAEXPAUSTONG_SERVER_TO_CORE_SAVE_MONEY@@@Z 10039070 f   KPlayerTong.obj
 0001:000380a0       ?CheckGetMoneyPower@KPlayerTong@@QAEHPAUTONG_APPLY_GET_MONEY_COMMAND@@@Z 100390a0 f   KPlayerTong.obj
 0001:00038150       ?GetMoney@KPlayerTong@@QAEXPAUSTONG_SERVER_TO_CORE_GET_MONEY@@_N@Z 10039150 f   KPlayerTong.obj
 0001:000381e0       ??0KTrade@@QAE@XZ          100391e0 f   KPlayerTrade.obj
 0001:00038200       ?Release@KTrade@@QAEXXZ    10039200 f   KPlayerTrade.obj
 0001:00038220       ?StartTrade@KTrade@@QAEHHHH@Z 10039220 f   KPlayerTrade.obj
 0001:00038260       ?Lock@KTrade@@QAEXH@Z      10039260 f   KPlayerTrade.obj
 0001:00038280       ?SetForbitTrade@KTrade@@QAEXH_N@Z 10039280 f   KPlayerTrade.obj
 0001:00038330       ?LoadRecord@@YAHPAVKTabFile@@HPBUtagPROPINFO@@H@Z 10039330 f   KBasPropTbl.obj
 0001:000383b0       ??0KLibOfBPT@@QAE@XZ       100393b0 f   KBasPropTbl.obj
 0001:00038560       ??1KLibOfBPT@@QAE@XZ       10039560 f   KBasPropTbl.obj
 0001:00038710       ?Init@KLibOfBPT@@QAEHXZ    10039710 f   KBasPropTbl.obj
 0001:00038830       ?InitMAIT@KLibOfBPT@@IAEHXZ 10039830 f   KBasPropTbl.obj
 0001:00038960       ?InitMALib@KLibOfBPT@@IAEHXZ 10039960 f   KBasPropTbl.obj
 0001:00038a40       ?GetCMAT@KLibOfBPT@@QBEPBVKBPT_ClassifiedMAT@@HH@Z 10039a40 f   KBasPropTbl.obj
 0001:00038a80       ?GetCMIT@KLibOfBPT@@QBEPBVKBPT_ClassMAIT@@HHHH@Z 10039a80 f   KBasPropTbl.obj
 0001:00038af0       ?FindMARecord@KLibOfBPT@@QBEPBUKMAGICATTRIB_TABFILE@@HHPAH@Z 10039af0 f   KBasPropTbl.obj
 0001:00038b10       ?GetMARecord@KLibOfBPT@@QBEPBUKMAGICATTRIB_TABFILE@@H@Z 10039b10 f   KBasPropTbl.obj
 0001:00038b30       ?GetMARecordNumber@KLibOfBPT@@QBE?BHXZ 10039b30 f   KBasPropTbl.obj
 0001:00038b40       ?GetMeleeWeaponRecord@KLibOfBPT@@QBEPBUKBASICPROP_EQUIPMENT@@H@Z 10039b40 f   KBasPropTbl.obj
 0001:00038b50       ?GetMeleeWeaponRecordNumber@KLibOfBPT@@QBE?BHXZ 10039b50 f   KBasPropTbl.obj
 0001:00038b60       ?GetRangeWeaponRecord@KLibOfBPT@@QBEPBUKBASICPROP_EQUIPMENT@@H@Z 10039b60 f   KBasPropTbl.obj
 0001:00038b80       ?GetRangeWeaponRecordNumber@KLibOfBPT@@QBE?BHXZ 10039b80 f   KBasPropTbl.obj
 0001:00038b90       ?GetArmorRecord@KLibOfBPT@@QBEPBUKBASICPROP_EQUIPMENT@@H@Z 10039b90 f   KBasPropTbl.obj
 0001:00038bb0       ?GetArmorRecordNumber@KLibOfBPT@@QBE?BHXZ 10039bb0 f   KBasPropTbl.obj
 0001:00038bc0       ?GetHelmRecord@KLibOfBPT@@QBEPBUKBASICPROP_EQUIPMENT@@H@Z 10039bc0 f   KBasPropTbl.obj
 0001:00038be0       ?GetHelmRecordNumber@KLibOfBPT@@QBE?BHXZ 10039be0 f   KBasPropTbl.obj
 0001:00038bf0       ?GetBootRecord@KLibOfBPT@@QBEPBUKBASICPROP_EQUIPMENT@@H@Z 10039bf0 f   KBasPropTbl.obj
 0001:00038c10       ?GetBootRecordNumber@KLibOfBPT@@QBE?BHXZ 10039c10 f   KBasPropTbl.obj
 0001:00038c20       ?GetBeltRecord@KLibOfBPT@@QBEPBUKBASICPROP_EQUIPMENT@@H@Z 10039c20 f   KBasPropTbl.obj
 0001:00038c40       ?GetBeltRecordNumber@KLibOfBPT@@QBE?BHXZ 10039c40 f   KBasPropTbl.obj
 0001:00038c50       ?GetAmuletRecord@KLibOfBPT@@QBEPBUKBASICPROP_EQUIPMENT@@H@Z 10039c50 f   KBasPropTbl.obj
 0001:00038c70       ?GetAmuletRecordNumber@KLibOfBPT@@QBE?BHXZ 10039c70 f   KBasPropTbl.obj
 0001:00038c80       ?GetRingRecord@KLibOfBPT@@QBEPBUKBASICPROP_EQUIPMENT@@H@Z 10039c80 f   KBasPropTbl.obj
 0001:00038ca0       ?GetRingRecordNumber@KLibOfBPT@@QBE?BHXZ 10039ca0 f   KBasPropTbl.obj
 0001:00038cb0       ?GetCuffRecord@KLibOfBPT@@QBEPBUKBASICPROP_EQUIPMENT@@H@Z 10039cb0 f   KBasPropTbl.obj
 0001:00038cd0       ?GetCuffRecordNumber@KLibOfBPT@@QBE?BHXZ 10039cd0 f   KBasPropTbl.obj
 0001:00038ce0       ?GetPendantRecord@KLibOfBPT@@QBEPBUKBASICPROP_EQUIPMENT@@H@Z 10039ce0 f   KBasPropTbl.obj
 0001:00038d00       ?GetPendantRecordNumber@KLibOfBPT@@QBE?BHXZ 10039d00 f   KBasPropTbl.obj
 0001:00038d10       ?GetHorseRecord@KLibOfBPT@@QBEPBUKBASICPROP_EQUIPMENT@@H@Z 10039d10 f   KBasPropTbl.obj
 0001:00038d30       ?GetHorseRecordNumber@KLibOfBPT@@QBE?BHXZ 10039d30 f   KBasPropTbl.obj
 0001:00038d40       ?GetMaskRecord@KLibOfBPT@@QBEPBUKBASICPROP_EQUIPMENT@@H@Z 10039d40 f   KBasPropTbl.obj
 0001:00038d60       ?GetMaskRecordNumber@KLibOfBPT@@QBE?BHXZ 10039d60 f   KBasPropTbl.obj
 0001:00038d70       ?GetMantleRecord@KLibOfBPT@@QBEPBUKBASICPROP_EQUIPMENT@@H@Z 10039d70 f   KBasPropTbl.obj
 0001:00038d90       ?GetMantleRecordNumber@KLibOfBPT@@QBE?BHXZ 10039d90 f   KBasPropTbl.obj
 0001:00038da0       ?GetGoldEquipRecord@KLibOfBPT@@QBEPBUKBASICPROP_GOLD_EQUIPMENT@@H@Z 10039da0 f   KBasPropTbl.obj
 0001:00038dc0       ?GetGoldEquipRecordNumber@KLibOfBPT@@QBE?BHXZ 10039dc0 f   KBasPropTbl.obj
 0001:00038dd0       ?GetBrokenEquipRecord@KLibOfBPT@@QBEPBUKBASICPROP_BROKEN_EQUIPMENT@@H@Z 10039dd0 f   KBasPropTbl.obj
 0001:00038df0       ?GetBrokenEquipRecordNumber@KLibOfBPT@@QBE?BHXZ 10039df0 f   KBasPropTbl.obj
 0001:00038e00       ?GetMedicineRecord@KLibOfBPT@@QBEPBUKBASICPROP_MEDICINE@@H@Z 10039e00 f   KBasPropTbl.obj
 0001:00038e20       ?GetMedicineRecordNumber@KLibOfBPT@@QBE?BHXZ 10039e20 f   KBasPropTbl.obj
 0001:00038e30       ?FindQuestRecord@KLibOfBPT@@QBEPBUKBASICPROP_QUEST@@HPAH@Z 10039e30 f   KBasPropTbl.obj
 0001:00038e50       ?GetQuestRecord@KLibOfBPT@@QBEPBUKBASICPROP_QUEST@@H@Z 10039e50 f   KBasPropTbl.obj
 0001:00038e70       ?GetQuestRecordNumber@KLibOfBPT@@QBE?BHXZ 10039e70 f   KBasPropTbl.obj
 0001:00038e80       ?FindScriptRecord@KLibOfBPT@@QBEPBUKBASICPROP_SCRIPT@@HPAH@Z 10039e80 f   KBasPropTbl.obj
 0001:00038ea0       ?GetScriptRecord@KLibOfBPT@@QBEPBUKBASICPROP_SCRIPT@@H@Z 10039ea0 f   KBasPropTbl.obj
 0001:00038ec0       ?GetScriptRecordNumber@KLibOfBPT@@QBE?BHXZ 10039ec0 f   KBasPropTbl.obj
 0001:00038ed0       ?FindMineRecord@KLibOfBPT@@QBEPBUKBASICPROP_MINE@@HPAH@Z 10039ed0 f   KBasPropTbl.obj
 0001:00038ef0       ?GetMineRecord@KLibOfBPT@@QBEPBUKBASICPROP_MINE@@H@Z 10039ef0 f   KBasPropTbl.obj
 0001:00038f10       ?GetMineRecordNumber@KLibOfBPT@@QBE?BHXZ 10039f10 f   KBasPropTbl.obj
 0001:00038f20       ??0KBasicPropertyTable@@QAE@XZ 10039f20 f   KBasPropTbl.obj
 0001:00038f40       ??1KBasicPropertyTable@@QAE@XZ 10039f40 f   KBasPropTbl.obj
 0001:00038f50       ?SetCount@KBasicPropertyTable@@IAEXH@Z 10039f50 f   KBasPropTbl.obj
 0001:00038f60       ?GetMemory@KBasicPropertyTable@@IAEHXZ 10039f60 f   KBasPropTbl.obj
 0001:00038f90       ?ReleaseMemory@KBasicPropertyTable@@IAEXXZ 10039f90 f   KBasPropTbl.obj
 0001:00038fc0       ?Load@KBasicPropertyTable@@UAEHXZ 10039fc0 f   KBasPropTbl.obj
 0001:000390b0       ??0KBPT_MagicAttrib_TF@@QAE@XZ 1003a0b0 f   KBasPropTbl.obj
 0001:00039110       ??1KBPT_MagicAttrib_TF@@QAE@XZ 1003a110 f   KBasPropTbl.obj
 0001:00039120       ?LoadRecord@KBPT_MagicAttrib_TF@@MAEHHPAVKTabFile@@@Z 1003a120 f   KBasPropTbl.obj
 0001:000393d0       ?GetRecord@KBPT_MagicAttrib_TF@@QBEPBUKMAGICATTRIB_TABFILE@@H@Z 1003a3d0 f   KBasPropTbl.obj
 0001:00039400       ?FindRecord@KBPT_MagicAttrib_TF@@QBEPBUKMAGICATTRIB_TABFILE@@HHPAH@Z 1003a400 f   KBasPropTbl.obj
 0001:00039460       ?GetMACount@KBPT_MagicAttrib_TF@@QBEXPAH@Z 1003a460 f   KBasPropTbl.obj
 0001:00039480       ??0KBPT_ClassMAIT@@QAE@XZ  1003a480 f   KBasPropTbl.obj
 0001:00039490       ??1KBPT_ClassMAIT@@QAE@XZ  1003a490 f   KBasPropTbl.obj
 0001:000394c0       ?Clear@KBPT_ClassMAIT@@QAEHXZ 1003a4c0 f   KBasPropTbl.obj
 0001:000394d0       ?Get@KBPT_ClassMAIT@@QBEHH@Z 1003a4d0 f   KBasPropTbl.obj
 0001:000394e0       ?Insert@KBPT_ClassMAIT@@QAEHH@Z 1003a4e0 f   KBasPropTbl.obj
 0001:00039580       ??0KBPT_ClassifiedMAT@@QAE@XZ 1003a580 f   KBasPropTbl.obj
 0001:00039590       ??1KBPT_ClassifiedMAT@@QAE@XZ 1003a590 f   KBasPropTbl.obj
 0001:000395a0       ?GetMemory@KBPT_ClassifiedMAT@@QAEHH@Z 1003a5a0 f   KBasPropTbl.obj
 0001:000395e0       ?ReleaseMemory@KBPT_ClassifiedMAT@@IAEXXZ 1003a5e0 f   KBasPropTbl.obj
 0001:00039610       ?Set@KBPT_ClassifiedMAT@@QAEHH@Z 1003a610 f   KBasPropTbl.obj
 0001:00039630       ?Get@KBPT_ClassifiedMAT@@QBEHH@Z 1003a630 f   KBasPropTbl.obj
 0001:00039650       ?GetAll@KBPT_ClassifiedMAT@@QBEHPAH0@Z 1003a650 f   KBasPropTbl.obj
 0001:00039690       ??0KBPT_Equipment@@QAE@XZ  1003a690 f   KBasPropTbl.obj
 0001:000396b0       ??1KBPT_Equipment@@QAE@XZ  1003a6b0 f   KBasPropTbl.obj
 0001:000396c0       ?Init@KBPT_Equipment@@QAEXH@Z 1003a6c0 f   KBasPropTbl.obj
 0001:00039700       ?LoadRecord@KBPT_Equipment@@MAEHHPAVKTabFile@@@Z 1003a700 f   KBasPropTbl.obj
 0001:00039ba0       ?GetRecord@KBPT_Equipment@@QBEPBUKBASICPROP_EQUIPMENT@@H@Z 1003aba0 f   KBasPropTbl.obj
 0001:00039bd0       ?FindRecord@KBPT_Equipment@@QBEPBUKBASICPROP_EQUIPMENT@@HHH@Z 1003abd0 f   KBasPropTbl.obj
 0001:00039c20       ??0KBPT_Gold_Equipment@@QAE@XZ 1003ac20 f   KBasPropTbl.obj
 0001:00039c70       ??1KBPT_Gold_Equipment@@QAE@XZ 1003ac70 f   KBasPropTbl.obj
 0001:00039c80       ?LoadRecord@KBPT_Gold_Equipment@@MAEHHPAVKTabFile@@@Z 1003ac80 f   KBasPropTbl.obj
 0001:0003a220       ?GetRecord@KBPT_Gold_Equipment@@QBEPBUKBASICPROP_GOLD_EQUIPMENT@@H@Z 1003b220 f   KBasPropTbl.obj
 0001:0003a250       ?FindRecord@KBPT_Gold_Equipment@@QBEPBUKBASICPROP_GOLD_EQUIPMENT@@HHH@Z 1003b250 f   KBasPropTbl.obj
 0001:0003a2a0       ??0KBPT_Broken_Equipment@@QAE@XZ 1003b2a0 f   KBasPropTbl.obj
 0001:0003a2f0       ??1KBPT_Broken_Equipment@@QAE@XZ 1003b2f0 f   KBasPropTbl.obj
 0001:0003a300       ?LoadRecord@KBPT_Broken_Equipment@@MAEHHPAVKTabFile@@@Z 1003b300 f   KBasPropTbl.obj
 0001:0003a3b0       ?GetRecord@KBPT_Broken_Equipment@@QBEPBUKBASICPROP_BROKEN_EQUIPMENT@@H@Z 1003b3b0 f   KBasPropTbl.obj
 0001:0003a3e0       ??0KBPT_Medicine@@QAE@XZ   1003b3e0 f   KBasPropTbl.obj
 0001:0003a430       ??1KBPT_Medicine@@QAE@XZ   1003b430 f   KBasPropTbl.obj
 0001:0003a440       ?LoadRecord@KBPT_Medicine@@MAEHHPAVKTabFile@@@Z 1003b440 f   KBasPropTbl.obj
 0001:0003a650       ?GetRecord@KBPT_Medicine@@QBEPBUKBASICPROP_MEDICINE@@H@Z 1003b650 f   KBasPropTbl.obj
 0001:0003a680       ?FindRecord@KBPT_Medicine@@QBEPBUKBASICPROP_MEDICINE@@HH@Z 1003b680 f   KBasPropTbl.obj
 0001:0003a6c0       ??0KBPT_Quest@@QAE@XZ      1003b6c0 f   KBasPropTbl.obj
 0001:0003a710       ??1KBPT_Quest@@QAE@XZ      1003b710 f   KBasPropTbl.obj
 0001:0003a720       ?LoadRecord@KBPT_Quest@@MAEHHPAVKTabFile@@@Z 1003b720 f   KBasPropTbl.obj
 0001:0003a820       ?GetRecord@KBPT_Quest@@QBEPBUKBASICPROP_QUEST@@H@Z 1003b820 f   KBasPropTbl.obj
 0001:0003a850       ?FindRecord@KBPT_Quest@@QBEPBUKBASICPROP_QUEST@@HPAH@Z 1003b850 f   KBasPropTbl.obj
 0001:0003a890       ??0KBPT_Script@@QAE@XZ     1003b890 f   KBasPropTbl.obj
 0001:0003a8e0       ??1KBPT_Script@@QAE@XZ     1003b8e0 f   KBasPropTbl.obj
 0001:0003a8f0       ?LoadRecord@KBPT_Script@@MAEHHPAVKTabFile@@@Z 1003b8f0 f   KBasPropTbl.obj
 0001:0003aa40       ?GetRecord@KBPT_Script@@QBEPBUKBASICPROP_SCRIPT@@H@Z 1003ba40 f   KBasPropTbl.obj
 0001:0003aa70       ?FindRecord@KBPT_Script@@QBEPBUKBASICPROP_SCRIPT@@HPAH@Z 1003ba70 f   KBasPropTbl.obj
 0001:0003aab0       ??0KBPT_Mine@@QAE@XZ       1003bab0 f   KBasPropTbl.obj
 0001:0003ab00       ??1KBPT_Mine@@QAE@XZ       1003bb00 f   KBasPropTbl.obj
 0001:0003ab10       ?LoadRecord@KBPT_Mine@@MAEHHPAVKTabFile@@@Z 1003bb10 f   KBasPropTbl.obj
 0001:0003ac10       ?GetRecord@KBPT_Mine@@QBEPBUKBASICPROP_MINE@@H@Z 1003bc10 f   KBasPropTbl.obj
 0001:0003ac40       ?FindRecord@KBPT_Mine@@QBEPBUKBASICPROP_MINE@@HPAH@Z 1003bc40 f   KBasPropTbl.obj
 0001:0003acf0       ??0KBuySell@@QAE@XZ        1003bcf0 f   KBuySell.obj
 0001:0003ad10       ??1KBuySell@@QAE@XZ        1003bd10 f   KBuySell.obj
 0001:0003ad90       ??_EKItem@@QAEPAXI@Z       1003bd90 f i KBuySell.obj
 0001:0003adf0       ?Init@KBuySell@@QAEHXZ     1003bdf0 f   KBuySell.obj
 0001:0003b220       ?GetItem@KBuySell@@QAEPAVKItem@@H@Z 1003c220 f   KBuySell.obj
 0001:0003b250       ?GetItemIndex@KBuySell@@QAEHHH@Z 1003c250 f   KBuySell.obj
 0001:0003b290       ?Buy@KBuySell@@QAEHHHHHHH@Z 1003c290 f   KBuySell.obj
 0001:0003b6a0       ?Sell@KBuySell@@QAEHHHH@Z  1003c6a0 f   KBuySell.obj
 0001:0003b830       ?OpenSale@KBuySell@@QAEXHH@Z 1003c830 f   KBuySell.obj
 0001:0003b930       ??0KInventory@@QAE@XZ      1003c930 f   KInventory.obj
 0001:0003b940       ??1KInventory@@QAE@XZ      1003c940 f   KInventory.obj
 0001:0003b950       ?Init@KInventory@@QAEHHH@Z 1003c950 f   KInventory.obj
 0001:0003b9c0       ?Release@KInventory@@QAEXXZ 1003c9c0 f   KInventory.obj
 0001:0003b9f0       ?Clear@KInventory@@QAEXXZ  1003c9f0 f   KInventory.obj
 0001:0003ba30       ?PlaceItem@KInventory@@QAEHHHHHH@Z 1003ca30 f   KInventory.obj
 0001:0003bb30       ?HoldItem@KInventory@@QAEHHHH@Z 1003cb30 f   KInventory.obj
 0001:0003bba0       ?GetIndex@KInventory@@QAEHHH@Z 1003cba0 f   KInventory.obj
 0001:0003bbe0       ?PickUpItem@KInventory@@QAEHHHHHH@Z 1003cbe0 f   KInventory.obj
 0001:0003bcd0       ?FindItem@KInventory@@QAEHHH@Z 1003ccd0 f   KInventory.obj
 0001:0003bd40       ?FindRoom@KInventory@@QAEHHHPAUtagPOINT@@@Z 1003cd40 f   KInventory.obj
 0001:0003bde0       ?FindFreeCell@KInventory@@QAEHHH@Z 1003cde0 f   KInventory.obj
 0001:0003be80       ?CheckRoom@KInventory@@QAEHHHHH@Z 1003ce80 f   KInventory.obj
 0001:0003bf30       ?AddMoney@KInventory@@QAEHH@Z 1003cf30 f   KInventory.obj
 0001:0003bf50       ?GetNextItem@KInventory@@QAEHHHHPAH0@Z 1003cf50 f   KInventory.obj
 0001:0003c000       ?CalcSameDetailType@KInventory@@QAEHHH@Z 1003d000 f   KInventory.obj
 0001:0003c0b0       ?FindSameDetailType@KInventory@@QAEHHHPAH00@Z 1003d0b0 f   KInventory.obj
 0001:0003c150       ?CheckSameDetailType@KInventory@@QAEHHH@Z 1003d150 f   KInventory.obj
 0001:0003c1c0       ?FindEmptyPlace@KInventory@@QAEHEE@Z 1003d1c0 f   KInventory.obj
 0001:0003c300       ?GetEmptyCellNum@KInventory@@QAEHXZ 1003d300 f   KInventory.obj
 0001:0003c370       ?GetSameItemNum@KInventory@@QAEHHHHHH@Z 1003d370 f   KInventory.obj
 0001:0003c510       ?FindSameItem@KInventory@@QAEHEFHDEPAH@Z 1003d510 f   KInventory.obj
 0001:0003c6d0       ??0KItem@@QAE@XZ           1003d6d0 f   KItem.obj
 0001:0003c7f0       ??1KItem@@QAE@XZ           1003d7f0 f   KItem.obj
 0001:0003c880       ?Remove@KItem@@QAEXXZ      1003d880 f   KItem.obj
 0001:0003c910       ?SetGeneratorLevel@KItem@@QAEXPBH@Z 1003d910 f   KItem.obj
 0001:0003c950       ?GetRequirement@KItem@@QAEPAXH@Z 1003d950 f   KItem.obj
 0001:0003c970       ?ApplyMagicAttribToNPC@KItem@@QBEXPAVKNpc@@H@Z 1003d970 f   KItem.obj
 0001:0003ca10       ?RemoveMagicAttribFromNPC@KItem@@QBEXPAVKNpc@@H@Z 1003da10 f   KItem.obj
 0001:0003cb90       ?ApplyHiddenMagicAttribToNPC@KItem@@QBEXPAVKNpc@@H@Z 1003db90 f   KItem.obj
 0001:0003cbc0       ?RemoveHiddenMagicAttribFromNPC@KItem@@QBEXPAVKNpc@@H@Z 1003dbc0 f   KItem.obj
 0001:0003cc20       ?SetAttrib_CBR@KItem@@AAEHPBUKBASICPROP_EQUIPMENT@@@Z 1003dc20 f   KItem.obj
 0001:0003cc60       ?SetAttrib_CBR@KItem@@AAEHPBUKBASICPROP_GOLD_EQUIPMENT@@@Z 1003dc60 f   KItem.obj
 0001:0003cca0       ?SetAttrib_Base@KItem@@AAEHPBUKEQCP_BASIC@@@Z 1003dca0 f   KItem.obj
 0001:0003cd30       ?SetAttrib_Req@KItem@@AAEHPBUKEQCP_REQ@@@Z 1003dd30 f   KItem.obj
 0001:0003cd70       ?SetAttrib_MA@KItem@@AAEHPBUKMagicAttrib@@@Z 1003dd70 f   KItem.obj
 0001:0003cdc0       ?SetAttrib_ExtraMA@KItem@@AAEHPBUKMagicAttrib@@@Z 1003ddc0 f   KItem.obj
 0001:0003ce10       ?SetAttrib_MA@KItem@@AAEHPBUKMACP@@@Z 1003de10 f   KItem.obj
 0001:0003ce90       ??4KItem@@AAEXABUKBASICPROP_EQUIPMENT@@@Z 1003de90 f   KItem.obj
 0001:0003cf10       ??4KItem@@AAEXABUKBASICPROP_GOLD_EQUIPMENT@@@Z 1003df10 f   KItem.obj
 0001:0003cfd0       ??4KItem@@AAEXABUKBASICPROP_BROKEN_EQUIPMENT@@@Z 1003dfd0 f   KItem.obj
 0001:0003d040       ??4KItem@@AAEXABUKBASICPROP_MEDICINE@@@Z 1003e040 f   KItem.obj
 0001:0003d110       ??4KItem@@AAEXABUKBASICPROP_QUEST@@@Z 1003e110 f   KItem.obj
 0001:0003d1d0       ??4KItem@@AAEXABUKBASICPROP_SCRIPT@@@Z 1003e1d0 f   KItem.obj
 0001:0003d2b0       ??4KItem@@AAEXABUKBASICPROP_MINE@@@Z 1003e2b0 f   KItem.obj
 0001:0003d370       ?SetBaseAttrib@KItem@@QAEHPBUKMagicAttrib@@@Z 1003e370 f   KItem.obj
 0001:0003d3b0       ?SetRequireAttrib@KItem@@QAEHPBUKMagicAttrib@@@Z 1003e3b0 f   KItem.obj
 0001:0003d3f0       ?SetMagicAttrib@KItem@@QAEHPBUKMagicAttrib@@@Z 1003e3f0 f   KItem.obj
 0001:0003d400       ?Abrade@KItem@@QAEHH@Z     1003e400 f   KItem.obj
 0001:0003d450       ?GetMaxDurability@KItem@@QAEHXZ 1003e450 f   KItem.obj
 0001:0003d470       ?GetTotalMagicLevel@KItem@@QAEHXZ 1003e470 f   KItem.obj
 0001:0003d490       ?GetRepairPrice@KItem@@QAEHXZ 1003e490 f   KItem.obj
 0001:0003d540       ?CanBeRepaired@KItem@@QAEHXZ 1003e540 f   KItem.obj
 0001:0003d5a0       ?SetPrice@KItem@@QAEXHE@Z  1003e5a0 f   KItem.obj
 0001:0003d5c0       ?GetPrice@KItem@@QBEHHPBDH@Z 1003e5c0 f   KItem.obj
 0001:0003d600       ?SetPlayerShopPrice@KItem@@QAEXH@Z 1003e600 f   KItem.obj
 0001:0003d610       ?GetMagicAttrib@KItem@@QBEHEE@Z 1003e610 f   KItem.obj
 0001:0003d6a0       ?SetBrokenEquip@KItem@@QAEXPBUKBASICPROP_BROKEN_EQUIPMENT@@@Z 1003e6a0 f   KItem.obj
 0001:0003d6d0       ?GetItemBackupInfo@KItem@@QAEXPAD@Z 1003e6d0 f   KItem.obj
 0001:0003d6e0       ?RestoreItemInfo@KItem@@QAEXPAD@Z 1003e6e0 f   KItem.obj
 0001:0003d6f0       ?CanStack@KItem@@QAEHXZ    1003e6f0 f   KItem.obj
 0001:0003d710       ?SetBindState@KItem@@QAEXKH@Z 1003e710 f   KItem.obj
 0001:0003d740       ?SetTime@KItem@@QAEXKH@Z   1003e740 f   KItem.obj
 0001:0003d800       ?GetTime@KItem@@QBEKH@Z    1003e800 f   KItem.obj
 0001:0003d810       ?DecodeTime@KItem@@QAEHPAH0000H@Z 1003e810 f   KItem.obj
 0001:0003d8f0       ?GetSuiteNo@KItem@@QBEHXZ  1003e8f0 f   KItem.obj
 0001:0003d920       ?GetSuiteId@KItem@@QBEHXZ  1003e920 f   KItem.obj
 0001:0003d960       ?GetSuiteCount@KItem@@QBEHXZ 1003e960 f   KItem.obj
 0001:0003d990       ?CheckVaildTime@KItem@@QAEHH@Z 1003e990 f   KItem.obj
 0001:0003dae0       ??1KItemChangeRes@@QAE@XZ  1003eae0 f i KItemChangeRes.obj
 0001:0003db60       ??0KItemChangeRes@@QAE@XZ  1003eb60 f i KItemChangeRes.obj
 0001:0003dbe0       ?Init@KItemChangeRes@@QAEHXZ 1003ebe0 f   KItemChangeRes.obj
 0001:0003dc70       ?GetWeaponRes@KItemChangeRes@@QAEHHH@Z 1003ec70 f   KItemChangeRes.obj
 0001:0003dd00       ?GetArmorRes@KItemChangeRes@@QAEHH@Z 1003ed00 f   KItemChangeRes.obj
 0001:0003dd60       ?GetHelmRes@KItemChangeRes@@QAEHH@Z 1003ed60 f   KItemChangeRes.obj
 0001:0003ddc0       ?GetHorseRes@KItemChangeRes@@QAEHH@Z 1003edc0 f   KItemChangeRes.obj
 0001:0003de20       ?GetGoldEquipRes@KItemChangeRes@@QAEHH@Z 1003ee20 f   KItemChangeRes.obj
 0001:0003df60       ??0KItemGenerator@@QAE@XZ  1003ef60 f   KItemGenerator.obj
 0001:0003df70       ??1KItemGenerator@@QAE@XZ  1003ef70 f   KItemGenerator.obj
 0001:0003df80       ?Init@KItemGenerator@@QAEHXZ 1003ef80 f   KItemGenerator.obj
 0001:0003e100       ?Gen_Equipment@KItemGenerator@@QAEHHHHHPBHHHPAVKItem@@@Z 1003f100 f   KItemGenerator.obj
 0001:0003e2f0       ?Gen_ExistEquipment@KItemGenerator@@QAEHHHHPBHHHPAVKItem@@@Z 1003f2f0 f   KItemGenerator.obj
 0001:0003e4c0       ?Gen_PurpleEquipment@KItemGenerator@@QAEHHHHHPBHHHPAVKItem@@@Z 1003f4c0 f   KItemGenerator.obj
 0001:0003e700       ?Gen_ExistPurpleEquipment@KItemGenerator@@QAEHHHHPBHHHPAVKItem@@@Z 1003f700 f   KItemGenerator.obj
 0001:0003e920       ?Gen_GoldEquipment@KItemGenerator@@QAEHHHPAVKItem@@@Z 1003f920 f   KItemGenerator.obj
 0001:0003eba0       ?Gen_BrokenEquipment@KItemGenerator@@QAEHHHHHHPBHHHHPAVKItem@@@Z 1003fba0 f   KItemGenerator.obj
 0001:0003eca0       ?Gen_Medicine@KItemGenerator@@QAEHHHPAVKItem@@@Z 1003fca0 f   KItemGenerator.obj
 0001:0003ecf0       ?Gen_ExistMedicine@KItemGenerator@@QAEHHPAVKItem@@@Z 1003fcf0 f   KItemGenerator.obj
 0001:0003ed30       ?Gen_Quest@KItemGenerator@@QAEHHPAVKItem@@@Z 1003fd30 f   KItemGenerator.obj
 0001:0003ed90       ?Gen_ExistQuest@KItemGenerator@@QAEHHPAVKItem@@@Z 1003fd90 f   KItemGenerator.obj
 0001:0003edd0       ?Gen_Script@KItemGenerator@@QAEHHPAVKItem@@@Z 1003fdd0 f   KItemGenerator.obj
 0001:0003ee30       ?Gen_ExistScript@KItemGenerator@@QAEHHPAVKItem@@@Z 1003fe30 f   KItemGenerator.obj
 0001:0003ee70       ?Gen_Mine@KItemGenerator@@QAEHHHHPAVKItem@@@Z 1003fe70 f   KItemGenerator.obj
 0001:0003ef60       ?Gen_ExistMine@KItemGenerator@@QAEHHHHPAVKItem@@@Z 1003ff60 f   KItemGenerator.obj
 0001:0003f030       ?getRandomLevel@KItemGenerator@@AAEHQBNH@Z 10040030 f   KItemGenerator.obj
 0001:0003f0b0       ?IsMagicAttribLuckyLevel@KItemGenerator@@AAEHPBUKMAGICATTRIB_TABFILE@@H@Z 100400b0 f   KItemGenerator.obj
 0001:0003f200       ?Gen_MagicAttrib@KItemGenerator@@AAEHHPBHHHPAUKMagicAttrib@@HH@Z 10040200 f   KItemGenerator.obj
 0001:0003f4f0       ?Gen_PurpleMagicAttrib@KItemGenerator@@AAEHHPBH0HHPAUKMagicAttrib@@H@Z 100404f0 f   KItemGenerator.obj
 0001:0003f5f0       ?GMA_GetAvaliableMA@KItemGenerator@@AAEHH@Z 100405f0 f   KItemGenerator.obj
 0001:0003f650       ?GMA_GetLevelAndDropRate@KItemGenerator@@AAEHH@Z 10040650 f   KItemGenerator.obj
 0001:0003f700       ?GMA_ChooseMA@KItemGenerator@@AAEXHHHPAUKMagicAttrib@@@Z 10040700 f   KItemGenerator.obj
 0001:0003f7f0       ?GetMARecord@KItemGenerator@@ABEPBUKMAGICATTRIB_TABFILE@@H@Z 100407f0 f   KItemGenerator.obj
 0001:0003f800       ?GMA_GetCandidateMA@KItemGenerator@@AAEHHHH@Z 10040800 f   KItemGenerator.obj
 0001:0003f8a0       ?DecodePurple@KItemGenerator@@AAEHHPAHKK@Z 100408a0 f   KItemGenerator.obj
 0001:0003f990       ?CheckMA@KItemGenerator@@QAEHHHHH@Z 10040990 f   KItemGenerator.obj
 0001:0003f9e0       ?GMA_Record@KItemGenerator@@QAEHHH@Z 100409e0 f   KItemGenerator.obj
 0001:0003fa10       ?GMA_ByRecord@KItemGenerator@@QBEPBUKMAGICATTRIB_TABFILE@@H@Z 10040a10 f   KItemGenerator.obj
 0001:0003fa50       ??0KItemList@@QAE@XZ       10040a50 f   KItemList.obj
 0001:0003fad0       ??1KItemList@@QAE@XZ       10040ad0 f   KItemList.obj
 0001:0003fb80       ?GetWeaponType@KItemList@@QAEHXZ 10040b80 f   KItemList.obj
 0001:0003fba0       ?GetWeaponDamage@KItemList@@QAEXPAH0@Z 10040ba0 f   KItemList.obj
 0001:0003fcc0       ?Add@KItemList@@QAEHHHHH@Z 10040cc0 f   KItemList.obj
 0001:000403b0       ?Remove@KItemList@@QAEHH@Z 100413b0 f   KItemList.obj
 0001:00040790       ?FindFree@KItemList@@AAEHXZ 10041790 f   KItemList.obj
 0001:000407b0       ?FindSame@KItemList@@AAEHH@Z 100417b0 f   KItemList.obj
 0001:000407f0       ?Init@KItemList@@QAEHH@Z   100417f0 f   KItemList.obj
 0001:000409b0       ?Release@KItemList@@QAEXXZ 100419b0 f   KItemList.obj
 0001:00040aa0       ?CanEquip@KItemList@@QAEHHH@Z 10041aa0 f   KItemList.obj
 0001:00040b30       ?CanEquip@KItemList@@QAEHPAVKItem@@H@Z 10041b30 f   KItemList.obj
 0001:00040ba0       ?EnoughAttrib@KItemList@@QAEHPAX@Z 10041ba0 f   KItemList.obj
 0001:00040db0       ?HaveDamageItem@KItemList@@QAEHH@Z 10041db0 f   KItemList.obj
 0001:00040e10       ?Equip@KItemList@@QAEHHH@Z 10041e10 f   KItemList.obj
 0001:00041230       ?InfectionNextEquip@KItemList@@AAEXHH@Z 10042230 f   KItemList.obj
 0001:00041380       ?UnEquip@KItemList@@QAEHHH@Z 10042380 f   KItemList.obj
 0001:000415e0       ?GetEquipPlace@KItemList@@AAEHH@Z 100425e0 f   KItemList.obj
 0001:000416a0       ?Fit@KItemList@@AAEHHH@Z   100426a0 f   KItemList.obj
 0001:00041800       ?Fit@KItemList@@AAEHPAVKItem@@H@Z 10042800 f   KItemList.obj
 0001:00041950       ?GetEquipEnhance@KItemList@@AAEHH@Z 10042950 f   KItemList.obj
 0001:00041a60       ?EatMecidine@KItemList@@QAEHH@Z 10042a60 f   KItemList.obj
 0001:00041bf0       ?SearchPosition@KItemList@@QAEHHHPAUItemPos@@@Z 10042bf0 f   KItemList.obj
 0001:00041c80       ?SearchID@KItemList@@QAEHH@Z 10042c80 f   KItemList.obj
 0001:00041ce0       ?ExchangeMoney@KItemList@@QAEXHHH@Z 10042ce0 f   KItemList.obj
 0001:00041d80       ?GetMoneyAmount@KItemList@@QAEHXZ 10042d80 f   KItemList.obj
 0001:00041d90       ?GetEquipmentMoney@KItemList@@QAEHXZ 10042d90 f   KItemList.obj
 0001:00041da0       ?GetTradeMoney@KItemList@@QAEHXZ 10042da0 f   KItemList.obj
 0001:00041db0       ?GetRepositoryMoney@KItemList@@QAEHXZ 10042db0 f   KItemList.obj
 0001:00041dc0       ?AddMoney@KItemList@@QAEHHH@Z 10042dc0 f   KItemList.obj
 0001:00041e00       ?CostMoney@KItemList@@QAEHH@Z 10042e00 f   KItemList.obj
 0001:00041e40       ?DecMoney@KItemList@@QAEHH@Z 10042e40 f   KItemList.obj
 0001:00041ec0       ?TradeMoveMoney@KItemList@@QAEXH@Z 10042ec0 f   KItemList.obj
 0001:00041f50       ?SendMoneySync@KItemList@@QAEXXZ 10042f50 f   KItemList.obj
 0001:00041fc0       ?SetMoney@KItemList@@QAEXHHH@Z 10042fc0 f   KItemList.obj
 0001:00041ff0       ?SetRoomMoney@KItemList@@QAEXHH@Z 10042ff0 f   KItemList.obj
 0001:00042020       ?ExchangeItem@KItemList@@QAEXPAUItemPos@@0@Z 10043020 f   KItemList.obj
 0001:00044480       ?EatMecidine@KItemList@@QAEHHHH@Z 10045480 f   KItemList.obj
 0001:00044600       ?GetFirstItem@KItemList@@QAEPAUPlayerItem@@XZ 10045600 f   KItemList.obj
 0001:00044630       ?GetNextItem@KItemList@@QAEPAUPlayerItem@@XZ 10045630 f   KItemList.obj
 0001:00044660       ?ClearRoom@KItemList@@QAEXH@Z 10045660 f   KItemList.obj
 0001:00044680       ?BackupTrade@KItemList@@QAEXXZ 10045680 f   KItemList.obj
 0001:000446f0       ?RecoverTrade@KItemList@@QAEXXZ 100456f0 f   KItemList.obj
 0001:00044740       ?StartTrade@KItemList@@QAEXXZ 10045740 f   KItemList.obj
 0001:00044760       ?RemoveAll@KItemList@@QAEXXZ 10045760 f   KItemList.obj
 0001:000447b0       ?GetWeaponParticular@KItemList@@QAEHXZ 100457b0 f   KItemList.obj
 0001:000447d0       ?IsTaskItemExist@KItemList@@QAEHF@Z 100457d0 f   KItemList.obj
 0001:00044840       ?RemoveByIndex@KItemList@@QAEHHH@Z 10045840 f   KItemList.obj
 0001:00044880       ?GetTaskItemNum@KItemList@@QAEHH@Z 10045880 f   KItemList.obj
 0001:000448f0       ?RemoveTaskItem@KItemList@@QAEHHH@Z 100458f0 f   KItemList.obj
 0001:00044a70       ?UseStackItem@KItemList@@QAEHHH@Z 10045a70 f   KItemList.obj
 0001:00044b60       ?RemoveStackItem@KItemList@@QAEHH@Z 10045b60 f   KItemList.obj
 0001:00044bc0       ?GetTradeRoomItemInfo@KItemList@@QAEXXZ 10045bc0 f   KItemList.obj
 0001:00044cd0       ?TradeCheckCanPlace@KItemList@@QAEHXZ 10045cd0 f   KItemList.obj
 0001:00044e70       ?FindEmptyPlaceEquipment@KItemList@@QAEHEE@Z 10045e70 f   KItemList.obj
 0001:00044e90       ?GetEmptyCellNumInEquipment@KItemList@@QAEHXZ 10045e90 f   KItemList.obj
 0001:00044ea0       ?GetSameItemNumInEquipment@KItemList@@QAEHHHHHH@Z 10045ea0 f   KItemList.obj
 0001:00044ed0       ?CountSameItem@KItemList@@QAEHW4INVENTORY_ROOM@@HHHHH@Z 10045ed0 f   KItemList.obj
 0001:00044fb0       ?RemoveItemInEquipment@KItemList@@QAEHHHHHHH@Z 10045fb0 f   KItemList.obj
 0001:00045190       ?CheckCanPlaceInEquipment@KItemList@@QAEHHHPAH0@Z 10046190 f   KItemList.obj
 0001:00045290       ?CheckSameDetailType@KItemList@@AAEHW4INVENTORY_ROOM@@HH@Z 10046290 f   KItemList.obj
 0001:00045320       ?FindSameDetailType@KItemList@@AAEHW4INVENTORY_ROOM@@HHPAH11@Z 10046320 f   KItemList.obj
 0001:000453e0       ?FindSameItem@KItemList@@AAEHW4INVENTORY_ROOM@@HHHHHPAH11@Z 100463e0 f   KItemList.obj
 0001:000454b0       ?AutoMoveMedicine@KItemList@@QAEHHHHHH@Z 100464b0 f   KItemList.obj
 0001:00045700       ?CalcFreeItemCellCount@KItemList@@QAEHHHH@Z 10046700 f   KItemList.obj
 0001:00045720       ?GetActiveAttribNum@KItemList@@QAEHH@Z 10046720 f   KItemList.obj
 0001:00045750       ?AutoLoseItemFromEquipmentRoom@KItemList@@QAEXH@Z 10046750 f   KItemList.obj
 0001:00045ac0       ?AutoLoseEquip@KItemList@@QAEXXZ 10046ac0 f   KItemList.obj
 0001:00045da0       ?Abrade@KItemList@@QAEXH@Z 10046da0 f   KItemList.obj
 0001:00045f70       ?BackupBrokenEquip@KItemList@@QAEHH@Z 10046f70 f   KItemList.obj
 0001:000461a0       ?RestoreBrokenEquip@KItemList@@QAEHH@Z 100471a0 f   KItemList.obj
 0001:000463e0       ?AddAgain@KItemList@@QAEHH@Z 100473e0 f   KItemList.obj
 0001:00046610       ?SetItemBindState@KItemList@@QAEXHEE@Z 10047610 f   KItemList.obj
 0001:00046710       ?GetItemBindState@KItemList@@QAEDH@Z 10047710 f   KItemList.obj
 0001:00046780       ?GetIfActive@KItemList@@QAEHXZ 10047780 f   KItemList.obj
 0001:00046840       ?SetMaskLock@KItemList@@QAEXH@Z 10047840 f   KItemList.obj
 0001:000468a0       ?IsMyItem@KItemList@@QAEHH@Z 100478a0 f   KItemList.obj
 0001:000468c0       ?SetMarkPriceItem@KItemList@@QAEXKH@Z 100478c0 f   KItemList.obj
 0001:000469c0       ?AutoMoveItem@KItemList@@QAEXH@Z 100479c0 f   KItemList.obj
 0001:000469f0       ?Add_AutoStack@KItemList@@QAEHW4INVENTORY_ROOM@@HHH@Z 100479f0 f   KItemList.obj
 0001:00046b30       ?FindItemToStack@KItemList@@AAEHW4INVENTORY_ROOM@@H@Z 10047b30 f   KItemList.obj
 0001:00046b90       ?CheckStackItem@KItemList@@AAEHHH@Z 10047b90 f   KItemList.obj
 0001:00046cb0       ?StackItem@KItemList@@AAEHHH@Z 10047cb0 f   KItemList.obj
 0001:00046d20       ?ExchangeStack@KItemList@@AAEHHH@Z 10047d20 f   KItemList.obj
 0001:00046e60       ?UpdateGoldInfo@KItemList@@AAEXHHHH@Z 10047e60 f   KItemList.obj
 0001:00046ea0       ?BuildItem@KItemList@@QAEHHH@Z 10047ea0 f   KItemList.obj
 0001:00046ef0       ?UnBuildItem@KItemList@@QAEXHH@Z 10047ef0 f   KItemList.obj
 0001:00046f50       ?PositionToRoom@KItemList@@QAEHH@Z 10047f50 f   KItemList.obj
 0001:00046f90       ?AutoMoveToRepository@KItemList@@QAEHHHHHH@Z 10047f90 f   KItemList.obj
 0001:000471a0       ?AutoMoveToInventory@KItemList@@QAEHHHHHH@Z 100481a0 f   KItemList.obj
 0001:000473b0       ?SyncItem@KItemList@@QAEXHHHHHH@Z 100483b0 f   KItemList.obj
 0001:000475c0       ??0KItemSet@@QAE@XZ        100485c0 f   KItemSet.obj
 0001:00047600       ??1KItemSet@@QAE@XZ        10048600 f   KItemSet.obj
 0001:00047680       ?Init@KItemSet@@QAEXXZ     10048680 f   KItemSet.obj
 0001:00047ae0       ?SearchID@KItemSet@@QAEHK@Z 10048ae0 f   KItemSet.obj
 0001:00047b10       ?Add@KItemSet@@QAEHPAVKItem@@@Z 10048b10 f   KItemSet.obj
 0001:00047b80       ?Add@KItemSet@@QAEHHHHGHHHPAHHKEK@Z 10048b80 f   KItemSet.obj
 0001:00047d40       ?AddExist@KItemSet@@QAEHHHHGHHPAHHK@Z 10048d40 f   KItemSet.obj
 0001:00047f10       ?FindFree@KItemSet@@AAEHXZ 10048f10 f   KItemSet.obj
 0001:00047f20       ?Remove@KItemSet@@QAEXH@Z  10048f20 f   KItemSet.obj
 0001:00047f60       ?SetID@KItemSet@@AAEHH@Z   10048f60 f   KItemSet.obj
 0001:00047f90       ?BackItemInfo@KItemSet@@QAEXXZ 10048f90 f   KItemSet.obj
 0001:00047fe0       ?GetAbradeRange@KItemSet@@QAEHHH@Z 10048fe0 f   KItemSet.obj
 0001:00048010       ?DropItem@KItemSet@@QAEHHHHHHHHHHHPAHH@Z 10049010 f   KItemSet.obj
 0001:00048310       ??0KObj@@QAE@XZ            10049310 f   KObj.obj
 0001:00048360       ?Release@KObj@@QAEXXZ      10049360 f   KObj.obj
 0001:00048460       ?SetIndex@KObj@@QAEXH@Z    10049460 f   KObj.obj
 0001:00048480       ?SetWorldID@KObj@@QAEXH@Z  10049480 f   KObj.obj
 0001:000484a0       ?SetLifeTime@KObj@@QAEXH@Z 100494a0 f   KObj.obj
 0001:000484b0       ?SetState@KObj@@QAEXHH@Z   100494b0 f   KObj.obj
 0001:00048550       ?BoxOpen@KObj@@AAEXXZ      10049550 f   KObj.obj
 0001:00048560       ?BoxClose@KObj@@AAEXXZ     10049560 f   KObj.obj
 0001:00048570       ?DoorOpen@KObj@@AAEXXZ     10049570 f   KObj.obj
 0001:00048580       ?DoorClose@KObj@@AAEXXZ    10049580 f   KObj.obj
 0001:00048590       ?SetDir@KObj@@QAEHH@Z      10049590 f   KObj.obj
 0001:000485d0       ?SetScriptFile@KObj@@QAEXPAD@Z 100495d0 f   KObj.obj
 0001:00048640       ?SetImageDir@KObj@@QAEXH@Z 10049640 f   KObj.obj
 0001:00048670       ?SetItemDataID@KObj@@QAEXH@Z 10049670 f   KObj.obj
 0001:00048690       ?Activate@KObj@@QAEXXZ     10049690 f   KObj.obj
 0001:000487b0       ?ExecScript@KObj@@QAEXH@Z  100497b0 f   KObj.obj
 0001:00048940       ?CastSkill@KObj@@QAEXH@Z   10049940 f   KObj.obj
 0001:00048950       ?CastSkill@KObj@@QAEXHH@Z  10049950 f   KObj.obj
 0001:00048960       ?SyncAdd@KObj@@QAEHH@Z     10049960 f   KObj.obj
 0001:00048ac0       ?SyncState@KObj@@QAEXXZ    10049ac0 f   KObj.obj
 0001:00048bf0       ?SyncDir@KObj@@QAEXXZ      10049bf0 f   KObj.obj
 0001:00048d20       ?SyncRemove@KObj@@QAEXH@Z  10049d20 f   KObj.obj
 0001:00048e60       ?TrapAct@KObj@@QAEXXZ      10049e60 f   KObj.obj
 0001:00048fb0       ?FindEnemy@KObj@@QAEHXZ    10049fb0 f   KObj.obj
 0001:00048fc0       ?GetItemDataID@KObj@@QAEHXZ 10049fc0 f   KObj.obj
 0001:00048fd0       ?SetItemBelong@KObj@@QAEXH@Z 10049fd0 f   KObj.obj
 0001:00049000       ?SetEntireBelong@KObj@@QAEXH@Z 1004a000 f   KObj.obj
 0001:00049030       ?Remove@KObj@@QAEXH@Z      1004a030 f   KObj.obj
 0001:00049070       ?GetKind@KObj@@QAEHXZ      1004a070 f   KObj.obj
 0001:00049080       ?PolygonChangeToBar@KObj@@QAEXVKPolygon@@HHHHPAE@Z 1004a080 f   KObj.obj
 0001:00049280       ??0ServerImage@@QAE@XZ     1004a280 f   KObj.obj
 0001:00049290       ?Release@ServerImage@@QAEXXZ 1004a290 f   KObj.obj
 0001:000492b0       ?SetTotalFrame@ServerImage@@QAEXH@Z 1004a2b0 f   KObj.obj
 0001:000492d0       ?SetCurFrame@ServerImage@@QAEXH@Z 1004a2d0 f   KObj.obj
 0001:00049310       ?SetTotalDir@ServerImage@@QAEXH@Z 1004a310 f   KObj.obj
 0001:00049330       ?SetCurDir@ServerImage@@QAEHH@Z 1004a330 f   KObj.obj
 0001:00049370       ?SetInterVal@ServerImage@@QAEXK@Z 1004a370 f   KObj.obj
 0001:00049380       ?GetOneDirFrames@ServerImage@@QAEHXZ 1004a380 f   KObj.obj
 0001:00049390       ?CheckEnd@ServerImage@@QAEHXZ 1004a390 f   KObj.obj
 0001:000493b0       ?SetDirStart@ServerImage@@QAEXXZ 1004a3b0 f   KObj.obj
 0001:000493c0       ?SetDirEnd@ServerImage@@QAEXXZ 1004a3c0 f   KObj.obj
 0001:000493d0       ?GetNextFrame@ServerImage@@QAEHH@Z 1004a3d0 f   KObj.obj
 0001:00049430       ?GetPrevFrame@ServerImage@@QAEHH@Z 1004a430 f   KObj.obj
 0001:00049490       ?SetCurDir64@ServerImage@@QAEHH@Z 1004a490 f   KObj.obj
 0001:000494f0       ?GetCurDirFrameNo@ServerImage@@QAEHXZ 1004a4f0 f   KObj.obj
 0001:00049500       ?GetMpsPos@KObj@@QAEXPAH0@Z 1004a500 f   KObj.obj
 0001:00049540       ?GetDistanceSquare@KObj@@QAEHH@Z 1004a540 f   KObj.obj
 0001:000496d0       ??0KObjSet@@QAE@XZ         1004a6d0 f   KObjSet.obj
 0001:00049730       ??1KObjSet@@QAE@XZ         1004a730 f   KObjSet.obj
 0001:000497a0       ?Init@KObjSet@@QAEHXZ      1004a7a0 f   KObjSet.obj
 0001:00049820       ?AddMoneyObj@KObjSet@@QAEHUKMapPos@@H@Z 1004a820 f   KObjSet.obj
 0001:000498f0       ?GetMoneyDataId@KObjSet@@AAEHH@Z 1004a8f0 f   KObjSet.obj
 0001:00049980       ?Add@KObjSet@@QAEHHUKMapPos@@UKObjItemInfo@@@Z 1004a980 f   KObjSet.obj
 0001:00049e80       ?Add@KObjSet@@QAEHHHHHHHPAD@Z 1004ae80 f   KObjSet.obj
 0001:0004a000       ?AddData@KObjSet@@QAEHHUKMapPos@@HHHH@Z 1004b000 f   KObjSet.obj
 0001:0004a2a0       ?SetObjItem@KObjSet@@QAEHHHHH@Z 1004b2a0 f   KObjSet.obj
 0001:0004a2f0       ?SyncAdd@KObjSet@@QAEHHH@Z 1004b2f0 f   KObjSet.obj
 0001:0004a330       ?ServerLoadRegionObj@KObjSet@@QAEHPADHHH@Z 1004b330 f   KObjSet.obj
 0001:0004a600       ?ServerLoadRegionObj@KObjSet@@QAEHHPAVKPakFile@@K@Z 1004b600 f   KObjSet.obj
 0001:0004a860       ?ServerAdd@KObjSet@@QAEHHHHHHHPBD@Z 1004b860 f   KObjSet.obj
 0001:0004a9f0       ?FindFree@KObjSet@@AAEHXZ  1004b9f0 f   KObjSet.obj
 0001:0004aa00       ?CheckClientKind@KObjSet@@AAEHH@Z 1004ba00 f   KObjSet.obj
 0001:0004aa40       ?FindID@KObjSet@@QAEHH@Z   1004ba40 f   KObjSet.obj
 0001:0004aaa0       ?FindName@KObjSet@@QAEHPAD@Z 1004baa0 f   KObjSet.obj
 0001:0004ab40       ?GetID@KObjSet@@QAEHXZ     1004bb40 f   KObjSet.obj
 0001:0004ab50       ?Remove@KObjSet@@QAEXH@Z   1004bb50 f   KObjSet.obj
 0001:0004ab90       ?GetDataIDKind@KObjSet@@AAEHH@Z 1004bb90 f   KObjSet.obj
 0001:0004b020       ??1tag_DATABASEINFO@@QAE@XZ 1004c020 f i KCore.obj
 0001:0004b0f0       ??0tag_DATABASEINFO@@QAE@XZ 1004c0f0 f i KCore.obj
 0001:0004b140       ?g_InitConfigMssql@@YAXXZ  1004c140 f   KCore.obj
 0001:0004b430       ?g_InitCore@@YAXXZ         1004c430 f   KCore.obj
 0001:0004b7f0       ?OutputServerInfo@@YAXXZ   1004c7f0 f   KCore.obj
 0001:0004b8f0       ?InitGameSetting@@YAHXZ    1004c8f0 f   KCore.obj
 0001:0004b910       ?InitTaskSetting@@YAHXZ    1004c910 f   KCore.obj
 0001:0004bae0       ?InitNpcSetting@@YAHXZ     1004cae0 f   KCore.obj
 0001:0004bb20       ?InitMissleSetting@@YAHXZ  1004cb20 f   KCore.obj
 0001:0004bbb0       ?InitSkillSetting@@YAHXZ   1004cbb0 f   KCore.obj
 0001:0004bbc0       ?LoadNpcSettingFromBinFile@@YAHPAD@Z 1004cbc0 f   KCore.obj
 0001:0004bbd0       ?SaveAsBinFileFromNpcSetting@@YAHPAD@Z 1004cbd0 f   KCore.obj
 0001:0004bbe0       ?g_ReleaseCore@@YAXXZ      1004cbe0 f   KCore.obj
 0001:0004bca0       ??1KNpcTemplate@@QAE@XZ    1004cca0 f i KCore.obj
 0001:0004bcb0       ?g_SetServer@@YAXPAX@Z     1004ccb0 f   KCore.obj
 0001:0004bcc0       ?PositionToRoom@@YAHH@Z    1004ccc0 f   KCore.obj
 0001:0004be30       ??1?$KMissionArray@VKMission@@$0DC@@@QAE@XZ 1004ce30 f i KSubWorld.obj
 0001:0004bea0       ??0?$KMissionArray@VKMission@@$0DC@@@QAE@XZ 1004cea0 f i KSubWorld.obj
 0001:0004bf80       ??1KMission@@QAE@XZ        1004cf80 f i KSubWorld.obj
 0001:0004c010       ??0KSubWorld@@QAE@XZ       1004d010 f   KSubWorld.obj
 0001:0004c1a0       ??1?$KMissionArray@VKMission@@$02@@QAE@XZ 1004d1a0 f i KSubWorld.obj
 0001:0004c210       ??1KWorldMsg@@QAE@XZ       1004d210 f i KSubWorld.obj
 0001:0004c220       ??1KSubWorld@@QAE@XZ       1004d220 f   KSubWorld.obj
 0001:0004c330       ??_EKRegion@@QAEPAXI@Z     1004d330 f i KSubWorld.obj
 0001:0004c390       ?FindRegion@KSubWorld@@QAEHH@Z 1004d390 f   KSubWorld.obj
 0001:0004c3c0       ?FindFreeRegion@KSubWorld@@QAEHHH@Z 1004d3c0 f   KSubWorld.obj
 0001:0004c460       ?Activate@KSubWorld@@QAEXXZ 1004d460 f   KSubWorld.obj
 0001:0004c580       ?GetDistance@KSubWorld@@QAEHHHHH@Z 1004d580 f   KSubWorld.obj
 0001:0004c5c0       ?Map2Mps@KSubWorld@@QAEXHHHHHPAH0@Z 1004d5c0 f   KSubWorld.obj
 0001:0004c650       ?Map2Mps@KSubWorld@@SAXHHHHHHPAH0@Z 1004d650 f   KSubWorld.obj
 0001:0004c690       ?Mps2Map@KSubWorld@@QAEXHHPAH0000@Z 1004d690 f   KSubWorld.obj
 0001:0004c820       ?TestBarrier@KSubWorld@@QAEEHH@Z 1004d820 f   KSubWorld.obj
 0001:0004c950       ?TestBarrier@KSubWorld@@QAEEHHHHHHH@Z 1004d950 f   KSubWorld.obj
 0001:0004cae0       ?TestBarrierMin@KSubWorld@@QAEEHHHHHHH@Z 1004dae0 f   KSubWorld.obj
 0001:0004cc60       ?GetTrap@KSubWorld@@QAEKHH@Z 1004dc60 f   KSubWorld.obj
 0001:0004ccd0       ?GetBarrier@KSubWorld@@QAEEHH@Z 1004dcd0 f   KSubWorld.obj
 0001:0004cd50       ?LoadMap@KSubWorld@@QAEHH@Z 1004dd50 f   KSubWorld.obj
 0001:0004d4f0       ?LoadTrap@KSubWorld@@AAEXXZ 1004e4f0 f   KSubWorld.obj
 0001:0004d500       ?MessageLoop@KSubWorld@@QAEXXZ 1004e500 f   KSubWorld.obj
 0001:0004d580       ?ProcessMsg@KSubWorld@@AAEXPAVKWorldMsgNode@@@Z 1004e580 f   KSubWorld.obj
 0001:0004d760       ?NpcChangeRegion@KSubWorld@@QAEXHHH@Z 1004e760 f   KSubWorld.obj
 0001:0004d8d0       ?ObjChangeRegion@KSubWorld@@QAEXHHH@Z 1004e8d0 f   KSubWorld.obj
 0001:0004d9e0       ?MissleChangeRegion@KSubWorld@@QAEXHHH@Z 1004e9e0 f   KSubWorld.obj
 0001:0004da80       ?PlayerChangeRegion@KSubWorld@@QAEXHHH@Z 1004ea80 f   KSubWorld.obj
 0001:0004db00       ?GetMps@KSubWorld@@QAEXPAH0HHH@Z 1004eb00 f   KSubWorld.obj
 0001:0004db60       ?SendSyncData@KSubWorld@@QAEHHH@Z 1004eb60 f   KSubWorld.obj
 0001:0004dc90       ?GetRegionIndex@KSubWorld@@QAEHH@Z 1004ec90 f   KSubWorld.obj
 0001:0004dce0       ?Close@KSubWorld@@QAEXXZ   1004ece0 f   KSubWorld.obj
 0001:0004dd40       ?LoadObject@KSubWorld@@QAEXPAD0@Z 1004ed40 f   KSubWorld.obj
 0001:0004e040       ?AddPlayer@KSubWorld@@QAEXHH@Z 1004f040 f   KSubWorld.obj
 0001:0004e110       ?RemovePlayer@KSubWorld@@QAEXHH@Z 1004f110 f   KSubWorld.obj
 0001:0004e200       ?GetFreeObjPos@KSubWorld@@QAEXAAUtagPOINT@@@Z 1004f200 f   KSubWorld.obj
 0001:0004e370       ?CanPutObj@KSubWorld@@QAEHUtagPOINT@@@Z 1004f370 f   KSubWorld.obj
 0001:0004e430       ?BroadCast@KSubWorld@@QAEXPBDI@Z 1004f430 f   KSubWorld.obj
 0001:0004e4c0       ?BroadCastRegion@KSubWorld@@QAEXPBXIAAHHHH@Z 1004f4c0 f   KSubWorld.obj
 0001:0004e5e0       ?CountAllNpc@KSubWorld@@QAEHXZ 1004f5e0 f   KSubWorld.obj
 0001:0004e6b0       ?RemoveAllObj@KSubWorld@@QAEXXZ 1004f6b0 f   KSubWorld.obj
 0001:0004e780       ?RemoveAllTrap@KSubWorld@@QAEXXZ 1004f780 f   KSubWorld.obj
 0001:0004e7c0       ?AddTrap@KSubWorld@@QAEXHHK@Z 1004f7c0 f   KSubWorld.obj
 0001:0004e830       ?ExecuteScript@KSubWorld@@QAEHPAD0HH@Z 1004f830 f   KSubWorld.obj
 0001:0004e860       ?ExecuteScript@KSubWorld@@QAEHKPADHH@Z 1004f860 f   KSubWorld.obj
 0001:0004e940       ?FindSame@?$KMissionArray@VKMission@@$0DC@@@UAEKPAVKMission@@@Z 1004f940 f i KSubWorld.obj
 0001:0004e990       ?FindSame@?$KMissionArray@VKMission@@$02@@UAEKPAVKMission@@@Z 1004f990 f i KSubWorld.obj
 0001:0004e9e0       ??0?$KLinkArrayTemplate@VKMission@@$02@@QAE@XZ 1004f9e0 f i KSubWorld.obj
 0001:0004eab0       ??0KMission@@QAE@XZ        1004fab0 f i KSubWorld.obj
 0001:0004ec30       ?FindSame@?$KTimerFunArray@VKTimerTaskFun@@$02$1?g_MissionTimerCallBackFun@@YAHPAXPAD@Z@@UAEKPAVKTimerTaskFun@@@Z 1004fc30 f i KSubWorld.obj
 0001:0004ec70       ?Clear@?$KLinkArrayTemplate@VKTimerTaskFun@@$02@@QAEXXZ 1004fc70 f i KSubWorld.obj
 0001:0004ecb0       ?FindSame@?$_KMissionPlayerArray@UTMissionPlayerInfo@@$0ELA@@@UAEKPAUTMissionPlayerInfo@@@Z 1004fcb0 f i KSubWorld.obj
 0001:0004ecf0       ?Clear@?$KLinkArrayTemplate@UTMissionPlayerInfo@@$0ELA@@@QAEXXZ 1004fcf0 f i KSubWorld.obj
 0001:0004ed30       ??1?$KTimerFunArray@VKTimerTaskFun@@$02$1?g_MissionTimerCallBackFun@@YAHPAXPAD@Z@@QAE@XZ 1004fd30 f i KSubWorld.obj
 0001:0004edd0       ??0KSubWorldSet@@QAE@XZ    1004fdd0 f   KSubWorldSet.obj
 0001:0004ede0       ?SearchWorld@KSubWorldSet@@QAEHK@Z 1004fde0 f   KSubWorldSet.obj
 0001:0004ee10       ?Load@KSubWorldSet@@QAEHPAD@Z 1004fe10 f   KSubWorldSet.obj
 0001:0004efe0       ?MainLoop@KSubWorldSet@@QAEXXZ 1004ffe0 f   KSubWorldSet.obj
 0001:0004f040       ?MessageLoop@KSubWorldSet@@QAEXXZ 10050040 f   KSubWorldSet.obj
 0001:0004f060       ?SendMessageA@KSubWorldSet@@QAEHHKHHH@Z 10050060 f   KSubWorldSet.obj
 0001:0004f0e0       ?Close@KSubWorldSet@@QAEXXZ 100500e0 f   KSubWorldSet.obj
 0001:0004f110       ?GetRevivalPosFromId@KSubWorldSet@@QAEXKHPAUtagPOINT@@@Z 10050110 f   KSubWorldSet.obj
 0001:0004f240       ??0KWeatherMgr@@QAE@XZ     10050240 f   KWeatherMgr.obj
 0001:0004f280       ?InitFromIni@KWeatherMgr@@QAE_NAAVKIniFile@@@Z 10050280 f   KWeatherMgr.obj
 0001:0004f4b0       ?Activate@KWeatherMgr@@QAEHXZ 100504b0 f   KWeatherMgr.obj
 0001:0004f5b0       ??0KRegion@@QAE@XZ         100505b0 f   KRegion.obj
 0001:0004f6b0       ??1KRegion@@QAE@XZ         100506b0 f   KRegion.obj
 0001:0004f710       ?Init@KRegion@@QAEHHH@Z    10050710 f   KRegion.obj
 0001:0004f800       ?Load@KRegion@@QAEHHH@Z    10050800 f   KRegion.obj
 0001:0004f8c0       ?LoadObject@KRegion@@QAEHHHH@Z 100508c0 f   KRegion.obj
 0001:0004fa30       ?LoadServerObstacle@KRegion@@QAEHPAVKPakFile@@K@Z 10050a30 f   KRegion.obj
 0001:0004fa80       ?LoadServerTrap@KRegion@@QAEHPAVKPakFile@@K@Z 10050a80 f   KRegion.obj
 0001:0004fb80       ?LoadServerNpc@KRegion@@QAEHHPAVKPakFile@@K@Z 10050b80 f   KRegion.obj
 0001:0004fc70       ?LoadServerObj@KRegion@@QAEHHPAVKPakFile@@K@Z 10050c70 f   KRegion.obj
 0001:0004fc90       ?Activate@KRegion@@QAEXXZ  10050c90 f   KRegion.obj
 0001:0004fe40       ?AddNpc@KRegion@@QAEXH@Z   10050e40 f   KRegion.obj
 0001:0004fea0       ?RemoveNpc@KRegion@@QAEXH@Z 10050ea0 f   KRegion.obj
 0001:0004ff10       ?AddMissle@KRegion@@QAEXH@Z 10050f10 f   KRegion.obj
 0001:0004ff70       ?RemoveMissle@KRegion@@QAEXH@Z 10050f70 f   KRegion.obj
 0001:0004ffe0       ?AddObj@KRegion@@QAEXH@Z   10050fe0 f   KRegion.obj
 0001:00050070       ?RemoveObj@KRegion@@QAEXH@Z 10051070 f   KRegion.obj
 0001:00050110       ?GetTrap@KRegion@@QAEKHH@Z 10051110 f   KRegion.obj
 0001:00050140       ?GetBarrier@KRegion@@QAEEHHHH@Z 10051140 f   KRegion.obj
 0001:000501f0       ?GetBarrierMin@KRegion@@QAEEHHHHH@Z 100511f0 f   KRegion.obj
 0001:000502c0       ?GetRef@KRegion@@QAEHHHW4MOVE_OBJ_KIND@@@Z 100512c0 f   KRegion.obj
 0001:00050340       ?AddRef@KRegion@@QAEHHHW4MOVE_OBJ_KIND@@@Z 10051340 f   KRegion.obj
 0001:000503d0       ?DecRef@KRegion@@QAEHHHW4MOVE_OBJ_KIND@@@Z 100513d0 f   KRegion.obj
 0001:00050460       ?AddPlayer@KRegion@@QAEHH@Z 10051460 f   KRegion.obj
 0001:000504d0       ?RemovePlayer@KRegion@@QAEHH@Z 100514d0 f   KRegion.obj
 0001:00050550       ?SearchNpc@KRegion@@QAEHK@Z 10051550 f   KRegion.obj
 0001:000505a0       ?FindObject@KRegion@@QAEHHH_N@Z 100515a0 f   KRegion.obj
 0001:00050620       ?FindNpc@KRegion@@QAEHHHHH@Z 10051620 f   KRegion.obj
 0001:000506c0       ?FindObject@KRegion@@QAEHH@Z 100516c0 f   KRegion.obj
 0001:00050710       ?FindEquip@KRegion@@QAEHHH@Z 10051710 f   KRegion.obj
 0001:00050780       ?SearchNpcName@KRegion@@QAEHPBD@Z 10051780 f   KRegion.obj
 0001:00050810       ?SendSyncData@KRegion@@QAEXH@Z 10051810 f   KRegion.obj
 0001:000508a0       ?BroadCast@KRegion@@QAEXPBXKAAHHH@Z 100518a0 f   KRegion.obj
 0001:00050930       ?FindPlayer@KRegion@@QAEHK@Z 10051930 f   KRegion.obj
 0001:000509a0       ?CheckPlayerIn@KRegion@@QAEHH@Z 100519a0 f   KRegion.obj
 0001:000509e0       ?AddTrap@KRegion@@QAEXHHK@Z 100519e0 f   KRegion.obj
 0001:00050a00       ?RemoveTrap@KRegion@@QAEXXZ 10051a00 f   KRegion.obj
 0001:00050a20       ?GetObjNode@KRegion@@QAEPAXH@Z 10051a20 f   KRegion.obj
 0001:00050a50       ?Close@KRegion@@QAEXXZ     10051a50 f   KRegion.obj
 0001:00050cc0       ?g_InitMath@@YAHXZ         10051cc0 f   KMath.obj
 0001:00050cd0       ?g_UnInitMath@@YAHXZ       10051cd0 f   KMath.obj
 0001:00050ce0       ?g_InitSeries@@YAXXZ       10051ce0 f   KMath.obj
 0001:00050d70       ?P_ProcessGMExecute@KNewProtocolProcess@@SAXPAUIClient@@KKHPAEH@Z 10051d70 f   KGMProcess.obj
 0001:00050d80       ?P_ProcessGMFindPlayer@KNewProtocolProcess@@SAXPAUIClient@@KKHPAEH@Z 10051d80 f   KGMProcess.obj
 0001:00050ee0       ?ExecuteLocalServer@KNewProtocolProcess@@QAEXQBXI@Z 10051ee0 f   KGMProcess.obj
 0001:00050f60       ??0KNewProtocolProcess@@QAE@XZ 10051f60 f   KNewProtocolProcess.obj
 0001:00051140       ??1?$map@GP6AXPAUIClient@@KKHPAEH@ZU?$less@G@std@@V?$allocator@P6AXPAUIClient@@KKHPAEH@Z@3@@std@@QAE@XZ 10052140 f i KNewProtocolProcess.obj
 0001:000511b0       ??1KNewProtocolProcess@@QAE@XZ 100521b0 f   KNewProtocolProcess.obj
 0001:00051320       ?ProcessNetMsg@KNewProtocolProcess@@QAEXPAUIClient@@KKHPAEH@Z 10052320 f   KNewProtocolProcess.obj
 0001:00051390       ?SendNetMsgToTransfer@KNewProtocolProcess@@QAEXPAUIClient@@@Z 10052390 f   KNewProtocolProcess.obj
 0001:00051410       ?SendNetMsgToChat@KNewProtocolProcess@@QAEXPAUIClient@@@Z 10052410 f   KNewProtocolProcess.obj
 0001:00051490       ?SendNetMsgToTong@KNewProtocolProcess@@QAEXPAUIClient@@@Z 10052490 f   KNewProtocolProcess.obj
 0001:00051510       ?PushMsgInTransfer@KNewProtocolProcess@@QAEXQBXI@Z 10052510 f   KNewProtocolProcess.obj
 0001:00051580       ?PushMsgInChat@KNewProtocolProcess@@QAEXQBXI@Z 10052580 f   KNewProtocolProcess.obj
 0001:000515f0       ?PushMsgInTong@KNewProtocolProcess@@QAEXQBXI@Z 100525f0 f   KNewProtocolProcess.obj
 0001:00051660       ?BroadcastGlobal@KNewProtocolProcess@@QAEXQBXI@Z 10052660 f   KNewProtocolProcess.obj
 0001:00051730       ?BroadcastLocalServer@KNewProtocolProcess@@QAEXQBXI@Z 10052730 f   KNewProtocolProcess.obj
 0001:000517a0       ?P_ProcessPlayerCommExtend@KNewProtocolProcess@@SAXPAUIClient@@KKHPAEH@Z 100527a0 f   KNewProtocolProcess.obj
 0001:00051820       ?P_ProcessChatExtend@KNewProtocolProcess@@SAXPAUIClient@@KKHPAEH@Z 10052820 f   KNewProtocolProcess.obj
 0001:000518a0       ??1?$list@PAVCBuffer@Win32@OnlineGameLib@@V?$allocator@PAVCBuffer@Win32@OnlineGameLib@@@std@@@std@@QAE@XZ 100528a0 f i KNewProtocolProcess.obj
 0001:000518f0       ??A?$map@GP6AXPAUIClient@@KKHPAEH@ZU?$less@G@std@@V?$allocator@P6AXPAUIClient@@KKHPAEH@Z@3@@std@@QAEAAP6AXPAUIClient@@KKHPAEH@ZABG@Z 100528f0 f i KNewProtocolProcess.obj
 0001:00051930       ?insert@?$map@GP6AXPAUIClient@@KKHPAEH@ZU?$less@G@std@@V?$allocator@P6AXPAUIClient@@KKHPAEH@Z@3@@std@@QAE?AU?$pair@Viterator@?$_Tree@GU?$pair@$$CBGP6AXPAUIClient@@KKHPAEH@Z@std@@U_Kfn@?$map@GP6AXPAUIClient@@KKHPAEH@ZU?$less@G@std@@V?$allocator@P6AXPAUIClient@@KKHPAEH@Z@3@@2@U?$less@G@2@V?$allocator@P6AXPAUIClient@@KKHPAEH@Z@2@@std@@_N@2@ABU?$pair@$$CBGP6AXPAUIClient@@KKHPAEH@Z@2@@Z 10052930 f i KNewProtocolProcess.obj
 0001:00051960       ?erase@?$_Tree@GU?$pair@$$CBGP6AXPAUIClient@@KKHPAEH@Z@std@@U_Kfn@?$map@GP6AXPAUIClient@@KKHPAEH@ZU?$less@G@std@@V?$allocator@P6AXPAUIClient@@KKHPAEH@Z@3@@2@U?$less@G@2@V?$allocator@P6AXPAUIClient@@KKHPAEH@Z@2@@std@@QAE?AViterator@12@V312@0@Z 10052960 f i KNewProtocolProcess.obj
 0001:00051a90       ??0?$pair@$$CBGP6AXPAUIClient@@KKHPAEH@Z@std@@QAE@ABGABQ6AXPAUIClient@@KKHPAEH@Z@Z 10052a90 f i KNewProtocolProcess.obj
 0001:00051ab0       ?erase@?$list@PAVCBuffer@Win32@OnlineGameLib@@V?$allocator@PAVCBuffer@Win32@OnlineGameLib@@@std@@@std@@QAE?AViterator@12@V312@@Z 10052ab0 f i KNewProtocolProcess.obj
 0001:00051af0       ??Eiterator@?$list@PAVCBuffer@Win32@OnlineGameLib@@V?$allocator@PAVCBuffer@Win32@OnlineGameLib@@@std@@@std@@QAE?AV012@H@Z 10052af0 f i KNewProtocolProcess.obj
 0001:00051b00       ?insert@?$_Tree@GU?$pair@$$CBGP6AXPAUIClient@@KKHPAEH@Z@std@@U_Kfn@?$map@GP6AXPAUIClient@@KKHPAEH@ZU?$less@G@std@@V?$allocator@P6AXPAUIClient@@KKHPAEH@Z@3@@2@U?$less@G@2@V?$allocator@P6AXPAUIClient@@KKHPAEH@Z@2@@std@@QAE?AU?$pair@Viterator@?$_Tree@GU?$pair@$$CBGP6AXPAUIClient@@KKHPAEH@Z@std@@U_Kfn@?$map@GP6AXPAUIClient@@KKHPAEH@ZU?$less@G@std@@V?$allocator@P6AXPAUIClient@@KKHPAEH@Z@3@@2@U?$less@G@2@V?$allocator@P6AXPAUIClient@@KKHPAEH@Z@2@@std@@_N@2@ABU?$pair@$$CBGP6AXPAUIClient@@KKHPAEH@Z@2@@Z 10052b00 f i KNewProtocolProcess.obj
 0001:00051c30       ?erase@?$_Tree@GU?$pair@$$CBGP6AXPAUIClient@@KKHPAEH@Z@std@@U_Kfn@?$map@GP6AXPAUIClient@@KKHPAEH@ZU?$less@G@std@@V?$allocator@P6AXPAUIClient@@KKHPAEH@Z@3@@2@U?$less@G@2@V?$allocator@P6AXPAUIClient@@KKHPAEH@Z@2@@std@@QAE?AViterator@12@V312@@Z 10052c30 f i KNewProtocolProcess.obj
 0001:00052150       ?_Erase@?$_Tree@GU?$pair@$$CBGP6AXPAUIClient@@KKHPAEH@Z@std@@U_Kfn@?$map@GP6AXPAUIClient@@KKHPAEH@ZU?$less@G@std@@V?$allocator@P6AXPAUIClient@@KKHPAEH@Z@3@@2@U?$less@G@2@V?$allocator@P6AXPAUIClient@@KKHPAEH@Z@2@@std@@IAEXPAU_Node@12@@Z 10053150 f i KNewProtocolProcess.obj
 0001:000521e0       ?_Init@?$_Tree@GU?$pair@$$CBGP6AXPAUIClient@@KKHPAEH@Z@std@@U_Kfn@?$map@GP6AXPAUIClient@@KKHPAEH@ZU?$less@G@std@@V?$allocator@P6AXPAUIClient@@KKHPAEH@Z@3@@2@U?$less@G@2@V?$allocator@P6AXPAUIClient@@KKHPAEH@Z@2@@std@@IAEXXZ 100531e0 f i KNewProtocolProcess.obj
 0001:00052290       ?_Insert@?$_Tree@GU?$pair@$$CBGP6AXPAUIClient@@KKHPAEH@Z@std@@U_Kfn@?$map@GP6AXPAUIClient@@KKHPAEH@ZU?$less@G@std@@V?$allocator@P6AXPAUIClient@@KKHPAEH@Z@3@@2@U?$less@G@2@V?$allocator@P6AXPAUIClient@@KKHPAEH@Z@2@@std@@IAE?AViterator@12@PAU_Node@12@0ABU?$pair@$$CBGP6AXPAUIClient@@KKHPAEH@Z@2@@Z 10053290 f i KNewProtocolProcess.obj
 0001:00052590       ?_Dec@const_iterator@?$_Tree@GU?$pair@$$CBGP6AXPAUIClient@@KKHPAEH@Z@std@@U_Kfn@?$map@GP6AXPAUIClient@@KKHPAEH@ZU?$less@G@std@@V?$allocator@P6AXPAUIClient@@KKHPAEH@Z@3@@2@U?$less@G@2@V?$allocator@P6AXPAUIClient@@KKHPAEH@Z@2@@std@@QAEXXZ 10053590 f i KNewProtocolProcess.obj
 0001:00052650       ?_Inc@const_iterator@?$_Tree@GU?$pair@$$CBGP6AXPAUIClient@@KKHPAEH@Z@std@@U_Kfn@?$map@GP6AXPAUIClient@@KKHPAEH@ZU?$less@G@std@@V?$allocator@P6AXPAUIClient@@KKHPAEH@Z@3@@2@U?$less@G@2@V?$allocator@P6AXPAUIClient@@KKHPAEH@Z@2@@std@@QAEXXZ 10053650 f i KNewProtocolProcess.obj
 0001:00052700       ?_Construct@std@@YAXPAU?$pair@$$CBGP6AXPAUIClient@@KKHPAEH@Z@1@ABU21@@Z 10053700 f i KNewProtocolProcess.obj
 0001:00052750       ?g_InitProtocol@@YAXXZ     10053750 f   KProtocol.obj
 0001:00052770       ?SendServerCmdWalk@@YAXHH@Z 10053770 f   KProtocol.obj
 0001:00052780       ?SendServerCmdRun@@YAXHH@Z 10053780 f   KProtocol.obj
 0001:00052800       ??0KProtocolProcess@@QAE@XZ 10053800 f   KProtocolProcess.obj
 0001:00052b80       ??1KProtocolProcess@@QAE@XZ 10053b80 f   KProtocolProcess.obj
 0001:00052b90       ?ProcessNetMsg@KProtocolProcess@@QAEXHPAE@Z 10053b90 f   KProtocolProcess.obj
 0001:00052c60       ?RemoveRole@KProtocolProcess@@AAEXHPAE@Z 10053c60 f   KProtocolProcess.obj
 0001:00052c70       ?NpcRequestCommand@KProtocolProcess@@AAEXHPAE@Z 10053c70 f   KProtocolProcess.obj
 0001:00052cb0       ?ObjRequestCommand@KProtocolProcess@@AAEXHPAE@Z 10053cb0 f   KProtocolProcess.obj
 0001:00052cf0       ?NpcWalkCommand@KProtocolProcess@@AAEXHPAE@Z 10053cf0 f   KProtocolProcess.obj
 0001:00052d50       ?NpcRunCommand@KProtocolProcess@@AAEXHPAE@Z 10053d50 f   KProtocolProcess.obj
 0001:00052db0       ?NpcSkillCommand@KProtocolProcess@@AAEXHPAE@Z 10053db0 f   KProtocolProcess.obj
 0001:00052e80       ?NpcJumpCommand@KProtocolProcess@@AAEXHPAE@Z 10053e80 f   KProtocolProcess.obj
 0001:00052ed0       ?NpcTalkCommand@KProtocolProcess@@AAEXHPAE@Z 10053ed0 f   KProtocolProcess.obj
 0001:00052ee0       ?PlayerTalkCommand@KProtocolProcess@@AAEXHPAE@Z 10053ee0 f   KProtocolProcess.obj
 0001:00052f20       ?PlayerApplyTeamInfo@KProtocolProcess@@AAEXHPAE@Z 10053f20 f   KProtocolProcess.obj
 0001:00052f50       ?PlayerApplyCreateTeam@KProtocolProcess@@AAEXHPAE@Z 10053f50 f   KProtocolProcess.obj
 0001:00052f80       ?PlayerApplyTeamOpenClose@KProtocolProcess@@AAEXHPAE@Z 10053f80 f   KProtocolProcess.obj
 0001:00052fb0       ?PlayerApplyAddTeam@KProtocolProcess@@AAEXHPAE@Z 10053fb0 f   KProtocolProcess.obj
 0001:00052fe0       ?PlayerAcceptTeamMember@KProtocolProcess@@AAEXHPAE@Z 10053fe0 f   KProtocolProcess.obj
 0001:00053010       ?PlayerApplyLeaveTeam@KProtocolProcess@@AAEXHPAE@Z 10054010 f   KProtocolProcess.obj
 0001:00053040       ?PlayerApplyTeamKickMember@KProtocolProcess@@AAEXHPAE@Z 10054040 f   KProtocolProcess.obj
 0001:00053070       ?PlayerApplyTeamChangeCaptain@KProtocolProcess@@AAEXHPAE@Z 10054070 f   KProtocolProcess.obj
 0001:000530a0       ?PlayerApplyTeamDismiss@KProtocolProcess@@AAEXHPAE@Z 100540a0 f   KProtocolProcess.obj
 0001:000530d0       ?PlayerApplySetPK@KProtocolProcess@@AAEXHPAE@Z 100540d0 f   KProtocolProcess.obj
 0001:00053100       ?PlayerApplyFactionData@KProtocolProcess@@AAEXHPAE@Z 10054100 f   KProtocolProcess.obj
 0001:00053130       ?PlayerSendChat@KProtocolProcess@@AAEXHPAE@Z 10054130 f   KProtocolProcess.obj
 0001:00053160       ?PlayerAddBaseAttribute@KProtocolProcess@@AAEXHPAE@Z 10054160 f   KProtocolProcess.obj
 0001:00053190       ?PlayerApplyAddSkillPoint@KProtocolProcess@@AAEXHPAE@Z 10054190 f   KProtocolProcess.obj
 0001:000531c0       ?PlayerEatItem@KProtocolProcess@@AAEXHPAE@Z 100541c0 f   KProtocolProcess.obj
 0001:00053200       ?PlayerPickUpItem@KProtocolProcess@@AAEXHPAE@Z 10054200 f   KProtocolProcess.obj
 0001:00053240       ?PlayerRightAutoMove@KProtocolProcess@@AAEXHPAE@Z 10054240 f   KProtocolProcess.obj
 0001:000532e0       ?PlayerMoveItem@KProtocolProcess@@AAEXHPAE@Z 100542e0 f   KProtocolProcess.obj
 0001:00053310       ?PlayerSellItem@KProtocolProcess@@AAEXHPAE@Z 10054310 f   KProtocolProcess.obj
 0001:00053350       ?PlayerBuyItem@KProtocolProcess@@AAEXHPAE@Z 10054350 f   KProtocolProcess.obj
 0001:00053390       ?PlayerDropItem@KProtocolProcess@@AAEXHPAE@Z 10054390 f   KProtocolProcess.obj
 0001:000533d0       ?PlayerSelUI@KProtocolProcess@@AAEXHPAE@Z 100543d0 f   KProtocolProcess.obj
 0001:00053400       ?ChatSetChannel@KProtocolProcess@@AAEXHPAE@Z 10054400 f   KProtocolProcess.obj
 0001:00053430       ?ChatApplyAddFriend@KProtocolProcess@@AAEXHPAE@Z 10054430 f   KProtocolProcess.obj
 0001:00053460       ?ChatAddFriend@KProtocolProcess@@AAEXHPAE@Z 10054460 f   KProtocolProcess.obj
 0001:00053490       ?ChatRefuseFriend@KProtocolProcess@@AAEXHPAE@Z 10054490 f   KProtocolProcess.obj
 0001:000534c0       ?ChatApplyReSendAllFriendName@KProtocolProcess@@AAEXHPAE@Z 100544c0 f   KProtocolProcess.obj
 0001:000534f0       ?ChatApplySendOneFriendName@KProtocolProcess@@AAEXHPAE@Z 100544f0 f   KProtocolProcess.obj
 0001:00053520       ?ChatDeleteFriend@KProtocolProcess@@AAEXHPAE@Z 10054520 f   KProtocolProcess.obj
 0001:00053550       ?ChatReDeleteFriend@KProtocolProcess@@AAEXHPAE@Z 10054550 f   KProtocolProcess.obj
 0001:00053580       ?TradeApplyOpen@KProtocolProcess@@AAEXHPAE@Z 10054580 f   KProtocolProcess.obj
 0001:000535b0       ?TradeApplyClose@KProtocolProcess@@AAEXHPAE@Z 100545b0 f   KProtocolProcess.obj
 0001:000535e0       ?TradeApplyStart@KProtocolProcess@@AAEXHPAE@Z 100545e0 f   KProtocolProcess.obj
 0001:00053610       ?TradeMoveMoney@KProtocolProcess@@AAEXHPAE@Z 10054610 f   KProtocolProcess.obj
 0001:00053640       ?TradeDecision@KProtocolProcess@@AAEXHPAE@Z 10054640 f   KProtocolProcess.obj
 0001:00053670       ?DialogNpc@KProtocolProcess@@AAEXHPAE@Z 10054670 f   KProtocolProcess.obj
 0001:000536a0       ?TeamInviteAdd@KProtocolProcess@@AAEXHPAE@Z 100546a0 f   KProtocolProcess.obj
 0001:000536d0       ?ChangeAuraSkill@KProtocolProcess@@AAEXHPAE@Z 100546d0 f   KProtocolProcess.obj
 0001:00053720       ?TeamReplyInvite@KProtocolProcess@@AAEXHPAE@Z 10054720 f   KProtocolProcess.obj
 0001:00053850       ?NpcSitCommand@KProtocolProcess@@AAEXHPAE@Z 10054850 f   KProtocolProcess.obj
 0001:000538e0       ?ObjMouseClick@KProtocolProcess@@AAEXHPAE@Z 100548e0 f   KProtocolProcess.obj
 0001:00053bb0       ?StoreMoneyCommand@KProtocolProcess@@AAEXHPAE@Z 10054bb0 f   KProtocolProcess.obj
 0001:00053c20       ?NpcReviveCommand@KProtocolProcess@@AAEXHPAE@Z 10054c20 f   KProtocolProcess.obj
 0001:00053c50       ?c2sTradeReplyStart@KProtocolProcess@@AAEXHPAE@Z 10054c50 f   KProtocolProcess.obj
 0001:00053c80       ?c2sPKApplyChangeNormalFlag@KProtocolProcess@@AAEXHPAE@Z 10054c80 f   KProtocolProcess.obj
 0001:00053cb0       ?c2sPKApplyEnmity@KProtocolProcess@@AAEXHPAE@Z 10054cb0 f   KProtocolProcess.obj
 0001:00053e00       ?c2sViewEquip@KProtocolProcess@@AAEXHPAE@Z 10054e00 f   KProtocolProcess.obj
 0001:00053e90       ?LadderQuery@KProtocolProcess@@AAEXHPAE@Z 10054e90 f   KProtocolProcess.obj
 0001:00053f30       ?ItemRepair@KProtocolProcess@@AAEXHPAE@Z 10054f30 f   KProtocolProcess.obj
 0001:00053f70       ?c2sPosCommand@KProtocolProcess@@AAEXHPAE@Z 10054f70 f   KProtocolProcess.obj
 0001:00054030       ?PlayerRideCommand@KProtocolProcess@@AAEXHPAE@Z 10055030 f   KProtocolProcess.obj
 0001:000540e0       ?ExeScriptCommand@KProtocolProcess@@AAEXHPAE@Z 100550e0 f   KProtocolProcess.obj
 0001:00054120       ?ItemBreakCommand@KProtocolProcess@@AAEXHPAE@Z 10055120 f   KProtocolProcess.obj
 0001:00054180       ?HideMaskCommand@KProtocolProcess@@AAEXHPAE@Z 10055180 f   KProtocolProcess.obj
 0001:000541b0       ?MarkPriceItemCommand@KProtocolProcess@@AAEXHPAE@Z 100551b0 f   KProtocolProcess.obj
 0001:00054210       ?MakeAdvTextCommand@KProtocolProcess@@AAEXHPAE@Z 10055210 f   KProtocolProcess.obj
 0001:00054280       ?PlayerApplyShopState@KProtocolProcess@@AAEXHPAE@Z 10055280 f   KProtocolProcess.obj
 0001:000543e0       ?ViewShopCommand@KProtocolProcess@@AAEXHPAE@Z 100553e0 f   KProtocolProcess.obj
 0001:00054490       ?BuyPlayerShopCommand@KProtocolProcess@@AAEXHPAE@Z 10055490 f   KProtocolProcess.obj
 0001:00054510       ?c2sSetAutoSync@KProtocolProcess@@AAEXHPAE@Z 10055510 f   KProtocolProcess.obj
 0001:00054560       ?c2sBackToTown@KProtocolProcess@@AAEXHPAE@Z 10055560 f   KProtocolProcess.obj
 0001:000545b0       ?c2sGiveBoxScript@KProtocolProcess@@AAEXHPAE@Z 100555b0 f   KProtocolProcess.obj
 0001:00054610       ?c2sGiveBoxCmd@KProtocolProcess@@AAEXHPAE@Z 10055610 f   KProtocolProcess.obj
 0001:00054670       ?c2sCrePwBox@KProtocolProcess@@AAEXHPAE@Z 10055670 f   KProtocolProcess.obj
 0001:000546d0       ?c2sLoginPwBox@KProtocolProcess@@AAEXHPAE@Z 100556d0 f   KProtocolProcess.obj
 0001:00054730       ?c2sChaPwBox@KProtocolProcess@@AAEXHPAE@Z 10055730 f   KProtocolProcess.obj
 0001:00054790       ?c2sLockPwBox@KProtocolProcess@@AAEXHPAE@Z 10055790 f   KProtocolProcess.obj
 0001:000547f0       ?c2sReWardScript@KProtocolProcess@@AAEXHPAE@Z 100557f0 f   KProtocolProcess.obj
 0001:00054850       ?c2sTimeBoxScript@KProtocolProcess@@AAEXHPAE@Z 10055850 f   KProtocolProcess.obj
 0001:000548b0       ?c2sTopBattle@KProtocolProcess@@AAEXHPAE@Z 100558b0 f   KProtocolProcess.obj
 0001:00054990       ?c2sAvatarPlayer@KProtocolProcess@@AAEXHPAE@Z 10055990 f   KProtocolProcess.obj
 0001:000549d0       ?RecoveryBoxCmd@KProtocolProcess@@AAEXHPAE@Z 100559d0 f   KProtocolProcess.obj
 0001:00054a80       ?LuaGetBit@@YAHPAUlua_State@@@Z 10055a80 f   ScriptFuns.obj
 0001:00054af0       ?LuaSetBit@@YAHPAUlua_State@@@Z 10055af0 f   ScriptFuns.obj
 0001:00054b60       ?LuaGetByte@@YAHPAUlua_State@@@Z 10055b60 f   ScriptFuns.obj
 0001:00054bd0       ?LuaSetByte@@YAHPAUlua_State@@@Z 10055bd0 f   ScriptFuns.obj
 0001:00054c40       ?LuaModifyTransLife@@YAHPAUlua_State@@@Z 10055c40 f   ScriptFuns.obj
 0001:00054cc0       ?LuaGetTransLife@@YAHPAUlua_State@@@Z 10055cc0 f   ScriptFuns.obj
 0001:00054d20       ?LuaModifyRepute@@YAHPAUlua_State@@@Z 10055d20 f   ScriptFuns.obj
 0001:00054e10       ?LuaGetRepute@@YAHPAUlua_State@@@Z 10055e10 f   ScriptFuns.obj
 0001:00054e70       ?LuaModifyFuyuan@@YAHPAUlua_State@@@Z 10055e70 f   ScriptFuns.obj
 0001:00054f60       ?LuaGetFuyuan@@YAHPAUlua_State@@@Z 10055f60 f   ScriptFuns.obj
 0001:00054fc0       ?GetSubWorldIndex@@YAHPAUlua_State@@@Z 10055fc0 f   ScriptFuns.obj
 0001:00055030       ?LuaSubWorldIDToIndex@@YAHPAUlua_State@@@Z 10056030 f   ScriptFuns.obj
 0001:00055090       ?LuaSubWorldIndexToID@@YAHPAUlua_State@@@Z 10056090 f   ScriptFuns.obj
 0001:000550f0       ?LuaSelectUI@@YAHPAUlua_State@@@Z 100560f0 f   ScriptFuns.obj
 0001:00055450       ?LuaSelectUI2@@YAHPAUlua_State@@@Z 10056450 f   ScriptFuns.obj
 0001:00055800       ?LuaSendMessageInfo@@YAHPAUlua_State@@@Z 10056800 f   ScriptFuns.obj
 0001:000558e0       ?LuaAddGlobalNews@@YAHPAUlua_State@@@Z 100568e0 f   ScriptFuns.obj
 0001:000559c0       ?LuaAddGlobalNewsEx@@YAHPAUlua_State@@@Z 100569c0 f   ScriptFuns.obj
 0001:00055aa0       ?LuaAddLocalNews@@YAHPAUlua_State@@@Z 10056aa0 f   ScriptFuns.obj
 0001:00055b80       ?LuaAddGlobalCountNews@@YAHPAUlua_State@@@Z 10056b80 f   ScriptFuns.obj
 0001:00055c90       ?LuaAddLocalCountNews@@YAHPAUlua_State@@@Z 10056c90 f   ScriptFuns.obj
 0001:00055da0       ?LuaAddGlobalTimeNews@@YAHPAUlua_State@@@Z 10056da0 f   ScriptFuns.obj
 0001:00055f40       ?LuaAddLocalTimeNews@@YAHPAUlua_State@@@Z 10056f40 f   ScriptFuns.obj
 0001:000560e0       ?LuaAddNote@@YAHPAUlua_State@@@Z 100570e0 f   ScriptFuns.obj
 0001:00056230       ?LuaTalkUI@@YAHPAUlua_State@@@Z 10057230 f   ScriptFuns.obj
 0001:00056460       ?LuaIncludeFile@@YAHPAUlua_State@@@Z 10057460 f   ScriptFuns.obj
 0001:00056580       ?LuaGetTaskValue@@YAHPAUlua_State@@@Z 10057580 f   ScriptFuns.obj
 0001:00056610       ?LuaSetTaskValue@@YAHPAUlua_State@@@Z 10057610 f   ScriptFuns.obj
 0001:00056690       ?LuaSyncTaskValue@@YAHPAUlua_State@@@Z 10057690 f   ScriptFuns.obj
 0001:00056750       ?LuaGetTempTaskValue@@YAHPAUlua_State@@@Z 10057750 f   ScriptFuns.obj
 0001:000567e0       ?LuaSetTempTaskValue@@YAHPAUlua_State@@@Z 100577e0 f   ScriptFuns.obj
 0001:00056870       ?LuaSale@@YAHPAUlua_State@@@Z 10057870 f   ScriptFuns.obj
 0001:000568c0       ?LuaOpenBox@@YAHPAUlua_State@@@Z 100578c0 f   ScriptFuns.obj
 0001:00056930       ?LuaSetTimer@@YAHPAUlua_State@@@Z 10057930 f   ScriptFuns.obj
 0001:00056a30       ?LuaStopTimer@@YAHPAUlua_State@@@Z 10057a30 f   ScriptFuns.obj
 0001:00056ac0       ?LuaGetCurTimerId@@YAHPAUlua_State@@@Z 10057ac0 f   ScriptFuns.obj
 0001:00056bd0       ?LuaGetRestTime@@YAHPAUlua_State@@@Z 10057bd0 f   ScriptFuns.obj
 0001:00056cf0       ?LuaGetMissionRestTime@@YAHPAUlua_State@@@Z 10057cf0 f   ScriptFuns.obj
 0001:00056f40       ?LuaIsLeader@@YAHPAUlua_State@@@Z 10057f40 f   ScriptFuns.obj
 0001:00056fb0       ?LuaGetTeamId@@YAHPAUlua_State@@@Z 10057fb0 f   ScriptFuns.obj
 0001:00057010       ?LuaGetTeamSize@@YAHPAUlua_State@@@Z 10058010 f   ScriptFuns.obj
 0001:000570b0       ?LuaLeaveTeam@@YAHPAUlua_State@@@Z 100580b0 f   ScriptFuns.obj
 0001:00057100       ?LuaGetTeamMember@@YAHPAUlua_State@@@Z 10058100 f   ScriptFuns.obj
 0001:000571e0       ?LuaGetTeamCaptain@@YAHPAUlua_State@@@Z 100581e0 f   ScriptFuns.obj
 0001:00057290       ?LuaSetCreateTeamOption@@YAHPAUlua_State@@@Z 10058290 f   ScriptFuns.obj
 0001:00057300       ?LuaMsgToPlayer@@YAHPAUlua_State@@@Z 10058300 f   ScriptFuns.obj
 0001:000573d0       ?LuaMsgToTeam@@YAHPAUlua_State@@@Z 100583d0 f   ScriptFuns.obj
 0001:000574c0       ?LuaMsgToSubWorld@@YAHPAUlua_State@@@Z 100584c0 f   ScriptFuns.obj
 0001:00057510       ?LuaMsgToFaction@@YAHPAUlua_State@@@Z 10058510 f   ScriptFuns.obj
 0001:000575c0       ?LuaMsgToAroundRegion@@YAHPAUlua_State@@@Z 100585c0 f   ScriptFuns.obj
 0001:000575d0       ?LuaEnterNewWorld@@YAHPAUlua_State@@@Z 100585d0 f   ScriptFuns.obj
 0001:000576e0       ?LuaGetNpcLevel@@YAHPAUlua_State@@@Z 100586e0 f   ScriptFuns.obj
 0001:00057760       ?LuaSetPos@@YAHPAUlua_State@@@Z 10058760 f   ScriptFuns.obj
 0001:000577f0       ?LuaGetPos@@YAHPAUlua_State@@@Z 100587f0 f   ScriptFuns.obj
 0001:000578b0       ?LuaGetNewWorldPos@@YAHPAUlua_State@@@Z 100588b0 f   ScriptFuns.obj
 0001:000579e0       ?LuaGetNpcName@@YAHPAUlua_State@@@Z 100589e0 f   ScriptFuns.obj
 0001:00057a50       ?LuaGetNpcPos@@YAHPAUlua_State@@@Z 10058a50 f   ScriptFuns.obj
 0001:00057b50       ?LuaGetNpcGold@@YAHPAUlua_State@@@Z 10058b50 f   ScriptFuns.obj
 0001:00057bd0       ?LuaGetNpcSeries@@YAHPAUlua_State@@@Z 10058bd0 f   ScriptFuns.obj
 0001:00057c50       ?LuaSetNpcParam@@YAHPAUlua_State@@@Z 10058c50 f   ScriptFuns.obj
 0001:00057ce0       ?LuaGetNpcParam@@YAHPAUlua_State@@@Z 10058ce0 f   ScriptFuns.obj
 0001:00057d70       ?LuaDropMoney@@YAHPAUlua_State@@@Z 10058d70 f   ScriptFuns.obj
 0001:00057ef0       ?LuaDropItem@@YAHPAUlua_State@@@Z 10058ef0 f   ScriptFuns.obj
 0001:000580b0       ?LuaDropRateItem@@YAHPAUlua_State@@@Z 100590b0 f   ScriptFuns.obj
 0001:000581b0       ?LuaFindEmptyPlace@@YAHPAUlua_State@@@Z 100591b0 f   ScriptFuns.obj
 0001:000582b0       ?LuaAddEventItem@@YAHPAUlua_State@@@Z 100592b0 f   ScriptFuns.obj
 0001:000584a0       ?LuaAddMineItem@@YAHPAUlua_State@@@Z 100594a0 f   ScriptFuns.obj
 0001:00058730       ?LuaAddItem@@YAHPAUlua_State@@@Z 10059730 f   ScriptFuns.obj
 0001:00058b60       ?LuaAddItemEx@@YAHPAUlua_State@@@Z 10059b60 f   ScriptFuns.obj
 0001:00059000       ?LuaAddStackItem@@YAHPAUlua_State@@@Z 1005a000 f   ScriptFuns.obj
 0001:000593e0       ?LuaGetItemStackCount@@YAHPAUlua_State@@@Z 1005a3e0 f   ScriptFuns.obj
 0001:00059460       ?LuaDelStackItem@@YAHPAUlua_State@@@Z 1005a460 f   ScriptFuns.obj
 0001:00059500       ?LuaUseStackItem@@YAHPAUlua_State@@@Z 1005a500 f   ScriptFuns.obj
 0001:000595a0       ?LuaAddScriptItem@@YAHPAUlua_State@@@Z 1005a5a0 f   ScriptFuns.obj
 0001:00059790       ?LuaAddMyItem@@YAHPAUlua_State@@@Z 1005a790 f   ScriptFuns.obj
 0001:000598a0       ?LuaIsMyItem@@YAHPAUlua_State@@@Z 1005a8a0 f   ScriptFuns.obj
 0001:00059930       ?LuaDelMyItem@@YAHPAUlua_State@@@Z 1005a930 f   ScriptFuns.obj
 0001:000599c0       ?LuaDelItemByIndex@@YAHPAUlua_State@@@Z 1005a9c0 f   ScriptFuns.obj
 0001:00059a60       ?LuaGetTaskItemCount@@YAHPAUlua_State@@@Z 1005aa60 f   ScriptFuns.obj
 0001:00059b00       ?LuaCountFreeBagCell@@YAHPAUlua_State@@@Z 1005ab00 f   ScriptFuns.obj
 0001:00059b70       ?LuaGetItemCountInBag@@YAHPAUlua_State@@@Z 1005ab70 f   ScriptFuns.obj
 0001:00059ca0       ?LuaConsumeItemInBag@@YAHPAUlua_State@@@Z 1005aca0 f   ScriptFuns.obj
 0001:00059dd0       ?LuaSetItemBindState@@YAHPAUlua_State@@@Z 1005add0 f   ScriptFuns.obj
 0001:00059e80       ?LuaGetItemBindState@@YAHPAUlua_State@@@Z 1005ae80 f   ScriptFuns.obj
 0001:00059f20       ?LuaGetItemProp@@YAHPAUlua_State@@@Z 1005af20 f   ScriptFuns.obj
 0001:0005a080       ?LuaGetItemRandSeed@@YAHPAUlua_State@@@Z 1005b080 f   ScriptFuns.obj
 0001:0005a110       ?LuaGetItemVersion@@YAHPAUlua_State@@@Z 1005b110 f   ScriptFuns.obj
 0001:0005a180       ?LuaSetItemGenre@@YAHPAUlua_State@@@Z 1005b180 f   ScriptFuns.obj
 0001:0005a1e0       ?LuaSetItemParticular@@YAHPAUlua_State@@@Z 1005b1e0 f   ScriptFuns.obj
 0001:0005a240       ?LuaSetItemDetail@@YAHPAUlua_State@@@Z 1005b240 f   ScriptFuns.obj
 0001:0005a2a0       ?LuaSetItemRecord@@YAHPAUlua_State@@@Z 1005b2a0 f   ScriptFuns.obj
 0001:0005a300       ?LuaSetItemLevel@@YAHPAUlua_State@@@Z 1005b300 f   ScriptFuns.obj
 0001:0005a370       ?LuaSetItemSeries@@YAHPAUlua_State@@@Z 1005b370 f   ScriptFuns.obj
 0001:0005a3e0       ?LuaSetItemMagicLevel@@YAHPAUlua_State@@@Z 1005b3e0 f   ScriptFuns.obj
 0001:0005a4f0       ?LuaGetItemMagicLevel@@YAHPAUlua_State@@@Z 1005b4f0 f   ScriptFuns.obj
 0001:0005a5f0       ?LuaSetItemLuck@@YAHPAUlua_State@@@Z 1005b5f0 f   ScriptFuns.obj
 0001:0005a660       ?LuaSetItemRandSeed@@YAHPAUlua_State@@@Z 1005b660 f   ScriptFuns.obj
 0001:0005a6d0       ?LuaRestoreBrokenEquip@@YAHPAUlua_State@@@Z 1005b6d0 f   ScriptFuns.obj
 0001:0005a770       ?LuaAddItemAgain@@YAHPAUlua_State@@@Z 1005b770 f   ScriptFuns.obj
 0001:0005a810       ?LuaGetItemExpiredTime@@YAHPAUlua_State@@@Z 1005b810 f   ScriptFuns.obj
 0001:0005a8b0       ?LuaGetItemInfo@@YAHPAUlua_State@@@Z 1005b8b0 f   ScriptFuns.obj
 0001:0005ab70       ?LuaGetHandItem@@YAHPAUlua_State@@@Z 1005bb70 f   ScriptFuns.obj
 0001:0005abd0       ?LuaGetEquipItem@@YAHPAUlua_State@@@Z 1005bbd0 f   ScriptFuns.obj
 0001:0005ac60       ?LuaAddGoldItem@@YAHPAUlua_State@@@Z 1005bc60 f   ScriptFuns.obj
 0001:0005af80       ?LuaGetGoldItem@@YAHPAUlua_State@@@Z 1005bf80 f   ScriptFuns.obj
 0001:0005b050       ?LuaGetItemMagicAttrib@@YAHPAUlua_State@@@Z 1005c050 f   ScriptFuns.obj
 0001:0005b1b0       ?LuaSetItemParam@@YAHPAUlua_State@@@Z 1005c1b0 f   ScriptFuns.obj
 0001:0005b240       ?LuaGetItemParam@@YAHPAUlua_State@@@Z 1005c240 f   ScriptFuns.obj
 0001:0005b320       ?LuaSyncItem@@YAHPAUlua_State@@@Z 1005c320 f   ScriptFuns.obj
 0001:0005b410       ?LuaDelEventItem@@YAHPAUlua_State@@@Z 1005c410 f   ScriptFuns.obj
 0001:0005b4d0       ?LuaHaveEventItem@@YAHPAUlua_State@@@Z 1005c4d0 f   ScriptFuns.obj
 0001:0005b5c0       ?LuaAddMagic@@YAHPAUlua_State@@@Z 1005c5c0 f   ScriptFuns.obj
 0001:0005b740       ?LuaDelMagic@@YAHPAUlua_State@@@Z 1005c740 f   ScriptFuns.obj
 0001:0005b850       ?LuaHaveMagic@@YAHPAUlua_State@@@Z 1005c850 f   ScriptFuns.obj
 0001:0005b980       ?LuaGetSkillIdInSkillList@@YAHPAUlua_State@@@Z 1005c980 f   ScriptFuns.obj
 0001:0005ba40       ?LuaSetSkillLevel@@YAHPAUlua_State@@@Z 1005ca40 f   ScriptFuns.obj
 0001:0005bb60       ?LuaRollBackSkills@@YAHPAUlua_State@@@Z 1005cb60 f   ScriptFuns.obj
 0001:0005bbe0       ?LuaUpdateSkillList@@YAHPAUlua_State@@@Z 1005cbe0 f   ScriptFuns.obj
 0001:0005bc10       ?LuaGetMagicLevel@@YAHPAUlua_State@@@Z 1005cc10 f   ScriptFuns.obj
 0001:0005bd00       ?LuaGetNpcTemplateID@@YAHPAUlua_State@@@Z 1005cd00 f   ScriptFuns.obj
 0001:0005bd70       ?LuaAddNpc@@YAHPAUlua_State@@@Z 1005cd70 f   ScriptFuns.obj
 0001:0005bf40       ?LuaAddNpcSkillState@@YAHPAUlua_State@@@Z 1005cf40 f   ScriptFuns.obj
 0001:0005c0d0       ?LuaDelNpc@@YAHPAUlua_State@@@Z 1005d0d0 f   ScriptFuns.obj
 0001:0005c1c0       ?LuaClearMapNpc@@YAHPAUlua_State@@@Z 1005d1c0 f   ScriptFuns.obj
 0001:0005c2e0       ?LuaClearMapNpcWithName@@YAHPAUlua_State@@@Z 1005d2e0 f   ScriptFuns.obj
 0001:0005c460       ?LuaFindAroundNpc@@YAHPAUlua_State@@@Z 1005d460 f   ScriptFuns.obj
 0001:0005c4f0       ?LuaGetNpcID@@YAHPAUlua_State@@@Z 1005d4f0 f   ScriptFuns.obj
 0001:0005c5c0       ?LuaDelNpcsInRgn@@YAHPAUlua_State@@@Z 1005d5c0 f   ScriptFuns.obj
 0001:0005c5d0       ?LuaDelNpcsInWld@@YAHPAUlua_State@@@Z 1005d5d0 f   ScriptFuns.obj
 0001:0005c5e0       ?LuaSetNpcPos@@YAHPAUlua_State@@@Z 1005d5e0 f   ScriptFuns.obj
 0001:0005c660       ?LuaSetNpcActionScript@@YAHPAUlua_State@@@Z 1005d660 f   ScriptFuns.obj
 0001:0005c700       ?LuaSetPlayerRevivalPos@@YAHPAUlua_State@@@Z 1005d700 f   ScriptFuns.obj
 0001:0005c780       ?LuaGetPlayerCurrentCamp@@YAHPAUlua_State@@@Z 1005d780 f   ScriptFuns.obj
 0001:0005c800       ?LuaGetPlayerCamp@@YAHPAUlua_State@@@Z 1005d800 f   ScriptFuns.obj
 0001:0005c880       ?LuaSetPlayerCamp@@YAHPAUlua_State@@@Z 1005d880 f   ScriptFuns.obj
 0001:0005c8f0       ?LuaSetPlayerCurrentCamp@@YAHPAUlua_State@@@Z 1005d8f0 f   ScriptFuns.obj
 0001:0005c960       ?LuaSetNpcCurCamp@@YAHPAUlua_State@@@Z 1005d960 f   ScriptFuns.obj
 0001:0005c9c0       ?LuaSetNpcName@@YAHPAUlua_State@@@Z 1005d9c0 f   ScriptFuns.obj
 0001:0005ca80       ?LuaSetNpcReduceDamge@@YAHPAUlua_State@@@Z 1005da80 f   ScriptFuns.obj
 0001:0005cae0       ?LuaSetNpcSkill@@YAHPAUlua_State@@@Z 1005dae0 f   ScriptFuns.obj
 0001:0005cba0       ?LuaSetNpcLife@@YAHPAUlua_State@@@Z 1005dba0 f   ScriptFuns.obj
 0001:0005cc30       ?LuaSetNpcDamage@@YAHPAUlua_State@@@Z 1005dc30 f   ScriptFuns.obj
 0001:0005ccb0       ?LuaIsBoss@@YAHPAUlua_State@@@Z 1005dcb0 f   ScriptFuns.obj
 0001:0005cd20       ?LuaSetNpcSeries@@YAHPAUlua_State@@@Z 1005dd20 f   ScriptFuns.obj
 0001:0005cd80       ?LuaRestorePlayerCamp@@YAHPAUlua_State@@@Z 1005dd80 f   ScriptFuns.obj
 0001:0005cdd0       ?LuaOpenTong@@YAHPAUlua_State@@@Z 1005ddd0 f   ScriptFuns.obj
 0001:0005ce60       ?LuaGetPlayerFaction@@YAHPAUlua_State@@@Z 1005de60 f   ScriptFuns.obj
 0001:0005ced0       ?LuaChangePlayerFaction@@YAHPAUlua_State@@@Z 1005ded0 f   ScriptFuns.obj
 0001:0005cf60       ?LuaGetPlayerFactionNo@@YAHPAUlua_State@@@Z 1005df60 f   ScriptFuns.obj
 0001:0005cfd0       ?LuaGetPlayerColdResist@@YAHPAUlua_State@@@Z 1005dfd0 f   ScriptFuns.obj
 0001:0005d0e0       ?LuaSetPlayerColdResist@@YAHPAUlua_State@@@Z 1005e0e0 f   ScriptFuns.obj
 0001:0005d1e0       ?LuaGetPlayerFireResist@@YAHPAUlua_State@@@Z 1005e1e0 f   ScriptFuns.obj
 0001:0005d2f0       ?LuaSetPlayerFireResist@@YAHPAUlua_State@@@Z 1005e2f0 f   ScriptFuns.obj
 0001:0005d3f0       ?LuaGetPlayerLightResist@@YAHPAUlua_State@@@Z 1005e3f0 f   ScriptFuns.obj
 0001:0005d500       ?LuaSetPlayerLightResist@@YAHPAUlua_State@@@Z 1005e500 f   ScriptFuns.obj
 0001:0005d610       ?LuaGetPlayerPoisonResist@@YAHPAUlua_State@@@Z 1005e610 f   ScriptFuns.obj
 0001:0005d720       ?LuaSetPlayerPoisonResist@@YAHPAUlua_State@@@Z 1005e720 f   ScriptFuns.obj
 0001:0005d820       ?LuaGetPlayerPhysicsResist@@YAHPAUlua_State@@@Z 1005e820 f   ScriptFuns.obj
 0001:0005d930       ?LuaSetPlayerPhysicsResist@@YAHPAUlua_State@@@Z 1005e930 f   ScriptFuns.obj
 0001:0005da30       ?LuaGetPlayerExp@@YAHPAUlua_State@@@Z 1005ea30 f   ScriptFuns.obj
 0001:0005da90       ?LuaGetPlayerExpPercent@@YAHPAUlua_State@@@Z 1005ea90 f   ScriptFuns.obj
 0001:0005db10       ?LuaModifyPlayerExp@@YAHPAUlua_State@@@Z 1005eb10 f   ScriptFuns.obj
 0001:0005dbd0       ?LuaAddOwnExp@@YAHPAUlua_State@@@Z 1005ebd0 f   ScriptFuns.obj
 0001:0005dc40       ?LuaAddSumExp@@YAHPAUlua_State@@@Z 1005ec40 f   ScriptFuns.obj
 0001:0005dcd0       ?LuaSetLevel@@YAHPAUlua_State@@@Z 1005ecd0 f   ScriptFuns.obj
 0001:0005dd40       ?LuaGetPlayerLevel@@YAHPAUlua_State@@@Z 1005ed40 f   ScriptFuns.obj
 0001:0005ddc0       ?LuaGetPlayerLife@@YAHPAUlua_State@@@Z 1005edc0 f   ScriptFuns.obj
 0001:0005df00       ?LuaRestorePlayerLife@@YAHPAUlua_State@@@Z 1005ef00 f   ScriptFuns.obj
 0001:0005df50       ?LuaRestorePlayerMana@@YAHPAUlua_State@@@Z 1005ef50 f   ScriptFuns.obj
 0001:0005dfa0       ?LuaRestorePlayerStamina@@YAHPAUlua_State@@@Z 1005efa0 f   ScriptFuns.obj
 0001:0005dff0       ?LuaGetPlayerLifeReplenish@@YAHPAUlua_State@@@Z 1005eff0 f   ScriptFuns.obj
 0001:0005e060       ?LuaGetPlayerMana@@YAHPAUlua_State@@@Z 1005f060 f   ScriptFuns.obj
 0001:0005e130       ?LuaGetPlayerStamina@@YAHPAUlua_State@@@Z 1005f130 f   ScriptFuns.obj
 0001:0005e200       ?LuaGetPlayerManaReplenish@@YAHPAUlua_State@@@Z 1005f200 f   ScriptFuns.obj
 0001:0005e270       ?LuaGetPlayerDefend@@YAHPAUlua_State@@@Z 1005f270 f   ScriptFuns.obj
 0001:0005e2e0       ?LuaGetPlayerSex@@YAHPAUlua_State@@@Z 1005f2e0 f   ScriptFuns.obj
 0001:0005e350       ?LuaGetPlayerIndex@@YAHPAUlua_State@@@Z 1005f350 f   ScriptFuns.obj
 0001:0005e3e0       ?LuaGetPlayerSeries@@YAHPAUlua_State@@@Z 1005f3e0 f   ScriptFuns.obj
 0001:0005e460       ?LuaSetPlayerSeries@@YAHPAUlua_State@@@Z 1005f460 f   ScriptFuns.obj
 0001:0005e4c0       ?LuaGetPlayerCount@@YAHPAUlua_State@@@Z 1005f4c0 f   ScriptFuns.obj
 0001:0005e4e0       ?LuaGetItemCount@@YAHPAUlua_State@@@Z 1005f4e0 f   ScriptFuns.obj
 0001:0005e500       ?LuaGetObjCount@@YAHPAUlua_State@@@Z 1005f500 f   ScriptFuns.obj
 0001:0005e520       ?LuaGetNpcCount@@YAHPAUlua_State@@@Z 1005f520 f   ScriptFuns.obj
 0001:0005e540       ?LuaGetPlayerAccount@@YAHPAUlua_State@@@Z 1005f540 f   ScriptFuns.obj
 0001:0005e5a0       ?LuaGetPlayer@@YAHPAUlua_State@@@Z 1005f5a0 f   ScriptFuns.obj
 0001:0005e610       ?LuaGetLastDiagNpc@@YAHPAUlua_State@@@Z 1005f610 f   ScriptFuns.obj
 0001:0005e670       ?LuaGetPlayerName@@YAHPAUlua_State@@@Z 1005f670 f   ScriptFuns.obj
 0001:0005e6d0       ?LuaGetPlayerDamage@@YAHPAUlua_State@@@Z 1005f6d0 f   ScriptFuns.obj
 0001:0005e770       ?LuaClearPlayerDamage@@YAHPAUlua_State@@@Z 1005f770 f   ScriptFuns.obj
 0001:0005e7e0       ?LuaGetPlayerDamageCounter@@YAHPAUlua_State@@@Z 1005f7e0 f   ScriptFuns.obj
 0001:0005e870       ?LuaClearPlayerDamageCounter@@YAHPAUlua_State@@@Z 1005f870 f   ScriptFuns.obj
 0001:0005e8d0       ?LuaSetPlayerName@@YAHPAUlua_State@@@Z 1005f8d0 f   ScriptFuns.obj
 0001:0005e8e0       ?LuaGetPlayerID@@YAHPAUlua_State@@@Z 1005f8e0 f   ScriptFuns.obj
 0001:0005e960       ?LuaGetPlayerLeadExp@@YAHPAUlua_State@@@Z 1005f960 f   ScriptFuns.obj
 0001:0005e9d0       ?LuaGetPlayerLeadLevel@@YAHPAUlua_State@@@Z 1005f9d0 f   ScriptFuns.obj
 0001:0005ea40       ?LuaGetPlayerRestAttributePoint@@YAHPAUlua_State@@@Z 1005fa40 f   ScriptFuns.obj
 0001:0005eaa0       ?LuaGetPlayerRestSkillPoint@@YAHPAUlua_State@@@Z 1005faa0 f   ScriptFuns.obj
 0001:0005eb00       ?LuaGetPlayerLucky@@YAHPAUlua_State@@@Z 1005fb00 f   ScriptFuns.obj
 0001:0005ebc0       ?LuaGetPlayerEngergy@@YAHPAUlua_State@@@Z 1005fbc0 f   ScriptFuns.obj
 0001:0005ec80       ?LuaGetPlayerDexterity@@YAHPAUlua_State@@@Z 1005fc80 f   ScriptFuns.obj
 0001:0005ed40       ?LuaGetPlayerStrength@@YAHPAUlua_State@@@Z 1005fd40 f   ScriptFuns.obj
 0001:0005ee00       ?LuaGetPlayerVitality@@YAHPAUlua_State@@@Z 1005fe00 f   ScriptFuns.obj
 0001:0005eec0       ?LuaGetPlayerCashMoney@@YAHPAUlua_State@@@Z 1005fec0 f   ScriptFuns.obj
 0001:0005ef20       ?LuaPlayerPayMoney@@YAHPAUlua_State@@@Z 1005ff20 f   ScriptFuns.obj
 0001:0005efa0       ?LuaPlayerEarnMoney@@YAHPAUlua_State@@@Z 1005ffa0 f   ScriptFuns.obj
 0001:0005eff0       ?LuaPlayerPrePayMoney@@YAHPAUlua_State@@@Z 1005fff0 f   ScriptFuns.obj
 0001:0005f070       ?LuaPlayerExecuteScript@@YAHPAUlua_State@@@Z 10060070 f   ScriptFuns.obj
 0001:0005f080       ?LuaAttackNpc@@YAHPAUlua_State@@@Z 10060080 f   ScriptFuns.obj
 0001:0005f1e0       ?LuaSetPlayerChatForbiddenFlag@@YAHPAUlua_State@@@Z 100601e0 f   ScriptFuns.obj
 0001:0005f240       ?LuaKickOutPlayer@@YAHPAUlua_State@@@Z 10060240 f   ScriptFuns.obj
 0001:0005f330       ?LuaKickOutAccount@@YAHPAUlua_State@@@Z 10060330 f   ScriptFuns.obj
 0001:0005f3f0       ?LuaKickOutSelf@@YAHPAUlua_State@@@Z 100603f0 f   ScriptFuns.obj
 0001:0005f450       ?LuaKillNpc@@YAHPAUlua_State@@@Z 10060450 f   ScriptFuns.obj
 0001:0005f560       ?LuaKillPlayer@@YAHPAUlua_State@@@Z 10060560 f   ScriptFuns.obj
 0001:0005f630       ?LuaSetFightState@@YAHPAUlua_State@@@Z 10060630 f   ScriptFuns.obj
 0001:0005f6b0       ?LuaGetFightState@@YAHPAUlua_State@@@Z 100606b0 f   ScriptFuns.obj
 0001:0005f720       ?LuaGetLevel@@YAHPAUlua_State@@@Z 10060720 f   ScriptFuns.obj
 0001:0005f7a0       ?LuaUseTownPortal@@YAHPAUlua_State@@@Z 100607a0 f   ScriptFuns.obj
 0001:0005f7e0       ?LuaReturnFromTownPortal@@YAHPAUlua_State@@@Z 100607e0 f   ScriptFuns.obj
 0001:0005f820       ?GetPlayerIndex@@YAHPAUlua_State@@@Z 10060820 f   ScriptFuns.obj
 0001:0005f8a0       ?GetObjIndex@@YAHPAUlua_State@@@Z 100608a0 f   ScriptFuns.obj
 0001:0005f910       ?LuaMessage@@YAHPAUlua_State@@@Z 10060910 f   ScriptFuns.obj
 0001:0005f930       ?LuaAddPlayerWayPoint@@YAHPAUlua_State@@@Z 10060930 f   ScriptFuns.obj
 0001:0005fa60       ?LuaAddPlayerStation@@YAHPAUlua_State@@@Z 10060a60 f   ScriptFuns.obj
 0001:0005fb20       ?LuaGetPlayerStationCount@@YAHPAUlua_State@@@Z 10060b20 f   ScriptFuns.obj
 0001:0005fba0       ?LuaGetPlayerStation@@YAHPAUlua_State@@@Z 10060ba0 f   ScriptFuns.obj
 0001:0005fca0       ?LuaGetPlayerWayPoint@@YAHPAUlua_State@@@Z 10060ca0 f   ScriptFuns.obj
 0001:0005fd60       ?LuaGetStationName@@YAHPAUlua_State@@@Z 10060d60 f   ScriptFuns.obj
 0001:0005fe10       ?LuaGetWayPointName@@YAHPAUlua_State@@@Z 10060e10 f   ScriptFuns.obj
 0001:0005fec0       ?LuaGetAllStationCount@@YAHPAUlua_State@@@Z 10060ec0 f   ScriptFuns.obj
 0001:0005ff00       ?LuaGetCity@@YAHPAUlua_State@@@Z 10060f00 f   ScriptFuns.obj
 0001:0005ff10       ?LuaGetPriceToWayPoint@@YAHPAUlua_State@@@Z 10060f10 f   ScriptFuns.obj
 0001:0005ff60       ?LuaGetPriceToStation@@YAHPAUlua_State@@@Z 10060f60 f   ScriptFuns.obj
 0001:0005ffb0       ?LuaGetStationPos@@YAHPAUlua_State@@@Z 10060fb0 f   ScriptFuns.obj
 0001:000600f0       ?LuaGetWayPointPos@@YAHPAUlua_State@@@Z 100610f0 f   ScriptFuns.obj
 0001:000601c0       ?LuaGetRank@@YAHPAUlua_State@@@Z 100611c0 f   ScriptFuns.obj
 0001:00060230       ?LuaSetRank@@YAHPAUlua_State@@@Z 10061230 f   ScriptFuns.obj
 0001:00060290       ?LuaGetTitle@@YAHPAUlua_State@@@Z 10061290 f   ScriptFuns.obj
 0001:00060300       ?LuaSetTitle@@YAHPAUlua_State@@@Z 10061300 f   ScriptFuns.obj
 0001:00060360       ?LuaSetObjPropState@@YAHPAUlua_State@@@Z 10061360 f   ScriptFuns.obj
 0001:000603d0       ?LuaGetServerName@@YAHPAUlua_State@@@Z 100613d0 f   ScriptFuns.obj
 0001:00060430       ?LuaGetDockCount@@YAHPAUlua_State@@@Z 10061430 f   ScriptFuns.obj
 0001:000604b0       ?LuaGetDockPrice@@YAHPAUlua_State@@@Z 100614b0 f   ScriptFuns.obj
 0001:00060500       ?LuaGetDock@@YAHPAUlua_State@@@Z 10061500 f   ScriptFuns.obj
 0001:000605a0       ?LuaGetDockName@@YAHPAUlua_State@@@Z 100615a0 f   ScriptFuns.obj
 0001:00060630       ?LuaGetDockPos@@YAHPAUlua_State@@@Z 10061630 f   ScriptFuns.obj
 0001:00060790       ?LuaGetWayPointFightState@@YAHPAUlua_State@@@Z 10061790 f   ScriptFuns.obj
 0001:00060830       ?LuaSetMissionValue@@YAHPAUlua_State@@@Z 10061830 f   ScriptFuns.obj
 0001:000608a0       ?LuaGetMissionValue@@YAHPAUlua_State@@@Z 100618a0 f   ScriptFuns.obj
 0001:00060930       ?LuaSetMissionString@@YAHPAUlua_State@@@Z 10061930 f   ScriptFuns.obj
 0001:000609c0       ?LuaGetMissionString@@YAHPAUlua_State@@@Z 100619c0 f   ScriptFuns.obj
 0001:00060a40       ?LuaSetGlobalMissionValue@@YAHPAUlua_State@@@Z 10061a40 f   ScriptFuns.obj
 0001:00060a90       ?LuaGetGlobalMissionValue@@YAHPAUlua_State@@@Z 10061a90 f   ScriptFuns.obj
 0001:00060b00       ?LuaInitMission@@YAHPAUlua_State@@@Z 10061b00 f   ScriptFuns.obj
 0001:00060e10       ??0?$_KMissionPlayerArray@UTMissionPlayerInfo@@$0ELA@@@QAE@XZ 10061e10 f i ScriptFuns.obj
 0001:00060ed0       ??1?$_KMissionPlayerArray@UTMissionPlayerInfo@@$0ELA@@@QAE@XZ 10061ed0 f i ScriptFuns.obj
 0001:00060f30       ?LuaRunMission@@YAHPAUlua_State@@@Z 10061f30 f   ScriptFuns.obj
 0001:00061160       ?LuaCloseMission@@YAHPAUlua_State@@@Z 10062160 f   ScriptFuns.obj
 0001:00061420       ?LuaJoinMission@@YAHPAUlua_State@@@Z 10062420 f   ScriptFuns.obj
 0001:00061690       ?LuaStopMissionTimer@@YAHPAUlua_State@@@Z 10062690 f   ScriptFuns.obj
 0001:000618d0       ?LuaStartMissionTimer@@YAHPAUlua_State@@@Z 100628d0 f   ScriptFuns.obj
 0001:00061b20       ?LuaSetDeathRevivalPos@@YAHPAUlua_State@@@Z 10062b20 f   ScriptFuns.obj
 0001:00061c30       ?LuaSetClearPos@@YAHPAUlua_State@@@Z 10062c30 f   ScriptFuns.obj
 0001:00061c80       ?LuaAddMissionPlayer@@YAHPAUlua_State@@@Z 10062c80 f   ScriptFuns.obj
 0001:00061f30       ?LuaRemoveMissionPlayer@@YAHPAUlua_State@@@Z 10062f30 f   ScriptFuns.obj
 0001:00062210       ?LuaGetNextPlayer@@YAHPAUlua_State@@@Z 10063210 f   ScriptFuns.obj
 0001:000624d0       ?LuaMissionMsg2Group@@YAHPAUlua_State@@@Z 100634d0 f   ScriptFuns.obj
 0001:00062700       ?LuaMissionMsg2All@@YAHPAUlua_State@@@Z 10063700 f   ScriptFuns.obj
 0001:00062910       ?LuaMissionMsg2Player@@YAHPAUlua_State@@@Z 10063910 f   ScriptFuns.obj
 0001:00062b40       ?LuaMissionPlayerCount@@YAHPAUlua_State@@@Z 10063b40 f   ScriptFuns.obj
 0001:00062db0       ?LuaSetPlayerDeathScript@@YAHPAUlua_State@@@Z 10063db0 f   ScriptFuns.obj
 0001:00062e10       ?LuaSetPlayerLogoutScript@@YAHPAUlua_State@@@Z 10063e10 f   ScriptFuns.obj
 0001:00062e70       ?LuaNpcIndexToPlayerIndex@@YAHPAUlua_State@@@Z 10063e70 f   ScriptFuns.obj
 0001:00062f10       ?LuaGetMissionPlayer_PlayerIndex@@YAHPAUlua_State@@@Z 10063f10 f   ScriptFuns.obj
 0001:00063140       ?LuaGetMissionPlayer_DataIndex@@YAHPAUlua_State@@@Z 10064140 f   ScriptFuns.obj
 0001:00063370       ?LuaSetMissionPlayerParam@@YAHPAUlua_State@@@Z 10064370 f   ScriptFuns.obj
 0001:000635c0       ?LuaGetMissionPlayerParam@@YAHPAUlua_State@@@Z 100645c0 f   ScriptFuns.obj
 0001:00063820       ?LuaGetPlayerMissionGroup@@YAHPAUlua_State@@@Z 10064820 f   ScriptFuns.obj
 0001:00063a40       ?LuaSetPlayerRevivalOptionWhenLogout@@YAHPAUlua_State@@@Z 10064a40 f   ScriptFuns.obj
 0001:00063ab0       ?LuaSetPlayerPKValue@@YAHPAUlua_State@@@Z 10064ab0 f   ScriptFuns.obj
 0001:00063b20       ?LuaGetPlayerPKValue@@YAHPAUlua_State@@@Z 10064b20 f   ScriptFuns.obj
 0001:00063ba0       ?LuaForbidChangePK@@YAHPAUlua_State@@@Z 10064ba0 f   ScriptFuns.obj
 0001:00063c10       ?LuaSetPlayerPKFlag@@YAHPAUlua_State@@@Z 10064c10 f   ScriptFuns.obj
 0001:00063c80       ?LuaGetPlayerPKFlag@@YAHPAUlua_State@@@Z 10064c80 f   ScriptFuns.obj
 0001:00063d00       ?LuaForbitTrade@@YAHPAUlua_State@@@Z 10064d00 f   ScriptFuns.obj
 0001:00063d80       ?LuaGetCurNpcIndex@@YAHPAUlua_State@@@Z 10064d80 f   ScriptFuns.obj
 0001:00063de0       ?LuaShowLadder@@YAHPAUlua_State@@@Z 10064de0 f   ScriptFuns.obj
 0001:00063ee0       ?LuaSwearBrother@@YAHPAUlua_State@@@Z 10064ee0 f   ScriptFuns.obj
 0001:000641c0       ?LuaMakeEnemy@@YAHPAUlua_State@@@Z 100651c0 f   ScriptFuns.obj
 0001:000641d0       ?LuaAddLeadExp@@YAHPAUlua_State@@@Z 100651d0 f   ScriptFuns.obj
 0001:00064230       ?LuaGetLeadLevel@@YAHPAUlua_State@@@Z 10065230 f   ScriptFuns.obj
 0001:00064280       ?LuaAddMagicPoint@@YAHPAUlua_State@@@Z 10065280 f   ScriptFuns.obj
 0001:00064340       ?LuaGetMagicPoint@@YAHPAUlua_State@@@Z 10065340 f   ScriptFuns.obj
 0001:00064380       ?LuaAddSkillState@@YAHPAUlua_State@@@Z 10065380 f   ScriptFuns.obj
 0001:000644e0       ?LuaCastSkill@@YAHPAUlua_State@@@Z 100654e0 f   ScriptFuns.obj
 0001:00064590       ?LuaClearStateSkill@@YAHPAUlua_State@@@Z 10065590 f   ScriptFuns.obj
 0001:00064600       ?LuaAddPropPoint@@YAHPAUlua_State@@@Z 10065600 f   ScriptFuns.obj
 0001:000646a0       ?LuaPayExtPoint@@YAHPAUlua_State@@@Z 100656a0 f   ScriptFuns.obj
 0001:00064720       ?LuaGetExtPoint@@YAHPAUlua_State@@@Z 10065720 f   ScriptFuns.obj
 0001:00064790       ?LuaAddJbCoin@@YAHPAUlua_State@@@Z 10065790 f   ScriptFuns.obj
 0001:00064810       ?LuaGetJbCoin@@YAHPAUlua_State@@@Z 10065810 f   ScriptFuns.obj
 0001:00064880       ?LuaPayJbCoin@@YAHPAUlua_State@@@Z 10065880 f   ScriptFuns.obj
 0001:00064920       ?LuaAddLockBronzeCoin@@YAHPAUlua_State@@@Z 10065920 f   ScriptFuns.obj
 0001:000649a0       ?LuaGetLockBronzeCoin@@YAHPAUlua_State@@@Z 100659a0 f   ScriptFuns.obj
 0001:00064a10       ?LuaPayLockBronzeCoin@@YAHPAUlua_State@@@Z 10065a10 f   ScriptFuns.obj
 0001:00064ab0       ?LuaClearLockBronzeCoin@@YAHPAUlua_State@@@Z 10065ab0 f   ScriptFuns.obj
 0001:00064af0       ?LuaGetRestPropPoint@@YAHPAUlua_State@@@Z 10065af0 f   ScriptFuns.obj
 0001:00064b40       ?LuaResetBaseAttribute@@YAHPAUlua_State@@@Z 10065b40 f   ScriptFuns.obj
 0001:00064ba0       ?LuaMsgToGameMaster@@YAHPAUlua_State@@@Z 10065ba0 f   ScriptFuns.obj
 0001:00064c30       ?LuaMsgToIP@@YAHPAUlua_State@@@Z 10065c30 f   ScriptFuns.obj
 0001:00064cf0       ?LuaGetPlayerInfo@@YAHPAUlua_State@@@Z 10065cf0 f   ScriptFuns.obj
 0001:00064df0       ?LuaGetIP@@YAHPAUlua_State@@@Z 10065df0 f   ScriptFuns.obj
 0001:00064e80       ?LuaSetDeathPunish@@YAHPAUlua_State@@@Z 10065e80 f   ScriptFuns.obj
 0001:00064f40       ?LuaGetMapName@@YAHPAUlua_State@@@Z 10065f40 f   ScriptFuns.obj
 0001:00065040       ?LuaGetMapInfoFile@@YAHPAUlua_State@@@Z 10066040 f   ScriptFuns.obj
 0001:000650b0       ?LuaAddMapTrap@@YAHPAUlua_State@@@Z 100660b0 f   ScriptFuns.obj
 0001:00065150       ?LuaAddMapTrapByCell@@YAHPAUlua_State@@@Z 10066150 f   ScriptFuns.obj
 0001:00065210       ?LuaAddMapObject@@YAHPAUlua_State@@@Z 10066210 f   ScriptFuns.obj
 0001:000652e0       ?LuaCountNpcInMap@@YAHPAUlua_State@@@Z 100662e0 f   ScriptFuns.obj
 0001:00065360       ?LuaClearMapObj@@YAHPAUlua_State@@@Z 10066360 f   ScriptFuns.obj
 0001:000653c0       ?LuaClearMapTrap@@YAHPAUlua_State@@@Z 100663c0 f   ScriptFuns.obj
 0001:00065420       ?LuaSetLoginDelaySync@@YAHPAUlua_State@@@Z 10066420 f   ScriptFuns.obj
 0001:00065490       ?LuaMyRefresh@@YAHPAUlua_State@@@Z 10066490 f   ScriptFuns.obj
 0001:00065510       ?LuaReloadScript@@YAHPAUlua_State@@@Z 10066510 f   ScriptFuns.obj
 0001:00065550       ?LuaReloadAllScript@@YAHPAUlua_State@@@Z 10066550 f   ScriptFuns.obj
 0001:00065590       ?LuaSetMask@@YAHPAUlua_State@@@Z 10066590 f   ScriptFuns.obj
 0001:00065620       ?LuaResetMask@@YAHPAUlua_State@@@Z 10066620 f   ScriptFuns.obj
 0001:000656c0       ?LuaChangeOwnFeature@@YAHPAUlua_State@@@Z 100666c0 f   ScriptFuns.obj
 0001:000657f0       ?LuaRestoreOwnFeature@@YAHPAUlua_State@@@Z 100667f0 f   ScriptFuns.obj
 0001:000658a0       ?LuaForbidTownPortal@@YAHPAUlua_State@@@Z 100668a0 f   ScriptFuns.obj
 0001:00065900       ?LuaGetTownPortalFlag@@YAHPAUlua_State@@@Z 10066900 f   ScriptFuns.obj
 0001:00065970       ?LuaGetGameTime@@YAHPAUlua_State@@@Z 10066970 f   ScriptFuns.obj
 0001:000659c0       ?LuaFileName2Id@@YAHPAUlua_State@@@Z 100669c0 f   ScriptFuns.obj
 0001:00065a20       ?LuaTabFile_Load@@YAHPAUlua_State@@@Z 10066a20 f   ScriptFuns.obj
 0001:00065a80       ?LuaTabFile_Clear@@YAHPAUlua_State@@@Z 10066a80 f   ScriptFuns.obj
 0001:00065ae0       ?LuaTabFile_GetColumCount@@YAHPAUlua_State@@@Z 10066ae0 f   ScriptFuns.obj
 0001:00065b40       ?LuaTabFile_GetRowCount@@YAHPAUlua_State@@@Z 10066b40 f   ScriptFuns.obj
 0001:00065ba0       ?LuaTabFile_GetCell@@YAHPAUlua_State@@@Z 10066ba0 f   ScriptFuns.obj
 0001:00065c70       ?LuaIniFile_Load@@YAHPAUlua_State@@@Z 10066c70 f   ScriptFuns.obj
 0001:00065cd0       ?LuaIniFile_Clear@@YAHPAUlua_State@@@Z 10066cd0 f   ScriptFuns.obj
 0001:00065d30       ?LuaIniFile_GetData@@YAHPAUlua_State@@@Z 10066d30 f   ScriptFuns.obj
 0001:00065dc0       ?LuaIniFile_SaveData@@YAHPAUlua_State@@@Z 10066dc0 f   ScriptFuns.obj
 0001:00065dd0       ?LuaAskClientForNumber@@YAHPAUlua_State@@@Z 10066dd0 f   ScriptFuns.obj
 0001:00065ef0       ?LuaAskClientForString@@YAHPAUlua_State@@@Z 10066ef0 f   ScriptFuns.obj
 0001:00066020       ?LuaGetTongID@@YAHPAUlua_State@@@Z 10067020 f   ScriptFuns.obj
 0001:000660a0       ?LuaGetTongName@@YAHPAUlua_State@@@Z 100670a0 f   ScriptFuns.obj
 0001:00066130       ?LuaGetTongMaster@@YAHPAUlua_State@@@Z 10067130 f   ScriptFuns.obj
 0001:00066190       ?LuaGetTongFigure@@YAHPAUlua_State@@@Z 10067190 f   ScriptFuns.obj
 0001:000661f0       ?LuaGetMagicAttribRecord@@YAHPAUlua_State@@@Z 100671f0 f   ScriptFuns.obj
 0001:00066280       ?LuaCheckMagicAttrib@@YAHPAUlua_State@@@Z 10067280 f   ScriptFuns.obj
 0001:00066340       ?LuaGetMAByRecord@@YAHPAUlua_State@@@Z 10067340 f   ScriptFuns.obj
 0001:000663c0       ?LuaSavePlayerLog@@YAHPAUlua_State@@@Z 100673c0 f   ScriptFuns.obj
 0001:00066420       ?LuaPlayerOpenShop@@YAHPAUlua_State@@@Z 10067420 f   ScriptFuns.obj
 0001:00066550       ?LuaCallClientScript@@YAHPAUlua_State@@@Z 10067550 f   ScriptFuns.obj
 0001:00066690       ?LuaBanAccount@@YAHPAUlua_State@@@Z 10067690 f   ScriptFuns.obj
 0001:000666d0       ?LuaUnBanAccount@@YAHPAUlua_State@@@Z 100676d0 f   ScriptFuns.obj
 0001:00066710       ?LuaDropObj@@YAHPAUlua_State@@@Z 10067710 f   ScriptFuns.obj
 0001:000667e0       ?LuaDelObj@@YAHPAUlua_State@@@Z 100677e0 f   ScriptFuns.obj
 0001:000668c0       ?LuaSetObjPickExecute@@YAHPAUlua_State@@@Z 100678c0 f   ScriptFuns.obj
 0001:00066920       ?LuaCalcFreeItemCellCount@@YAHPAUlua_State@@@Z 10067920 f   ScriptFuns.obj
 0001:00066a10       ?LuaRANDOM@@YAHPAUlua_State@@@Z 10067a10 f   ScriptFuns.obj
 0001:00066aa0       ?LuaRANDOMC@@YAHPAUlua_State@@@Z 10067aa0 f   ScriptFuns.obj
 0001:00066c00       ?LuaGetTimeNow@@YAHPAUlua_State@@@Z 10067c00 f   ScriptFuns.obj
 0001:00066d40       ?LuaSetStoreBox@@YAHPAUlua_State@@@Z 10067d40 f   ScriptFuns.obj
 0001:00066da0       ?LuaGetStoreBox@@YAHPAUlua_State@@@Z 10067da0 f   ScriptFuns.obj
 0001:00066e00       ?LuaSetExpandBox@@YAHPAUlua_State@@@Z 10067e00 f   ScriptFuns.obj
 0001:00066e60       ?LuaGetExpandBox@@YAHPAUlua_State@@@Z 10067e60 f   ScriptFuns.obj
 0001:00066ec0       ?LuaOpenGiveBox@@YAHPAUlua_State@@@Z 10067ec0 f   ScriptFuns.obj
 0001:00067060       ?LuaEndGiveBox@@YAHPAUlua_State@@@Z 10068060 f   ScriptFuns.obj
 0001:00067150       ?LuaGetROItem@@YAHPAUlua_State@@@Z 10068150 f   ScriptFuns.obj
 0001:00067210       ?LuaOpenReWardBox@@YAHPAUlua_State@@@Z 10068210 f   ScriptFuns.obj
 0001:00067390       ?LuaOpenTimeBox@@YAHPAUlua_State@@@Z 10068390 f   ScriptFuns.obj
 0001:000674e0       ?LuaSetStatusLixian@@YAHPAUlua_State@@@Z 100684e0 f   ScriptFuns.obj
 0001:00067660       ?LuaSetDisconectPlayer@@YAHPAUlua_State@@@Z 10068660 f   ScriptFuns.obj
 0001:00067670       ?LuaUpdateTopTKNew@@YAHPAUlua_State@@@Z 10068670 f   ScriptFuns.obj
 0001:00067750       ?LuaDeleteTopTKNew@@YAHPAUlua_State@@@Z 10068750 f   ScriptFuns.obj
 0001:00067830       ?LuaSendTopTKNew@@YAHPAUlua_State@@@Z 10068830 f   ScriptFuns.obj
 0001:000680e0       ?LuaDelpwbox@@YAHPAUlua_State@@@Z 100690e0 f   ScriptFuns.obj
 0001:00068140       ?LuaOpenNotification@@YAHPAUlua_State@@@Z 10069140 f   ScriptFuns.obj
 0001:00068230       ?LuaSetPItemID@@YAHPAUlua_State@@@Z 10069230 f   ScriptFuns.obj
 0001:00068510       ?LuaGetPOItem@@YAHPAUlua_State@@@Z 10069510 f   ScriptFuns.obj
 0001:00068610       ?LuaOpenTrembleItem@@YAHPAUlua_State@@@Z 10069610 f   ScriptFuns.obj
 0001:000686e0       ?LuaSetLockSongJin@@YAHPAUlua_State@@@Z 100696e0 f   ScriptFuns.obj
 0001:00068740       ?LuaGetLockSongJin@@YAHPAUlua_State@@@Z 10069740 f   ScriptFuns.obj
 0001:000687a0       ?LuaPlayMusic@@YAHPAUlua_State@@@Z 100697a0 f   ScriptFuns.obj
 0001:00068850       ?LuaFadeInMusic@@YAHPAUlua_State@@@Z 10069850 f   ScriptFuns.obj
 0001:00068860       ?LuaFadeOutMusic@@YAHPAUlua_State@@@Z 10069860 f   ScriptFuns.obj
 0001:00068870       ?g_GetGameScriptFunNum@@YAHXZ 10069870 f   ScriptFuns.obj
 0001:00068880       ?g_GetWorldScriptFunNum@@YAHXZ 10069880 f   ScriptFuns.obj
 0001:00068890       ??0?$KLinkArrayTemplate@VKTimerTaskFun@@$02@@QAE@XZ 10069890 f i ScriptFuns.obj
 0001:00068960       ?GetData@?$KLinkArrayTemplate@VKTimerTaskFun@@$02@@QAEPAVKTimerTaskFun@@K@Z 10069960 f i ScriptFuns.obj
 0001:00068980       ??0?$KLinkArrayTemplate@UTMissionPlayerInfo@@$0ELA@@@QAE@XZ 10069980 f i ScriptFuns.obj
 0001:00068a40       ??1?$list@V?$basic_string@DU?$char_traits@D@std@@V?$allocator@D@2@@std@@V?$allocator@V?$basic_string@DU?$char_traits@D@std@@V?$allocator@D@2@@std@@@2@@std@@QAE@XZ 10069a40 f i ScriptFuns.obj
 0001:00068aa0       ?insert@?$list@V?$basic_string@DU?$char_traits@D@std@@V?$allocator@D@2@@std@@V?$allocator@V?$basic_string@DU?$char_traits@D@std@@V?$allocator@D@2@@std@@@2@@std@@QAE?AViterator@12@V312@ABV?$basic_string@DU?$char_traits@D@std@@V?$allocator@D@2@@2@@Z 10069aa0 f i ScriptFuns.obj
 0001:00068b00       ?erase@?$list@V?$basic_string@DU?$char_traits@D@std@@V?$allocator@D@2@@std@@V?$allocator@V?$basic_string@DU?$char_traits@D@std@@V?$allocator@D@2@@std@@@2@@std@@QAE?AViterator@12@V312@0@Z 10069b00 f i ScriptFuns.obj
 0001:00068b90       ?_Construct@std@@YAXPAV?$basic_string@DU?$char_traits@D@std@@V?$allocator@D@2@@1@ABV21@@Z 10069b90 f i ScriptFuns.obj
 0001:00068d00       ??3@YAXPAX0@Z              10069d00 f i ScriptFuns.obj
 0001:00068d80       ??0KScriptValueSet@@QAE@XZ 10069d80 f   KScriptValueSet.obj
 0001:00068de0       ??_EKScriptValueSet@@UAEPAXI@Z 10069de0 f i KScriptValueSet.obj
 0001:00068de0       ??_GKScriptValueSet@@UAEPAXI@Z 10069de0 f i KScriptValueSet.obj
 0001:00068e00       ??1KScriptValueSet@@UAE@XZ 10069e00 f   KScriptValueSet.obj
 0001:00068e20       ?Load@KScriptValueSet@@QAEHPAD@Z 10069e20 f   KScriptValueSet.obj
 0001:000690d0       ??_GTStringValueNode@@UAEPAXI@Z 1006a0d0 f i KScriptValueSet.obj
 0001:000690d0       ??_ETStringValueNode@@UAEPAXI@Z 1006a0d0 f i KScriptValueSet.obj
 0001:000690f0       ??1TStringValueNode@@UAE@XZ 1006a0f0 f i KScriptValueSet.obj
 0001:00069100       ??_ETIntegerValueNode@@UAEPAXI@Z 1006a100 f i KScriptValueSet.obj
 0001:00069100       ??_GTIntegerValueNode@@UAEPAXI@Z 1006a100 f i KScriptValueSet.obj
 0001:00069120       ??1TIntegerValueNode@@UAE@XZ 1006a120 f i KScriptValueSet.obj
 0001:00069130       ?Save@KScriptValueSet@@QAEHPAD@Z 1006a130 f   KScriptValueSet.obj
 0001:00069220       ?SetValue@KScriptValueSet@@QAEHPAD0@Z 1006a220 f   KScriptValueSet.obj
 0001:00069280       ?SetValue@KScriptValueSet@@QAEHPADH@Z 1006a280 f   KScriptValueSet.obj
 0001:000692c0       ?GetValue@KScriptValueSet@@QAEHPAD0@Z 1006a2c0 f   KScriptValueSet.obj
 0001:00069330       ?GetValue@KScriptValueSet@@QAEHPADPAH@Z 1006a330 f   KScriptValueSet.obj
 0001:00069360       ?AddValue@KScriptValueSet@@AAEXPAD0@Z 1006a360 f   KScriptValueSet.obj
 0001:00069410       ?AddValue@KScriptValueSet@@AAEXPADH@Z 1006a410 f   KScriptValueSet.obj
 0001:000694a0       ?SearchValue@KScriptValueSet@@AAEPAVKNode@@PADH@Z 1006a4a0 f   KScriptValueSet.obj
 0001:000696b0       ??M@YAHVKSortScriptNode@@0@Z 1006a6b0 f   KSortScript.obj
 0001:000696c0       ??8@YAHVKSortScriptNode@@0@Z 1006a6c0 f   KSortScript.obj
 0001:000696d0       ?g_IniScriptEngine@@YAKXZ  1006a6d0 f   KSortScript.obj
 0001:00069790       ?g_GetScript@@YAPBVKScript@@K@Z 1006a790 f   KSortScript.obj
 0001:00069820       ?g_GetScript@@YAPBVKScript@@PBD@Z 1006a820 f   KSortScript.obj
 0001:00069840       ?LoadScriptInDirectory@@YAXPAD0@Z 1006a840 f   KSortScript.obj
 0001:00069c70       ?UnLoadScript@@YAXK@Z      1006ac70 f   KSortScript.obj
 0001:00069d60       ?ReLoadScript@@YAHPBD@Z    1006ad60 f   KSortScript.obj
 0001:00069de0       ?ReLoadAllScript@@YAKXZ    1006ade0 f   KSortScript.obj
 0001:00069e40       ?Insert@?$BinSTree@VKSortScriptNode@@@@QAEXABVKSortScriptNode@@@Z 1006ae40 f i KSortScript.obj
 0001:00069f40       ?DeleteTree@?$BinSTree@VKSortScriptNode@@@@AAEXPAV?$TreeNode@VKSortScriptNode@@@@@Z 1006af40 f i KSortScript.obj
 0001:00069fc0       _CoreGetServerShell        1006afc0 f   CoreServerShell.obj
 0001:00069fe0       ?Release@CoreServerShell@@UAEXXZ 1006afe0 f   CoreServerShell.obj
 0001:00069ff0       ?GetLoopRate@CoreServerShell@@UAEHXZ 1006aff0 f   CoreServerShell.obj
 0001:0006a000       ?GetConnectInfo@CoreServerShell@@UAEHPAUKCoreConnectInfo@@@Z 1006b000 f   CoreServerShell.obj
 0001:0006a020       ?AddCharacter@CoreServerShell@@UAEHPAXPAU_GUID@@@Z 1006b020 f   CoreServerShell.obj
 0001:0006a110       ?PlayerDbLoading@CoreServerShell@@UAE_NHHAAHAAI@Z 1006b110 f   CoreServerShell.obj
 0001:0006a180       ?AddPlayerToWorld@CoreServerShell@@UAEXH@Z 1006b180 f   CoreServerShell.obj
 0001:0006a1b0       ?ProcessClientMessage@CoreServerShell@@UAEXHPBDH@Z 1006b1b0 f   CoreServerShell.obj
 0001:0006a1d0       ?ProcessNewClientMessage@CoreServerShell@@UAEXPAUIClient@@KKHPBDH@Z 1006b1d0 f   CoreServerShell.obj
 0001:0006a200       ?SendNetMsgToTransfer@CoreServerShell@@UAEXPAUIClient@@@Z 1006b200 f   CoreServerShell.obj
 0001:0006a220       ?SendNetMsgToChat@CoreServerShell@@UAEXPAUIClient@@@Z 1006b220 f   CoreServerShell.obj
 0001:0006a240       ?SendNetMsgToTong@CoreServerShell@@UAEXPAUIClient@@@Z 1006b240 f   CoreServerShell.obj
 0001:0006a260       ?ProcessBroadcastMessage@CoreServerShell@@UAEXPBDH@Z 1006b260 f   CoreServerShell.obj
 0001:0006a280       ?ProcessExecuteMessage@CoreServerShell@@UAEXPBDH@Z 1006b280 f   CoreServerShell.obj
 0001:0006a2a0       ?ClientDisconnect@CoreServerShell@@UAEXH@Z 1006b2a0 f   CoreServerShell.obj
 0001:0006a2c0       ?RemoveQuitingPlayer@CoreServerShell@@UAEXH@Z 1006b2c0 f   CoreServerShell.obj
 0001:0006a300       ?GetGameData@CoreServerShell@@UAEHIIH@Z 1006b300 f   CoreServerShell.obj
 0001:0006b390       ?OperationRequest@CoreServerShell@@UAEHIIH@Z 1006c390 f   CoreServerShell.obj
 0001:0006b580       ?OnLunch@CoreServerShell@@AAEHPAX@Z 1006c580 f   CoreServerShell.obj
 0001:0006b5d0       ?OnShutdown@CoreServerShell@@AAEHXZ 1006c5d0 f   CoreServerShell.obj
 0001:0006b5e0       ?Breathe@CoreServerShell@@UAEHXZ 1006c5e0 f   CoreServerShell.obj
 0001:0006b640       ?CheckProtocolSize@CoreServerShell@@UAE_NPBDHAAH@Z 1006c640 f   CoreServerShell.obj
 0001:0006b6b0       ?AttachPlayer@CoreServerShell@@UAEHKPAU_GUID@@@Z 1006c6b0 f   CoreServerShell.obj
 0001:0006b6d0       ?SavePlayerDataAtOnce@CoreServerShell@@UAEPAXH@Z 1006c6d0 f   CoreServerShell.obj
 0001:0006b720       ?IsCharacterQuiting@CoreServerShell@@UAE_NH@Z 1006c720 f   CoreServerShell.obj
 0001:0006b760       ?IsPlayerLoginTimeOut@CoreServerShell@@UAE_NH@Z 1006c760 f   CoreServerShell.obj
 0001:0006b790       ?RemovePlayerLoginTimeOut@CoreServerShell@@UAEXH@Z 1006c790 f   CoreServerShell.obj
 0001:0006b7d0       ?AddTempTaskValue@CoreServerShell@@UAEHHPBD@Z 1006c7d0 f   CoreServerShell.obj
 0001:0006b810       ?GetPlayerIndexByGuid@CoreServerShell@@UAEXPAU_GUID@@PAH1@Z 1006c810 f   CoreServerShell.obj
 0001:0006b860       ?PreparePlayerForExchange@CoreServerShell@@UAEPAXH@Z 1006c860 f   CoreServerShell.obj
 0001:0006b8a0       ?IsPlayerExchangingServer@CoreServerShell@@UAE_NH@Z 1006c8a0 f   CoreServerShell.obj
 0001:0006b8e0       ?RemovePlayerForExchange@CoreServerShell@@UAEXH@Z 1006c8e0 f   CoreServerShell.obj
 0001:0006b900       ?GetGuid@CoreServerShell@@UAEXHPAX@Z 1006c900 f   CoreServerShell.obj
 0001:0006b950       ?GetExchangeMap@CoreServerShell@@UAEKH@Z 1006c950 f   CoreServerShell.obj
 0001:0006b980       ?RecoverPlayerExchange@CoreServerShell@@UAEXH@Z 1006c980 f   CoreServerShell.obj
 0001:0006ba10       ?SetSaveStatus@CoreServerShell@@UAEXHI@Z 1006ca10 f   CoreServerShell.obj
 0001:0006ba40       ?GetSaveStatus@CoreServerShell@@UAEIH@Z 1006ca40 f   CoreServerShell.obj
 0001:0006ba70       ?LixianStatus@CoreServerShell@@UAEHH@Z 1006ca70 f   CoreServerShell.obj
 0001:0006baa0       ?SetStatusLixian@CoreServerShell@@UAEXHH@Z 1006caa0 f   CoreServerShell.obj
 0001:0006bad0       ?PreparePlayerForLoginFailed@CoreServerShell@@UAEXH@Z 1006cad0 f   CoreServerShell.obj
 0001:0006baf0       ?GroupChat@CoreServerShell@@UAEHPAUIClient@@KKKEKPBXI@Z 1006caf0 f   CoreServerShell.obj
 0001:0006c080       ?SetLadder@CoreServerShell@@UAEXPAXI@Z 1006d080 f   CoreServerShell.obj
 0001:0006c0a0       ?PayForSpeech@CoreServerShell@@UAEHHH@Z 1006d0a0 f   CoreServerShell.obj
 0001:0006c260       ??0KMagicDesc@@QAE@XZ      1006d260 f   KMagicDesc.obj
 0001:0006c280       ??1KMagicDesc@@QAE@XZ      1006d280 f   KMagicDesc.obj
 0001:0006c290       ?Init@KMagicDesc@@QAEHXZ   1006d290 f   KMagicDesc.obj
 0001:0006c2a0       ?GetDesc@KMagicDesc@@QAEPBDPAX@Z 1006d2a0 f   KMagicDesc.obj
 0001:0006c7f0       ?g_MagicID2String@@YAPBDH@Z 1006d7f0 f   KMagicDesc.obj
 0001:0006c820       ?g_String2MagicID@@YAHPAD@Z 1006d820 f   KMagicDesc.obj
 0001:0006c890       ?String2MagicID@KMagicDesc@@QAEHPAD@Z 1006d890 f   KMagicDesc.obj
 0001:0006c930       ?Activate@KMission@@QAEHXZ 1006d930 f   KMission.obj
 0001:0006c990       ?ExecuteScript@KMission@@QAEHPAD0HH@Z 1006d990 f   KMission.obj
 0001:0006c9e0       ?ExecuteScript@KMission@@QAEHKPADHH@Z 1006d9e0 f   KMission.obj
 0001:0006cac0       ?g_MissionTimerCallBackFun@@YAHPAXPAD@Z 1006dac0 f   KMission.obj
 0001:0006cb60       ?g_GetPriceToWayPoint@@YAHHH@Z 1006db60 f   KTaskFuns.obj
 0001:0006cbe0       ?g_GetPriceToStation@@YAHHH@Z 1006dbe0 f   KTaskFuns.obj
 0001:0006cc80       ?g_GetPriceToDock@@YAHHH@Z 1006dc80 f   KTaskFuns.obj
 0001:0006cd20       ??0KTimerTaskFun@@QAE@XZ   1006dd20 f   KTaskFuns.obj
 0001:0006cd90       ?Init@KTimerTaskFun@@SAHXZ 1006dd90 f   KTaskFuns.obj
 0001:0006cdc0       ?Activate@KTimerTaskFun@@QAEHP6AHPAXPAD@Z@Z 1006ddc0 f   KTaskFuns.obj
 0001:0006ce30       ?SaveTask@KTimerTaskFun@@UAEXH@Z 1006de30 f   KTaskFuns.obj
 0001:0006ceb0       ?LoadTask@KTimerTaskFun@@UAEXH@Z 1006deb0 f   KTaskFuns.obj
 0001:0006cf20       ?SetTimer@KTimerTaskFun@@QAEHIG@Z 1006df20 f   KTaskFuns.obj
 0001:0006cf60       ?CloseTimer@KTimerTaskFun@@QAEXXZ 1006df60 f   KTaskFuns.obj
 0001:0006cf70       ?GetRestTime@KTimerTaskFun@@QBEKXZ 1006df70 f   KTaskFuns.obj
 0001:0006cf90       ?GetTimerTaskScript@KTimerTaskFun@@QAEXPADGI@Z 1006df90 f   KTaskFuns.obj
 0001:0006d010       ?g_NpcTimerCallBackFun@@YAHPAXPAD@Z 1006e010 f   KTaskFuns.obj
 0001:0006d110       ??0KLadder@@QAE@XZ         1006e110 f   KLadder.obj
 0001:0006d130       ??1KLadder@@QAE@XZ         1006e130 f   KLadder.obj
 0001:0006d140       ?Init@KLadder@@QAEHPAXI@Z  1006e140 f   KLadder.obj
 0001:0006d170       ?TopTenFacMasterHand@KLadder@@QAEPBUTRoleList@@H@Z 1006e170 f   KLadder.obj
 0001:0006d1a0       ?TopTenFacRich@KLadder@@QAEPBUTRoleList@@H@Z 1006e1a0 f   KLadder.obj
 0001:0006d1d0       ?TopTenKiller@KLadder@@QAEPBUTRoleList@@XZ 1006e1d0 f   KLadder.obj
 0001:0006d1e0       ?TopTenMasterHand@KLadder@@QAEPBUTRoleList@@XZ 1006e1e0 f   KLadder.obj
 0001:0006d1f0       ?TopTenRich@KLadder@@QAEPBUTRoleList@@XZ 1006e1f0 f   KLadder.obj
 0001:0006d200       ?GetFacMasterHandPercent@KLadder@@QAEHH@Z 1006e200 f   KLadder.obj
 0001:0006d220       ?GetFacMoneyPercent@KLadder@@QAEHH@Z 1006e220 f   KLadder.obj
 0001:0006d240       ?GetFacMemberCount@KLadder@@QAEHH@Z 1006e240 f   KLadder.obj
 0001:0006d260       ?GetTopTen@KLadder@@QAEPBUTRoleList@@K@Z 1006e260 f   KLadder.obj
 0001:0006d330       ??0ZLoadFile@@QAE@XZ       1006e330 f   ZLoadFile.obj
 0001:0006d3a0       ??1ZLoadFile@@QAE@XZ       1006e3a0 f   ZLoadFile.obj
 0001:0006d410       ?Init@ZLoadFile@@QAEHXZ    1006e410 f   ZLoadFile.obj
 0001:0006d450       ?FindTabFree@ZLoadFile@@AAEHXZ 1006e450 f   ZLoadFile.obj
 0001:0006d490       ?SearchTabFile@ZLoadFile@@QAEHK@Z 1006e490 f   ZLoadFile.obj
 0001:0006d4d0       ?ReadTabFile@ZLoadFile@@QAEHPBD@Z 1006e4d0 f   ZLoadFile.obj
 0001:0006d520       ?ClearTabFile@ZLoadFile@@QAEHPBD@Z 1006e520 f   ZLoadFile.obj
 0001:0006d560       ?GetTabFileRow@ZLoadFile@@QAEHPBD@Z 1006e560 f   ZLoadFile.obj
 0001:0006d5a0       ?GetTabFileColum@ZLoadFile@@QAEHPBD@Z 1006e5a0 f   ZLoadFile.obj
 0001:0006d5e0       ?GetTabFileCell@ZLoadFile@@QAEXPBDHHPAD@Z 1006e5e0 f   ZLoadFile.obj
 0001:0006d660       ?FindIniFree@ZLoadFile@@AAEHXZ 1006e660 f   ZLoadFile.obj
 0001:0006d6a0       ?SearchIniFile@ZLoadFile@@QAEHK@Z 1006e6a0 f   ZLoadFile.obj
 0001:0006d6e0       ?ReadIniFile@ZLoadFile@@QAEHPBD@Z 1006e6e0 f   ZLoadFile.obj
 0001:0006d740       ?ClearIniFile@ZLoadFile@@QAEHPBD@Z 1006e740 f   ZLoadFile.obj
 0001:0006d790       ?GetIniFileData@ZLoadFile@@QAEHPBD00PAD@Z 1006e790 f   ZLoadFile.obj
 0001:0006d840       ?Get@KWorldMsg@@QAEHPAVKWorldMsgNode@@@Z 1006e840 f   KWorldMsg.obj
 0001:0006d8b0       ?Peek@KWorldMsg@@QAEHPAVKWorldMsgNode@@K@Z 1006e8b0 f   KWorldMsg.obj
 0001:0006d910       ?Clear@KWorldMsg@@QAEXXZ   1006e910 f   KWorldMsg.obj
 0001:0006d9b0       ?MSSQL_GetExtPoint@@YAHPADPAH@Z 1006e9b0 f   KB_MSSQL.obj
 0001:0006db80       ??1_variant_t@@QAE@XZ      1006eb80 f i KB_MSSQL.obj
 0001:0006dba0       ?MSSQL_SetExtPoint@@YAHPADH@Z 1006eba0 f   KB_MSSQL.obj
 0001:0006dca0       ?MSSQL_PayExtPoint@@YAHPADH@Z 1006eca0 f   KB_MSSQL.obj
 0001:0006dda0       ?MSSQL_GetExtPoint2@@YAHPADPAH@Z 1006eda0 f   KB_MSSQL.obj
 0001:0006df70       ?MSSQL_SetExtPoint2@@YAHPADH@Z 1006ef70 f   KB_MSSQL.obj
 0001:0006e070       ?MSSQL_PayExtPoint2@@YAHPADH@Z 1006f070 f   KB_MSSQL.obj
 0001:0006e170       ?MSSQL_SetBandPC@@YAHPAD@Z 1006f170 f   KB_MSSQL.obj
 0001:0006e470       ??1_bstr_t@@QAE@XZ         1006f470 f i KB_MSSQL.obj
 0001:0006e4c0       ??4_bstr_t@@QAEAAV0@PBG@Z  1006f4c0 f i KB_MSSQL.obj
 0001:0006e5a0       ?_Free@_bstr_t@@AAEXXZ     1006f5a0 f i KB_MSSQL.obj
 0001:0006e5f0       ??0Data_t@_bstr_t@@QAE@PBG@Z 1006f5f0 f i KB_MSSQL.obj
 0001:0006e630       ??_GData_t@_bstr_t@@AAEPAXI@Z 1006f630 f i KB_MSSQL.obj
 0001:0006e670       ?ChangeType@_variant_t@@QAEXGPBV1@@Z 1006f670 f i KB_MSSQL.obj
 0001:0006e6b0       ?MSSQL_UnBandPC@@YAHPAD@Z  1006f6b0 f   KB_MSSQL.obj
 0001:0006e9a0       ?MSSQL_SetSongJin@@YAHPADH@Z 1006f9a0 f   KB_MSSQL.obj
 0001:0006eaa0       ?MSSQL_GetSongJin@@YAHPAD@Z 1006faa0 f   KB_MSSQL.obj
 0001:0006edf0       ??0ZEG_MSSQLServer_Connection@@QAE@XZ 1006fdf0 f   ZEG_MSSQLServer_Connection.obj
 0001:0006ee80       ??1ZEG_MSSQLServer_Result@@UAE@XZ 1006fe80 f i ZEG_MSSQLServer_Connection.obj
 0001:0006eef0       ??_EZEG_MSSQLServer_Result@@UAEPAXI@Z 1006fef0 f i ZEG_MSSQLServer_Connection.obj
 0001:0006eef0       ??_GZEG_MSSQLServer_Result@@UAEPAXI@Z 1006fef0 f i ZEG_MSSQLServer_Connection.obj
 0001:0006ef10       ??1ZEG_MSSQLServer_Connection@@QAE@XZ 1006ff10 f   ZEG_MSSQLServer_Connection.obj
 0001:0006f010       ?CloseConnect@ZEG_MSSQLServer_Connection@@QAEXXZ 10070010 f   ZEG_MSSQLServer_Connection.obj
 0001:0006f060       ?OpenConnect@ZEG_MSSQLServer_Connection@@QAE_NPAUtag_DATABASEINFO@@@Z 10070060 f   ZEG_MSSQLServer_Connection.obj
 0001:0006f480       ??0_bstr_t@@QAE@PBD@Z      10070480 f i ZEG_MSSQLServer_Connection.obj
 0001:0006f520       ?Open@Connection15@@QAEJV_bstr_t@@00J@Z 10070520 f i ZEG_MSSQLServer_Connection.obj
 0001:0006f650       ?Do@ZEG_MSSQLServer_Connection@@QAE_NPBD@Z 10070650 f   ZEG_MSSQLServer_Connection.obj
 0001:0006f680       ?DoCmd@ZEG_MSSQLServer_Connection@@AAE_NPBD@Z 10070680 f   ZEG_MSSQLServer_Connection.obj
 0001:0006f880       ?PutCommandText@Command15@@QAEXV_bstr_t@@@Z 10070880 f i ZEG_MSSQLServer_Connection.obj
 0001:0006f920       ?Execute@Command15@@QAE?AV?$_com_ptr_t@V?$_com_IIID@U_Recordset@@$1?_GUID_00000556_0000_0010_8000_00aa006d2ea4@@3U__s_GUID@@A@@@@PAUtagVARIANT@@0J@Z 10070920 f i ZEG_MSSQLServer_Connection.obj
 0001:0006f980       ?DoResult@ZEG_MSSQLServer_Connection@@AAE_NPBD@Z 10070980 f   ZEG_MSSQLServer_Connection.obj
 0001:0006fc20       ?ErrorMessage@_com_error@@QBEPBDXZ 10070c20 f i ZEG_MSSQLServer_Connection.obj
 0001:0006fcf0       ?QuerySql@ZEG_MSSQLServer_Connection@@QAE_NPBDPAPAVZEG_MSSQLServer_Result@@@Z 10070cf0 f   ZEG_MSSQLServer_Connection.obj
 0001:0006fd80       ?QueryResult@ZEG_MSSQLServer_Connection@@AAE_NPBDPAVZEG_MSSQLServer_Result@@@Z 10070d80 f   ZEG_MSSQLServer_Connection.obj
 0001:00070040       ?QueryCmd@ZEG_MSSQLServer_Connection@@AAE_NPBDPAVZEG_MSSQLServer_Result@@@Z 10071040 f   ZEG_MSSQLServer_Connection.obj
 0001:00070260       ?GetFreeResult@ZEG_MSSQLServer_Connection@@AAE_NPAPAVZEG_MSSQLServer_Result@@@Z 10071260 f   ZEG_MSSQLServer_Connection.obj
 0001:00070290       ?c_str@?$basic_string@DU?$char_traits@D@std@@V?$allocator@D@2@@std@@QBEPBDXZ 10071290 f i ZEG_MSSQLServer_Connection.obj
 0001:000702a0       ??1?$_com_ptr_t@V?$_com_IIID@U_Connection@@$1?_GUID_00000550_0000_0010_8000_00aa006d2ea4@@3U__s_GUID@@A@@@@QAE@XZ 100712a0 f i ZEG_MSSQLServer_Connection.obj
 0001:000702b0       ??C?$_com_ptr_t@V?$_com_IIID@U_Connection@@$1?_GUID_00000550_0000_0010_8000_00aa006d2ea4@@3U__s_GUID@@A@@@@QBEPAU_Connection@@XZ 100712b0 f i ZEG_MSSQLServer_Connection.obj
 0001:000702d0       ??8?$_com_ptr_t@V?$_com_IIID@U_Connection@@$1?_GUID_00000550_0000_0010_8000_00aa006d2ea4@@3U__s_GUID@@A@@@@QAE_NH@Z 100712d0 f i ZEG_MSSQLServer_Connection.obj
 0001:00070300       ??1?$_com_ptr_t@V?$_com_IIID@U_Recordset@@$1?_GUID_00000556_0000_0010_8000_00aa006d2ea4@@3U__s_GUID@@A@@@@QAE@XZ 10071300 f i ZEG_MSSQLServer_Connection.obj
 0001:00070310       ??1?$_com_ptr_t@V?$_com_IIID@U_Command@@$1?_GUID_b08400bd_f9d1_4d02_b856_71d5dba123e9@@3U__s_GUID@@A@@@@QAE@XZ 10071310 f i ZEG_MSSQLServer_Connection.obj
 0001:00070320       ??C?$_com_ptr_t@V?$_com_IIID@U_Command@@$1?_GUID_b08400bd_f9d1_4d02_b856_71d5dba123e9@@3U__s_GUID@@A@@@@QBEPAU_Command@@XZ 10071320 f i ZEG_MSSQLServer_Connection.obj
 0001:00070340       ??4?$_com_ptr_t@V?$_com_IIID@U_Connection@@$1?_GUID_00000550_0000_0010_8000_00aa006d2ea4@@3U__s_GUID@@A@@@@QAEAAV0@PAU_Connection@@@Z 10071340 f i ZEG_MSSQLServer_Connection.obj
 0001:00070370       ?CreateInstance@?$_com_ptr_t@V?$_com_IIID@U_Connection@@$1?_GUID_00000550_0000_0010_8000_00aa006d2ea4@@3U__s_GUID@@A@@@@QAEJPAGPAUIUnknown@@K@Z 10071370 f i ZEG_MSSQLServer_Connection.obj
 0001:00070450       ?CreateInstance@?$_com_ptr_t@V?$_com_IIID@U_Recordset@@$1?_GUID_00000556_0000_0010_8000_00aa006d2ea4@@3U__s_GUID@@A@@@@QAEJPAGPAUIUnknown@@K@Z 10071450 f i ZEG_MSSQLServer_Connection.obj
 0001:00070530       ?_AddRef@?$_com_ptr_t@V?$_com_IIID@U_Recordset@@$1?_GUID_00000556_0000_0010_8000_00aa006d2ea4@@3U__s_GUID@@A@@@@AAEXXZ 10071530 f i ZEG_MSSQLServer_Connection.obj
 0001:00070540       ?CreateInstance@?$_com_ptr_t@V?$_com_IIID@U_Command@@$1?_GUID_b08400bd_f9d1_4d02_b856_71d5dba123e9@@3U__s_GUID@@A@@@@QAEJPAGPAUIUnknown@@K@Z 10071540 f i ZEG_MSSQLServer_Connection.obj
 0001:00070620       ?append@?$basic_string@DU?$char_traits@D@std@@V?$allocator@D@2@@std@@QAEAAV12@ABV12@II@Z 10071620 f i ZEG_MSSQLServer_Connection.obj
 0001:00070700       ?append@?$basic_string@DU?$char_traits@D@std@@V?$allocator@D@2@@std@@QAEAAV12@PBDI@Z 10071700 f i ZEG_MSSQLServer_Connection.obj
 0001:000707c0       ?assign@?$basic_string@DU?$char_traits@D@std@@V?$allocator@D@2@@std@@QAEAAV12@PBDI@Z 100717c0 f i ZEG_MSSQLServer_Connection.obj
 0001:00070890       ?num_rows@ZEG_MSSQLServer_Result@@QBEHXZ 10071890 f   ZEG_MSSQLServer_Result.obj
 0001:00070940       ?num_fields@ZEG_MSSQLServer_Result@@QBEHXZ 10071940 f   ZEG_MSSQLServer_Result.obj
 0001:00070a10       ?GetFields@Recordset15@@QAE?AV?$_com_ptr_t@V?$_com_IIID@UFields@@$1?_GUID_00000564_0000_0010_8000_00aa006d2ea4@@3U__s_GUID@@A@@@@XZ 10071a10 f i ZEG_MSSQLServer_Result.obj
 0001:00070a60       ?data_seek@ZEG_MSSQLServer_Result@@QBEXIH@Z 10071a60 f   ZEG_MSSQLServer_Result.obj
 0001:00070c20       ?get_field_data@ZEG_MSSQLServer_Result@@QAE_NIPAXK@Z 10071c20 f   ZEG_MSSQLServer_Result.obj
 0001:00070db0       ?GetItem@Fields15@@QAE?AV?$_com_ptr_t@V?$_com_IIID@UField@@$1?_GUID_00000569_0000_0010_8000_00aa006d2ea4@@3U__s_GUID@@A@@@@ABV_variant_t@@@Z 10071db0 f i ZEG_MSSQLServer_Result.obj
 0001:00070e20       ?unuse@ZEG_MSSQLServer_Result@@QAEHXZ 10071e20 f   ZEG_MSSQLServer_Result.obj
 0001:00070f20       ??1?$_com_ptr_t@V?$_com_IIID@UFields@@$1?_GUID_00000564_0000_0010_8000_00aa006d2ea4@@3U__s_GUID@@A@@@@QAE@XZ 10071f20 f i ZEG_MSSQLServer_Result.obj
 0001:00070f30       ??1?$_com_ptr_t@V?$_com_IIID@UField@@$1?_GUID_00000569_0000_0010_8000_00aa006d2ea4@@3U__s_GUID@@A@@@@QAE@XZ 10071f30 f i ZEG_MSSQLServer_Result.obj
 0001:000710b0       ?GetGameTime@KSubWorldSet@@QAEHXZ 100720b0 f i stdafx.obj
 0001:000710c0       ?GetGameVersion@KSubWorldSet@@QAEHXZ 100720c0 f i stdafx.obj
 0001:000710d0       ??4KSubWorldSet@@QAEAAV0@ABV0@@Z 100720d0 f i stdafx.obj
 0001:000710f0       _GetLocalTime@4            100720f0 f   kernel32:KERNEL32.dll
 0001:000710f6       _GetModuleFileNameA@12     100720f6 f   kernel32:KERNEL32.dll
 0001:000710fc       _GetTickCount@0            100720fc f   kernel32:KERNEL32.dll
 0001:00071102       _FileTimeToSystemTime@8    10072102 f   kernel32:KERNEL32.dll
 0001:00071108       _LocalFileTimeToFileTime@8 10072108 f   kernel32:KERNEL32.dll
 0001:0007110e       _SystemTimeToFileTime@8    1007210e f   kernel32:KERNEL32.dll
 0001:00071114       _GetComputerNameA@8        10072114 f   kernel32:KERNEL32.dll
 0001:0007111a       _InterlockedDecrement@4    1007211a f   kernel32:KERNEL32.dll
 0001:00071120       _LocalAlloc@8              10072120 f   kernel32:KERNEL32.dll
 0001:00071126       _FormatMessageA@28         10072126 f   kernel32:KERNEL32.dll
 0001:0007112c       _GetLastError@0            1007212c f   kernel32:KERNEL32.dll
 0001:00071132       _MultiByteToWideChar@24    10072132 f   kernel32:KERNEL32.dll
 0001:00071138       _lstrlenA@4                10072138 f   kernel32:KERNEL32.dll
 0001:0007113e       _LocalFree@4               1007213e f   kernel32:KERNEL32.dll
 0001:00071144       _wsprintfA                 10072144 f   user32:USER32.dll
 0001:0007114a       _CoInitializeEx@8          1007214a f   ole32:ole32.dll
 0001:00071150       _CoUninitialize@0          10072150 f   ole32:ole32.dll
 0001:00071156       _OleRun@4                  10072156 f   ole32:ole32.dll
 0001:0007115c       _CoCreateInstance@20       1007215c f   ole32:ole32.dll
 0001:00071162       _CLSIDFromProgID@8         10072162 f   ole32:ole32.dll
 0001:00071168       _CLSIDFromString@8         10072168 f   ole32:ole32.dll
 0001:0007116e       _VariantClear@4            1007216e f   oleaut32:OLEAUT32.dll
 0001:00071174       _VariantInit@4             10072174 f   oleaut32:OLEAUT32.dll
 0001:0007117a       _SysFreeString@4           1007217a f   oleaut32:OLEAUT32.dll
 0001:00071180       _SysAllocString@4          10072180 f   oleaut32:OLEAUT32.dll
 0001:00071186       _VariantChangeType@16      10072186 f   oleaut32:OLEAUT32.dll
 0001:0007118c       _lua_tostring              1007218c f   lualibdll:LuaLibDll.dll
 0001:00071192       _lua_isstring              10072192 f   lualibdll:LuaLibDll.dll
 0001:00071198       _lua_tonumber              10072198 f   lualibdll:LuaLibDll.dll
 0001:0007119e       _lua_isnumber              1007219e f   lualibdll:LuaLibDll.dll
 0001:000711a4       _lua_typename              100721a4 f   lualibdll:LuaLibDll.dll
 0001:000711aa       _lua_gettop                100721aa f   lualibdll:LuaLibDll.dll
 0001:000711b0       _lua_pushnumber            100721b0 f   lualibdll:LuaLibDll.dll
 0001:000711b6       _lua_type                  100721b6 f   lualibdll:LuaLibDll.dll
 0001:000711bc       _lua_getglobal             100721bc f   lualibdll:LuaLibDll.dll
 0001:000711c2       _lua_rawget                100721c2 f   lualibdll:LuaLibDll.dll
 0001:000711c8       _lua_dofile                100721c8 f   lualibdll:LuaLibDll.dll
 0001:000711ce       _lua_pushnil               100721ce f   lualibdll:LuaLibDll.dll
 0001:000711d4       _lua_pushstring            100721d4 f   lualibdll:LuaLibDll.dll
 0001:000711da       _inet_addr@4               100721da f   Ws2_32:WS2_32.dll
 0001:000711e0       ?g_Random@@YAII@Z          100721e0 f   engine:Engine.dll
 0001:000711e6       ?g_FileName2Id@@YAKPAD@Z   100721e6 f   engine:Engine.dll
 0001:000711ec       ?GetString@KTabFile@@UAEHHPAD00KH@Z 100721ec f   engine:Engine.dll
 0001:000711f2       ?GetInteger@KTabFile@@UAEHHPADHPAHH@Z 100721f2 f   engine:Engine.dll
 0001:000711f8       ??1KTabFile@@UAE@XZ        100721f8 f   engine:Engine.dll
 0001:000711fe       ?Load@KTabFile@@UAEHPAD@Z  100721fe f   engine:Engine.dll
 0001:00071204       ??0KTabFile@@QAE@XZ        10072204 f   engine:Engine.dll
 0001:0007120a       ??1KLinkArray@@QAE@XZ      1007220a f   engine:Engine.dll
 0001:00071210       ?Insert@KLinkArray@@QAEXH@Z 10072210 f   engine:Engine.dll
 0001:00071216       ?Init@KLinkArray@@QAEXH@Z  10072216 f   engine:Engine.dll
 0001:0007121c       ?Remove@KLinkArray@@QAEXH@Z 1007221c f   engine:Engine.dll
 0001:00071222       ?SafeCallEnd@KLuaScript@@QAEXH@Z 10072222 f   engine:Engine.dll
 0001:00071228       ?SafeCallBegin@KLuaScript@@QAEXPAH@Z 10072228 f   engine:Engine.dll
 0001:0007122e       ?KSG_StringSkipSymbol@@YA_NPAPBDH@Z 1007222e f   engine:Engine.dll
 0001:00071234       ?KSG_StringGetInt@@YAHPAPBDH@Z 10072234 f   engine:Engine.dll
 0001:0007123a       ?GetString@KIniFile@@QAEHPBD00PADK@Z 1007223a f   engine:Engine.dll
 0001:00071240       ??1KIniFile@@QAE@XZ        10072240 f   engine:Engine.dll
 0001:00071246       ?Load@KIniFile@@QAEHPBD@Z  10072246 f   engine:Engine.dll
 0001:0007124c       ??0KIniFile@@QAE@XZ        1007224c f   engine:Engine.dll
 0001:00071252       ?g_StrCpyLen@@YAXPADPBDH@Z 10072252 f   engine:Engine.dll
 0001:00071258       ?GetString@KTabFile@@UAEHHHPAD0K@Z 10072258 f   engine:Engine.dll
 0001:0007125e       ?SetGlobalName@KLuaScript@@QAEXPAD@Z 1007225e f   engine:Engine.dll
 0001:00071264       ?GetInteger@KTabFile@@UAEHHHHPAH@Z 10072264 f   engine:Engine.dll
 0001:0007126a       ?GetShort@KIniFile@@QAEHPBD0FPAF@Z 1007226a f   engine:Engine.dll
 0001:00071270       ?GetInteger@KIniFile@@QAEHPBD0HPAH@Z 10072270 f   engine:Engine.dll
 0001:00071276       ?Clear@KIniFile@@QAEXXZ    10072276 f   engine:Engine.dll
 0001:0007127c       ?g_StrCmp@@YAHPBD0@Z       1007227c f   engine:Engine.dll
 0001:00071282       ?g_StrLower@@YAXPAD@Z      10072282 f   engine:Engine.dll
 0001:00071288       ?FindRow@KTabFile@@UAEHPADH@Z 10072288 f   engine:Engine.dll
 0001:0007128e       ?GetFloat@KTabFile@@UAEHHPADMPAMH@Z 1007228e f   engine:Engine.dll
 0001:00071294       ?GetGlobalName@KLuaScript@@QAEXPAD@Z 10072294 f   engine:Engine.dll
 0001:0007129a       ?g_StrCpy@@YAXPADPBD@Z     1007229a f   engine:Engine.dll
 0001:000712a0       ??0KLicense@@QAE@XZ        100722a0 f   engine:Engine.dll
 0001:000712a6       ??1KLicense@@QAE@XZ        100722a6 f   engine:Engine.dll
 0001:000712ac       ?g_UnitePathAndName@@YAXPAD00@Z 100722ac f   engine:Engine.dll
 0001:000712b2       ?g_SetRootPath@@YAXPAD@Z   100722b2 f   engine:Engine.dll
 0001:000712b8       ?g_GetRandomSeed@@YAIXZ    100722b8 f   engine:Engine.dll
 0001:000712be       ?g_RandomSeed@@YAXI@Z      100722be f   engine:Engine.dll
 0001:000712c4       ??0KPolygon@@QAE@XZ        100722c4 f   engine:Engine.dll
 0001:000712ca       ?Clear@KPolygon@@QAEXXZ    100722ca f   engine:Engine.dll
 0001:000712d0       ?GetCenterPos@KPolygon@@QAEXPAUtagPOINT@@@Z 100722d0 f   engine:Engine.dll
 0001:000712d6       ?IsPointInPolygon@KPolygon@@QAEHUtagPOINT@@@Z 100722d6 f   engine:Engine.dll
 0001:000712dc       ?Read@KPakFile@@QAEKPAXI@Z 100722dc f   engine:Engine.dll
 0001:000712e2       ??1KPakFile@@QAE@XZ        100722e2 f   engine:Engine.dll
 0001:000712e8       ?Close@KPakFile@@QAEXXZ    100722e8 f   engine:Engine.dll
 0001:000712ee       ?Size@KPakFile@@QAEKXZ     100722ee f   engine:Engine.dll
 0001:000712f4       ?Open@KPakFile@@QAEHPBD@Z  100722f4 f   engine:Engine.dll
 0001:000712fa       ??0KPakFile@@QAE@XZ        100722fa f   engine:Engine.dll
 0001:00071300       ?Seek@KPakFile@@QAEKHI@Z   10072300 f   engine:Engine.dll
 0001:00071306       ??0KLuaScript@@QAE@XZ      10072306 f   engine:Engine.dll
 0001:0007130c       ??1KLuaScript@@UAE@XZ      1007230c f   engine:Engine.dll
 0001:00071312       ?FindColumn@KTabFile@@UAEHPAD@Z 10072312 f   engine:Engine.dll
 0001:00071318       ?RegisterFunctions@KLuaScript@@QAEHQAUTLua_Funcs@@H@Z 10072318 f   engine:Engine.dll
 0001:0007131e       ?Init@KLuaScript@@UAEHXZ   1007231e f   engine:Engine.dll
 0001:00071324       ?g_FindDebugWindow@@YAPAUHWND__@@PAD0@Z 10072324 f   engine:Engine.dll
 0001:0007132a       ?GetRect@KIniFile@@QAEXPBD0PAUtagRECT@@@Z 1007232a f   engine:Engine.dll
 0001:00071330       ?g_SetFilePath@@YAXPAD@Z   10072330 f   engine:Engine.dll
 0001:00071336       ?GetFloat3@KIniFile@@QAEXPBD0PAM@Z 10072336 f   engine:Engine.dll
 0001:0007133c       ?Close@KPakList@@QAEXXZ    1007233c f   engine:Engine.dll
 0001:00071342       ??1KPakList@@QAE@XZ        10072342 f   engine:Engine.dll
 0001:00071348       ?Open@KPakList@@QAE_NPBD@Z 10072348 f   engine:Engine.dll
 0001:0007134e       ??0KPakList@@QAE@XZ        1007234e f   engine:Engine.dll
 0001:00071354       ?GetInteger2@KIniFile@@QAEXPBD0PAH1@Z 10072354 f   engine:Engine.dll
 0001:0007135a       ?g_GetFilePath@@YAXPAD@Z   1007235a f   engine:Engine.dll
 0001:00071360       ??0KScriptList@@QAE@XZ     10072360 f   engine:Engine.dll
 0001:00071366       ??1KScriptList@@QAE@XZ     10072366 f   engine:Engine.dll
 0001:0007136c       ?g_GetRootPath@@YAXPAD@Z   1007236c f   engine:Engine.dll
 0001:00071372       ?g_StrCat@@YAXPADPBD@Z     10072372 f   engine:Engine.dll
 0001:00071378       ?GetInteger@KTabFile@@UAEHPAD0HPAH@Z 10072378 f   engine:Engine.dll
 0001:0007137e       ?GetNext@KLinkArray@@QBEHH@Z 1007237e f   engine:Engine.dll
 0001:00071384       ?GetNextKey@KIniFile@@QAEHPBD0PAD@Z 10072384 f   engine:Engine.dll
 0001:0007138a       ?Save@KIniFile@@QAEHPBD@Z  1007238a f   engine:Engine.dll
 0001:00071390       ?WriteInteger@KIniFile@@QAEXPBD0H@Z 10072390 f   engine:Engine.dll
 0001:00071396       ?WriteString@KIniFile@@QAEXPBD00@Z 10072396 f   engine:Engine.dll
 0001:0007139c       ?g_GetFullPath@@YAXPAD0@Z  1007239c f   engine:Engine.dll
 0001:000713a2       ?Load@KLuaScript@@UAEHPAD@Z 100723a2 f   engine:Engine.dll
 0001:000713a8       ?Clear@KTabFile@@UAEXXZ    100723a8 f   engine:Engine.dll
 0001:000713ae       ?GetString@KTabFile@@UAEHPAD000K@Z 100723ae f   engine:Engine.dll
 0001:000713c0       ??0CBuffer@Win32@OnlineGameLib@@AAE@AAVAllocator@012@I@Z 100723c0 f   common:Buffer.obj
 0001:00071440       ??1COpaqueUserData@OnlineGameLib@@IAE@XZ 10072440 f i common:Buffer.obj
 0001:00071450       ??1CBuffer@Win32@OnlineGameLib@@AAE@XZ 10072450 f   common:Buffer.obj
 0001:000714b0       ?GetHeadPack@CBuffer@Win32@OnlineGameLib@@QAEPAV123@I@Z 100724b0 f   common:Buffer.obj
 0001:00071500       ?GetNextPack@CBuffer@Win32@OnlineGameLib@@QAEPAV123@XZ 10072500 f   common:Buffer.obj
 0001:00071550       ?AddData@CBuffer@Win32@OnlineGameLib@@QAEXQBDI@Z 10072550 f   common:Buffer.obj
 0001:00071670       ??1CException@Win32@OnlineGameLib@@UAE@XZ 10072670 f i common:Buffer.obj
 0001:000716f0       ??_ECException@Win32@OnlineGameLib@@UAEPAXI@Z 100726f0 f i common:Buffer.obj
 0001:000716f0       ??_GCException@Win32@OnlineGameLib@@UAEPAXI@Z 100726f0 f i common:Buffer.obj
 0001:00071710       ??0CException@Win32@OnlineGameLib@@QAE@ABV012@@Z 10072710 f i common:Buffer.obj
 0001:00071850       ?AddData@CBuffer@Win32@OnlineGameLib@@QAEXQBEI@Z 10072850 f   common:Buffer.obj
 0001:00071870       ?AddData@CBuffer@Win32@OnlineGameLib@@QAEXE@Z 10072870 f   common:Buffer.obj
 0001:00071880       ?SplitBuffer@CBuffer@Win32@OnlineGameLib@@QAEPAV123@I@Z 10072880 f   common:Buffer.obj
 0001:000718d0       ?AllocateNewBuffer@CBuffer@Win32@OnlineGameLib@@QBEPAV123@XZ 100728d0 f   common:Buffer.obj
 0001:000718e0       ?Release@CBuffer@Win32@OnlineGameLib@@QAEXXZ 100728e0 f   common:Buffer.obj
 0001:000719f0       ??2CBuffer@Win32@OnlineGameLib@@CAPAXII@Z 100729f0 f   common:Buffer.obj
 0001:00071a00       ??3CBuffer@Win32@OnlineGameLib@@CAXPAXI@Z 10072a00 f   common:Buffer.obj
 0001:00071a10       ??0Allocator@CBuffer@Win32@OnlineGameLib@@QAE@II@Z 10072a10 f   common:Buffer.obj
 0001:00071a50       ?OnBufferCreated@Allocator@CBuffer@Win32@OnlineGameLib@@EAEXXZ 10072a50 f i common:Buffer.obj
 0001:00071a60       ?OnBufferAllocated@Allocator@CBuffer@Win32@OnlineGameLib@@EAEXXZ 10072a60 f i common:Buffer.obj
 0001:00071a70       ?OnBufferReleased@Allocator@CBuffer@Win32@OnlineGameLib@@EAEXXZ 10072a70 f i common:Buffer.obj
 0001:00071a80       ??_GAllocator@CBuffer@Win32@OnlineGameLib@@UAEPAXI@Z 10072a80 f i common:Buffer.obj
 0001:00071a80       ??_EAllocator@CBuffer@Win32@OnlineGameLib@@UAEPAXI@Z 10072a80 f i common:Buffer.obj
 0001:00071aa0       ??1Allocator@CBuffer@Win32@OnlineGameLib@@UAE@XZ 10072aa0 f   common:Buffer.obj
 0001:00071b10       ??1CCriticalSection@Win32@OnlineGameLib@@QAE@XZ 10072b10 f i common:Buffer.obj
 0001:00071b20       ?Allocate@Allocator@CBuffer@Win32@OnlineGameLib@@QAEPAV234@XZ 10072b20 f   common:Buffer.obj
 0001:00071c80       ??1Owner@CCriticalSection@Win32@OnlineGameLib@@QAE@XZ 10072c80 f i common:Buffer.obj
 0001:00071c90       ?Flush@Allocator@CBuffer@Win32@OnlineGameLib@@IAEXXZ 10072c90 f   common:Buffer.obj
 0001:00071d30       ?DestroyBuffer@Allocator@CBuffer@Win32@OnlineGameLib@@AAEXPAV234@@Z 10072d30 f i common:Buffer.obj
 0001:00071d90       ?Release@Allocator@CBuffer@Win32@OnlineGameLib@@AAEXPAV234@@Z 10072d90 f   common:Buffer.obj
 0001:00071f00       ??0CPackager@Win32@OnlineGameLib@@QAE@II@Z 10072f00 f   common:Buffer.obj
 0001:00072090       ??_ECPackager@Win32@OnlineGameLib@@UAEPAXI@Z 10073090 f i common:Buffer.obj
 0001:00072090       ??_GCPackager@Win32@OnlineGameLib@@UAEPAXI@Z 10073090 f i common:Buffer.obj
 0001:000720b0       ??1?$map@EPAVCBuffer@Win32@OnlineGameLib@@U?$less@E@std@@V?$allocator@PAVCBuffer@Win32@OnlineGameLib@@@5@@std@@QAE@XZ 100730b0 f i common:Buffer.obj
 0001:00072120       ??1CPackager@Win32@OnlineGameLib@@UAE@XZ 10073120 f   common:Buffer.obj
 0001:00072250       ?AddData@CPackager@Win32@OnlineGameLib@@QAEXEQBDIK@Z 10073250 f   common:Buffer.obj
 0001:000723b0       ?AddData@CPackager@Win32@OnlineGameLib@@QAEXEQBEIK@Z 100733b0 f   common:Buffer.obj
 0001:000723d0       ?DelData@CPackager@Win32@OnlineGameLib@@QAEXE@Z 100733d0 f   common:Buffer.obj
 0001:000724f0       ?GetHeadPack@CPackager@Win32@OnlineGameLib@@QAEPAVCBuffer@23@EI@Z 100734f0 f   common:Buffer.obj
 0001:00072630       ?GetNextPack@CPackager@Win32@OnlineGameLib@@QAEPAVCBuffer@23@E@Z 10073630 f   common:Buffer.obj
 0001:00072760       ?PackUp@CPackager@Win32@OnlineGameLib@@QAEPAVCBuffer@23@PBXI@Z 10073760 f   common:Buffer.obj
 0001:000728b0       ?Empty@CPackager@Win32@OnlineGameLib@@QAEXXZ 100738b0 f   common:Buffer.obj
 0001:000729e0       ?insert@?$map@EPAVCBuffer@Win32@OnlineGameLib@@U?$less@E@std@@V?$allocator@PAVCBuffer@Win32@OnlineGameLib@@@5@@std@@QAE?AU?$pair@Viterator@?$_Tree@EU?$pair@$$CBEPAVCBuffer@Win32@OnlineGameLib@@@std@@U_Kfn@?$map@EPAVCBuffer@Win32@OnlineGameLib@@U?$less@E@std@@V?$allocator@PAVCBuffer@Win32@OnlineGameLib@@@5@@2@U?$less@E@2@V?$allocator@PAVCBuffer@Win32@OnlineGameLib@@@2@@std@@_N@2@ABU?$pair@$$CBEPAVCBuffer@Win32@OnlineGameLib@@@2@@Z 100739e0 f i common:Buffer.obj
 0001:00072a10       ?erase@?$_Tree@EU?$pair@$$CBEPAVCBuffer@Win32@OnlineGameLib@@@std@@U_Kfn@?$map@EPAVCBuffer@Win32@OnlineGameLib@@U?$less@E@std@@V?$allocator@PAVCBuffer@Win32@OnlineGameLib@@@5@@2@U?$less@E@2@V?$allocator@PAVCBuffer@Win32@OnlineGameLib@@@2@@std@@QAE?AViterator@12@V312@0@Z 10073a10 f i common:Buffer.obj
 0001:00072b40       ?find@?$_Tree@EU?$pair@$$CBEPAVCBuffer@Win32@OnlineGameLib@@@std@@U_Kfn@?$map@EPAVCBuffer@Win32@OnlineGameLib@@U?$less@E@std@@V?$allocator@PAVCBuffer@Win32@OnlineGameLib@@@5@@2@U?$less@E@2@V?$allocator@PAVCBuffer@Win32@OnlineGameLib@@@2@@std@@QAE?AViterator@12@ABE@Z 10073b40 f i common:Buffer.obj
 0001:00072b90       ?erase@?$basic_string@DU?$char_traits@D@std@@V?$allocator@D@2@@std@@QAEAAV12@II@Z 10073b90 f i common:Buffer.obj
 0001:00072cb0       ?insert@?$_Tree@EU?$pair@$$CBEPAVCBuffer@Win32@OnlineGameLib@@@std@@U_Kfn@?$map@EPAVCBuffer@Win32@OnlineGameLib@@U?$less@E@std@@V?$allocator@PAVCBuffer@Win32@OnlineGameLib@@@5@@2@U?$less@E@2@V?$allocator@PAVCBuffer@Win32@OnlineGameLib@@@2@@std@@QAE?AU?$pair@Viterator@?$_Tree@EU?$pair@$$CBEPAVCBuffer@Win32@OnlineGameLib@@@std@@U_Kfn@?$map@EPAVCBuffer@Win32@OnlineGameLib@@U?$less@E@std@@V?$allocator@PAVCBuffer@Win32@OnlineGameLib@@@5@@2@U?$less@E@2@V?$allocator@PAVCBuffer@Win32@OnlineGameLib@@@2@@std@@_N@2@ABU?$pair@$$CBEPAVCBuffer@Win32@OnlineGameLib@@@2@@Z 10073cb0 f i common:Buffer.obj
 0001:00072de0       ?erase@?$_Tree@EU?$pair@$$CBEPAVCBuffer@Win32@OnlineGameLib@@@std@@U_Kfn@?$map@EPAVCBuffer@Win32@OnlineGameLib@@U?$less@E@std@@V?$allocator@PAVCBuffer@Win32@OnlineGameLib@@@5@@2@U?$less@E@2@V?$allocator@PAVCBuffer@Win32@OnlineGameLib@@@2@@std@@QAE?AViterator@12@V312@@Z 10073de0 f i common:Buffer.obj
 0001:00073300       ?lower_bound@?$_Tree@EU?$pair@$$CBEPAVCBuffer@Win32@OnlineGameLib@@@std@@U_Kfn@?$map@EPAVCBuffer@Win32@OnlineGameLib@@U?$less@E@std@@V?$allocator@PAVCBuffer@Win32@OnlineGameLib@@@5@@2@U?$less@E@2@V?$allocator@PAVCBuffer@Win32@OnlineGameLib@@@2@@std@@QAE?AViterator@12@ABE@Z 10074300 f i common:Buffer.obj
 0001:00073320       ?_Erase@?$_Tree@EU?$pair@$$CBEPAVCBuffer@Win32@OnlineGameLib@@@std@@U_Kfn@?$map@EPAVCBuffer@Win32@OnlineGameLib@@U?$less@E@std@@V?$allocator@PAVCBuffer@Win32@OnlineGameLib@@@5@@2@U?$less@E@2@V?$allocator@PAVCBuffer@Win32@OnlineGameLib@@@2@@std@@IAEXPAU_Node@12@@Z 10074320 f i common:Buffer.obj
 0001:000733b0       ?_Inc@const_iterator@?$_Tree@EU?$pair@$$CBEPAVCBuffer@Win32@OnlineGameLib@@@std@@U_Kfn@?$map@EPAVCBuffer@Win32@OnlineGameLib@@U?$less@E@std@@V?$allocator@PAVCBuffer@Win32@OnlineGameLib@@@5@@2@U?$less@E@2@V?$allocator@PAVCBuffer@Win32@OnlineGameLib@@@2@@std@@QAEXXZ 100743b0 f i common:Buffer.obj
 0001:00073460       ??0?$pair@Viterator@?$_Tree@EU?$pair@$$CBEPAVCBuffer@Win32@OnlineGameLib@@@std@@U_Kfn@?$map@EPAVCBuffer@Win32@OnlineGameLib@@U?$less@E@std@@V?$allocator@PAVCBuffer@Win32@OnlineGameLib@@@5@@2@U?$less@E@2@V?$allocator@PAVCBuffer@Win32@OnlineGameLib@@@2@@std@@_N@std@@QAE@ABViterator@?$_Tree@EU?$pair@$$CBEPAVCBuffer@Win32@OnlineGameLib@@@std@@U_Kfn@?$map@EPAVCBuffer@Win32@OnlineGameLib@@U?$less@E@std@@V?$allocator@PAVCBuffer@Win32@OnlineGameLib@@@5@@2@U?$less@E@2@V?$allocator@PAVCBuffer@Win32@OnlineGameLib@@@2@@1@AB_N@Z 10074460 f i common:Buffer.obj
 0001:00073480       ?_Insert@?$_Tree@EU?$pair@$$CBEPAVCBuffer@Win32@OnlineGameLib@@@std@@U_Kfn@?$map@EPAVCBuffer@Win32@OnlineGameLib@@U?$less@E@std@@V?$allocator@PAVCBuffer@Win32@OnlineGameLib@@@5@@2@U?$less@E@2@V?$allocator@PAVCBuffer@Win32@OnlineGameLib@@@2@@std@@IAE?AViterator@12@PAU_Node@12@0ABU?$pair@$$CBEPAVCBuffer@Win32@OnlineGameLib@@@2@@Z 10074480 f i common:Buffer.obj
 0001:00073780       ?_Lbound@?$_Tree@EU?$pair@$$CBEPAVCBuffer@Win32@OnlineGameLib@@@std@@U_Kfn@?$map@EPAVCBuffer@Win32@OnlineGameLib@@U?$less@E@std@@V?$allocator@PAVCBuffer@Win32@OnlineGameLib@@@5@@2@U?$less@E@2@V?$allocator@PAVCBuffer@Win32@OnlineGameLib@@@2@@std@@IBEPAU_Node@12@ABE@Z 10074780 f i common:Buffer.obj
 0001:000737d0       ?_Ubound@?$_Tree@EU?$pair@$$CBEPAVCBuffer@Win32@OnlineGameLib@@@std@@U_Kfn@?$map@EPAVCBuffer@Win32@OnlineGameLib@@U?$less@E@std@@V?$allocator@PAVCBuffer@Win32@OnlineGameLib@@@5@@2@U?$less@E@2@V?$allocator@PAVCBuffer@Win32@OnlineGameLib@@@2@@std@@IBEPAU_Node@12@ABE@Z 100747d0 f i common:Buffer.obj
 0001:00073820       ?_Dec@const_iterator@?$_Tree@EU?$pair@$$CBEPAVCBuffer@Win32@OnlineGameLib@@@std@@U_Kfn@?$map@EPAVCBuffer@Win32@OnlineGameLib@@U?$less@E@std@@V?$allocator@PAVCBuffer@Win32@OnlineGameLib@@@5@@2@U?$less@E@2@V?$allocator@PAVCBuffer@Win32@OnlineGameLib@@@2@@std@@QAEXXZ 10074820 f i common:Buffer.obj
 0001:000738e0       ?_Construct@std@@YAXPAU?$pair@$$CBEPAVCBuffer@Win32@OnlineGameLib@@@1@ABU21@@Z 100748e0 f i common:Buffer.obj
 0001:00073900       ?_Distance@std@@YAXViterator@?$_Tree@EU?$pair@$$CBEPAVCBuffer@Win32@OnlineGameLib@@@std@@U_Kfn@?$map@EPAVCBuffer@Win32@OnlineGameLib@@U?$less@E@std@@V?$allocator@PAVCBuffer@Win32@OnlineGameLib@@@5@@2@U?$less@E@2@V?$allocator@PAVCBuffer@Win32@OnlineGameLib@@@2@@1@0AAIUbidirectional_iterator_tag@1@@Z 10074900 f i common:Buffer.obj
 0001:00073960       ??0CNodeList@OnlineGameLib@@QAE@XZ 10074960 f   common:NodeList.obj
 0001:00073970       ?PushNode@CNodeList@OnlineGameLib@@QAEXPAVNode@12@@Z 10074970 f   common:NodeList.obj
 0001:000739a0       ?PopNode@CNodeList@OnlineGameLib@@QAEPAVNode@12@XZ 100749a0 f   common:NodeList.obj
 0001:000739c0       ?RemoveNode@CNodeList@OnlineGameLib@@AAEXPAVNode@12@@Z 100749c0 f   common:NodeList.obj
 0001:000739e0       ??0Node@CNodeList@OnlineGameLib@@IAE@XZ 100749e0 f   common:NodeList.obj
 0001:000739f0       ??1Node@CNodeList@OnlineGameLib@@IAE@XZ 100749f0 f   common:NodeList.obj
 0001:00073a50       ?AddToList@Node@CNodeList@OnlineGameLib@@QAEXPAV23@@Z 10074a50 f   common:NodeList.obj
 0001:00073a60       ?RemoveFromList@Node@CNodeList@OnlineGameLib@@QAEXXZ 10074a60 f   common:NodeList.obj
 0001:00073a70       ?Unlink@Node@CNodeList@OnlineGameLib@@AAEXXZ 10074a70 f   common:NodeList.obj
 0001:00073aa0       ??0CException@Win32@OnlineGameLib@@QAE@ABV?$basic_string@DU?$char_traits@D@std@@V?$allocator@D@2@@std@@0@Z 10074aa0 f   common:Exception.obj
 0001:00073bd0       ?GetWhere@CException@Win32@OnlineGameLib@@UBE?AV?$basic_string@DU?$char_traits@D@std@@V?$allocator@D@2@@std@@XZ 10074bd0 f   common:Exception.obj
 0001:00073d00       ?GetMessageA@CException@Win32@OnlineGameLib@@UBE?AV?$basic_string@DU?$char_traits@D@std@@V?$allocator@D@2@@std@@XZ 10074d00 f   common:Exception.obj
 0001:00073e30       ?MessageBoxA@CException@Win32@OnlineGameLib@@QBEXPAUHWND__@@@Z 10074e30 f   common:Exception.obj
 0001:00073f40       ??3@YAXPAX@Z               10074f40 f   libcpmt:delop.obj
 0001:00073fd4       ??_D?$basic_istream@DU?$char_traits@D@std@@@std@@QAEXXZ 10074fd4 f i libcpmt:iostream.obj
 0001:00074018       ??_D?$basic_ostream@DU?$char_traits@D@std@@@std@@QAEXXZ 10075018 f i libcpmt:iostream.obj
 0001:000740b8       ??0Init@ios_base@std@@QAE@XZ 100750b8 f   libcpmt:iostream.obj
 0001:00074237       ??1Init@ios_base@std@@QAE@XZ 10075237 f   libcpmt:iostream.obj
 0001:0007427a       ??0?$basic_ostream@DU?$char_traits@D@std@@@std@@QAE@PAV?$basic_streambuf@DU?$char_traits@D@std@@@1@_N1@Z 1007527a f i libcpmt:iostream.obj
 0001:000742e4       ??0?$basic_ostream@DU?$char_traits@D@std@@@std@@QAE@W4_Uninitialized@1@@Z 100752e4 f i libcpmt:iostream.obj
 0001:00074343       ?flush@?$basic_ostream@DU?$char_traits@D@std@@@std@@QAEAAV12@XZ 10075343 f i libcpmt:iostream.obj
 0001:0007438d       ??1?$basic_ios@DU?$char_traits@D@std@@@std@@UAE@XZ 1007538d f i libcpmt:iostream.obj
 0001:00074398       ??0?$basic_istream@DU?$char_traits@D@std@@@std@@QAE@PAV?$basic_streambuf@DU?$char_traits@D@std@@@1@_N@Z 10075398 f i libcpmt:iostream.obj
 0001:00074400       ??0?$basic_istream@DU?$char_traits@D@std@@@std@@QAE@W4_Uninitialized@1@@Z 10075400 f i libcpmt:iostream.obj
 0001:0007445f       ??0?$basic_filebuf@DU?$char_traits@D@std@@@std@@QAE@PAU_iobuf@@@Z 1007545f f i libcpmt:iostream.obj
 0001:000744bf       ??0locale@std@@QAE@XZ      100754bf f i libcpmt:iostream.obj
 0001:000744ed       ?_Incref@facet@locale@std@@QAEXXZ 100754ed f i libcpmt:iostream.obj
 0001:00074513       ??1locale@std@@QAE@XZ      10075513 f i libcpmt:iostream.obj
 0001:0007452b       ?_Decref@facet@locale@std@@QAEPAV123@XZ 1007552b f i libcpmt:iostream.obj
 0001:00074564       ??1?$basic_streambuf@DU?$char_traits@D@std@@@std@@UAE@XZ 10075564 f i libcpmt:iostream.obj
 0001:00074572       ?overflow@?$basic_streambuf@DU?$char_traits@D@std@@@std@@MAEHH@Z 10075572 f i libcpmt:iostream.obj
 0001:00074578       ?pbackfail@?$basic_streambuf@DU?$char_traits@D@std@@@std@@MAEHH@Z 10075578 f i libcpmt:iostream.obj
 0001:0007457e       ?showmanyc@?$basic_streambuf@DU?$char_traits@D@std@@@std@@MAEHXZ 1007557e f i libcpmt:iostream.obj
 0001:00074581       ?underflow@?$basic_streambuf@DU?$char_traits@D@std@@@std@@MAEHXZ 10075581 f i libcpmt:iostream.obj
 0001:00074585       ?uflow@?$basic_streambuf@DU?$char_traits@D@std@@@std@@MAEHXZ 10075585 f i libcpmt:iostream.obj
 0001:000745a2       ?xsgetn@?$basic_streambuf@DU?$char_traits@D@std@@@std@@MAEHPADH@Z 100755a2 f i libcpmt:iostream.obj
 0001:00074616       ?xsputn@?$basic_streambuf@DU?$char_traits@D@std@@@std@@MAEHPBDH@Z 10075616 f i libcpmt:iostream.obj
 0001:0007468c       ?seekoff@?$basic_streambuf@DU?$char_traits@D@std@@@std@@MAE?AV?$fpos@H@2@JW4seekdir@ios_base@2@H@Z 1007568c f i libcpmt:iostream.obj
 0001:000746b0       ?seekpos@?$basic_streambuf@DU?$char_traits@D@std@@@std@@MAE?AV?$fpos@H@2@V32@H@Z 100756b0 f i libcpmt:iostream.obj
 0001:000746d4       ?setbuf@?$basic_streambuf@DU?$char_traits@D@std@@@std@@MAEPAV12@PADH@Z 100756d4 f i libcpmt:iostream.obj
 0001:000746d9       ?sync@?$basic_streambuf@DU?$char_traits@D@std@@@std@@MAEHXZ 100756d9 f i libcpmt:iostream.obj
 0001:000746dc       ?imbue@?$basic_streambuf@DU?$char_traits@D@std@@@std@@MAEXABVlocale@2@@Z 100756dc f i libcpmt:iostream.obj
 0001:000746df       ??0?$basic_filebuf@DU?$char_traits@D@std@@@std@@QAE@W4_Uninitialized@1@@Z 100756df f i libcpmt:iostream.obj
 0001:000746ea       ??1?$basic_filebuf@DU?$char_traits@D@std@@@std@@UAE@XZ 100756ea f i libcpmt:iostream.obj
 0001:0007474f       ?overflow@?$basic_filebuf@DU?$char_traits@D@std@@@std@@MAEHH@Z 1007574f f i libcpmt:iostream.obj
 0001:00074885       ?pbackfail@?$basic_filebuf@DU?$char_traits@D@std@@@std@@MAEHH@Z 10075885 f i libcpmt:iostream.obj
 0001:00074932       ?underflow@?$basic_filebuf@DU?$char_traits@D@std@@@std@@MAEHXZ 10075932 f i libcpmt:iostream.obj
 0001:0007495f       ?uflow@?$basic_filebuf@DU?$char_traits@D@std@@@std@@MAEHXZ 1007595f f i libcpmt:iostream.obj
 0001:00074a74       ?seekoff@?$basic_filebuf@DU?$char_traits@D@std@@@std@@MAE?AV?$fpos@H@2@JW4seekdir@ios_base@2@H@Z 10075a74 f i libcpmt:iostream.obj
 0001:00074ae3       ?seekpos@?$basic_filebuf@DU?$char_traits@D@std@@@std@@MAE?AV?$fpos@H@2@V32@H@Z 10075ae3 f i libcpmt:iostream.obj
 0001:00074b92       ?setbuf@?$basic_filebuf@DU?$char_traits@D@std@@@std@@MAEPAV?$basic_streambuf@DU?$char_traits@D@std@@@2@PADH@Z 10075b92 f i libcpmt:iostream.obj
 0001:00074bbd       ?sync@?$basic_filebuf@DU?$char_traits@D@std@@@std@@MAEHXZ 10075bbd f i libcpmt:iostream.obj
 0001:00074bd6       ??_G?$basic_ostream@DU?$char_traits@D@std@@@std@@UAEPAXI@Z 10075bd6 f i libcpmt:iostream.obj
 0001:00074bd6       ??_E?$basic_ostream@DU?$char_traits@D@std@@@std@@UAEPAXI@Z 10075bd6 f i libcpmt:iostream.obj
 0001:00074bf5       ??_E?$basic_ios@DU?$char_traits@D@std@@@std@@UAEPAXI@Z 10075bf5 f i libcpmt:iostream.obj
 0001:00074bf5       ??_G?$basic_ios@DU?$char_traits@D@std@@@std@@UAEPAXI@Z 10075bf5 f i libcpmt:iostream.obj
 0001:00074c11       ??_G?$basic_istream@DU?$char_traits@D@std@@@std@@UAEPAXI@Z 10075c11 f i libcpmt:iostream.obj
 0001:00074c11       ??_E?$basic_istream@DU?$char_traits@D@std@@@std@@UAEPAXI@Z 10075c11 f i libcpmt:iostream.obj
 0001:00074c30       ??_E?$basic_streambuf@DU?$char_traits@D@std@@@std@@UAEPAXI@Z 10075c30 f i libcpmt:iostream.obj
 0001:00074c30       ??_G?$basic_streambuf@DU?$char_traits@D@std@@@std@@UAEPAXI@Z 10075c30 f i libcpmt:iostream.obj
 0001:00074c4c       ??_E?$basic_filebuf@DU?$char_traits@D@std@@@std@@UAEPAXI@Z 10075c4c f i libcpmt:iostream.obj
 0001:00074c4c       ??_G?$basic_filebuf@DU?$char_traits@D@std@@@std@@UAEPAXI@Z 10075c4c f i libcpmt:iostream.obj
 0001:00074c68       ?append@?$basic_string@DU?$char_traits@D@std@@V?$allocator@D@2@@std@@QAEAAV12@ID@Z 10075c68 f i libcpmt:iostream.obj
 0001:00074cc1       ?init@?$basic_ios@DU?$char_traits@D@std@@@std@@IAEXPAV?$basic_streambuf@DU?$char_traits@D@std@@@2@_N@Z 10075cc1 f i libcpmt:iostream.obj
 0001:00074d01       ??0?$fpos@H@std@@QAE@J@Z   10075d01 f i libcpmt:iostream.obj
 0001:00074d3b       ?_Gndec@?$basic_streambuf@DU?$char_traits@D@std@@@std@@IAEPADXZ 10075d3b f i libcpmt:iostream.obj
 0001:00074d4b       ?_Gninc@?$basic_streambuf@DU?$char_traits@D@std@@@std@@IAEPADXZ 10075d4b f i libcpmt:iostream.obj
 0001:00074d5b       ?_Pninc@?$basic_streambuf@DU?$char_traits@D@std@@@std@@IAEPADXZ 10075d5b f i libcpmt:iostream.obj
 0001:00074d6b       ?close@?$basic_filebuf@DU?$char_traits@D@std@@@std@@QAEPAV12@XZ 10075d6b f i libcpmt:iostream.obj
 0001:00074d92       ?_Init@?$basic_filebuf@DU?$char_traits@D@std@@@std@@IAEXPAU_iobuf@@W4_Initfl@12@@Z 10075d92 f i libcpmt:iostream.obj
 0001:00074e0a       ?_Freeze@?$basic_string@DU?$char_traits@D@std@@V?$allocator@D@2@@std@@AAEXXZ 10075e0a f i libcpmt:iostream.obj
 0001:00074e36       ?_Init@?$basic_streambuf@DU?$char_traits@D@std@@@std@@IAEXXZ 10075e36 f i libcpmt:iostream.obj
 0001:00074e78       ?_Ungetc@std@@YA_NABDPAU_iobuf@@I@Z 10075e78 f i libcpmt:iostream.obj
 0001:00074f07       ?id@?$collate@D@std@@$E    10075f07 f i libcpmt:iostream.obj
 0001:00075012       ??_D?$basic_istream@GU?$char_traits@G@std@@@std@@QAEXXZ 10076012 f i libcpmt:wiostrea.obj
 0001:00075056       ??_D?$basic_ostream@GU?$char_traits@G@std@@@std@@QAEXXZ 10076056 f i libcpmt:wiostrea.obj
 0001:000750c9       ??0_Winit@std@@QAE@XZ      100760c9 f   libcpmt:wiostrea.obj
 0001:0007524a       ??1_Winit@std@@QAE@XZ      1007624a f   libcpmt:wiostrea.obj
 0001:0007528d       ??0?$basic_ostream@GU?$char_traits@G@std@@@std@@QAE@PAV?$basic_streambuf@GU?$char_traits@G@std@@@1@_N1@Z 1007628d f i libcpmt:wiostrea.obj
 0001:000752f7       ??0?$basic_ostream@GU?$char_traits@G@std@@@std@@QAE@W4_Uninitialized@1@@Z 100762f7 f i libcpmt:wiostrea.obj
 0001:00075356       ?flush@?$basic_ostream@GU?$char_traits@G@std@@@std@@QAEAAV12@XZ 10076356 f i libcpmt:wiostrea.obj
 0001:000753a0       ??1?$basic_ios@GU?$char_traits@G@std@@@std@@UAE@XZ 100763a0 f i libcpmt:wiostrea.obj
 0001:000753ab       ??0?$basic_istream@GU?$char_traits@G@std@@@std@@QAE@PAV?$basic_streambuf@GU?$char_traits@G@std@@@1@_N@Z 100763ab f i libcpmt:wiostrea.obj
 0001:00075413       ??0?$basic_istream@GU?$char_traits@G@std@@@std@@QAE@W4_Uninitialized@1@@Z 10076413 f i libcpmt:wiostrea.obj
 0001:00075472       ??0?$basic_filebuf@GU?$char_traits@G@std@@@std@@QAE@PAU_iobuf@@@Z 10076472 f i libcpmt:wiostrea.obj
 0001:000754d2       ??1?$basic_streambuf@GU?$char_traits@G@std@@@std@@UAE@XZ 100764d2 f i libcpmt:wiostrea.obj
 0001:000754e0       ?overflow@?$basic_streambuf@GU?$char_traits@G@std@@@std@@MAEGG@Z 100764e0 f i libcpmt:wiostrea.obj
 0001:000754e7       ?pbackfail@?$basic_streambuf@GU?$char_traits@G@std@@@std@@MAEGG@Z 100764e7 f i libcpmt:wiostrea.obj
 0001:000754ee       ?showmanyc@?$basic_streambuf@GU?$char_traits@G@std@@@std@@MAEHXZ 100764ee f i libcpmt:wiostrea.obj
 0001:000754f1       ?underflow@?$basic_streambuf@GU?$char_traits@G@std@@@std@@MAEGXZ 100764f1 f i libcpmt:wiostrea.obj
 0001:000754f6       ?uflow@?$basic_streambuf@GU?$char_traits@G@std@@@std@@MAEGXZ 100764f6 f i libcpmt:wiostrea.obj
 0001:00075517       ?xsgetn@?$basic_streambuf@GU?$char_traits@G@std@@@std@@MAEHPAGH@Z 10076517 f i libcpmt:wiostrea.obj
 0001:0007559e       ?xsputn@?$basic_streambuf@GU?$char_traits@G@std@@@std@@MAEHPBGH@Z 1007659e f i libcpmt:wiostrea.obj
 0001:00075626       ?seekoff@?$basic_streambuf@GU?$char_traits@G@std@@@std@@MAE?AV?$fpos@H@2@JW4seekdir@ios_base@2@H@Z 10076626 f i libcpmt:wiostrea.obj
 0001:0007564a       ?seekpos@?$basic_streambuf@GU?$char_traits@G@std@@@std@@MAE?AV?$fpos@H@2@V32@H@Z 1007664a f i libcpmt:wiostrea.obj
 0001:0007566e       ?setbuf@?$basic_streambuf@GU?$char_traits@G@std@@@std@@MAEPAV12@PAGH@Z 1007666e f i libcpmt:wiostrea.obj
 0001:00075673       ?sync@?$basic_streambuf@GU?$char_traits@G@std@@@std@@MAEHXZ 10076673 f i libcpmt:wiostrea.obj
 0001:00075676       ?imbue@?$basic_streambuf@GU?$char_traits@G@std@@@std@@MAEXABVlocale@2@@Z 10076676 f i libcpmt:wiostrea.obj
 0001:00075679       ??0?$basic_filebuf@GU?$char_traits@G@std@@@std@@QAE@W4_Uninitialized@1@@Z 10076679 f i libcpmt:wiostrea.obj
 0001:00075684       ??1?$basic_filebuf@GU?$char_traits@G@std@@@std@@UAE@XZ 10076684 f i libcpmt:wiostrea.obj
 0001:000756e9       ?overflow@?$basic_filebuf@GU?$char_traits@G@std@@@std@@MAEGG@Z 100766e9 f i libcpmt:wiostrea.obj
 0001:00075831       ?pbackfail@?$basic_filebuf@GU?$char_traits@G@std@@@std@@MAEGG@Z 10076831 f i libcpmt:wiostrea.obj
 0001:000758e8       ?underflow@?$basic_filebuf@GU?$char_traits@G@std@@@std@@MAEGXZ 100768e8 f i libcpmt:wiostrea.obj
 0001:00075916       ?uflow@?$basic_filebuf@GU?$char_traits@G@std@@@std@@MAEGXZ 10076916 f i libcpmt:wiostrea.obj
 0001:00075a34       ?seekoff@?$basic_filebuf@GU?$char_traits@G@std@@@std@@MAE?AV?$fpos@H@2@JW4seekdir@ios_base@2@H@Z 10076a34 f i libcpmt:wiostrea.obj
 0001:00075aa3       ?seekpos@?$basic_filebuf@GU?$char_traits@G@std@@@std@@MAE?AV?$fpos@H@2@V32@H@Z 10076aa3 f i libcpmt:wiostrea.obj
 0001:00075b52       ?setbuf@?$basic_filebuf@GU?$char_traits@G@std@@@std@@MAEPAV?$basic_streambuf@GU?$char_traits@G@std@@@2@PAGH@Z 10076b52 f i libcpmt:wiostrea.obj
 0001:00075b80       ?sync@?$basic_filebuf@GU?$char_traits@G@std@@@std@@MAEHXZ 10076b80 f i libcpmt:wiostrea.obj
 0001:00075b99       ??_E?$basic_ostream@GU?$char_traits@G@std@@@std@@UAEPAXI@Z 10076b99 f i libcpmt:wiostrea.obj
 0001:00075b99       ??_G?$basic_ostream@GU?$char_traits@G@std@@@std@@UAEPAXI@Z 10076b99 f i libcpmt:wiostrea.obj
 0001:00075bb8       ??_G?$basic_ios@GU?$char_traits@G@std@@@std@@UAEPAXI@Z 10076bb8 f i libcpmt:wiostrea.obj
 0001:00075bb8       ??_E?$basic_ios@GU?$char_traits@G@std@@@std@@UAEPAXI@Z 10076bb8 f i libcpmt:wiostrea.obj
 0001:00075bd4       ??_G?$basic_istream@GU?$char_traits@G@std@@@std@@UAEPAXI@Z 10076bd4 f i libcpmt:wiostrea.obj
 0001:00075bd4       ??_E?$basic_istream@GU?$char_traits@G@std@@@std@@UAEPAXI@Z 10076bd4 f i libcpmt:wiostrea.obj
 0001:00075bf3       ??_G?$basic_streambuf@GU?$char_traits@G@std@@@std@@UAEPAXI@Z 10076bf3 f i libcpmt:wiostrea.obj
 0001:00075bf3       ??_E?$basic_streambuf@GU?$char_traits@G@std@@@std@@UAEPAXI@Z 10076bf3 f i libcpmt:wiostrea.obj
 0001:00075c0f       ??_E?$basic_filebuf@GU?$char_traits@G@std@@@std@@UAEPAXI@Z 10076c0f f i libcpmt:wiostrea.obj
 0001:00075c0f       ??_G?$basic_filebuf@GU?$char_traits@G@std@@@std@@UAEPAXI@Z 10076c0f f i libcpmt:wiostrea.obj
 0001:00075c2b       ?init@?$basic_ios@GU?$char_traits@G@std@@@std@@IAEXPAV?$basic_streambuf@GU?$char_traits@G@std@@@2@_N@Z 10076c2b f i libcpmt:wiostrea.obj
 0001:00075c75       ?gbump@?$basic_streambuf@GU?$char_traits@G@std@@@std@@IAEXH@Z 10076c75 f i libcpmt:wiostrea.obj
 0001:00075c89       ?_Gndec@?$basic_streambuf@GU?$char_traits@G@std@@@std@@IAEPAGXZ 10076c89 f i libcpmt:wiostrea.obj
 0001:00075c9a       ?_Gninc@?$basic_streambuf@GU?$char_traits@G@std@@@std@@IAEPAGXZ 10076c9a f i libcpmt:wiostrea.obj
 0001:00075caa       ?pbump@?$basic_streambuf@GU?$char_traits@G@std@@@std@@IAEXH@Z 10076caa f i libcpmt:wiostrea.obj
 0001:00075cbe       ?_Pninc@?$basic_streambuf@GU?$char_traits@G@std@@@std@@IAEPAGXZ 10076cbe f i libcpmt:wiostrea.obj
 0001:00075cce       ?close@?$basic_filebuf@GU?$char_traits@G@std@@@std@@QAEPAV12@XZ 10076cce f i libcpmt:wiostrea.obj
 0001:00075cf5       ?_Init@?$basic_filebuf@GU?$char_traits@G@std@@@std@@IAEXPAU_iobuf@@W4_Initfl@12@@Z 10076cf5 f i libcpmt:wiostrea.obj
 0001:00075d4b       ?_Init@?$basic_streambuf@GU?$char_traits@G@std@@@std@@IAEXXZ 10076d4b f i libcpmt:wiostrea.obj
 0001:00075dcf       ?_Xlen@std@@YAXXZ          10076dcf f   libcpmt:string.obj
 0001:00075e29       ??0logic_error@std@@QAE@ABV?$basic_string@DU?$char_traits@D@std@@V?$allocator@D@2@@1@@Z 10076e29 f i libcpmt:string.obj
 0001:00075e8d       ?what@logic_error@std@@UBEPBDXZ 10076e8d f i libcpmt:string.obj
 0001:00075e9a       ?_Doraise@logic_error@std@@MBEXXZ 10076e9a f i libcpmt:string.obj
 0001:00075eb7       ??1logic_error@std@@UAE@XZ 10076eb7 f i libcpmt:string.obj
 0001:00075ef4       ??_Elogic_error@std@@UAEPAXI@Z 10076ef4 f i libcpmt:string.obj
 0001:00075ef4       ??_Glogic_error@std@@UAEPAXI@Z 10076ef4 f i libcpmt:string.obj
 0001:00075f10       ??0logic_error@std@@QAE@ABV01@@Z 10076f10 f i libcpmt:string.obj
 0001:00075f6d       ??1length_error@std@@UAE@XZ 10076f6d f i libcpmt:string.obj
 0001:00075faa       ?_Doraise@length_error@std@@MBEXXZ 10076faa f i libcpmt:string.obj
 0001:00075fc7       ??_Glength_error@std@@UAEPAXI@Z 10076fc7 f i libcpmt:string.obj
 0001:00075fc7       ??_Elength_error@std@@UAEPAXI@Z 10076fc7 f i libcpmt:string.obj
 0001:00075fe3       ??0length_error@std@@QAE@ABV01@@Z 10076fe3 f i libcpmt:string.obj
 0001:00075ffb       ?_Xran@std@@YAXXZ          10076ffb f   libcpmt:string.obj
 0001:00076055       ??1out_of_range@std@@UAE@XZ 10077055 f i libcpmt:string.obj
 0001:00076092       ?_Doraise@out_of_range@std@@MBEXXZ 10077092 f i libcpmt:string.obj
 0001:000760af       ??_Eout_of_range@std@@UAEPAXI@Z 100770af f i libcpmt:string.obj
 0001:000760af       ??_Gout_of_range@std@@UAEPAXI@Z 100770af f i libcpmt:string.obj
 0001:000760cb       ??0out_of_range@std@@QAE@ABV01@@Z 100770cb f i libcpmt:string.obj
 0001:00076125       ??0_Lockit@std@@QAE@XZ     10077125 f   libcpmt:xlock.obj
 0001:000761c1       ??1_Lockit@std@@QAE@XZ     100771c1 f   libcpmt:xlock.obj
 0001:000761d6       ?clear@ios_base@std@@QAEXH_N@Z 100771d6 f   libcpmt:ios.obj
 0001:00076272       ??0runtime_error@std@@QAE@ABV?$basic_string@DU?$char_traits@D@std@@V?$allocator@D@2@@1@@Z 10077272 f i libcpmt:ios.obj
 0001:000762d6       ?what@runtime_error@std@@UBEPBDXZ 100772d6 f i libcpmt:ios.obj
 0001:000762e3       ?_Doraise@runtime_error@std@@MBEXXZ 100772e3 f i libcpmt:ios.obj
 0001:00076300       ??1runtime_error@std@@UAE@XZ 10077300 f i libcpmt:ios.obj
 0001:0007633d       ??_Gruntime_error@std@@UAEPAXI@Z 1007733d f i libcpmt:ios.obj
 0001:0007633d       ??_Eruntime_error@std@@UAEPAXI@Z 1007733d f i libcpmt:ios.obj
 0001:00076359       ??0runtime_error@std@@QAE@ABV01@@Z 10077359 f i libcpmt:ios.obj
 0001:000763b6       ??1failure@ios_base@std@@UAE@XZ 100773b6 f i libcpmt:ios.obj
 0001:000763f3       ?_Doraise@failure@ios_base@std@@MBEXXZ 100773f3 f i libcpmt:ios.obj
 0001:00076410       ??_Efailure@ios_base@std@@UAEPAXI@Z 10077410 f i libcpmt:ios.obj
 0001:00076410       ??_Gfailure@ios_base@std@@UAEPAXI@Z 10077410 f i libcpmt:ios.obj
 0001:0007642c       ??0failure@ios_base@std@@QAE@ABV012@@Z 1007742c f i libcpmt:ios.obj
 0001:00076444       ?copyfmt@ios_base@std@@QAEAAV12@ABV12@@Z 10077444 f   libcpmt:ios.obj
 0001:000764d5       ??4locale@std@@QAEAAV01@ABV01@@Z 100774d5 f i libcpmt:ios.obj
 0001:00076504       ?imbue@ios_base@std@@QAE?AVlocale@2@ABV32@@Z 10077504 f   libcpmt:ios.obj
 0001:00076563       ?register_callback@ios_base@std@@QAEXP6AXW4event@12@AAV12@H@ZH@Z 10077563 f   libcpmt:ios.obj
 0001:00076599       ??1ios_base@std@@UAE@XZ    10077599 f   libcpmt:ios.obj
 0001:000765e9       ??_Gios_base@std@@UAEPAXI@Z 100775e9 f i libcpmt:ios.obj
 0001:000765e9       ??_Eios_base@std@@UAEPAXI@Z 100775e9 f i libcpmt:ios.obj
 0001:00076605       ?_Callfns@ios_base@std@@AAEXW4event@12@@Z 10077605 f   libcpmt:ios.obj
 0001:00076627       ?_Findarr@ios_base@std@@AAEAAU_Iosarray@12@H@Z 10077627 f   libcpmt:ios.obj
 0001:000766f8       ?_Addstd@ios_base@std@@IAEXXZ 100776f8 f   libcpmt:ios.obj
 0001:00076746       ?_Init@ios_base@std@@IAEXXZ 10077746 f   libcpmt:ios.obj
 0001:0007677e       ?_Tidy@ios_base@std@@AAEXXZ 1007777e f   libcpmt:ios.obj
 0001:000767e1       ?classic@locale@std@@SAABV12@XZ 100777e1 f   libcpmt:locale0.obj
 0001:00076801       ?empty@locale@std@@SA?AV12@XZ 10077801 f   libcpmt:locale0.obj
 0001:00076848       ?_Getfacet@locale@std@@QBEPBVfacet@12@I_N@Z 10077848 f   libcpmt:locale0.obj
 0001:0007689e       ?_Iscloc@locale@std@@QBE_NXZ 1007789e f   libcpmt:locale0.obj
 0001:000768d9       ??8locale@std@@QBE_NABV01@@Z 100778d9 f   libcpmt:locale0.obj
 0001:000769a8       ?name@locale@std@@QBE?AV?$basic_string@DU?$char_traits@D@std@@V?$allocator@D@2@@2@XZ 100779a8 f i libcpmt:locale0.obj
 0001:000769df       ?_Init@locale@std@@CAPAV_Locimp@12@XZ 100779df f   libcpmt:locale0.obj
 0001:00076aa9       ?_Tidy@locale@std@@CAXXZ   10077aa9 f   libcpmt:locale0.obj
 0001:00076af3       ??0_Locimp@locale@std@@AAE@_N@Z 10077af3 f   libcpmt:locale0.obj
 0001:00076b65       ??1facet@locale@std@@UAE@XZ 10077b65 f i libcpmt:locale0.obj
 0001:00076b6c       ??_Efacet@locale@std@@UAEPAXI@Z 10077b6c f i libcpmt:locale0.obj
 0001:00076b6c       ??_Gfacet@locale@std@@UAEPAXI@Z 10077b6c f i libcpmt:locale0.obj
 0001:00076b89       ??_E_Locimp@locale@std@@UAEPAXI@Z 10077b89 f i libcpmt:locale0.obj
 0001:00076b89       ??_G_Locimp@locale@std@@UAEPAXI@Z 10077b89 f i libcpmt:locale0.obj
 0001:00076ba5       ??1_Locimp@locale@std@@UAE@XZ 10077ba5 f   libcpmt:locale0.obj
 0001:00076c2d       ?compare@?$basic_string@DU?$char_traits@D@std@@V?$allocator@D@2@@std@@QBEHABV12@@Z 10077c2d f i libcpmt:locale0.obj
 0001:00076c4f       ?compare@?$basic_string@DU?$char_traits@D@std@@V?$allocator@D@2@@std@@QBEHIIPBDI@Z 10077c4f f i libcpmt:locale0.obj
 0001:00076cf4       __Mbrtowc                  10077cf4 f   libcpmt:xmbtowc.obj
 0001:00076e6a       _btowc                     10077e6a f   libcpmt:xmbtowc.obj
 0001:00076eab       _mbrlen                    10077eab f   libcpmt:xmbtowc.obj
 0001:00076f16       _mbrtowc                   10077f16 f   libcpmt:xmbtowc.obj
 0001:00076fa7       _mbsrtowcs                 10077fa7 f   libcpmt:xmbtowc.obj
 0001:0007709c       ?_Nomemory@std@@YAXXZ      1007809c f   libcpmt:nomemory.obj
 0001:000770e7       ??0bad_alloc@std@@QAE@PBD@Z 100780e7 f i libcpmt:nomemory.obj
 0001:00077100       ??1bad_alloc@std@@UAE@XZ   10078100 f i libcpmt:nomemory.obj
 0001:0007710b       ?_Doraise@bad_alloc@std@@MBEXXZ 1007810b f i libcpmt:nomemory.obj
 0001:00077128       ??_Gbad_alloc@std@@UAEPAXI@Z 10078128 f i libcpmt:nomemory.obj
 0001:00077128       ??_Ebad_alloc@std@@UAEPAXI@Z 10078128 f i libcpmt:nomemory.obj
 0001:00077144       ??0bad_alloc@std@@QAE@ABV01@@Z 10078144 f i libcpmt:nomemory.obj
 0001:00077166       __onexit                   10078166 f   LIBCMT:onexit.obj
 0001:000771e4       _atexit                    100781e4 f   LIBCMT:onexit.obj
 0001:000771f6       ___onexitinit              100781f6 f   LIBCMT:onexit.obj
 0001:00077225       __purecall                 10078225 f   LIBCMT:purevirt.obj
 0001:0007722e       _sprintf                   1007822e f   LIBCMT:sprintf.obj
 0001:00077280       __fpmath                   10078280 f   LIBCMT:fpinit.obj
 0001:00077297       __fpclear                  10078297 f   LIBCMT:fpinit.obj
 0001:00077298       __cfltcvt_init             10078298 f   LIBCMT:fpinit.obj
 0001:000772d0       ___setfflag                100782d0 f   LIBCMT:fpinit.obj
 0001:000772e0       __ftol                     100782e0 f   LIBCMT:ftol.obj
 0001:00077307       ?_JumpToContinuation@@YGXPAXPAUEHRegistrationNode@@@Z 10078307 f   LIBCMT:trnsctrl.obj
 0001:0007733b       ?_CallMemberFunction0@@YGXPAX0@Z 1007833b f   LIBCMT:trnsctrl.obj
 0001:00077342       ?_CallMemberFunction1@@YGXPAX00@Z 10078342 f   LIBCMT:trnsctrl.obj
 0001:00077349       ?_CallMemberFunction2@@YGXPAX00H@Z 10078349 f   LIBCMT:trnsctrl.obj
 0001:00077350       ?_UnwindNestedFrames@@YGXPAUEHRegistrationNode@@PAUEHExceptionRecord@@@Z 10078350 f   LIBCMT:trnsctrl.obj
 0001:0007739f       ___CxxFrameHandler         1007839f f   LIBCMT:trnsctrl.obj
 0001:000773d5       ___CxxLongjmpUnwind@4      100783d5 f   LIBCMT:trnsctrl.obj
 0001:000773ef       ?_CallCatchBlock2@@YAPAXPAUEHRegistrationNode@@PBU_s_FuncInfo@@PAXHK@Z 100783ef f   LIBCMT:trnsctrl.obj
 0001:00077468       ?_CallSETranslator@@YAHPAUEHExceptionRecord@@PAUEHRegistrationNode@@PAX2PBU_s_FuncInfo@@H1@Z 10078468 f   LIBCMT:trnsctrl.obj
 0001:00077593       ?_GetRangeOfTrysToCheck@@YAPBU_s_TryBlockMapEntry@@PBU_s_FuncInfo@@HHPAI1@Z 10078593 f   LIBCMT:trnsctrl.obj
 0001:00077610       __global_unwind2           10078610 f   LIBCMT:exsup.obj
 0001:00077652       __local_unwind2            10078652 f   LIBCMT:exsup.obj
 0001:000776aa       __NLG_Return2              100786aa f   LIBCMT:exsup.obj
 0001:000776ba       __abnormal_termination     100786ba f   LIBCMT:exsup.obj
 0001:000776dd       __NLG_Notify1              100786dd f   LIBCMT:exsup.obj
 0001:000776e6       __NLG_Notify               100786e6 f   LIBCMT:exsup.obj
 0001:000776f9       __NLG_Dispatch             100786f9 f   LIBCMT:exsup.obj
 0001:000776fe       ??_L@YGXPAXIHP6EX0@Z1@Z    100786fe f   LIBCMT:ehvecctr.obj
 0001:00077780       ??_M@YGXPAXIHP6EX0@Z@Z     10078780 f   LIBCMT:ehvecdtr.obj
 0001:00077800       ?__ArrayUnwind@@YGXPAXIHP6EX0@Z@Z 10078800 f   LIBCMT:ehvecdtr.obj
 0001:00077874       ??2@YAPAXI@Z               10078874 f   LIBCMT:new.obj
 0001:00077882       _printf                    10078882 f   LIBCMT:printf.obj
 0001:000778c3       _srand                     100788c3 f   LIBCMT:rand.obj
 0001:000778d0       _rand                      100788d0 f   LIBCMT:rand.obj
 0001:000778f2       _time                      100788f2 f   LIBCMT:time.obj
 0001:000779ce       __strlwr                   100789ce f   LIBCMT:strlwr.obj
 0001:000779ce       _strlwr                    100789ce f   LIBCMT:strlwr.obj
 0001:00077b10       _strstr                    10078b10 f   LIBCMT:strstr.obj
 0001:00077b90       _atol                      10078b90 f   LIBCMT:atox.obj
 0001:00077c1b       _atoi                      10078c1b f   LIBCMT:atox.obj
 0001:00077c26       __atoi64                   10078c26 f   LIBCMT:atox.obj
 0001:00077ce0       _strncpy                   10078ce0 f   LIBCMT:strncpy.obj
 0001:00077de0       __alloca_probe             10078de0 f   LIBCMT:chkstk.obj
 0001:00077de0       __chkstk                   10078de0 f   LIBCMT:chkstk.obj
 0001:00077e10       _memmove                   10078e10 f   LIBCMT:memmove.obj
 0001:00078145       _mktime                    10079145 f   LIBCMT:mktime.obj
 0001:00078153       __mkgmtime                 10079153 f   LIBCMT:mktime.obj
 0001:00078345       _localtime                 10079345 f   LIBCMT:localtim.obj
 0001:000784a5       __findfirst                100794a5 f   LIBCMT:findfile.obj
 0001:00078572       __findnext                 10079572 f   LIBCMT:findfile.obj
 0001:0007863a       __findclose                1007963a f   LIBCMT:findfile.obj
 0001:0007865a       ___timet_from_ft           1007965a f   LIBCMT:findfile.obj
 0001:000786be       __strupr                   100796be f   LIBCMT:strupr.obj
 0001:000787f2       ??1type_info@@UAE@XZ       100797f2 f   LIBCMT:typinfo.obj
 0001:0007881b       ??_Gtype_info@@UAEPAXI@Z   1007981b f i LIBCMT:typinfo.obj
 0001:0007881b       ??_Etype_info@@UAEPAXI@Z   1007981b f i LIBCMT:typinfo.obj
 0001:00078837       ??8type_info@@QBEHABV0@@Z  10079837 f   LIBCMT:typinfo.obj
 0001:00078852       ??9type_info@@QBEHABV0@@Z  10079852 f   LIBCMT:typinfo.obj
 0001:0007886e       ?before@type_info@@QBEHABV1@@Z 1007986e f   LIBCMT:typinfo.obj
 0001:0007888d       ?raw_name@type_info@@QBEPBDXZ 1007988d f   LIBCMT:typinfo.obj
 0001:00078891       ??0type_info@@AAE@ABV0@@Z  10079891 f   LIBCMT:typinfo.obj
 0001:0007889c       ??4type_info@@AAEAAV0@ABV0@@Z 1007989c f   LIBCMT:typinfo.obj
 0001:000788a1       __CRT_INIT@12              100798a1 f   LIBCMT:dllcrt0.obj
 0001:0007897a       __DllMainCRTStartup@12     1007997a f   LIBCMT:dllcrt0.obj
 0001:00078a17       __amsg_exit                10079a17 f   LIBCMT:dllcrt0.obj
 0001:00078a4a       __CxxThrowException@8      10079a4a f   LIBCMT:throw.obj
 0001:00078a84       _free                      10079a84 f   LIBCMT:free.obj
 0001:00078acc       ___initstdio               10079acc f   LIBCMT:_file.obj
 0001:00078b74       ___endstdio                10079b74 f   LIBCMT:_file.obj
 0001:00078b88       __lock_file                10079b88 f   LIBCMT:_file.obj
 0001:00078bb7       __lock_file2               10079bb7 f   LIBCMT:_file.obj
 0001:00078bda       __unlock_file              10079bda f   LIBCMT:_file.obj
 0001:00078c09       __unlock_file2             10079c09 f   LIBCMT:_file.obj
 0001:00078c2c       __EH_prolog                10079c2c f   LIBCMT:ehprolog.obj
 0001:00078c50       _memcpy                    10079c50 f   LIBCMT:memcpy.obj
 0001:00078f85       _fwrite                    10079f85 f   LIBCMT:fwrite.obj
 0001:00078fb4       __fwrite_lk                10079fb4 f   LIBCMT:fwrite.obj
 0001:000790be       _fputc                     1007a0be f   LIBCMT:fputc.obj
 0001:000790f9       _putc                      1007a0f9 f   LIBCMT:fputc.obj
 0001:00079109       _ungetc                    1007a109 f   LIBCMT:ungetc.obj
 0001:00079132       __ungetc_lk                1007a132 f   LIBCMT:ungetc.obj
 0001:000791a0       _fgetc                     1007a1a0 f   LIBCMT:fgetc.obj
 0001:000791d1       _getc                      1007a1d1 f   LIBCMT:fgetc.obj
 0001:000791dc       _fgetpos                   1007a1dc f   LIBCMT:fgetpos.obj
 0001:000791fe       _fseek                     1007a1fe f   LIBCMT:fseek.obj
 0001:0007922a       __fseek_lk                 1007a22a f   LIBCMT:fseek.obj
 0001:000792b7       _fsetpos                   1007a2b7 f   LIBCMT:fsetpos.obj
 0001:000792cf       _setvbuf                   1007a2cf f   LIBCMT:setvbuf.obj
 0001:0007937e       _fflush                    1007a37e f   LIBCMT:fflush.obj
 0001:000793ad       __fflush_lk                1007a3ad f   LIBCMT:fflush.obj
 0001:000793db       __flush                    1007a3db f   LIBCMT:fflush.obj
 0001:00079437       __flushall                 1007a437 f   LIBCMT:fflush.obj
 0001:000794f0       _memset                    1007a4f0 f   LIBCMT:memset.obj
 0001:00079548       _fclose                    1007a548 f   LIBCMT:fclose.obj
 0001:00079579       __fclose_lk                1007a579 f   LIBCMT:fclose.obj
 0001:000795d0       _strlen                    1007a5d0 f   LIBCMT:strlen.obj
 0001:0007964b       _fputwc                    1007a64b f   LIBCMT:fputwc.obj
 0001:00079675       __putwc_lk                 1007a675 f   LIBCMT:fputwc.obj
 0001:0007976e       _putwc                     1007a76e f   LIBCMT:fputwc.obj
 0001:0007977e       _ungetwc                   1007a77e f   LIBCMT:ungetwc.obj
 0001:000797a8       __ungetwc_lk               1007a7a8 f   LIBCMT:ungetwc.obj
 0001:00079895       _fgetwc                    1007a895 f   LIBCMT:fgetwc.obj
 0001:000798b8       __getwc_lk                 1007a8b8 f   LIBCMT:fgetwc.obj
 0001:000799a9       _getwc                     1007a9a9 f   LIBCMT:fgetwc.obj
 0001:000799b4       ??0exception@@QAE@XZ       1007a9b4 f   LIBCMT:stdexcpt.obj
 0001:000799c5       ??_Gexception@@UAEPAXI@Z   1007a9c5 f i LIBCMT:stdexcpt.obj
 0001:000799c5       ??_Eexception@@UAEPAXI@Z   1007a9c5 f i LIBCMT:stdexcpt.obj
 0001:000799e1       ??0exception@@QAE@ABQBD@Z  1007a9e1 f   LIBCMT:stdexcpt.obj
 0001:00079a1e       ??0exception@@QAE@ABV0@@Z  1007aa1e f   LIBCMT:stdexcpt.obj
 0001:00079a68       ??4exception@@QAEAAV0@ABV0@@Z 1007aa68 f   LIBCMT:stdexcpt.obj
 0001:00079a87       ??1exception@@UAE@XZ       1007aa87 f   LIBCMT:stdexcpt.obj
 0001:00079a9d       ?what@exception@@UBEPBDXZ  1007aa9d f   LIBCMT:stdexcpt.obj
 0001:00079ab0       _memcmp                    1007aab0 f   LIBCMT:memcmp.obj
 0001:00079b5c       __mtinitlocks              1007ab5c f   LIBCMT:mlock.obj
 0001:00079b85       __mtdeletelocks            1007ab85 f   LIBCMT:mlock.obj
 0001:00079bf1       __lock                     1007abf1 f   LIBCMT:mlock.obj
 0001:00079c52       __unlock                   1007ac52 f   LIBCMT:mlock.obj
 0001:00079c67       __lockerr_exit             1007ac67 f   LIBCMT:mlock.obj
 0001:00079c7f       _setlocale                 1007ac7f f   LIBCMT:setlocal.obj
 0001:0007a099       __expandlocale             1007b099 f   LIBCMT:setlocal.obj
 0001:0007a1b1       ___init_dummy              1007b1b1 f   LIBCMT:setlocal.obj
 0001:0007a1b4       __strcats                  1007b1b4 f   LIBCMT:setlocal.obj
 0001:0007a1d9       ___lc_strtolc              1007b1d9 f   LIBCMT:setlocal.obj
 0001:0007a2a5       ___lc_lctostr              1007b2a5 f   LIBCMT:setlocal.obj
 0001:0007a2f8       __dosmaperr                1007b2f8 f   LIBCMT:dosmap.obj
 0001:0007a36b       __errno                    1007b36b f   LIBCMT:dosmap.obj
 0001:0007a374       ___doserrno                1007b374 f   LIBCMT:dosmap.obj
 0001:0007a37d       __cinit                    1007b37d f   LIBCMT:crt0dat.obj
 0001:0007a3aa       _exit                      1007b3aa f   LIBCMT:crt0dat.obj
 0001:0007a3bb       __exit                     1007b3bb f   LIBCMT:crt0dat.obj
 0001:0007a3cc       __cexit                    1007b3cc f   LIBCMT:crt0dat.obj
 0001:0007a3db       __c_exit                   1007b3db f   LIBCMT:crt0dat.obj
 0001:0007a48f       __lockexit                 1007b48f f   LIBCMT:crt0dat.obj
 0001:0007a498       __unlockexit               1007b498 f   LIBCMT:crt0dat.obj
 0001:0007a4bb       _realloc                   1007b4bb f   LIBCMT:realloc.obj
 0001:0007a5f3       __msize                    1007b5f3 f   LIBCMT:msize.obj
 0001:0007a638       _malloc                    1007b638 f   LIBCMT:malloc.obj
 0001:0007a64a       __nh_malloc                1007b64a f   LIBCMT:malloc.obj
 0001:0007a676       __heap_alloc               1007b676 f   LIBCMT:malloc.obj
 0001:0007a6c4       __flsbuf                   1007b6c4 f   LIBCMT:_flsbuf.obj
 0001:0007a7dc       __output                   1007b7dc f   LIBCMT:output.obj
 0001:0007afe6       __setdefaultprecision      1007bfe6 f   LIBCMT:fp8.obj
 0001:0007aff8       __ms_p5_test_fdiv          1007bff8 f   LIBCMT:testfdiv.obj
 0001:0007b036       __ms_p5_mp_test_fdiv       1007c036 f   LIBCMT:testfdiv.obj
 0001:0007b05f       __forcdecpt                1007c05f f   LIBCMT:cvt.obj
 0001:0007b0b9       __cropzeros                1007c0b9 f   LIBCMT:cvt.obj
 0001:0007b107       __positive                 1007c107 f   LIBCMT:cvt.obj
 0001:0007b11f       __fassign                  1007c11f f   LIBCMT:cvt.obj
 0001:0007b15d       __cftoe                    1007c15d f   LIBCMT:cvt.obj
 0001:0007b280       __cftof                    1007c280 f   LIBCMT:cvt.obj
 0001:0007b37c       __cftog                    1007c37c f   LIBCMT:cvt.obj
 0001:0007b40f       __cfltcvt                  1007c40f f   LIBCMT:cvt.obj
 0001:0007b485       ___InternalCxxFrameHandler 1007c485 f   LIBCMT:frame.obj
 0001:0007b7da       ___FrameUnwindToState      1007c7da f   LIBCMT:frame.obj
 0001:0007bc12       ?_DestructExceptionObject@@YAXPAUEHExceptionRecord@@E@Z 1007cc12 f   LIBCMT:frame.obj
 0001:0007bca0       __CallSettingFrame@12      1007cca0 f   LIBCMT:lowhelpr.obj
 0001:0007bcc7       __NLG_Return               1007ccc7 f   LIBCMT:lowhelpr.obj
 0001:0007bcec       __mtinit                   1007ccec f   LIBCMT:tidtable.obj
 0001:0007bd40       __mtterm                   1007cd40 f   LIBCMT:tidtable.obj
 0001:0007bd5e       __initptd                  1007cd5e f   LIBCMT:tidtable.obj
 0001:0007bd71       __getptd                   1007cd71 f   LIBCMT:tidtable.obj
 0001:0007bdd8       __freeptd                  1007cdd8 f   LIBCMT:tidtable.obj
 0001:0007be78       ___threadid                1007ce78 f   LIBCMT:tidtable.obj
 0001:0007be7e       ___threadhandle            1007ce7e f   LIBCMT:tidtable.obj
 0001:0007be84       ?terminate@@YAXXZ          1007ce84 f   LIBCMT:hooks.obj
 0001:0007bee5       ?unexpected@@YAXXZ         1007cee5 f   LIBCMT:hooks.obj
 0001:0007befd       ?_inconsistency@@YAXXZ     1007cefd f   LIBCMT:hooks.obj
 0001:0007bf5c       __except_handler3          1007cf5c f   LIBCMT:exsup3.obj
 0001:0007c019       __seh_longjmp_unwind@4     1007d019 f   LIBCMT:exsup3.obj
 0001:0007c034       __stbuf                    1007d034 f   LIBCMT:_sftbuf.obj
 0001:0007c0c1       __ftbuf                    1007d0c1 f   LIBCMT:_sftbuf.obj
 0001:0007c0eb       ___loctotime_t             1007d0eb f   LIBCMT:dtoxtime.obj
 0001:0007c1b0       _strcpy                    1007d1b0 f   LIBCMT:strcat.obj
 0001:0007c1c0       _strcat                    1007d1c0 f   LIBCMT:strcat.obj
 0001:0007c2a0       ___crtLCMapStringA         1007d2a0 f   LIBCMT:a_map.obj
 0001:0007c500       _strchr                    1007d500 f   LIBCMT:strchr.obj
 0001:0007c506       ___from_strstr_to_strchr   1007d506 f   LIBCMT:strchr.obj
 0001:0007c5bc       __isctype                  1007d5bc f   LIBCMT:isctype.obj
 0001:0007c640       __allmul                   1007d640 f   LIBCMT:llmul.obj
 0001:0007c674       _gmtime                    1007d674 f   LIBCMT:gmtime.obj
 0001:0007c77e       ___tzset                   1007d77e f   LIBCMT:tzset.obj
 0001:0007c7ac       __tzset                    1007d7ac f   LIBCMT:tzset.obj
 0001:0007ca49       __isindst                  1007da49 f   LIBCMT:tzset.obj
 0001:0007cd60       _strcmp                    1007dd60 f   LIBCMT:strcmp.obj
 0001:0007cde4       __ioinit                   1007dde4 f   LIBCMT:ioinit.obj
 0001:0007cfa0       __ioterm                   1007dfa0 f   LIBCMT:ioinit.obj
 0001:0007cff4       __setenvp                  1007dff4 f   LIBCMT:stdenvp.obj
 0001:0007d0ad       __setargv                  1007e0ad f   LIBCMT:stdargv.obj
 0001:0007d2fa       ___crtGetEnvironmentStringsA 1007e2fa f   LIBCMT:a_env.obj
 0001:0007d42c       __heap_init                1007e42c f   LIBCMT:heapinit.obj
 0001:0007d468       __heap_term                1007e468 f   LIBCMT:heapinit.obj
 0001:0007d4dd       _DllMain@12                1007e4dd f   LIBCMT:dllmain.obj
 0001:0007d4e3       __FF_MSGBANNER             1007e4e3 f   LIBCMT:crt0msg.obj
 0001:0007d51c       __NMSG_WRITE               1007e51c f   LIBCMT:crt0msg.obj
 0001:0007d66f       __GET_RTERRMSG             1007e66f f   LIBCMT:crt0msg.obj
 0001:0007d6a0       ?__CxxUnhandledExceptionFilter@@YGJPAU_EXCEPTION_POINTERS@@@Z 1007e6a0 f   LIBCMT:unhandld.obj
 0001:0007d6e6       ?__CxxSetUnhandledExceptionFilter@@YAXXZ 1007e6e6 f   LIBCMT:unhandld.obj
 0001:0007d6f7       ?__CxxRestoreUnhandledExceptionFilter@@YAXXZ 1007e6f7 f   LIBCMT:unhandld.obj
 0001:0007d704       __get_sbh_threshold        1007e704 f   LIBCMT:sbheap.obj
 0001:0007d70a       __set_sbh_threshold        1007e70a f   LIBCMT:sbheap.obj
 0001:0007d721       ___sbh_heap_init           1007e721 f   LIBCMT:sbheap.obj
 0001:0007d75f       ___sbh_find_block          1007e75f f   LIBCMT:sbheap.obj
 0001:0007d78a       ___sbh_free_block          1007e78a f   LIBCMT:sbheap.obj
 0001:0007dab5       ___sbh_alloc_block         1007eab5 f   LIBCMT:sbheap.obj
 0001:0007ddbe       ___sbh_alloc_new_region    1007edbe f   LIBCMT:sbheap.obj
 0001:0007de6f       ___sbh_alloc_new_group     1007ee6f f   LIBCMT:sbheap.obj
 0001:0007df6a       ___sbh_resize_block        1007ef6a f   LIBCMT:sbheap.obj
 0001:0007e260       ___sbh_heapmin             1007f260 f   LIBCMT:sbheap.obj
 0001:0007e331       ___sbh_heap_check          1007f331 f   LIBCMT:sbheap.obj
 0001:0007e660       _calloc                    1007f660 f   LIBCMT:calloc.obj
 0001:0007e6ed       __fcloseall                1007f6ed f   LIBCMT:closeall.obj
 0001:0007e76e       __write                    1007f76e f   LIBCMT:write.obj
 0001:0007e7d3       __write_lk                 1007f7d3 f   LIBCMT:write.obj
 0001:0007e95e       __getbuf                   1007f95e f   LIBCMT:_getbuf.obj
 0001:0007e9a2       __filbuf                   1007f9a2 f   LIBCMT:_filbuf.obj
 0001:0007ea7e       __ftelli64                 1007fa7e f   LIBCMT:ftelli64.obj
 0001:0007eaa6       __ftelli64_lk              1007faa6 f   LIBCMT:ftelli64.obj
 0001:0007ec36       __lseek                    1007fc36 f   LIBCMT:lseek.obj
 0001:0007ec9b       __lseek_lk                 1007fc9b f   LIBCMT:lseek.obj
 0001:0007ed0e       _ftell                     1007fd0e f   LIBCMT:ftell.obj
 0001:0007ed30       __ftell_lk                 1007fd30 f   LIBCMT:ftell.obj
 0001:0007ee91       __fseeki64                 1007fe91 f   LIBCMT:fseeki64.obj
 0001:0007eec0       __fseeki64_lk              1007fec0 f   LIBCMT:fseeki64.obj
 0001:0007ef51       __freebuf                  1007ff51 f   LIBCMT:_freebuf.obj
 0001:0007ef7c       __commit                   1007ff7c f   LIBCMT:commit.obj
 0001:0007f00f       __close                    1008000f f   LIBCMT:close.obj
 0001:0007f06c       __close_lk                 1008006c f   LIBCMT:close.obj
 0001:0007f0ef       __flswbuf                  100800ef f   LIBCMT:_flswbuf.obj
 0001:0007f216       _wctomb                    10080216 f   LIBCMT:wctomb.obj
 0001:0007f26f       __wctomb_lk                1008026f f   LIBCMT:wctomb.obj
 0001:0007f2d8       __filwbuf                  100802d8 f   LIBCMT:_filwbuf.obj
 0001:0007f3bf       _mbtowc                    100803bf f   LIBCMT:mbtowc.obj
 0001:0007f41c       __mbtowc_lk                1008041c f   LIBCMT:mbtowc.obj
 0001:0007f4e5       ___init_time               100804e5 f   LIBCMT:inittime.obj
 0001:0007fa54       ___init_numeric            10080a54 f   LIBCMT:initnum.obj
 0001:0007fc60       ___init_monetary           10080c60 f   LIBCMT:initmon.obj
 0001:0007fed2       ___init_ctype              10080ed2 f   LIBCMT:initctyp.obj
 0001:00080117       ___init_collate            10081117 f   LIBCMT:initcoll.obj
 0001:00080120       _strcspn                   10081120 f   LIBCMT:strcspn.obj
 0001:00080160       _strncmp                   10081160 f   LIBCMT:strncmp.obj
 0001:000801a0       _strpbrk                   100811a0 f   LIBCMT:strpbrk.obj
 0001:000801da       ___get_qualified_locale    100811da f   LIBCMT:getqloc.obj
 0001:00080a81       ?_set_new_handler@@YAP6AHI@ZP6AHI@Z@Z 10081a81 f   LIBCMT:handler.obj
 0001:00080aa5       ?_query_new_handler@@YAP6AHI@ZXZ 10081aa5 f   LIBCMT:handler.obj
 0001:00080aab       __callnewh                 10081aab f   LIBCMT:handler.obj
 0001:00080ac6       __isatty                   10081ac6 f   LIBCMT:isatty.obj
 0001:00080af0       __aulldiv                  10081af0 f   LIBCMT:ulldiv.obj
 0001:00080b60       __aullrem                  10081b60 f   LIBCMT:ullrem.obj
 0001:00080bd5       __statusfp                 10081bd5 f   LIBCMT:ieee87.obj
 0001:00080be8       __clearfp                  10081be8 f   LIBCMT:ieee87.obj
 0001:00080bfc       __control87                10081bfc f   LIBCMT:ieee87.obj
 0001:00080c31       __controlfp                10081c31 f   LIBCMT:ieee87.obj
 0001:00080c47       __fpreset                  10081c47 f   LIBCMT:ieee87.obj
 0001:00080dc2       __tolower                  10081dc2 f   LIBCMT:tolower.obj
 0001:00080dca       _tolower                   10081dca f   LIBCMT:tolower.obj
 0001:00080e39       __tolower_lk               10081e39 f   LIBCMT:tolower.obj
 0001:00080f04       __ZeroTail                 10081f04 f   LIBCMT:intrncvt.obj
 0001:00080f4d       __IncMan                   10081f4d f   LIBCMT:intrncvt.obj
 0001:00080fa3       __RoundMan                 10081fa3 f   LIBCMT:intrncvt.obj
 0001:0008102f       __CopyMan                  1008202f f   LIBCMT:intrncvt.obj
 0001:0008104a       __FillZeroMan              1008204a f   LIBCMT:intrncvt.obj
 0001:00081056       __IsZeroMan                10082056 f   LIBCMT:intrncvt.obj
 0001:00081071       __ShrMan                   10082071 f   LIBCMT:intrncvt.obj
 0001:000810fe       __ld12cvt                  100820fe f   LIBCMT:intrncvt.obj
 0001:0008126a       __ld12tod                  1008226a f   LIBCMT:intrncvt.obj
 0001:00081280       __ld12tof                  10082280 f   LIBCMT:intrncvt.obj
 0001:00081296       __ld12told                 10082296 f   LIBCMT:intrncvt.obj
 0001:00081310       __atodbl                   10082310 f   LIBCMT:intrncvt.obj
 0001:0008133d       __atoldbl                  1008233d f   LIBCMT:intrncvt.obj
 0001:0008136b       __atoflt                   1008236b f   LIBCMT:intrncvt.obj
 0001:00081398       __fptostr                  10082398 f   LIBCMT:_fptostr.obj
 0001:0008140f       __fltout2                  1008240f f   LIBCMT:cfout.obj
 0001:0008146b       ___dtold                   1008246b f   LIBCMT:cfout.obj
 0001:00081521       __fptrap                   10082521 f   LIBCMT:crt0fp.obj
 0001:0008152a       ?_ValidateRead@@YAHPBXI@Z  1008252a f   LIBCMT:validate.obj
 0001:00081546       ?_ValidateWrite@@YAHPAXI@Z 10082546 f   LIBCMT:validate.obj
 0001:00081562       ?_ValidateExecute@@YAHP6GHXZ@Z 10082562 f   LIBCMT:validate.obj
 0001:0008157a       __XcptFilter               1008257a f   LIBCMT:winxfltr.obj
 0001:000816f2       _abort                     100826f2 f   LIBCMT:abort.obj
 0001:00081709       ___crtGetStringTypeA       10082709 f   LIBCMT:a_str.obj
 0001:00081852       _getenv                    10082852 f   LIBCMT:getenv.obj
 0001:00081873       __getenv_lk                10082873 f   LIBCMT:getenv.obj
 0001:000818f0       __setmbcp                  100828f0 f   LIBCMT:mbctype.obj
 0001:00081cc8       __getmbcp                  10082cc8 f   LIBCMT:mbctype.obj
 0001:00081cd8       ___initmbctable            10082cd8 f   LIBCMT:mbctype.obj
 0001:00081cf4       ___crtMessageBoxA          10082cf4 f   LIBCMT:crtmbox.obj
 0001:00081d7d       __alloc_osfhnd             10082d7d f   LIBCMT:osfinfo.obj
 0001:00081ea0       __set_osfhnd               10082ea0 f   LIBCMT:osfinfo.obj
 0001:00081f1c       __free_osfhnd              10082f1c f   LIBCMT:osfinfo.obj
 0001:00081f9b       __get_osfhandle            10082f9b f   LIBCMT:osfinfo.obj
 0001:00081fdd       __open_osfhandle           10082fdd f   LIBCMT:osfinfo.obj
 0001:00082084       __lock_fhandle             10083084 f   LIBCMT:osfinfo.obj
 0001:000820e3       __unlock_fhandle           100830e3 f   LIBCMT:osfinfo.obj
 0001:00082105       __read                     10083105 f   LIBCMT:read.obj
 0001:0008216a       __read_lk                  1008316a f   LIBCMT:read.obj
 0001:00082343       __lseeki64                 10083343 f   LIBCMT:lseeki64.obj
 0001:000823b4       __lseeki64_lk              100833b4 f   LIBCMT:lseeki64.obj
 0001:00082439       __Getdays                  10083439 f   LIBCMT:strftime.obj
 0001:000824c8       __Getmonths                100834c8 f   LIBCMT:strftime.obj
 0001:0008255d       __Gettnames                1008355d f   LIBCMT:strftime.obj
 0001:0008278f       _strftime                  1008378f f   LIBCMT:strftime.obj
 0001:000827aa       __Strftime                 100837aa f   LIBCMT:strftime.obj
 0001:00083041       ___getlocaleinfo           10084041 f   LIBCMT:inithelp.obj
 0001:00083179       _localeconv                10084179 f   LIBCMT:lconv.obj
 0001:0008317f       ___crtGetStringTypeW       1008417f f   LIBCMT:w_str.obj
 0001:00083344       __itoa                     10084344 f   LIBCMT:xtoa.obj
 0001:000833cd       __ltoa                     100843cd f   LIBCMT:xtoa.obj
 0001:000833f7       __ultoa                    100843f7 f   LIBCMT:xtoa.obj
 0001:00083412       __i64toa                   10084412 f   LIBCMT:xtoa.obj
 0001:000834c9       __ui64toa                  100844c9 f   LIBCMT:xtoa.obj
 0001:000834f0       __stricmp                  100844f0 f   LIBCMT:stricmp.obj
 0001:000834f0       _strcmpi                   100844f0 f   LIBCMT:stricmp.obj
 0001:000834f0       __strcmpi                  100844f0 f   LIBCMT:stricmp.obj
 0001:000835c0       __strnicmp                 100845c0 f   LIBCMT:strnicmp.obj
 0001:000836c1       _signal                    100846c1 f   LIBCMT:winsig.obj
 0001:000838a5       _raise                     100848a5 f   LIBCMT:winsig.obj
 0001:00083a64       ___fpecode                 10084a64 f   LIBCMT:winsig.obj
 0001:00083a6d       ___pxcptinfoptrs           10084a6d f   LIBCMT:winsig.obj
 0001:00083a76       ___addl                    10084a76 f   LIBCMT:mantold.obj
 0001:00083a97       ___add_12                  10084a97 f   LIBCMT:mantold.obj
 0001:00083af5       ___shl_12                  10084af5 f   LIBCMT:mantold.obj
 0001:00083b23       ___shr_12                  10084b23 f   LIBCMT:mantold.obj
 0001:00083b50       ___mtold12                 10084b50 f   LIBCMT:mantold.obj
 0001:00083c17       ___strgtold12              10084c17 f   LIBCMT:strgtold.obj
 0001:000840e8       ___STRINGTOLD              100850e8 f   LIBCMT:strgtold.obj
 0001:00084124       _$I10_OUTPUT               10085124 f   LIBCMT:x10fout.obj
 0001:000843b7       __mbsnbicoll               100853b7 f   LIBCMT:mbsnbico.obj
 0001:000843f6       ___wtomb_environ           100853f6 f   LIBCMT:wtombenv.obj
 0001:00084464       ___crtGetLocaleInfoW       10085464 f   LIBCMT:w_loc.obj
 0001:00084577       ___crtGetLocaleInfoA       10085577 f   LIBCMT:a_loc.obj
 0001:00084695       ___ld12mul                 10085695 f   LIBCMT:tenpow.obj
 0001:000848b5       ___multtenpow12            100858b5 f   LIBCMT:tenpow.obj
 0001:00084931       ___crtCompareStringA       10085931 f   LIBCMT:a_cmp.obj
 0001:00084bd9       ___crtsetenv               10085bd9 f   LIBCMT:setenv.obj
 0001:00084e1f       __mbschr                   10085e1f f   LIBCMT:mbschr.obj
 0001:00084eb6       __strdup                   10085eb6 f   LIBCMT:strdup.obj
 0001:00084ef0       ?_com_issue_error@@YGXJ@Z  10085ef0 f   comsupp:comsupp.obj
 0001:00084efe       ?_com_issue_errorex@@YGXJPAUIUnknown@@ABU_GUID@@@Z 10085efe f   comsupp:comsupp.obj
 0001:00084f5f       ?_com_dispatch_raw_method@@YAJPAUIDispatch@@JGGPAXPBGZZ 10085f5f f   comsupp:comsupp.obj
 0001:00085444       ?_com_dispatch_method@@YAJPAUIDispatch@@JGGPAXPBGZZ 10086444 f   comsupp:comsupp.obj
 0001:0008547e       ?_com_dispatch_raw_propget@@YGJPAUIDispatch@@JGPAX@Z 1008647e f   comsupp:comsupp.obj
 0001:0008549d       ?_com_dispatch_propget@@YGJPAUIDispatch@@JGPAX@Z 1008649d f   comsupp:comsupp.obj
 0001:000854bc       ?_com_dispatch_raw_propput@@YAJPAUIDispatch@@JGZZ 100864bc f   comsupp:comsupp.obj
 0001:00085515       ?_com_dispatch_propput@@YAJPAUIDispatch@@JGZZ 10086515 f   comsupp:comsupp.obj
 0001:000855aa       ?ConvertStringToBSTR@_com_util@@YGPAGPBD@Z 100865aa f   comsupp:comutil.obj
 0001:0008561f       ?ConvertBSTRToString@_com_util@@YGPADPAG@Z 1008661f f   comsupp:comutil.obj
 0001:00085693       ??0_variant_t@@QAE@JG@Z    10086693 f i comsupp:comutil.obj
 0001:000856ef       ?_com_raise_error@@YGXJPAUIErrorInfo@@@Z 100866ef f   comsupp:comraise.obj
 0001:00085713       ??0_com_error@@QAE@JPAUIErrorInfo@@_N@Z 10086713 f i comsupp:comraise.obj
 0001:00085745       ??_E_com_error@@UAEPAXI@Z  10086745 f i comsupp:comraise.obj
 0001:00085745       ??_G_com_error@@UAEPAXI@Z  10086745 f i comsupp:comraise.obj
 0001:00085761       ??0_com_error@@QAE@ABV0@@Z 10086761 f i comsupp:comraise.obj
 0001:0008578e       ??1_com_error@@UAE@XZ      1008678e f i comsupp:comraise.obj
 0001:000857b4       _InitializeCriticalSection@4 100867b4 f   kernel32:KERNEL32.dll
 0001:000857ba       _DeleteCriticalSection@4   100867ba f   kernel32:KERNEL32.dll
 0001:000857c0       _LeaveCriticalSection@4    100867c0 f   kernel32:KERNEL32.dll
 0001:000857c6       _InterlockedIncrement@4    100867c6 f   kernel32:KERNEL32.dll
 0001:000857cc       _EnterCriticalSection@4    100867cc f   kernel32:KERNEL32.dll
 0001:000857d2       _InterlockedExchange@8     100867d2 f   kernel32:KERNEL32.dll
 0001:000857d8       _Sleep@4                   100867d8 f   kernel32:KERNEL32.dll
 0001:000857de       _RtlUnwind@16              100867de f   kernel32:KERNEL32.dll
 0001:000857e4       _GetTimeZoneInformation@4  100867e4 f   kernel32:KERNEL32.dll
 0001:000857ea       _GetSystemTime@4           100867ea f   kernel32:KERNEL32.dll
 0001:000857f0       _FindFirstFileA@8          100867f0 f   kernel32:KERNEL32.dll
 0001:000857f6       _FindNextFileA@8           100867f6 f   kernel32:KERNEL32.dll
 0001:000857fc       _FindClose@4               100867fc f   kernel32:KERNEL32.dll
 0001:00085802       _FileTimeToLocalFileTime@8 10086802 f   kernel32:KERNEL32.dll
 0001:00085808       _GetCommandLineA@0         10086808 f   kernel32:KERNEL32.dll
 0001:0008580e       _GetVersion@0              1008680e f   kernel32:KERNEL32.dll
 0001:00085814       _RaiseException@16         10086814 f   kernel32:KERNEL32.dll
 0001:0008581a       _HeapFree@12               1008681a f   kernel32:KERNEL32.dll
 0001:00085820       _ExitProcess@4             10086820 f   kernel32:KERNEL32.dll
 0001:00085826       _FatalAppExitA@8           10086826 f   kernel32:KERNEL32.dll
 0001:0008582c       _TerminateProcess@8        1008682c f   kernel32:KERNEL32.dll
 0001:00085832       _GetCurrentProcess@0       10086832 f   kernel32:KERNEL32.dll
 0001:00085838       _HeapReAlloc@16            10086838 f   kernel32:KERNEL32.dll
 0001:0008583e       _HeapAlloc@12              1008683e f   kernel32:KERNEL32.dll
 0001:00085844       _HeapSize@12               10086844 f   kernel32:KERNEL32.dll
 0001:0008584a       _GetProcAddress@8          1008684a f   kernel32:KERNEL32.dll
 0001:00085850       _GetModuleHandleA@4        10086850 f   kernel32:KERNEL32.dll
 0001:00085856       _GetCurrentThreadId@0      10086856 f   kernel32:KERNEL32.dll
 0001:0008585c       _TlsSetValue@8             1008685c f   kernel32:KERNEL32.dll
 0001:00085862       _TlsAlloc@0                10086862 f   kernel32:KERNEL32.dll
 0001:00085868       _TlsFree@4                 10086868 f   kernel32:KERNEL32.dll
 0001:0008586e       _SetLastError@4            1008686e f   kernel32:KERNEL32.dll
 0001:00085874       _TlsGetValue@4             10086874 f   kernel32:KERNEL32.dll
 0001:0008587a       _GetCurrentThread@0        1008687a f   kernel32:KERNEL32.dll
 0001:00085880       _WideCharToMultiByte@32    10086880 f   kernel32:KERNEL32.dll
 0001:00085886       _LCMapStringA@24           10086886 f   kernel32:KERNEL32.dll
 0001:0008588c       _LCMapStringW@24           1008688c f   kernel32:KERNEL32.dll
 0001:00085892       _SetHandleCount@4          10086892 f   kernel32:KERNEL32.dll
 0001:00085898       _GetStdHandle@4            10086898 f   kernel32:KERNEL32.dll
 0001:0008589e       _GetFileType@4             1008689e f   kernel32:KERNEL32.dll
 0001:000858a4       _GetStartupInfoA@4         100868a4 f   kernel32:KERNEL32.dll
 0001:000858aa       _FreeEnvironmentStringsA@4 100868aa f   kernel32:KERNEL32.dll
 0001:000858b0       _FreeEnvironmentStringsW@4 100868b0 f   kernel32:KERNEL32.dll
 0001:000858b6       _GetEnvironmentStrings@0   100868b6 f   kernel32:KERNEL32.dll
 0001:000858bc       _GetEnvironmentStringsW@0  100868bc f   kernel32:KERNEL32.dll
 0001:000858c2       _HeapDestroy@4             100868c2 f   kernel32:KERNEL32.dll
 0001:000858c8       _HeapCreate@12             100868c8 f   kernel32:KERNEL32.dll
 0001:000858ce       _VirtualFree@12            100868ce f   kernel32:KERNEL32.dll
 0001:000858d4       _WriteFile@20              100868d4 f   kernel32:KERNEL32.dll
 0001:000858da       _SetUnhandledExceptionFilter@4 100868da f   kernel32:KERNEL32.dll
 0001:000858e0       _VirtualAlloc@16           100868e0 f   kernel32:KERNEL32.dll
 0001:000858e6       _IsBadWritePtr@8           100868e6 f   kernel32:KERNEL32.dll
 0001:000858ec       _SetFilePointer@16         100868ec f   kernel32:KERNEL32.dll
 0001:000858f2       _FlushFileBuffers@4        100868f2 f   kernel32:KERNEL32.dll
 0001:000858f8       _CloseHandle@4             100868f8 f   kernel32:KERNEL32.dll
 0001:000858fe       _GetCPInfo@8               100868fe f   kernel32:KERNEL32.dll
 0001:00085904       _IsValidLocale@8           10086904 f   kernel32:KERNEL32.dll
 0001:0008590a       _IsValidCodePage@4         1008690a f   kernel32:KERNEL32.dll
 0001:00085910       _GetLocaleInfoA@16         10086910 f   kernel32:KERNEL32.dll
 0001:00085916       _EnumSystemLocalesA@8      10086916 f   kernel32:KERNEL32.dll
 0001:0008591c       _GetUserDefaultLCID@0      1008691c f   kernel32:KERNEL32.dll
 0001:00085922       _GetVersionExA@4           10086922 f   kernel32:KERNEL32.dll
 0001:00085928       _IsBadReadPtr@8            10086928 f   kernel32:KERNEL32.dll
 0001:0008592e       _IsBadCodePtr@4            1008692e f   kernel32:KERNEL32.dll
 0001:00085934       _UnhandledExceptionFilter@4 10086934 f   kernel32:KERNEL32.dll
 0001:0008593a       _GetStringTypeA@20         1008693a f   kernel32:KERNEL32.dll
 0001:00085940       _GetStringTypeW@16         10086940 f   kernel32:KERNEL32.dll
 0001:00085946       _GetACP@0                  10086946 f   kernel32:KERNEL32.dll
 0001:0008594c       _GetOEMCP@0                1008694c f   kernel32:KERNEL32.dll
 0001:00085952       _LoadLibraryA@4            10086952 f   kernel32:KERNEL32.dll
 0001:00085958       _SetStdHandle@8            10086958 f   kernel32:KERNEL32.dll
 0001:0008595e       _ReadFile@20               1008695e f   kernel32:KERNEL32.dll
 0001:00085964       _SetConsoleCtrlHandler@8   10086964 f   kernel32:KERNEL32.dll
 0001:0008596a       _GetLocaleInfoW@16         1008696a f   kernel32:KERNEL32.dll
 0001:00085970       _CompareStringA@24         10086970 f   kernel32:KERNEL32.dll
 0001:00085976       _CompareStringW@24         10086976 f   kernel32:KERNEL32.dll
 0001:0008597c       _SetEnvironmentVariableA@8 1008697c f   kernel32:KERNEL32.dll
 0001:00085982       _lstrlenW@4                10086982 f   kernel32:KERNEL32.dll
 0001:00085988       _MessageBoxA@16            10086988 f   user32:USER32.dll
 0001:0008598e       _GetErrorInfo@8            1008698e f   oleaut32:OLEAUT32.dll
 0001:00085994       _SetErrorInfo@8            10086994 f   oleaut32:OLEAUT32.dll
 0001:0008599a       _CreateErrorInfo@4         1008699a f   oleaut32:OLEAUT32.dll
 0001:000859a0       _getcwd                    100869a0 f   LIBCMT:getcwd.obj
 0001:000859a0       __getcwd                   100869a0 f   LIBCMT:getcwd.obj
 0001:000859c7       __getdcwd                  100869c7 f   LIBCMT:getcwd.obj
 0001:000859f0       __getdcwd_lk               100869f0 f   LIBCMT:getcwd.obj
 0001:00085ac5       __validdrive               10086ac5 f   LIBCMT:getcwd.obj
 0001:00085afc       __chdir                    10086afc f   LIBCMT:chdir.obj
 0001:00085afc       _chdir                     10086afc f   LIBCMT:chdir.obj
 0001:00085b82       _wcslen                    10086b82 f   LIBCMT:wcslen.obj
 0001:00085b9f       __mbctoupper               10086b9f f   LIBCMT:mbtoupr.obj
 0001:00085c1a       _GetCurrentDirectoryA@8    10086c1a f   kernel32:KERNEL32.dll
 0001:00085c20       _GetFullPathNameA@16       10086c20 f   kernel32:KERNEL32.dll
 0001:00085c26       _GetDriveTypeA@4           10086c26 f   kernel32:KERNEL32.dll
 0001:00085c2c       _SetCurrentDirectoryA@4    10086c2c f   kernel32:KERNEL32.dll
 0002:00000000       __imp_??1KPakList@@QAE@XZ  1008a000     engine:Engine.dll
 0002:00000004       __imp_?GetString@KTabFile@@UAEHPAD000K@Z 1008a004     engine:Engine.dll
 0002:00000008       __imp_?Clear@KTabFile@@UAEXXZ 1008a008     engine:Engine.dll
 0002:0000000c       __imp_?Load@KLuaScript@@UAEHPAD@Z 1008a00c     engine:Engine.dll
 0002:00000010       __imp_?g_GetFullPath@@YAXPAD0@Z 1008a010     engine:Engine.dll
 0002:00000014       __imp_?WriteString@KIniFile@@QAEXPBD00@Z 1008a014     engine:Engine.dll
 0002:00000018       __imp_?WriteInteger@KIniFile@@QAEXPBD0H@Z 1008a018     engine:Engine.dll
 0002:0000001c       __imp_?Save@KIniFile@@QAEHPBD@Z 1008a01c     engine:Engine.dll
 0002:00000020       __imp_?GetNextKey@KIniFile@@QAEHPBD0PAD@Z 1008a020     engine:Engine.dll
 0002:00000024       __imp_?GetNext@KLinkArray@@QBEHH@Z 1008a024     engine:Engine.dll
 0002:00000028       __imp_?GetInteger@KTabFile@@UAEHPAD0HPAH@Z 1008a028     engine:Engine.dll
 0002:0000002c       __imp_?g_StrCat@@YAXPADPBD@Z 1008a02c     engine:Engine.dll
 0002:00000030       __imp_?g_GetRootPath@@YAXPAD@Z 1008a030     engine:Engine.dll
 0002:00000034       __imp_??1KScriptList@@QAE@XZ 1008a034     engine:Engine.dll
 0002:00000038       __imp_??0KScriptList@@QAE@XZ 1008a038     engine:Engine.dll
 0002:0000003c       __imp_?g_GetFilePath@@YAXPAD@Z 1008a03c     engine:Engine.dll
 0002:00000040       __imp_?GetInteger2@KIniFile@@QAEXPBD0PAH1@Z 1008a040     engine:Engine.dll
 0002:00000044       __imp_??0KPakList@@QAE@XZ  1008a044     engine:Engine.dll
 0002:00000048       __imp_?Open@KPakList@@QAE_NPBD@Z 1008a048     engine:Engine.dll
 0002:0000004c       __imp_?Close@KPakList@@QAEXXZ 1008a04c     engine:Engine.dll
 0002:00000050       __imp_?GetFloat3@KIniFile@@QAEXPBD0PAM@Z 1008a050     engine:Engine.dll
 0002:00000054       __imp_?g_SetFilePath@@YAXPAD@Z 1008a054     engine:Engine.dll
 0002:00000058       __imp_?GetRect@KIniFile@@QAEXPBD0PAUtagRECT@@@Z 1008a058     engine:Engine.dll
 0002:0000005c       __imp_?g_FindDebugWindow@@YAPAUHWND__@@PAD0@Z 1008a05c     engine:Engine.dll
 0002:00000060       __imp_?Init@KLuaScript@@UAEHXZ 1008a060     engine:Engine.dll
 0002:00000064       __imp_?RegisterFunctions@KLuaScript@@QAEHQAUTLua_Funcs@@H@Z 1008a064     engine:Engine.dll
 0002:00000068       __imp_?FindColumn@KTabFile@@UAEHPAD@Z 1008a068     engine:Engine.dll
 0002:0000006c       __imp_??1KLuaScript@@UAE@XZ 1008a06c     engine:Engine.dll
 0002:00000070       __imp_??0KLuaScript@@QAE@XZ 1008a070     engine:Engine.dll
 0002:00000074       __imp_?Seek@KPakFile@@QAEKHI@Z 1008a074     engine:Engine.dll
 0002:00000078       __imp_??0KPakFile@@QAE@XZ  1008a078     engine:Engine.dll
 0002:0000007c       __imp_?Open@KPakFile@@QAEHPBD@Z 1008a07c     engine:Engine.dll
 0002:00000080       __imp_?Size@KPakFile@@QAEKXZ 1008a080     engine:Engine.dll
 0002:00000084       __imp_?Close@KPakFile@@QAEXXZ 1008a084     engine:Engine.dll
 0002:00000088       __imp_??1KPakFile@@QAE@XZ  1008a088     engine:Engine.dll
 0002:0000008c       __imp_?Read@KPakFile@@QAEKPAXI@Z 1008a08c     engine:Engine.dll
 0002:00000090       __imp_?IsPointInPolygon@KPolygon@@QAEHUtagPOINT@@@Z 1008a090     engine:Engine.dll
 0002:00000094       __imp_?GetCenterPos@KPolygon@@QAEXPAUtagPOINT@@@Z 1008a094     engine:Engine.dll
 0002:00000098       __imp_?Clear@KPolygon@@QAEXXZ 1008a098     engine:Engine.dll
 0002:0000009c       __imp_??0KPolygon@@QAE@XZ  1008a09c     engine:Engine.dll
 0002:000000a0       __imp_?g_RandomSeed@@YAXI@Z 1008a0a0     engine:Engine.dll
 0002:000000a4       __imp_?g_GetRandomSeed@@YAIXZ 1008a0a4     engine:Engine.dll
 0002:000000a8       __imp_?g_SetRootPath@@YAXPAD@Z 1008a0a8     engine:Engine.dll
 0002:000000ac       __imp_?g_UnitePathAndName@@YAXPAD00@Z 1008a0ac     engine:Engine.dll
 0002:000000b0       __imp_??1KLicense@@QAE@XZ  1008a0b0     engine:Engine.dll
 0002:000000b4       __imp_??0KLicense@@QAE@XZ  1008a0b4     engine:Engine.dll
 0002:000000b8       __imp_?g_Random@@YAII@Z    1008a0b8     engine:Engine.dll
 0002:000000bc       __imp_?g_FileName2Id@@YAKPAD@Z 1008a0bc     engine:Engine.dll
 0002:000000c0       __imp_?GetString@KTabFile@@UAEHHPAD00KH@Z 1008a0c0     engine:Engine.dll
 0002:000000c4       __imp_?GetInteger@KTabFile@@UAEHHPADHPAHH@Z 1008a0c4     engine:Engine.dll
 0002:000000c8       __imp_??1KTabFile@@UAE@XZ  1008a0c8     engine:Engine.dll
 0002:000000cc       __imp_?Load@KTabFile@@UAEHPAD@Z 1008a0cc     engine:Engine.dll
 0002:000000d0       __imp_??0KTabFile@@QAE@XZ  1008a0d0     engine:Engine.dll
 0002:000000d4       __imp_??1KLinkArray@@QAE@XZ 1008a0d4     engine:Engine.dll
 0002:000000d8       __imp_?Insert@KLinkArray@@QAEXH@Z 1008a0d8     engine:Engine.dll
 0002:000000dc       __imp_?Init@KLinkArray@@QAEXH@Z 1008a0dc     engine:Engine.dll
 0002:000000e0       __imp_?Remove@KLinkArray@@QAEXH@Z 1008a0e0     engine:Engine.dll
 0002:000000e4       __imp_?SafeCallEnd@KLuaScript@@QAEXH@Z 1008a0e4     engine:Engine.dll
 0002:000000e8       __imp_?SafeCallBegin@KLuaScript@@QAEXPAH@Z 1008a0e8     engine:Engine.dll
 0002:000000ec       __imp_?KSG_StringSkipSymbol@@YA_NPAPBDH@Z 1008a0ec     engine:Engine.dll
 0002:000000f0       __imp_?KSG_StringGetInt@@YAHPAPBDH@Z 1008a0f0     engine:Engine.dll
 0002:000000f4       __imp_?GetString@KIniFile@@QAEHPBD00PADK@Z 1008a0f4     engine:Engine.dll
 0002:000000f8       __imp_??1KIniFile@@QAE@XZ  1008a0f8     engine:Engine.dll
 0002:000000fc       __imp_?Load@KIniFile@@QAEHPBD@Z 1008a0fc     engine:Engine.dll
 0002:00000100       __imp_??0KIniFile@@QAE@XZ  1008a100     engine:Engine.dll
 0002:00000104       __imp_?g_StrCpyLen@@YAXPADPBDH@Z 1008a104     engine:Engine.dll
 0002:00000108       __imp_?GetString@KTabFile@@UAEHHHPAD0K@Z 1008a108     engine:Engine.dll
 0002:0000010c       __imp_?SetGlobalName@KLuaScript@@QAEXPAD@Z 1008a10c     engine:Engine.dll
 0002:00000110       __imp_?GetInteger@KTabFile@@UAEHHHHPAH@Z 1008a110     engine:Engine.dll
 0002:00000114       __imp_?GetShort@KIniFile@@QAEHPBD0FPAF@Z 1008a114     engine:Engine.dll
 0002:00000118       __imp_?GetInteger@KIniFile@@QAEHPBD0HPAH@Z 1008a118     engine:Engine.dll
 0002:0000011c       __imp_?Clear@KIniFile@@QAEXXZ 1008a11c     engine:Engine.dll
 0002:00000120       __imp_?g_StrCmp@@YAHPBD0@Z 1008a120     engine:Engine.dll
 0002:00000124       __imp_?g_StrLower@@YAXPAD@Z 1008a124     engine:Engine.dll
 0002:00000128       __imp_?FindRow@KTabFile@@UAEHPADH@Z 1008a128     engine:Engine.dll
 0002:0000012c       __imp_?GetFloat@KTabFile@@UAEHHPADMPAMH@Z 1008a12c     engine:Engine.dll
 0002:00000130       __imp_?GetGlobalName@KLuaScript@@QAEXPAD@Z 1008a130     engine:Engine.dll
 0002:00000134       __imp_?g_StrCpy@@YAXPADPBD@Z 1008a134     engine:Engine.dll
 0002:00000138       \177Engine_NULL_THUNK_DATA 1008a138     engine:Engine.dll
 0002:0000013c       __imp__IsBadWritePtr@8     1008a13c     kernel32:KERNEL32.dll
 0002:00000140       __imp__SetFilePointer@16   1008a140     kernel32:KERNEL32.dll
 0002:00000144       __imp__FlushFileBuffers@4  1008a144     kernel32:KERNEL32.dll
 0002:00000148       __imp__CloseHandle@4       1008a148     kernel32:KERNEL32.dll
 0002:0000014c       __imp__GetCPInfo@8         1008a14c     kernel32:KERNEL32.dll
 0002:00000150       __imp__IsValidLocale@8     1008a150     kernel32:KERNEL32.dll
 0002:00000154       __imp__IsValidCodePage@4   1008a154     kernel32:KERNEL32.dll
 0002:00000158       __imp__GetLocaleInfoA@16   1008a158     kernel32:KERNEL32.dll
 0002:0000015c       __imp__EnumSystemLocalesA@8 1008a15c     kernel32:KERNEL32.dll
 0002:00000160       __imp__GetUserDefaultLCID@0 1008a160     kernel32:KERNEL32.dll
 0002:00000164       __imp__GetVersionExA@4     1008a164     kernel32:KERNEL32.dll
 0002:00000168       __imp__IsBadReadPtr@8      1008a168     kernel32:KERNEL32.dll
 0002:0000016c       __imp__IsBadCodePtr@4      1008a16c     kernel32:KERNEL32.dll
 0002:00000170       __imp__UnhandledExceptionFilter@4 1008a170     kernel32:KERNEL32.dll
 0002:00000174       __imp__GetStringTypeA@20   1008a174     kernel32:KERNEL32.dll
 0002:00000178       __imp__GetStringTypeW@16   1008a178     kernel32:KERNEL32.dll
 0002:0000017c       __imp__GetACP@0            1008a17c     kernel32:KERNEL32.dll
 0002:00000180       __imp__GetOEMCP@0          1008a180     kernel32:KERNEL32.dll
 0002:00000184       __imp__LoadLibraryA@4      1008a184     kernel32:KERNEL32.dll
 0002:00000188       __imp__SetStdHandle@8      1008a188     kernel32:KERNEL32.dll
 0002:0000018c       __imp__ReadFile@20         1008a18c     kernel32:KERNEL32.dll
 0002:00000190       __imp__SetConsoleCtrlHandler@8 1008a190     kernel32:KERNEL32.dll
 0002:00000194       __imp__GetLocaleInfoW@16   1008a194     kernel32:KERNEL32.dll
 0002:00000198       __imp__CompareStringA@24   1008a198     kernel32:KERNEL32.dll
 0002:0000019c       __imp__CompareStringW@24   1008a19c     kernel32:KERNEL32.dll
 0002:000001a0       __imp__SetEnvironmentVariableA@8 1008a1a0     kernel32:KERNEL32.dll
 0002:000001a4       __imp__GetLocalTime@4      1008a1a4     kernel32:KERNEL32.dll
 0002:000001a8       __imp__lstrlenW@4          1008a1a8     kernel32:KERNEL32.dll
 0002:000001ac       __imp__GetCurrentDirectoryA@8 1008a1ac     kernel32:KERNEL32.dll
 0002:000001b0       __imp__GetFullPathNameA@16 1008a1b0     kernel32:KERNEL32.dll
 0002:000001b4       __imp__GetDriveTypeA@4     1008a1b4     kernel32:KERNEL32.dll
 0002:000001b8       __imp__LocalFree@4         1008a1b8     kernel32:KERNEL32.dll
 0002:000001bc       __imp__lstrlenA@4          1008a1bc     kernel32:KERNEL32.dll
 0002:000001c0       __imp__MultiByteToWideChar@24 1008a1c0     kernel32:KERNEL32.dll
 0002:000001c4       __imp__GetLastError@0      1008a1c4     kernel32:KERNEL32.dll
 0002:000001c8       __imp__FormatMessageA@28   1008a1c8     kernel32:KERNEL32.dll
 0002:000001cc       __imp__LocalAlloc@8        1008a1cc     kernel32:KERNEL32.dll
 0002:000001d0       __imp__InterlockedDecrement@4 1008a1d0     kernel32:KERNEL32.dll
 0002:000001d4       __imp__GetComputerNameA@8  1008a1d4     kernel32:KERNEL32.dll
 0002:000001d8       __imp__SystemTimeToFileTime@8 1008a1d8     kernel32:KERNEL32.dll
 0002:000001dc       __imp__LocalFileTimeToFileTime@8 1008a1dc     kernel32:KERNEL32.dll
 0002:000001e0       __imp__FileTimeToSystemTime@8 1008a1e0     kernel32:KERNEL32.dll
 0002:000001e4       __imp__GetTickCount@0      1008a1e4     kernel32:KERNEL32.dll
 0002:000001e8       __imp__GetModuleFileNameA@12 1008a1e8     kernel32:KERNEL32.dll
 0002:000001ec       __imp__VirtualAlloc@16     1008a1ec     kernel32:KERNEL32.dll
 0002:000001f0       __imp__InitializeCriticalSection@4 1008a1f0     kernel32:KERNEL32.dll
 0002:000001f4       __imp__DeleteCriticalSection@4 1008a1f4     kernel32:KERNEL32.dll
 0002:000001f8       __imp__LeaveCriticalSection@4 1008a1f8     kernel32:KERNEL32.dll
 0002:000001fc       __imp__InterlockedIncrement@4 1008a1fc     kernel32:KERNEL32.dll
 0002:00000200       __imp__EnterCriticalSection@4 1008a200     kernel32:KERNEL32.dll
 0002:00000204       __imp__InterlockedExchange@8 1008a204     kernel32:KERNEL32.dll
 0002:00000208       __imp__Sleep@4             1008a208     kernel32:KERNEL32.dll
 0002:0000020c       __imp__RtlUnwind@16        1008a20c     kernel32:KERNEL32.dll
 0002:00000210       __imp__GetTimeZoneInformation@4 1008a210     kernel32:KERNEL32.dll
 0002:00000214       __imp__GetSystemTime@4     1008a214     kernel32:KERNEL32.dll
 0002:00000218       __imp__FindFirstFileA@8    1008a218     kernel32:KERNEL32.dll
 0002:0000021c       __imp__FindNextFileA@8     1008a21c     kernel32:KERNEL32.dll
 0002:00000220       __imp__FindClose@4         1008a220     kernel32:KERNEL32.dll
 0002:00000224       __imp__FileTimeToLocalFileTime@8 1008a224     kernel32:KERNEL32.dll
 0002:00000228       __imp__GetCommandLineA@0   1008a228     kernel32:KERNEL32.dll
 0002:0000022c       __imp__GetVersion@0        1008a22c     kernel32:KERNEL32.dll
 0002:00000230       __imp__RaiseException@16   1008a230     kernel32:KERNEL32.dll
 0002:00000234       __imp__HeapFree@12         1008a234     kernel32:KERNEL32.dll
 0002:00000238       __imp__ExitProcess@4       1008a238     kernel32:KERNEL32.dll
 0002:0000023c       __imp__FatalAppExitA@8     1008a23c     kernel32:KERNEL32.dll
 0002:00000240       __imp__TerminateProcess@8  1008a240     kernel32:KERNEL32.dll
 0002:00000244       __imp__GetCurrentProcess@0 1008a244     kernel32:KERNEL32.dll
 0002:00000248       __imp__HeapReAlloc@16      1008a248     kernel32:KERNEL32.dll
 0002:0000024c       __imp__HeapAlloc@12        1008a24c     kernel32:KERNEL32.dll
 0002:00000250       __imp__HeapSize@12         1008a250     kernel32:KERNEL32.dll
 0002:00000254       __imp__GetProcAddress@8    1008a254     kernel32:KERNEL32.dll
 0002:00000258       __imp__GetModuleHandleA@4  1008a258     kernel32:KERNEL32.dll
 0002:0000025c       __imp__GetCurrentThreadId@0 1008a25c     kernel32:KERNEL32.dll
 0002:00000260       __imp__TlsSetValue@8       1008a260     kernel32:KERNEL32.dll
 0002:00000264       __imp__TlsAlloc@0          1008a264     kernel32:KERNEL32.dll
 0002:00000268       __imp__TlsFree@4           1008a268     kernel32:KERNEL32.dll
 0002:0000026c       __imp__SetLastError@4      1008a26c     kernel32:KERNEL32.dll
 0002:00000270       __imp__TlsGetValue@4       1008a270     kernel32:KERNEL32.dll
 0002:00000274       __imp__GetCurrentThread@0  1008a274     kernel32:KERNEL32.dll
 0002:00000278       __imp__WideCharToMultiByte@32 1008a278     kernel32:KERNEL32.dll
 0002:0000027c       __imp__LCMapStringA@24     1008a27c     kernel32:KERNEL32.dll
 0002:00000280       __imp__LCMapStringW@24     1008a280     kernel32:KERNEL32.dll
 0002:00000284       __imp__SetHandleCount@4    1008a284     kernel32:KERNEL32.dll
 0002:00000288       __imp__GetStdHandle@4      1008a288     kernel32:KERNEL32.dll
 0002:0000028c       __imp__GetFileType@4       1008a28c     kernel32:KERNEL32.dll
 0002:00000290       __imp__GetStartupInfoA@4   1008a290     kernel32:KERNEL32.dll
 0002:00000294       __imp__FreeEnvironmentStringsA@4 1008a294     kernel32:KERNEL32.dll
 0002:00000298       __imp__FreeEnvironmentStringsW@4 1008a298     kernel32:KERNEL32.dll
 0002:0000029c       __imp__GetEnvironmentStrings@0 1008a29c     kernel32:KERNEL32.dll
 0002:000002a0       __imp__GetEnvironmentStringsW@0 1008a2a0     kernel32:KERNEL32.dll
 0002:000002a4       __imp__HeapDestroy@4       1008a2a4     kernel32:KERNEL32.dll
 0002:000002a8       __imp__HeapCreate@12       1008a2a8     kernel32:KERNEL32.dll
 0002:000002ac       __imp__VirtualFree@12      1008a2ac     kernel32:KERNEL32.dll
 0002:000002b0       __imp__WriteFile@20        1008a2b0     kernel32:KERNEL32.dll
 0002:000002b4       __imp__SetUnhandledExceptionFilter@4 1008a2b4     kernel32:KERNEL32.dll
 0002:000002b8       __imp__SetCurrentDirectoryA@4 1008a2b8     kernel32:KERNEL32.dll
 0002:000002bc       \177KERNEL32_NULL_THUNK_DATA 1008a2bc     kernel32:KERNEL32.dll
 0002:000002c0       __imp__lua_isstring        1008a2c0     lualibdll:LuaLibDll.dll
 0002:000002c4       __imp__lua_pushstring      1008a2c4     lualibdll:LuaLibDll.dll
 0002:000002c8       __imp__lua_pushnil         1008a2c8     lualibdll:LuaLibDll.dll
 0002:000002cc       __imp__lua_dofile          1008a2cc     lualibdll:LuaLibDll.dll
 0002:000002d0       __imp__lua_rawget          1008a2d0     lualibdll:LuaLibDll.dll
 0002:000002d4       __imp__lua_getglobal       1008a2d4     lualibdll:LuaLibDll.dll
 0002:000002d8       __imp__lua_type            1008a2d8     lualibdll:LuaLibDll.dll
 0002:000002dc       __imp__lua_pushnumber      1008a2dc     lualibdll:LuaLibDll.dll
 0002:000002e0       __imp__lua_gettop          1008a2e0     lualibdll:LuaLibDll.dll
 0002:000002e4       __imp__lua_typename        1008a2e4     lualibdll:LuaLibDll.dll
 0002:000002e8       __imp__lua_isnumber        1008a2e8     lualibdll:LuaLibDll.dll
 0002:000002ec       __imp__lua_tonumber        1008a2ec     lualibdll:LuaLibDll.dll
 0002:000002f0       __imp__lua_tostring        1008a2f0     lualibdll:LuaLibDll.dll
 0002:000002f4       \177LuaLibDll_NULL_THUNK_DATA 1008a2f4     lualibdll:LuaLibDll.dll
 0002:000002f8       __imp__CreateErrorInfo@4   1008a2f8     oleaut32:OLEAUT32.dll
 0002:000002fc       __imp__VariantChangeType@16 1008a2fc     oleaut32:OLEAUT32.dll
 0002:00000300       __imp__SysAllocString@4    1008a300     oleaut32:OLEAUT32.dll
 0002:00000304       __imp__SysFreeString@4     1008a304     oleaut32:OLEAUT32.dll
 0002:00000308       __imp__VariantInit@4       1008a308     oleaut32:OLEAUT32.dll
 0002:0000030c       __imp__VariantClear@4      1008a30c     oleaut32:OLEAUT32.dll
 0002:00000310       __imp__SetErrorInfo@8      1008a310     oleaut32:OLEAUT32.dll
 0002:00000314       __imp__GetErrorInfo@8      1008a314     oleaut32:OLEAUT32.dll
 0002:00000318       \177OLEAUT32_NULL_THUNK_DATA 1008a318     oleaut32:OLEAUT32.dll
 0002:0000031c       __imp__MessageBoxA@16      1008a31c     user32:USER32.dll
 0002:00000320       __imp__wsprintfA           1008a320     user32:USER32.dll
 0002:00000324       \177USER32_NULL_THUNK_DATA 1008a324     user32:USER32.dll
 0002:00000328       __imp__inet_addr@4         1008a328     Ws2_32:WS2_32.dll
 0002:0000032c       \177WS2_32_NULL_THUNK_DATA 1008a32c     Ws2_32:WS2_32.dll
 0002:00000330       __imp__OleRun@4            1008a330     ole32:ole32.dll
 0002:00000334       __imp__CoInitializeEx@8    1008a334     ole32:ole32.dll
 0002:00000338       __imp__CoCreateInstance@20 1008a338     ole32:ole32.dll
 0002:0000033c       __imp__CLSIDFromString@8   1008a33c     ole32:ole32.dll
 0002:00000340       __imp__CoUninitialize@0    1008a340     ole32:ole32.dll
 0002:00000344       __imp__CLSIDFromProgID@8   1008a344     ole32:ole32.dll
 0002:00000348       \177ole32_NULL_THUNK_DATA  1008a348     ole32:ole32.dll
 0002:0000036c       ??_7KThiefSkill@@6B@       1008a36c     KThiefSkill.obj
 0002:000003b8       ??_7ISkill@@6B@            1008a3b8     KThiefSkill.obj
 0002:00000408       __real@8@4002a000000000000000 1008a408     KThiefSkill.obj
 0002:00000410       __real@8@3ffbccccccccccccd000 1008a410     KThiefSkill.obj
 0002:00000820       ??_7KMissle@@6B@           1008a820     KMissle.obj
 0002:00000824       ??_7KIndexNode@@6B@        1008a824     KMissle.obj
 0002:00000828       ??_7KNode@@6B@             1008a828     KMissle.obj
 0002:0000082c       ??_7KWorldMsgNode@@6B@     1008a82c     KMissle.obj
 0002:00000c38       ??_7KSkill@@6B@            1008ac38     KSkills.obj
 0002:00001090       __real@4@00000000000000000000 1008b090     KNpc.obj
 0002:00001094       __real@4@40058200000000000000 1008b094     KNpc.obj
 0002:00001098       __real@4@3fff8000000000000000 1008b098     KNpc.obj
 0002:0000109c       ??_7KStateNode@@6B@        1008b09c     KNpc.obj
 0002:000010a0       __real@8@3ff8a3d70a3d70a3d800 1008b0a0     KNpc.obj
 0002:000010a8       __real@8@4005c800000000000000 1008b0a8     KNpc.obj
 0002:000010b0       __real@8@00000000000000000000 1008b0b0     KNpc.obj
 0002:00001cd0       __real@4@3ff8a3d70a3d70a3d800 1008bcd0     KNpcTemplate.obj
 0002:00001cd4       __real@4@3ff1d1b71758e2196800 1008bcd4     KPlayer.obj
 0002:00001cd8       __real@8@3fff8000000000000000 1008bcd8     KPlayer.obj
 0002:00001ce0       __real@8@3ffe8000000000000000 1008bce0     KPlayer.obj
 0002:00001ce8       __real@8@3ff4aec33e1f67152800 1008bce8     KPlayer.obj
 0002:000020f8       _IID_IDocHostUIHandlerDispatch 1008c0f8     KPlayerChat.obj
 0002:00002108       _IID_IInternalConnection   1008c108     KPlayerChat.obj
 0002:00002118       _IID_IAxWinAmbientDispatch 1008c118     KPlayerChat.obj
 0002:00002128       _IID_IAxWinHostWindow      1008c128     KPlayerChat.obj
 0002:00002138       _IID_IRegistrar            1008c138     KPlayerChat.obj
 0002:00002148       _CLSID_Registrar           1008c148     KPlayerChat.obj
 0002:00002158       _LIBID_ATLLib              1008c158     KPlayerChat.obj
 0002:00002168       ??_7CChatFriend@@6B@       1008c168     KPlayerChat.obj
 0002:0000216c       ?_C@?1??_Nullstr@?$basic_string@DU?$char_traits@D@std@@V?$allocator@D@2@@std@@CAPBDXZ@4DB 1008c16c     KPlayerChat.obj
 0002:00002170       ?npos@?$basic_string@DU?$char_traits@D@std@@V?$allocator@D@2@@std@@2IB 1008c170     KPlayerChat.obj
 0002:00002174       ??_7KBasicPropertyTable@@6B@ 1008c174     KBasPropTbl.obj
 0002:0000217c       ??_7KBPT_MagicAttrib_TF@@6B@ 1008c17c     KBasPropTbl.obj
 0002:00002184       ??_7KBPT_Equipment@@6B@    1008c184     KBasPropTbl.obj
 0002:0000218c       ??_7KBPT_Gold_Equipment@@6B@ 1008c18c     KBasPropTbl.obj
 0002:00002194       ??_7KBPT_Broken_Equipment@@6B@ 1008c194     KBasPropTbl.obj
 0002:0000219c       ??_7KBPT_Medicine@@6B@     1008c19c     KBasPropTbl.obj
 0002:000021a4       ??_7KBPT_Quest@@6B@        1008c1a4     KBasPropTbl.obj
 0002:000021ac       ??_7KBPT_Script@@6B@       1008c1ac     KBasPropTbl.obj
 0002:000021b4       ??_7KBPT_Mine@@6B@         1008c1b4     KBasPropTbl.obj
 0002:00002dd8       ??_7?$KMissionArray@VKMission@@$0DC@@@6B@ 1008cdd8     KSubWorld.obj
 0002:00002ddc       ??_7?$KLinkArrayTemplate@VKMission@@$0DC@@@6B@ 1008cddc     KSubWorld.obj
 0002:00002de0       ??_7?$KMissionArray@VKMission@@$02@@6B@ 1008cde0     KSubWorld.obj
 0002:00002de4       __real@4@40048000000000000000 1008cde4     KSubWorld.obj
 0002:00002de8       ??_7?$KLinkArrayTemplate@VKMission@@$02@@6B@ 1008cde8     KSubWorld.obj
 0002:00002dec       ??_7?$_KMissionPlayerArray@UTMissionPlayerInfo@@$0ELA@@@6B@ 1008cdec     KSubWorld.obj
 0002:00002df0       ??_7?$KLinkArrayTemplate@UTMissionPlayerInfo@@$0ELA@@@6B@ 1008cdf0     KSubWorld.obj
 0002:00002df4       ??_7?$KTimerFunArray@VKTimerTaskFun@@$02$1?g_MissionTimerCallBackFun@@YAHPAXPAD@Z@@6B@ 1008cdf4     KSubWorld.obj
 0002:00002df8       ??_7?$KLinkArrayTemplate@VKTimerTaskFun@@$02@@6B@ 1008cdf8     KSubWorld.obj
 0002:00003a18       ??_7KScriptValueSet@@6B@   1008da18     KScriptValueSet.obj
 0002:00003a1c       ??_7TIntegerValueNode@@6B@ 1008da1c     KScriptValueSet.obj
 0002:00003a20       ??_7TStringValueNode@@6B@  1008da20     KScriptValueSet.obj
 0002:00003a24       ??_7CoreServerShell@@6B@   1008da24     CoreServerShell.obj
 0002:00003ac4       ?MAGIC_ATTRIB_STRING@@3QAY0GE@$$CBDA 1008dac4     KMagicDesc.obj
 0002:0000a504       ??_7KTimerTaskFun@@6B@     10094504     KTaskFuns.obj
 0002:0000a50c       ??_7ZEG_MSSQLServer_Result@@6B@ 1009450c     ZEG_MSSQLServer_Connection.obj
 0002:0000a918       ??_7CException@Win32@OnlineGameLib@@6B@ 10094918     common:Buffer.obj
 0002:0000a924       ??_7Allocator@CBuffer@Win32@OnlineGameLib@@6B@ 10094924     common:Buffer.obj
 0002:0000a934       ??_7CPackager@Win32@OnlineGameLib@@6B@ 10094934     common:Buffer.obj
 0002:0000a93c       ??_7?$basic_istream@DU?$char_traits@D@std@@@std@@6B@ 1009493c     libcpmt:iostream.obj
 0002:0000a944       ??_7?$basic_ostream@DU?$char_traits@D@std@@@std@@6B@ 10094944     libcpmt:iostream.obj
 0002:0000a94c       ??_7?$basic_ios@DU?$char_traits@D@std@@@std@@6B@ 1009494c     libcpmt:iostream.obj
 0002:0000a950       ??_8?$basic_ostream@DU?$char_traits@D@std@@@std@@7B@ 10094950     libcpmt:iostream.obj
 0002:0000a958       ??_8?$basic_istream@DU?$char_traits@D@std@@@std@@7B@ 10094958     libcpmt:iostream.obj
 0002:0000a964       ??_7?$basic_filebuf@DU?$char_traits@D@std@@@std@@6B@ 10094964     libcpmt:iostream.obj
 0002:0000a99c       ??_7?$basic_streambuf@DU?$char_traits@D@std@@@std@@6B@ 1009499c     libcpmt:iostream.obj
 0002:0000a9d4       ??_7?$basic_istream@GU?$char_traits@G@std@@@std@@6B@ 100949d4     libcpmt:wiostrea.obj
 0002:0000a9dc       ??_7?$basic_ostream@GU?$char_traits@G@std@@@std@@6B@ 100949dc     libcpmt:wiostrea.obj
 0002:0000a9e4       ??_7?$basic_ios@GU?$char_traits@G@std@@@std@@6B@ 100949e4     libcpmt:wiostrea.obj
 0002:0000a9e8       ??_8?$basic_ostream@GU?$char_traits@G@std@@@std@@7B@ 100949e8     libcpmt:wiostrea.obj
 0002:0000a9f0       ??_8?$basic_istream@GU?$char_traits@G@std@@@std@@7B@ 100949f0     libcpmt:wiostrea.obj
 0002:0000a9fc       ??_7?$basic_filebuf@GU?$char_traits@G@std@@@std@@6B@ 100949fc     libcpmt:wiostrea.obj
 0002:0000aa34       ??_7?$basic_streambuf@GU?$char_traits@G@std@@@std@@6B@ 10094a34     libcpmt:wiostrea.obj
 0002:0000aa6c       ??_7length_error@std@@6B@  10094a6c     libcpmt:string.obj
 0002:0000aa78       ??_C@_0BA@HHMB@string?5too?5long?$AA@ 10094a78     libcpmt:string.obj
 0002:0000aa8c       ??_7logic_error@std@@6B@   10094a8c     libcpmt:string.obj
 0002:0000aa9c       ??_7out_of_range@std@@6B@  10094a9c     libcpmt:string.obj
 0002:0000aaa8       ??_C@_0BI@EEBE@invalid?5string?5position?$AA@ 10094aa8     libcpmt:string.obj
 0002:0000aac0       ?_Fpz@std@@3_JB            10094ac0     libcpmt:ios.obj
 0002:0000aacc       ??_7failure@ios_base@std@@6B@ 10094acc     libcpmt:ios.obj
 0002:0000aad8       ??_C@_0BA@NGIA@ios?3?3eofbit?5set?$AA@ 10094ad8     libcpmt:ios.obj
 0002:0000aae8       ??_C@_0BB@KPBH@ios?3?3failbit?5set?$AA@ 10094ae8     libcpmt:ios.obj
 0002:0000aafc       ??_C@_0BA@HGGD@ios?3?3badbit?5set?$AA@ 10094afc     libcpmt:ios.obj
 0002:0000ab10       ??_7runtime_error@std@@6B@ 10094b10     libcpmt:ios.obj
 0002:0000ab20       ??_7ios_base@std@@6B@      10094b20     libcpmt:ios.obj
 0002:0000ab24       ??_C@_0BP@INPK@invalid?5ios?3?3iword?1pword?5index?$AA@ 10094b24     libcpmt:ios.obj
 0002:0000ab44       ?table_size@?$ctype@D@std@@2IB 10094b44     libcpmt:locale0.obj
 0002:0000ab48       ??_C@_01FDHG@?$CK?$AA@     10094b48     libcpmt:locale0.obj
 0002:0000ab4c       ??_C@_01FKHJ@C?$AA@        10094b4c     libcpmt:locale0.obj
 0002:0000ab54       ??_7_Locimp@locale@std@@6B@ 10094b54     libcpmt:locale0.obj
 0002:0000ab5c       ??_7facet@locale@std@@6B@  10094b5c     libcpmt:locale0.obj
 0002:0000ab60       ?nothrow@std@@3Unothrow_t@1@B 10094b60     libcpmt:nomemory.obj
 0002:0000ab64       ??_C@_0P@LJNA@bad?5allocation?$AA@ 10094b64     libcpmt:nomemory.obj
 0002:0000ab78       ??_7bad_alloc@std@@6B@     10094b78     libcpmt:nomemory.obj
 0002:0000abb8       ??_7type_info@@6B@         10094bb8     LIBCMT:typinfo.obj
 0002:0000abe4       ??_7exception@@6B@         10094be4     LIBCMT:stdexcpt.obj
 0002:0000abec       ??_C@_0BC@OIDF@Unknown?5exception?$AA@ 10094bec     LIBCMT:stdexcpt.obj
 0002:0000ac00       ??_C@_07PCLE@LC_TIME?$AA@  10094c00     LIBCMT:setlocal.obj
 0002:0000ac08       ??_C@_0L@NKG@LC_NUMERIC?$AA@ 10094c08     LIBCMT:setlocal.obj
 0002:0000ac14       ??_C@_0M@CBIH@LC_MONETARY?$AA@ 10094c14     LIBCMT:setlocal.obj
 0002:0000ac20       ??_C@_08LFGE@LC_CTYPE?$AA@ 10094c20     LIBCMT:setlocal.obj
 0002:0000ac2c       ??_C@_0L@CFLC@LC_COLLATE?$AA@ 10094c2c     LIBCMT:setlocal.obj
 0002:0000ac38       ??_C@_06GCPK@LC_ALL?$AA@   10094c38     LIBCMT:setlocal.obj
 0002:0000ac40       ??_C@_02BGDO@?$DN?$DL?$AA@ 10094c40     LIBCMT:setlocal.obj
 0002:0000ac44       ??_C@_01KPOD@?$DN?$AA@     10094c44     LIBCMT:setlocal.obj
 0002:0000ac48       ??_C@_03DBOJ@_?4?0?$AA@    10094c48     LIBCMT:setlocal.obj
 0002:0000ac4c       ??_C@_01NON@_?$AA@         10094c4c     LIBCMT:setlocal.obj
 0002:0000ac50       ___lookuptable             10094c50     LIBCMT:output.obj
 0002:0000acac       ??_C@_1O@POHA@?$AA?$CI?$AAn?$AAu?$AAl?$AAl?$AA?$CJ?$AA?$AA@ 10094cac     LIBCMT:output.obj
 0002:0000acbc       ??_C@_06ONKE@?$CInull?$CJ?$AA@ 10094cbc     LIBCMT:output.obj
 0002:0000acc8       __real@8@4015800bf60000000000 10094cc8     LIBCMT:testfdiv.obj
 0002:0000acd0       __real@8@4014bffffc0000000000 10094cd0     LIBCMT:testfdiv.obj
 0002:0000acd8       ??_C@_0BK@JEGK@IsProcessorFeaturePresent?$AA@ 10094cd8     LIBCMT:testfdiv.obj
 0002:0000acf4       ??_C@_08OBID@KERNEL32?$AA@ 10094cf4     LIBCMT:testfdiv.obj
 0002:0000ad00       ??_C@_05OFLO@e?$CL000?$AA@ 10094d00     LIBCMT:cvt.obj
 0002:0000ad80       ??_C@_01A@?$AA?$AA@        10094d80     LIBCMT:a_map.obj
 0002:0000ad84       ??_C@_13A@?$AA?$AA?$AA?$AA@ 10094d84     LIBCMT:a_map.obj
 0002:0000ada0       ___dnames                  10094da0     LIBCMT:timeset.obj
 0002:0000adb8       ___mnames                  10094db8     LIBCMT:timeset.obj
 0002:0000ade0       ??_C@_02JHIA@TZ?$AA@       10094de0     LIBCMT:tzset.obj
 0002:0000ade4       ??_C@_0P@GGKG@runtime?5error?5?$AA@ 10094de4     LIBCMT:crt0msg.obj
 0002:0000adf4       ??_C@_02PIMC@?$AN?6?$AA@   10094df4     LIBCMT:crt0msg.obj
 0002:0000adf8       ??_C@_0O@DELO@TLOSS?5error?$AN?6?$AA@ 10094df8     LIBCMT:crt0msg.obj
 0002:0000ae08       ??_C@_0N@OMLL@SING?5error?$AN?6?$AA@ 10094e08     LIBCMT:crt0msg.obj
 0002:0000ae18       ??_C@_0P@OJAK@DOMAIN?5error?$AN?6?$AA@ 10094e18     LIBCMT:crt0msg.obj
 0002:0000ae28       ??_C@_0CF@EANP@R6028?$AN?6?9?5unable?5to?5initialize?5he@ 10094e28     LIBCMT:crt0msg.obj
 0002:0000ae50       ??_C@_0DF@ECGN@R6027?$AN?6?9?5not?5enough?5space?5for?5lo@ 10094e50     LIBCMT:crt0msg.obj
 0002:0000ae88       ??_C@_0DF@FKAC@R6026?$AN?6?9?5not?5enough?5space?5for?5st@ 10094e88     LIBCMT:crt0msg.obj
 0002:0000aec0       ??_C@_0CG@DPMN@R6025?$AN?6?9?5pure?5virtual?5function?5c@ 10094ec0     LIBCMT:crt0msg.obj
 0002:0000aee8       ??_C@_0DF@CKIP@R6024?$AN?6?9?5not?5enough?5space?5for?5_o@ 10094ee8     LIBCMT:crt0msg.obj
 0002:0000af20       ??_C@_0CJ@GGOE@R6019?$AN?6?9?5unable?5to?5open?5console?5@ 10094f20     LIBCMT:crt0msg.obj
 0002:0000af4c       ??_C@_0CB@LBOB@R6018?$AN?6?9?5unexpected?5heap?5error?$AN?6@ 10094f4c     LIBCMT:crt0msg.obj
 0002:0000af70       ??_C@_0CN@FPEG@R6017?$AN?6?9?5unexpected?5multithread?5@ 10094f70     LIBCMT:crt0msg.obj
 0002:0000afa0       ??_C@_0CM@OBIC@R6016?$AN?6?9?5not?5enough?5space?5for?5th@ 10094fa0     LIBCMT:crt0msg.obj
 0002:0000afcc       ??_C@_0CB@HPAL@?$AN?6abnormal?5program?5termination?$AN?6@ 10094fcc     LIBCMT:crt0msg.obj
 0002:0000aff0       ??_C@_0CM@JOOB@R6009?$AN?6?9?5not?5enough?5space?5for?5en@ 10094ff0     LIBCMT:crt0msg.obj
 0002:0000b01c       ??_C@_0CK@OIBL@R6008?$AN?6?9?5not?5enough?5space?5for?5ar@ 1009501c     LIBCMT:crt0msg.obj
 0002:0000b048       ??_C@_0CF@LKPB@R6002?$AN?6?9?5floating?5point?5not?5load@ 10095048     LIBCMT:crt0msg.obj
 0002:0000b070       ??_C@_0CF@JPDF@Microsoft?5Visual?5C?$CL?$CL?5Runtime?5Lib@ 10095070     LIBCMT:crt0msg.obj
 0002:0000b098       ??_C@_0BK@DEOK@Runtime?5Error?$CB?6?6Program?3?5?$AA@ 10095098     LIBCMT:crt0msg.obj
 0002:0000b0b4       ??_C@_03NAME@?4?4?4?$AA@   100950b4     LIBCMT:crt0msg.obj
 0002:0000b0b8       ??_C@_0BH@NNCD@?$DMprogram?5name?5unknown?$DO?$AA@ 100950b8     LIBCMT:crt0msg.obj
 0002:0000b0d0       ??_C@_08OBJD@Paraguay?$AA@ 100950d0     LIBCMT:getqloc.obj
 0002:0000b0dc       ??_C@_07GLKH@Uruguay?$AA@  100950dc     LIBCMT:getqloc.obj
 0002:0000b0e4       ??_C@_05FPFC@Chile?$AA@    100950e4     LIBCMT:getqloc.obj
 0002:0000b0ec       ??_C@_07IIGF@Ecuador?$AA@  100950ec     LIBCMT:getqloc.obj
 0002:0000b0f4       ??_C@_09PKAL@Argentina?$AA@ 100950f4     LIBCMT:getqloc.obj
 0002:0000b100       ??_C@_04LKAH@Peru?$AA@     10095100     LIBCMT:getqloc.obj
 0002:0000b108       ??_C@_08NEEM@Colombia?$AA@ 10095108     LIBCMT:getqloc.obj
 0002:0000b114       ??_C@_09ODEB@Venezuela?$AA@ 10095114     LIBCMT:getqloc.obj
 0002:0000b120       ??_C@_0BD@CLEL@Dominican?5Republic?$AA@ 10095120     LIBCMT:getqloc.obj
 0002:0000b134       ??_C@_0N@MDGL@South?5Africa?$AA@ 10095134     LIBCMT:getqloc.obj
 0002:0000b144       ??_C@_06NKBG@Panama?$AA@   10095144     LIBCMT:getqloc.obj
 0002:0000b14c       ??_C@_0L@BMHO@Luxembourg?$AA@ 1009514c     LIBCMT:getqloc.obj
 0002:0000b158       ??_C@_0L@IMDK@Costa?5Rica?$AA@ 10095158     LIBCMT:getqloc.obj
 0002:0000b164       ??_C@_0M@BLJF@Switzerland?$AA@ 10095164     LIBCMT:getqloc.obj
 0002:0000b170       ??_C@_09KBOL@Guatemala?$AA@ 10095170     LIBCMT:getqloc.obj
 0002:0000b17c       ??_C@_06JNAK@Canada?$AA@   1009517c     LIBCMT:getqloc.obj
 0002:0000b184       ??_C@_0BG@OLLP@Spanish?5?9?5Modern?5Sort?$AA@ 10095184     LIBCMT:getqloc.obj
 0002:0000b19c       ??_C@_09IDKE@Australia?$AA@ 1009519c     LIBCMT:getqloc.obj
 0002:0000b1a8       ??_C@_07JJJJ@English?$AA@  100951a8     LIBCMT:getqloc.obj
 0002:0000b1b0       ??_C@_07NMDO@Austria?$AA@  100951b0     LIBCMT:getqloc.obj
 0002:0000b1b8       ??_C@_06DEFE@German?$AA@   100951b8     LIBCMT:getqloc.obj
 0002:0000b1c0       ??_C@_07JAIH@Belgium?$AA@  100951c0     LIBCMT:getqloc.obj
 0002:0000b1c8       ??_C@_06BNLJ@Mexico?$AA@   100951c8     LIBCMT:getqloc.obj
 0002:0000b1d0       ??_C@_07JHAG@Spanish?$AA@  100951d0     LIBCMT:getqloc.obj
 0002:0000b1d8       ??_C@_06DADE@Basque?$AA@   100951d8     LIBCMT:getqloc.obj
 0002:0000b1e0       ??_C@_06ENFP@Sweden?$AA@   100951e0     LIBCMT:getqloc.obj
 0002:0000b1e8       ??_C@_07JPMH@Swedish?$AA@  100951e8     LIBCMT:getqloc.obj
 0002:0000b1f0       ??_C@_07IEKF@Iceland?$AA@  100951f0     LIBCMT:getqloc.obj
 0002:0000b1f8       ??_C@_09KNEA@Icelandic?$AA@ 100951f8     LIBCMT:getqloc.obj
 0002:0000b204       ??_C@_06IJOD@France?$AA@   10095204     LIBCMT:getqloc.obj
 0002:0000b20c       ??_C@_06EINI@French?$AA@   1009520c     LIBCMT:getqloc.obj
 0002:0000b214       ??_C@_07FOOE@Finland?$AA@  10095214     LIBCMT:getqloc.obj
 0002:0000b21c       ??_C@_07OJOM@Finnish?$AA@  1009521c     LIBCMT:getqloc.obj
 0002:0000b224       ??_C@_05FFAC@Spain?$AA@    10095224     LIBCMT:getqloc.obj
 0002:0000b22c       ??_C@_0BL@BIHM@Spanish?5?9?5Traditional?5Sort?$AA@ 1009522c     LIBCMT:getqloc.obj
 0002:0000b248       ??_C@_0O@GLHB@united?9states?$AA@ 10095248     LIBCMT:getqloc.obj
 0002:0000b258       ??_C@_0P@IIKK@united?9kingdom?$AA@ 10095258     LIBCMT:getqloc.obj
 0002:0000b268       ??_C@_0BC@FHBO@trinidad?5?$CG?5tobago?$AA@ 10095268     LIBCMT:getqloc.obj
 0002:0000b27c       ??_C@_0M@BDFM@south?9korea?$AA@ 1009527c     LIBCMT:getqloc.obj
 0002:0000b288       ??_C@_0N@CKFA@south?9africa?$AA@ 10095288     LIBCMT:getqloc.obj
 0002:0000b298       ??_C@_0M@HNHN@south?5korea?$AA@ 10095298     LIBCMT:getqloc.obj
 0002:0000b2a4       ??_C@_0N@MKDO@south?5africa?$AA@ 100952a4     LIBCMT:getqloc.obj
 0002:0000b2b4       ??_C@_06KFFJ@slovak?$AA@   100952b4     LIBCMT:getqloc.obj
 0002:0000b2bc       ??_C@_0M@NMAC@puerto?9rico?$AA@ 100952bc     LIBCMT:getqloc.obj
 0002:0000b2c8       ??_C@_08EJOH@pr?9china?$AA@ 100952c8     LIBCMT:getqloc.obj
 0002:0000b2d4       ??_C@_08CHMG@pr?5china?$AA@ 100952d4     LIBCMT:getqloc.obj
 0002:0000b2e0       ??_C@_02OCJK@nz?$AA@       100952e0     LIBCMT:getqloc.obj
 0002:0000b2e4       ??_C@_0M@MMKA@new?9zealand?$AA@ 100952e4     LIBCMT:getqloc.obj
 0002:0000b2f0       ??_C@_09MGEH@hong?9kong?$AA@ 100952f0     LIBCMT:getqloc.obj
 0002:0000b2fc       ??_C@_07CCAK@holland?$AA@  100952fc     LIBCMT:getqloc.obj
 0002:0000b304       ??_C@_0O@MEPL@great?5britain?$AA@ 10095304     LIBCMT:getqloc.obj
 0002:0000b314       ??_C@_07LGIB@england?$AA@  10095314     LIBCMT:getqloc.obj
 0002:0000b31c       ??_C@_05BMOA@czech?$AA@    1009531c     LIBCMT:getqloc.obj
 0002:0000b324       ??_C@_05NMPB@china?$AA@    10095324     LIBCMT:getqloc.obj
 0002:0000b32c       ??_C@_07GN@britain?$AA@    1009532c     LIBCMT:getqloc.obj
 0002:0000b334       ??_C@_07DLAK@america?$AA@  10095334     LIBCMT:getqloc.obj
 0002:0000b33c       ??_C@_03IPEP@usa?$AA@      1009533c     LIBCMT:getqloc.obj
 0002:0000b340       ??_C@_02PILH@us?$AA@       10095340     LIBCMT:getqloc.obj
 0002:0000b344       ??_C@_02FHP@uk?$AA@        10095344     LIBCMT:getqloc.obj
 0002:0000b348       ??_C@_05DEAI@swiss?$AA@    10095348     LIBCMT:getqloc.obj
 0002:0000b350       ??_C@_0BA@LIAF@swedish?9finland?$AA@ 10095350     LIBCMT:getqloc.obj
 0002:0000b360       ??_C@_0BC@FMEG@spanish?9venezuela?$AA@ 10095360     LIBCMT:getqloc.obj
 0002:0000b374       ??_C@_0BA@BNMG@spanish?9uruguay?$AA@ 10095374     LIBCMT:getqloc.obj
 0002:0000b384       ??_C@_0BE@BKDJ@spanish?9puerto?5rico?$AA@ 10095384     LIBCMT:getqloc.obj
 0002:0000b398       ??_C@_0N@JIBL@spanish?9peru?$AA@ 10095398     LIBCMT:getqloc.obj
 0002:0000b3a8       ??_C@_0BB@OGOF@spanish?9paraguay?$AA@ 100953a8     LIBCMT:getqloc.obj
 0002:0000b3bc       ??_C@_0P@LLFA@spanish?9panama?$AA@ 100953bc     LIBCMT:getqloc.obj
 0002:0000b3cc       ??_C@_0BC@BBJM@spanish?9nicaragua?$AA@ 100953cc     LIBCMT:getqloc.obj
 0002:0000b3e0       ??_C@_0P@NJBN@spanish?9modern?$AA@ 100953e0     LIBCMT:getqloc.obj
 0002:0000b3f0       ??_C@_0BA@NHDN@spanish?9mexican?$AA@ 100953f0     LIBCMT:getqloc.obj
 0002:0000b400       ??_C@_0BB@JHOJ@spanish?9honduras?$AA@ 10095400     LIBCMT:getqloc.obj
 0002:0000b414       ??_C@_0BC@BOOM@spanish?9guatemala?$AA@ 10095414     LIBCMT:getqloc.obj
 0002:0000b428       ??_C@_0BE@EELI@spanish?9el?5salvador?$AA@ 10095428     LIBCMT:getqloc.obj
 0002:0000b43c       ??_C@_0BA@POAE@spanish?9ecuador?$AA@ 1009543c     LIBCMT:getqloc.obj
 0002:0000b44c       ??_C@_0BL@LDKN@spanish?9dominican?5republic?$AA@ 1009544c     LIBCMT:getqloc.obj
 0002:0000b468       ??_C@_0BD@HPMH@spanish?9costa?5rica?$AA@ 10095468     LIBCMT:getqloc.obj
 0002:0000b47c       ??_C@_0BB@NDDK@spanish?9colombia?$AA@ 1009547c     LIBCMT:getqloc.obj
 0002:0000b490       ??_C@_0O@BJHA@spanish?9chile?$AA@ 10095490     LIBCMT:getqloc.obj
 0002:0000b4a0       ??_C@_0BA@OBNG@spanish?9bolivia?$AA@ 100954a0     LIBCMT:getqloc.obj
 0002:0000b4b0       ??_C@_0BC@EFAM@spanish?9argentina?$AA@ 100954b0     LIBCMT:getqloc.obj
 0002:0000b4c4       ??_C@_0BF@KMMM@portuguese?9brazilian?$AA@ 100954c4     LIBCMT:getqloc.obj
 0002:0000b4dc       ??_C@_0BC@BAAE@norwegian?9nynorsk?$AA@ 100954dc     LIBCMT:getqloc.obj
 0002:0000b4f0       ??_C@_0BB@PBHK@norwegian?9bokmal?$AA@ 100954f0     LIBCMT:getqloc.obj
 0002:0000b504       ??_C@_09EHKL@norwegian?$AA@ 10095504     LIBCMT:getqloc.obj
 0002:0000b510       ??_C@_0O@BEAN@italian?9swiss?$AA@ 10095510     LIBCMT:getqloc.obj
 0002:0000b520       ??_C@_0O@OIFK@irish?9english?$AA@ 10095520     LIBCMT:getqloc.obj
 0002:0000b530       ??_C@_0N@NBPL@german?9swiss?$AA@ 10095530     LIBCMT:getqloc.obj
 0002:0000b540       ??_C@_0BC@ICFJ@german?9luxembourg?$AA@ 10095540     LIBCMT:getqloc.obj
 0002:0000b554       ??_C@_0BE@GGPC@german?9lichtenstein?$AA@ 10095554     LIBCMT:getqloc.obj
 0002:0000b568       ??_C@_0BA@MKDC@german?9austrian?$AA@ 10095568     LIBCMT:getqloc.obj
 0002:0000b578       ??_C@_0N@ODNB@french?9swiss?$AA@ 10095578     LIBCMT:getqloc.obj
 0002:0000b588       ??_C@_0BC@MGCM@french?9luxembourg?$AA@ 10095588     LIBCMT:getqloc.obj
 0002:0000b59c       ??_C@_0BA@NABK@french?9canadian?$AA@ 1009559c     LIBCMT:getqloc.obj
 0002:0000b5ac       ??_C@_0P@CJNO@french?9belgian?$AA@ 100955ac     LIBCMT:getqloc.obj
 0002:0000b5bc       ??_C@_0M@LJOL@english?9usa?$AA@ 100955bc     LIBCMT:getqloc.obj
 0002:0000b5c8       ??_C@_0L@FMNC@english?9us?$AA@ 100955c8     LIBCMT:getqloc.obj
 0002:0000b5d4       ??_C@_0L@KBBK@english?9uk?$AA@ 100955d4     LIBCMT:getqloc.obj
 0002:0000b5e0       ??_C@_0BK@NDDE@english?9trinidad?5y?5tobago?$AA@ 100955e0     LIBCMT:getqloc.obj
 0002:0000b5fc       ??_C@_0BF@LKML@english?9south?5africa?$AA@ 100955fc     LIBCMT:getqloc.obj
 0002:0000b614       ??_C@_0L@EGPP@english?9nz?$AA@ 10095614     LIBCMT:getqloc.obj
 0002:0000b620       ??_C@_0BA@HLH@english?9jamaica?$AA@ 10095620     LIBCMT:getqloc.obj
 0002:0000b630       ??_C@_0M@PMJI@english?9ire?$AA@ 10095630     LIBCMT:getqloc.obj
 0002:0000b63c       ??_C@_0BC@HINE@english?9caribbean?$AA@ 1009563c     LIBCMT:getqloc.obj
 0002:0000b650       ??_C@_0M@DCFH@english?9can?$AA@ 10095650     LIBCMT:getqloc.obj
 0002:0000b65c       ??_C@_0P@DGHK@english?9belize?$AA@ 1009565c     LIBCMT:getqloc.obj
 0002:0000b66c       ??_C@_0M@FLHK@english?9aus?$AA@ 1009566c     LIBCMT:getqloc.obj
 0002:0000b678       ??_C@_0BB@HNCK@english?9american?$AA@ 10095678     LIBCMT:getqloc.obj
 0002:0000b68c       ??_C@_0O@PAMI@dutch?9belgian?$AA@ 1009568c     LIBCMT:getqloc.obj
 0002:0000b69c       ??_C@_0BE@FPEJ@chinese?9traditional?$AA@ 1009569c     LIBCMT:getqloc.obj
 0002:0000b6b0       ??_C@_0BC@CHFL@chinese?9singapore?$AA@ 100956b0     LIBCMT:getqloc.obj
 0002:0000b6c4       ??_C@_0BD@DCMH@chinese?9simplified?$AA@ 100956c4     LIBCMT:getqloc.obj
 0002:0000b6d8       ??_C@_0BB@JMOE@chinese?9hongkong?$AA@ 100956d8     LIBCMT:getqloc.obj
 0002:0000b6ec       ??_C@_07NGFN@chinese?$AA@  100956ec     LIBCMT:getqloc.obj
 0002:0000b6f4       ??_C@_03PCOI@chi?$AA@      100956f4     LIBCMT:getqloc.obj
 0002:0000b6f8       ??_C@_03FIHP@chh?$AA@      100956f8     LIBCMT:getqloc.obj
 0002:0000b6fc       ??_C@_08HFLO@canadian?$AA@ 100956fc     LIBCMT:getqloc.obj
 0002:0000b708       ??_C@_07INIJ@belgian?$AA@  10095708     LIBCMT:getqloc.obj
 0002:0000b710       ??_C@_0L@LCCA@australian?$AA@ 10095710     LIBCMT:getqloc.obj
 0002:0000b71c       ??_C@_0BB@BJIO@american?9english?$AA@ 1009571c     LIBCMT:getqloc.obj
 0002:0000b730       ??_C@_0BB@DAGO@american?5english?$AA@ 10095730     LIBCMT:getqloc.obj
 0002:0000b744       ??_C@_08HENB@american?$AA@ 10095744     LIBCMT:getqloc.obj
 0002:0000b750       ??_C@_03DGJE@OCP?$AA@      10095750     LIBCMT:getqloc.obj
 0002:0000b754       ??_C@_03EKFG@ACP?$AA@      10095754     LIBCMT:getqloc.obj
 0002:0000b764       ??_C@_0BD@NJFP@GetLastActivePopup?$AA@ 10095764     LIBCMT:crtmbox.obj
 0002:0000b778       ??_C@_0BA@GILI@GetActiveWindow?$AA@ 10095778     LIBCMT:crtmbox.obj
 0002:0000b788       ??_C@_0M@PKCK@MessageBoxA?$AA@ 10095788     LIBCMT:crtmbox.obj
 0002:0000b794       ??_C@_0L@HKL@user32?4dll?$AA@ 10095794     LIBCMT:crtmbox.obj
 0002:0000b7a0       ??_C@_07CJME@H?3mm?3ss?$AA@ 100957a0     LIBCMT:strftime.obj
 0002:0000b7a8       ??_C@_0BE@MHI@dddd?0?5MMMM?5dd?0?5yyyy?$AA@ 100957a8     LIBCMT:strftime.obj
 0002:0000b7bc       ??_C@_06HCAD@M?1d?1yy?$AA@ 100957bc     LIBCMT:strftime.obj
 0002:0000b7c4       ??_C@_02DBLP@PM?$AA@       100957c4     LIBCMT:strftime.obj
 0002:0000b7c8       ??_C@_02ENLM@AM?$AA@       100957c8     LIBCMT:strftime.obj
 0002:0000b7cc       ??_C@_08LIDF@December?$AA@ 100957cc     LIBCMT:strftime.obj
 0002:0000b7d8       ??_C@_08NJLI@November?$AA@ 100957d8     LIBCMT:strftime.obj
 0002:0000b7e4       ??_C@_07IAMM@October?$AA@  100957e4     LIBCMT:strftime.obj
 0002:0000b7ec       ??_C@_09MKGD@September?$AA@ 100957ec     LIBCMT:strftime.obj
 0002:0000b7f8       ??_C@_06PADP@August?$AA@   100957f8     LIBCMT:strftime.obj
 0002:0000b800       ??_C@_04PIJO@July?$AA@     10095800     LIBCMT:strftime.obj
 0002:0000b808       ??_C@_04ICFP@June?$AA@     10095808     LIBCMT:strftime.obj
 0002:0000b810       ??_C@_05JFGC@April?$AA@    10095810     LIBCMT:strftime.obj
 0002:0000b818       ??_C@_05FGPD@March?$AA@    10095818     LIBCMT:strftime.obj
 0002:0000b820       ??_C@_08PGBA@February?$AA@ 10095820     LIBCMT:strftime.obj
 0002:0000b82c       ??_C@_07BPKJ@January?$AA@  1009582c     LIBCMT:strftime.obj
 0002:0000b834       ??_C@_03PGJO@Dec?$AA@      10095834     LIBCMT:strftime.obj
 0002:0000b838       ??_C@_03PDLM@Nov?$AA@      10095838     LIBCMT:strftime.obj
 0002:0000b83c       ??_C@_03BLHK@Oct?$AA@      1009583c     LIBCMT:strftime.obj
 0002:0000b840       ??_C@_03DPFM@Sep?$AA@      10095840     LIBCMT:strftime.obj
 0002:0000b844       ??_C@_03CMCH@Aug?$AA@      10095844     LIBCMT:strftime.obj
 0002:0000b848       ??_C@_03OBKI@Jul?$AA@      10095848     LIBCMT:strftime.obj
 0002:0000b84c       ??_C@_03LEIG@Jun?$AA@      1009584c     LIBCMT:strftime.obj
 0002:0000b850       ??_C@_03MGHB@May?$AA@      10095850     LIBCMT:strftime.obj
 0002:0000b854       ??_C@_03MJJM@Apr?$AA@      10095854     LIBCMT:strftime.obj
 0002:0000b858       ??_C@_03GNHA@Mar?$AA@      10095858     LIBCMT:strftime.obj
 0002:0000b85c       ??_C@_03PICE@Feb?$AA@      1009585c     LIBCMT:strftime.obj
 0002:0000b860       ??_C@_03IEIF@Jan?$AA@      10095860     LIBCMT:strftime.obj
 0002:0000b864       ??_C@_08FAKH@Saturday?$AA@ 10095864     LIBCMT:strftime.obj
 0002:0000b870       ??_C@_06ONCK@Friday?$AA@   10095870     LIBCMT:strftime.obj
 0002:0000b878       ??_C@_08CCFO@Thursday?$AA@ 10095878     LIBCMT:strftime.obj
 0002:0000b884       ??_C@_09PBIN@Wednesday?$AA@ 10095884     LIBCMT:strftime.obj
 0002:0000b890       ??_C@_07BMBC@Tuesday?$AA@  10095890     LIBCMT:strftime.obj
 0002:0000b898       ??_C@_06CHLK@Monday?$AA@   10095898     LIBCMT:strftime.obj
 0002:0000b8a0       ??_C@_06OOEM@Sunday?$AA@   100958a0     LIBCMT:strftime.obj
 0002:0000b8a8       ??_C@_03MPKK@Sat?$AA@      100958a8     LIBCMT:strftime.obj
 0002:0000b8ac       ??_C@_03FINJ@Fri?$AA@      100958ac     LIBCMT:strftime.obj
 0002:0000b8b0       ??_C@_03HIKC@Thu?$AA@      100958b0     LIBCMT:strftime.obj
 0002:0000b8b4       ??_C@_03HECK@Wed?$AA@      100958b4     LIBCMT:strftime.obj
 0002:0000b8b8       ??_C@_03ECCP@Tue?$AA@      100958b8     LIBCMT:strftime.obj
 0002:0000b8bc       ??_C@_03PIEP@Mon?$AA@      100958bc     LIBCMT:strftime.obj
 0002:0000b8c0       ??_C@_03FHEP@Sun?$AA@      100958c0     LIBCMT:strftime.obj
 0002:0000b8c4       ??_C@_03MKGK@a?1p?$AA@     100958c4     LIBCMT:strftime.obj
 0002:0000b8c8       ??_C@_05BDJK@am?1pm?$AA@   100958c8     LIBCMT:strftime.obj
 0002:0000b8e8       ??_C@_06PAPI@1?$CDQNAN?$AA@ 100958e8     LIBCMT:x10fout.obj
 0002:0000b8f0       ??_C@_05BGNL@1?$CDINF?$AA@ 100958f0     LIBCMT:x10fout.obj
 0002:0000b8f8       ??_C@_05EDPF@1?$CDIND?$AA@ 100958f8     LIBCMT:x10fout.obj
 0002:0000b900       ??_C@_06LKFM@1?$CDSNAN?$AA@ 10095900     LIBCMT:x10fout.obj
 0002:0000b944       ??_7_com_error@@6B@        10095944     comsupp:comraise.obj
 0002:0000b948       ??_R1A@A@3A@ios_base@std@@8 10095948     libcpmt:iostream.obj
 0002:0000b960       ??_R1A@A@3BA@?$basic_ios@DU?$char_traits@D@std@@@std@@8 10095960     libcpmt:iostream.obj
 0002:0000b978       ??_R1A@?0A@A@?$basic_istream@DU?$char_traits@D@std@@@std@@8 10095978     libcpmt:iostream.obj
 0002:0000b990       ??_R2?$basic_istream@DU?$char_traits@D@std@@@std@@8 10095990     libcpmt:iostream.obj
 0002:0000b9a0       ??_R3?$basic_istream@DU?$char_traits@D@std@@@std@@8 100959a0     libcpmt:iostream.obj
 0002:0000b9b0       ??_R4?$basic_istream@DU?$char_traits@D@std@@@std@@6B@ 100959b0     libcpmt:iostream.obj
 0002:0000b9c8       ??_R1A@?0A@A@?$basic_ostream@DU?$char_traits@D@std@@@std@@8 100959c8     libcpmt:iostream.obj
 0002:0000b9e0       ??_R2?$basic_ostream@DU?$char_traits@D@std@@@std@@8 100959e0     libcpmt:iostream.obj
 0002:0000b9f0       ??_R3?$basic_ostream@DU?$char_traits@D@std@@@std@@8 100959f0     libcpmt:iostream.obj
 0002:0000ba00       ??_R4?$basic_ostream@DU?$char_traits@D@std@@@std@@6B@ 10095a00     libcpmt:iostream.obj
 0002:0000ba18       ??_R1A@?0A@A@ios_base@std@@8 10095a18     libcpmt:iostream.obj
 0002:0000ba30       ??_R1A@?0A@A@?$basic_ios@DU?$char_traits@D@std@@@std@@8 10095a30     libcpmt:iostream.obj
 0002:0000ba48       ??_R2?$basic_ios@DU?$char_traits@D@std@@@std@@8 10095a48     libcpmt:iostream.obj
 0002:0000ba58       ??_R3?$basic_ios@DU?$char_traits@D@std@@@std@@8 10095a58     libcpmt:iostream.obj
 0002:0000ba68       ??_R4?$basic_ios@DU?$char_traits@D@std@@@std@@6B@ 10095a68     libcpmt:iostream.obj
 0002:0000ba7c       ??_R2?$basic_streambuf@DU?$char_traits@D@std@@@std@@8 10095a7c     libcpmt:iostream.obj
 0002:0000ba88       ??_R3?$basic_streambuf@DU?$char_traits@D@std@@@std@@8 10095a88     libcpmt:iostream.obj
 0002:0000ba98       ??_R4?$basic_streambuf@DU?$char_traits@D@std@@@std@@6B@ 10095a98     libcpmt:iostream.obj
 0002:0000bab0       ??_R1A@?0A@A@?$basic_streambuf@DU?$char_traits@D@std@@@std@@8 10095ab0     libcpmt:iostream.obj
 0002:0000bac8       ??_R1A@?0A@A@?$basic_filebuf@DU?$char_traits@D@std@@@std@@8 10095ac8     libcpmt:iostream.obj
 0002:0000bae0       ??_R2?$basic_filebuf@DU?$char_traits@D@std@@@std@@8 10095ae0     libcpmt:iostream.obj
 0002:0000baf0       ??_R3?$basic_filebuf@DU?$char_traits@D@std@@@std@@8 10095af0     libcpmt:iostream.obj
 0002:0000bb00       ??_R4?$basic_filebuf@DU?$char_traits@D@std@@@std@@6B@ 10095b00     libcpmt:iostream.obj
 0002:0000bb18       ??_R1A@A@3BA@?$basic_ios@GU?$char_traits@G@std@@@std@@8 10095b18     libcpmt:wiostrea.obj
 0002:0000bb30       ??_R1A@?0A@A@?$basic_istream@GU?$char_traits@G@std@@@std@@8 10095b30     libcpmt:wiostrea.obj
 0002:0000bb48       ??_R2?$basic_istream@GU?$char_traits@G@std@@@std@@8 10095b48     libcpmt:wiostrea.obj
 0002:0000bb58       ??_R3?$basic_istream@GU?$char_traits@G@std@@@std@@8 10095b58     libcpmt:wiostrea.obj
 0002:0000bb68       ??_R4?$basic_istream@GU?$char_traits@G@std@@@std@@6B@ 10095b68     libcpmt:wiostrea.obj
 0002:0000bb80       ??_R1A@?0A@A@?$basic_ostream@GU?$char_traits@G@std@@@std@@8 10095b80     libcpmt:wiostrea.obj
 0002:0000bb98       ??_R2?$basic_ostream@GU?$char_traits@G@std@@@std@@8 10095b98     libcpmt:wiostrea.obj
 0002:0000bba8       ??_R3?$basic_ostream@GU?$char_traits@G@std@@@std@@8 10095ba8     libcpmt:wiostrea.obj
 0002:0000bbb8       ??_R4?$basic_ostream@GU?$char_traits@G@std@@@std@@6B@ 10095bb8     libcpmt:wiostrea.obj
 0002:0000bbd0       ??_R1A@?0A@A@?$basic_ios@GU?$char_traits@G@std@@@std@@8 10095bd0     libcpmt:wiostrea.obj
 0002:0000bbe8       ??_R2?$basic_ios@GU?$char_traits@G@std@@@std@@8 10095be8     libcpmt:wiostrea.obj
 0002:0000bbf8       ??_R3?$basic_ios@GU?$char_traits@G@std@@@std@@8 10095bf8     libcpmt:wiostrea.obj
 0002:0000bc08       ??_R4?$basic_ios@GU?$char_traits@G@std@@@std@@6B@ 10095c08     libcpmt:wiostrea.obj
 0002:0000bc20       ??_R1A@?0A@A@?$basic_filebuf@GU?$char_traits@G@std@@@std@@8 10095c20     libcpmt:wiostrea.obj
 0002:0000bc38       ??_R2?$basic_filebuf@GU?$char_traits@G@std@@@std@@8 10095c38     libcpmt:wiostrea.obj
 0002:0000bc48       ??_R3?$basic_filebuf@GU?$char_traits@G@std@@@std@@8 10095c48     libcpmt:wiostrea.obj
 0002:0000bc58       ??_R4?$basic_filebuf@GU?$char_traits@G@std@@@std@@6B@ 10095c58     libcpmt:wiostrea.obj
 0002:0000bc70       ??_R1A@?0A@A@?$basic_streambuf@GU?$char_traits@G@std@@@std@@8 10095c70     libcpmt:wiostrea.obj
 0002:0000bc88       ??_R2?$basic_streambuf@GU?$char_traits@G@std@@@std@@8 10095c88     libcpmt:wiostrea.obj
 0002:0000bc90       ??_R3?$basic_streambuf@GU?$char_traits@G@std@@@std@@8 10095c90     libcpmt:wiostrea.obj
 0002:0000bca0       ??_R4?$basic_streambuf@GU?$char_traits@G@std@@@std@@6B@ 10095ca0     libcpmt:wiostrea.obj
 0002:0000bcb8       ??_R1A@?0A@A@exception@@8  10095cb8     libcpmt:string.obj
 0002:0000bcd0       ??_R1A@?0A@A@logic_error@std@@8 10095cd0     libcpmt:string.obj
 0002:0000bce8       ??_R1A@?0A@A@length_error@std@@8 10095ce8     libcpmt:string.obj
 0002:0000bd00       ??_R2length_error@std@@8   10095d00     libcpmt:string.obj
 0002:0000bd10       ??_R3length_error@std@@8   10095d10     libcpmt:string.obj
 0002:0000bd20       ??_R4length_error@std@@6B@ 10095d20     libcpmt:string.obj
 0002:0000bd38       ??_R2logic_error@std@@8    10095d38     libcpmt:string.obj
 0002:0000bd48       ??_R3logic_error@std@@8    10095d48     libcpmt:string.obj
 0002:0000bd58       ??_R4logic_error@std@@6B@  10095d58     libcpmt:string.obj
 0002:0000bd70       ??_R1A@?0A@A@out_of_range@std@@8 10095d70     libcpmt:string.obj
 0002:0000bd88       ??_R2out_of_range@std@@8   10095d88     libcpmt:string.obj
 0002:0000bd98       ??_R3out_of_range@std@@8   10095d98     libcpmt:string.obj
 0002:0000bda8       ??_R4out_of_range@std@@6B@ 10095da8     libcpmt:string.obj
 0002:0000bdc0       ??_R1A@?0A@A@runtime_error@std@@8 10095dc0     libcpmt:ios.obj
 0002:0000bdd8       ??_R1A@?0A@A@failure@ios_base@std@@8 10095dd8     libcpmt:ios.obj
 0002:0000bdf0       ??_R2failure@ios_base@std@@8 10095df0     libcpmt:ios.obj
 0002:0000be00       ??_R3failure@ios_base@std@@8 10095e00     libcpmt:ios.obj
 0002:0000be10       ??_R4failure@ios_base@std@@6B@ 10095e10     libcpmt:ios.obj
 0002:0000be28       ??_R2runtime_error@std@@8  10095e28     libcpmt:ios.obj
 0002:0000be38       ??_R3runtime_error@std@@8  10095e38     libcpmt:ios.obj
 0002:0000be48       ??_R4runtime_error@std@@6B@ 10095e48     libcpmt:ios.obj
 0002:0000be5c       ??_R2ios_base@std@@8       10095e5c     libcpmt:ios.obj
 0002:0000be68       ??_R3ios_base@std@@8       10095e68     libcpmt:ios.obj
 0002:0000be78       ??_R4ios_base@std@@6B@     10095e78     libcpmt:ios.obj
 0002:0000be8c       ??_R2facet@locale@std@@8   10095e8c     libcpmt:locale0.obj
 0002:0000be98       ??_R3facet@locale@std@@8   10095e98     libcpmt:locale0.obj
 0002:0000bea8       ??_R4facet@locale@std@@6B@ 10095ea8     libcpmt:locale0.obj
 0002:0000bec0       ??_R1A@?0A@A@facet@locale@std@@8 10095ec0     libcpmt:locale0.obj
 0002:0000bed8       ??_R1A@?0A@A@_Locimp@locale@std@@8 10095ed8     libcpmt:locale0.obj
 0002:0000bef0       ??_R2_Locimp@locale@std@@8 10095ef0     libcpmt:locale0.obj
 0002:0000bf00       ??_R3_Locimp@locale@std@@8 10095f00     libcpmt:locale0.obj
 0002:0000bf10       ??_R4_Locimp@locale@std@@6B@ 10095f10     libcpmt:locale0.obj
 0002:0000bf28       ??_R1A@?0A@A@bad_alloc@std@@8 10095f28     libcpmt:nomemory.obj
 0002:0000bf40       ??_R2bad_alloc@std@@8      10095f40     libcpmt:nomemory.obj
 0002:0000bf50       ??_R3bad_alloc@std@@8      10095f50     libcpmt:nomemory.obj
 0002:0000bf60       ??_R4bad_alloc@std@@6B@    10095f60     libcpmt:nomemory.obj
 0002:0000bf78       ??_R1A@?0A@A@type_info@@8  10095f78     LIBCMT:typinfo.obj
 0002:0000bf90       ??_R2type_info@@8          10095f90     LIBCMT:typinfo.obj
 0002:0000bf98       ??_R3type_info@@8          10095f98     LIBCMT:typinfo.obj
 0002:0000bfa8       ??_R4type_info@@6B@        10095fa8     LIBCMT:typinfo.obj
 0002:0000bfbc       ??_R2exception@@8          10095fbc     LIBCMT:stdexcpt.obj
 0002:0000bfc8       ??_R3exception@@8          10095fc8     LIBCMT:stdexcpt.obj
 0002:0000bfd8       ??_R4exception@@6B@        10095fd8     LIBCMT:stdexcpt.obj
 0002:0000bff0       ??_R1A@?0A@A@_com_error@@8 10095ff0     comsupp:comraise.obj
 0002:0000c008       ??_R2_com_error@@8         10096008     comsupp:comraise.obj
 0002:0000c010       ??_R3_com_error@@8         10096010     comsupp:comraise.obj
 0002:0000c020       ??_R4_com_error@@6B@       10096020     comsupp:comraise.obj
 0002:0000e948       __CT??_R0?AVCException@Win32@OnlineGameLib@@@8??0CException@Win32@OnlineGameLib@@QAE@ABV012@@Z36 10098948     common:Buffer.obj
 0002:0000e968       __CTA1?AVCException@Win32@OnlineGameLib@@ 10098968     common:Buffer.obj
 0002:0000e970       __TI1?AVCException@Win32@OnlineGameLib@@ 10098970     common:Buffer.obj
 0002:0000f1f0       __CT??_R0?AVexception@@@8??0exception@@QAE@ABV0@@Z12 100991f0     libcpmt:string.obj
 0002:0000f210       __CT??_R0?AVlogic_error@std@@@8??0logic_error@std@@QAE@ABV01@@Z28 10099210     libcpmt:string.obj
 0002:0000f230       __CT??_R0?AVlength_error@std@@@8??0length_error@std@@QAE@ABV01@@Z28 10099230     libcpmt:string.obj
 0002:0000f250       __CTA3?AVlength_error@std@@ 10099250     libcpmt:string.obj
 0002:0000f260       __TI3?AVlength_error@std@@ 10099260     libcpmt:string.obj
 0002:0000f2c0       __CTA2?AVlogic_error@std@@ 100992c0     libcpmt:string.obj
 0002:0000f2d0       __TI2?AVlogic_error@std@@  100992d0     libcpmt:string.obj
 0002:0000f358       __CT??_R0?AVout_of_range@std@@@8??0out_of_range@std@@QAE@ABV01@@Z28 10099358     libcpmt:string.obj
 0002:0000f378       __CTA3?AVout_of_range@std@@ 10099378     libcpmt:string.obj
 0002:0000f388       __TI3?AVout_of_range@std@@ 10099388     libcpmt:string.obj
 0002:0000f3e8       __CT??_R0?AVruntime_error@std@@@8??0runtime_error@std@@QAE@ABV01@@Z28 100993e8     libcpmt:ios.obj
 0002:0000f408       __CT??_R0?AVfailure@ios_base@std@@@8??0failure@ios_base@std@@QAE@ABV012@@Z28 10099408     libcpmt:ios.obj
 0002:0000f428       __CTA3?AVfailure@ios_base@std@@ 10099428     libcpmt:ios.obj
 0002:0000f438       __TI3?AVfailure@ios_base@std@@ 10099438     libcpmt:ios.obj
 0002:0000f498       __CTA2?AVruntime_error@std@@ 10099498     libcpmt:ios.obj
 0002:0000f4a8       __TI2?AVruntime_error@std@@ 100994a8     libcpmt:ios.obj
 0002:0000f6c0       __CT??_R0?AVbad_alloc@std@@@8??0bad_alloc@std@@QAE@ABV01@@Z12 100996c0     libcpmt:nomemory.obj
 0002:0000f6e0       __CTA2?AVbad_alloc@std@@   100996e0     libcpmt:nomemory.obj
 0002:0000f6f0       __TI2?AVbad_alloc@std@@    100996f0     libcpmt:nomemory.obj
 0002:0000f700       __CT??_R0?AV_com_error@@@8??0_com_error@@QAE@ABV0@@Z16 10099700     comsupp:comraise.obj
 0002:0000f720       __CTA1?AV_com_error@@      10099720     comsupp:comraise.obj
 0002:0000f728       __TI1?AV_com_error@@       10099728     comsupp:comraise.obj
 0002:0000f738       __IMPORT_DESCRIPTOR_KERNEL32 10099738     kernel32:KERNEL32.dll
 0002:0000f74c       __IMPORT_DESCRIPTOR_USER32 1009974c     user32:USER32.dll
 0002:0000f760       __IMPORT_DESCRIPTOR_ole32  10099760     ole32:ole32.dll
 0002:0000f774       __IMPORT_DESCRIPTOR_OLEAUT32 10099774     oleaut32:OLEAUT32.dll
 0002:0000f788       __IMPORT_DESCRIPTOR_LuaLibDll 10099788     lualibdll:LuaLibDll.dll
 0002:0000f79c       __IMPORT_DESCRIPTOR_WS2_32 1009979c     Ws2_32:WS2_32.dll
 0002:0000f7b0       __IMPORT_DESCRIPTOR_Engine 100997b0     engine:Engine.dll
 0002:0000f7c4       __NULL_IMPORT_DESCRIPTOR   100997c4     kernel32:KERNEL32.dll
 0003:00000000       ___xc_a                    1009d000     LIBCMT:crt0init.obj
 0003:000002a8       ___xc_z                    1009d2a8     LIBCMT:crt0init.obj
 0003:000002ac       ___xi_a                    1009d2ac     LIBCMT:crt0init.obj
 0003:000002c0       ___xi_z                    1009d2c0     LIBCMT:crt0init.obj
 0003:000002c4       ___xp_a                    1009d2c4     LIBCMT:crt0init.obj
 0003:000002cc       ___xp_z                    1009d2cc     LIBCMT:crt0init.obj
 0003:000002d0       ___xt_a                    1009d2d0     LIBCMT:crt0init.obj
 0003:000002d8       ___xt_z                    1009d2d8     LIBCMT:crt0init.obj
 0003:000002e0       ??_C@_09MCD@?M?$LF?G?T?$LD?I?$LJ?$KG?5?$AA@ 1009d2e0     KThiefSkill.obj
 0003:000002ec       ??_C@_0CH@JPLM@?D?c?$LD?I?$LJ?$KG?$LF?D?$LE?S?$CFs?5?D?G?$MA?o?M?$LF?$LF?$LN?$CFd?A?$LN?R?x?W?S?$LO?h?$LI@ 1009d2ec     KThiefSkill.obj
 0003:00000314       ??_C@_09HJHG@?$LB?$LL?M?$LF?$LD?I?$LJ?$KG?5?$AA@ 1009d314     KThiefSkill.obj
 0003:00000320       ??_C@_0CB@JOBC@?$CFs?5?$LE?S?D?c?I?m?I?O?M?$LF?$LF?$LN?$CFd?A?$LN?R?x?W?S?$LO?h?$LI?x?G?$LA?O?$NP?$CB@ 1009d320     KThiefSkill.obj
 0003:00000344       ??_C@_08CPH@?M?$LF?G?T?N?$LE?K?l?$AA@ 1009d344     KThiefSkill.obj
 0003:00000350       ??_C@_0N@JCJE@?D?c?M?$LF?$CFs?5?J?$KH?$LA?$NM?$CB?$AA@ 1009d350     KThiefSkill.obj
 0003:00000360       ??_C@_08FHON@?$LB?$LL?M?$LF?N?$LE?K?l?$AA@ 1009d360     KThiefSkill.obj
 0003:0000036c       ??_C@_0BK@EFD@?$CFs?5?J?T?M?$LM?M?$LF?D?c?$LF?D?G?$KO?0?$LF?$KL?N?$LE?$LD?I?$LJ?$KG?$CB?$AA@ 1009d36c     KThiefSkill.obj
 0003:00000388       ??_C@_08MHOB@?$LG?T?$LH?$LN?G?i?$LB?$KI?$AA@ 1009d388     KThiefSkill.obj
 0003:00000394       ??_C@_0BM@HFBJ@?$CFs?5?$LF?$LB?G?$LA?I?z?C?$PM?V?$LF?G?i?$LP?v?3?5?$CFd?5?1?5?$CFd?5?$AA@ 1009d394     KThiefSkill.obj
 0003:000003b0       ??_C@_0BM@MMJI@?$CFs?5?$LF?$LB?G?$LA?D?Z?A?$KG?V?$LF?G?i?$LP?v?3?5?$CFd?5?1?5?$CFd?5?$AA@ 1009d3b0     KThiefSkill.obj
 0003:000003cc       ??_C@_0BI@GILH@?$CFs?5?$LF?$LB?G?$LA?O?V?$LN?p?G?i?$LP?v?3?5?$CFd?5?A?$LN?5?$AA@ 1009d3cc     KThiefSkill.obj
 0003:000003e4       ??_C@_04HBMH@main?$AA@     1009d3e4     KThiefSkill.obj
 0003:000003ec       ??_C@_06DMFP@Param1?$AA@   1009d3ec     KThiefSkill.obj
 0003:000003f4       ??_C@_0P@EKAE@CostUsePrecent?$AA@ 1009d3f4     KThiefSkill.obj
 0003:00000404       ??_C@_09KENA@SkillName?$AA@ 1009d404     KThiefSkill.obj
 0003:00000410       ??_C@_0L@CJJL@ThiefStyle?$AA@ 1009d410     KThiefSkill.obj
 0003:0000041c       ??_C@_09BCLK@TargetObj?$AA@ 1009d41c     KThiefSkill.obj
 0003:00000428       ??_C@_0L@EGCM@TargetAlly?$AA@ 1009d428     KThiefSkill.obj
 0003:00000434       ??_C@_0M@EBKI@TargetEnemy?$AA@ 1009d434     KThiefSkill.obj
 0003:00000440       ??_C@_0N@PLIG@ThiefPercent?$AA@ 1009d440     KThiefSkill.obj
 0003:00000450       ??_C@_04IHF@Cost?$AA@      1009d450     KThiefSkill.obj
 0003:00000458       ??_C@_0O@JJKM@SkillCostType?$AA@ 1009d458     KThiefSkill.obj
 0003:00000468       ??_C@_0M@FELF@TimePerCast?$AA@ 1009d468     KThiefSkill.obj
 0003:00000474       ??_C@_0N@LBIN@AttackRadius?$AA@ 1009d474     KThiefSkill.obj
 0003:00000488       ?g_CollisionMatrix@@3PAUTCollisionMatrix@@A 1009d488     KMissle.obj
 0003:00000c88       ??_C@_0M@MLLA@DmgInterval?$AA@ 1009dc88     KMissle.obj
 0003:00000c94       ??_C@_0M@CDCB@AutoExplode?$AA@ 1009dc94     KMissle.obj
 0003:00000ca0       ??_C@_06GJHB@Param3?$AA@   1009dca0     KMissle.obj
 0003:00000ca8       ??_C@_06MDOG@Param2?$AA@   1009dca8     KMissle.obj
 0003:00000cb0       ??_C@_06EDNA@Zspeed?$AA@   1009dcb0     KMissle.obj
 0003:00000cb8       ??_C@_04LIGI@Zacc?$AA@     1009dcb8     KMissle.obj
 0003:00000cc0       ??_C@_0L@ICBE@FollowKind?$AA@ 1009dcc0     KMissle.obj
 0003:00000ccc       ??_C@_08MKEC@MoveKind?$AA@ 1009dccc     KMissle.obj
 0003:00000cd8       ??_C@_08EKOK@DmgRange?$AA@ 1009dcd8     KMissle.obj
 0003:00000ce4       ??_C@_0L@DOMN@IsRangeDmg?$AA@ 1009dce4     KMissle.obj
 0003:00000cf0       ??_C@_07ICPB@CanSlow?$AA@  1009dcf0     KMissle.obj
 0003:00000cf8       ??_C@_0N@MOFP@CanColFriend?$AA@ 1009dcf8     KMissle.obj
 0003:00000d08       ??_C@_09LLHA@ColVanish?$AA@ 1009dd08     KMissle.obj
 0003:00000d14       ??_C@_0M@IPHD@CollidRange?$AA@ 1009dd14     KMissle.obj
 0003:00000d20       ??_C@_0O@CEMO@ResponseSkill?$AA@ 1009dd20     KMissle.obj
 0003:00000d30       ??_C@_05PDDA@Speed?$AA@    1009dd30     KMissle.obj
 0003:00000d38       ??_C@_08CLHE@LifeTime?$AA@ 1009dd38     KMissle.obj
 0003:00000d44       ??_C@_0N@IMPH@MissleHeight?$AA@ 1009dd44     KMissle.obj
 0003:00000d54       ??_C@_0L@MDID@MissleName?$AA@ 1009dd54     KMissle.obj
 0003:00000d60       ??_C@_0CK@PAOH@MissleSet?5Have?5Full?$CB?$CB?$CB?0?5It?5Maybe@ 1009dd60     KMissleSet.obj
 0003:00000d8c       ??_C@_0BJ@LELB@?2SETTINGS?2THIEFSKILL?4TXT?$AA@ 1009dd8c     KSkillManager.obj
 0003:00000da8       ??_C@_08KGGF@MaxLevel?$AA@ 1009dda8     KSkillManager.obj
 0003:00000db4       ??_C@_0L@BMHF@SkillStyle?$AA@ 1009ddb4     KSkillManager.obj
 0003:00000dc0       ??_C@_07FGDJ@SkillId?$AA@  1009ddc0     KSkillManager.obj
 0003:00000dc8       ??_C@_0O@MOFD@LevelUpScript?$AA@ 1009ddc8     KSkills.obj
 0003:00000dd8       ??_C@_0N@BIJN@LvlSetScript?$AA@ 1009ddd8     KSkills.obj
 0003:00000de8       ??_C@_0L@HLNN@IsExpSkill?$AA@ 1009dde8     KSkills.obj
 0003:00000df4       ??_C@_09NCCJ@ShowEvent?$AA@ 1009ddf4     KSkills.obj
 0003:00000e00       ??_C@_0O@BKID@StatePriority?$AA@ 1009de00     KSkills.obj
 0003:00000e10       ??_C@_0P@PHDN@StateSpecialId?$AA@ 1009de10     KSkills.obj
 0003:00000e20       ??_C@_0N@FCJK@HeelAtParent?$AA@ 1009de20     KSkills.obj
 0003:00000e30       ??_C@_0N@NHMJ@StopWhenMove?$AA@ 1009de30     KSkills.obj
 0003:00000e40       ??_C@_0L@DDCH@TargetSelf?$AA@ 1009de40     KSkills.obj
 0003:00000e4c       ??_C@_0L@JEDK@ClientSend?$AA@ 1009de4c     KSkills.obj
 0003:00000e58       ??_C@_08KDCG@WaitTime?$AA@ 1009de58     KSkills.obj
 0003:00000e64       ??_C@_0N@PFI@MaxShadowNum?$AA@ 1009de64     KSkills.obj
 0003:00000e74       ??_C@_0BB@DGJJ@MslsGenerateData?$AA@ 1009de74     KSkills.obj
 0003:00000e88       ??_C@_0N@KHIC@MslsGenerate?$AA@ 1009de88     KSkills.obj
 0003:00000e98       ??_C@_0N@PKDF@FlyEventTime?$AA@ 1009de98     KSkills.obj
 0003:00000ea8       ??_C@_07HKCA@IsMelee?$AA@  1009dea8     KSkills.obj
 0003:00000eb0       ??_C@_0BA@JADL@EventSkillLevel?$AA@ 1009deb0     KSkills.obj
 0003:00000ec0       ??_C@_0BA@GEHB@ChildSkillLevel?$AA@ 1009dec0     KSkills.obj
 0003:00000ed0       ??_C@_09PPMA@CostValue?$AA@ 1009ded0     KSkills.obj
 0003:00000edc       ??_C@_0O@DHIF@CollidSkillId?$AA@ 1009dedc     KSkills.obj
 0003:00000eec       ??_C@_0BA@BHEA@VanishedSkillId?$AA@ 1009deec     KSkills.obj
 0003:00000efc       ??_C@_0N@OEOH@StartSkillId?$AA@ 1009defc     KSkills.obj
 0003:00000f0c       ??_C@_0L@MDIN@FlySkillId?$AA@ 1009df0c     KSkills.obj
 0003:00000f18       ??_C@_0O@HGMF@VanishedEvent?$AA@ 1009df18     KSkills.obj
 0003:00000f28       ??_C@_0N@GKON@CollideEvent?$AA@ 1009df28     KSkills.obj
 0003:00000f38       ??_C@_0L@PGKK@StartEvent?$AA@ 1009df38     KSkills.obj
 0003:00000f44       ??_C@_08HFEG@FlyEvent?$AA@ 1009df44     KSkills.obj
 0003:00000f50       ??_C@_0N@CLHK@ChildSkillId?$AA@ 1009df50     KSkills.obj
 0003:00000f60       ??_C@_08EGED@ByMissle?$AA@ 1009df60     KSkills.obj
 0003:00000f6c       ??_C@_09GOAJ@BaseSkill?$AA@ 1009df6c     KSkills.obj
 0003:00000f78       ??_C@_0L@BHHN@TargetOnly?$AA@ 1009df78     KSkills.obj
 0003:00000f84       ??_C@_07BALM@IsUseAR?$AA@  1009df84     KSkills.obj
 0003:00000f8c       ??_C@_06FHFO@IsAura?$AA@   1009df8c     KSkills.obj
 0003:00000f94       ??_C@_0L@MDJJ@IsPhysical?$AA@ 1009df94     KSkills.obj
 0003:00000fa0       ??_C@_0L@PFGJ@CharAnimId?$AA@ 1009dfa0     KSkills.obj
 0003:00000fac       ??_C@_09NNND@CharClass?$AA@ 1009dfac     KSkills.obj
 0003:00000fb8       ??_C@_0M@BDNI@MisslesForm?$AA@ 1009dfb8     KSkills.obj
 0003:00000fc4       ??_C@_0O@NMBK@ChildSkillNum?$AA@ 1009dfc4     KSkills.obj
 0003:00000fd4       ??_C@_06BMOM@DoHurt?$AA@   1009dfd4     KSkills.obj
 0003:00000fdc       ??_C@_0L@PKIM@HorseLimit?$AA@ 1009dfdc     KSkills.obj
 0003:00000fe8       ??_C@_08BPMA@EqtLimit?$AA@ 1009dfe8     KSkills.obj
 0003:00000ff4       ??_C@_08BPMG@ReqLevel?$AA@ 1009dff4     KSkills.obj
 0003:00001000       ??_C@_06HAAG@Attrib?$AA@   1009e000     KSkills.obj
 0003:00001008       ??_C@_02MECO@?$CFd?$AA@    1009e008     KSkills.obj
 0003:0000100c       ??_C@_0BC@MKKH@GetSkillLevelData?$AA@ 1009e00c     KSkills.obj
 0003:00001020       ??_C@_03GDPD@ssd?$AA@      1009e020     KSkills.obj
 0003:00001024       ??_C@_09PAIP@LvlData?$CFd?$AA@ 1009e024     KSkills.obj
 0003:00001030       ??_C@_0N@LGNO@LvlSetting?$CFd?$AA@ 1009e030     KSkills.obj
 0003:00001040       ??_C@_04HGOJ@Camp?$AA@     1009e040     KFaction.obj
 0003:00001048       ??_C@_08OBKL@ShowName?$AA@ 1009e048     KFaction.obj
 0003:00001054       ??_C@_0P@BNPG@Thi?Uu?5L?$KJm?5ph?$LIi?$AA@ 1009e054     KFaction.obj
 0003:00001064       ??_C@_04EFNI@Name?$AA@     1009e064     KFaction.obj
 0003:0000106c       ??_C@_07IAHF@shaolin?$AA@  1009e06c     KFaction.obj
 0003:00001074       ??_C@_06NHCF@Series?$AA@   1009e074     KFaction.obj
 0003:0000107c       ??_C@_0CC@IAHD@?2settings?2faction?2factioninfo?4in@ 1009e07c     KFaction.obj
 0003:000010a0       ??_C@_07FFLF@S?y?5ki?Vn?$AA@ 1009e0a0     KFaction.obj
 0003:000010a8       ??_C@_08NAAE@Qu?$LIi?5th?s?$AA@ 1009e0a8     KFaction.obj
 0003:000010b4       ??_C@_07FCEO@S?$LIt?5th?q?$AA@ 1009e0b4     KFaction.obj
 0003:000010bc       ??_C@_09NFMN@C_BALANCE?$AA@ 1009e0bc     KFaction.obj
 0003:000010c8       ??_C@_06ECGP@C_EVIL?$AA@   1009e0c8     KFaction.obj
 0003:000010d0       ??_C@_09JFDN@C_JUSTICE?$AA@ 1009e0d0     KFaction.obj
 0003:000010dc       ??_C@_07NHNF@S?$KM?5nh?Kp?$AA@ 1009e0dc     KFaction.obj
 0003:000010e4       ??_C@_07HLOG@S_EARTH?$AA@  1009e0e4     KFaction.obj
 0003:000010ec       ??_C@_06GCAI@S_FIRE?$AA@   1009e0ec     KFaction.obj
 0003:000010f4       ??_C@_07BGL@S_WATER?$AA@   1009e0f4     KFaction.obj
 0003:000010fc       ??_C@_06MHGG@S_WOOD?$AA@   1009e0fc     KFaction.obj
 0003:00001104       ??_C@_06KJLI@S_GOLD?$AA@   1009e104     KFaction.obj
 0003:0000110c       ??_C@_07KKPI@OnDeath?$AA@  1009e10c     KNpc.obj
 0003:00001114       ??_C@_0CB@BNJA@?$KH?$LJi?5hi?Vp?5?$KO?$LH?5?$KO?$LInh?5tr?dng?5th?$KN?$KMng?5?$CFs@ 1009e114     KNpc.obj
 0003:00001138       ??_C@_08DIP@H?V?5Th?hng?$AA@ 1009e138     KNpc.obj
 0003:00001144       ??_C@_0CE@EIGK@?$KH?$LJi?5hi?Vp?5?$KO?$LH?5b?$NO?5?$CFs?5?$KO?$LInh?5tr?dng?5th?$KN@ 1009e144     KNpc.obj
 0003:00001168       ??_C@_0BN@LGIK@Packing?5sync?5data?5failed?4?4?4?6?$AA@ 1009e168     KNpc.obj
 0003:00001188       ??_C@_0CE@MCNN@Packing?5player?5sync?5data?5failed?4@ 1009e188     KNpc.obj
 0003:000011ac       ??_C@_02DILL@?$CFs?$AA@    1009e1ac     KNpc.obj
 0003:000011b0       ??_C@_06IACM@?$CFs?5x?$CFd?$AA@ 1009e1b0     KNpc.obj
 0003:000011b8       ??_C@_0EL@GLJ@?$FLNPC_DROP_DEBUG?$FN?5Item?5created?3?5?$CF@ 1009e1b8     KNpc.obj
 0003:00001204       ??_C@_0GC@EKLM@?$FLNPC_DROP_DEBUG?$FN?5Before?5ItemSet?4@ 1009e204     KNpc.obj
 0003:00001268       ??_C@_08IGIN@OnRevive?$AA@ 1009e268     KNpc.obj
 0003:00001274       ??_C@_0EB@HPAF@?$FLDROPRATE?$FNLoi?5Level?5Item?5May?5Man@ 1009e274     KNpc.obj
 0003:000012b8       ??_C@_0BG@MGCF@?$FLKNpc?$FN?5Loi?5nLucky?5?$DM?50?$AA@ 1009e2b8     KNpc.obj
 0003:000012d0       ??_C@_0DE@EMOE@?$FLERROR?$FN?5Vuot?5qua?557?5Item?5Droprat@ 1009e2d0     KNpc.obj
 0003:00001304       ??_C@_07NCPE@OnLeave?$AA@  1009e304     KNpc.obj
 0003:0000130c       ??_C@_0CP@FFME@Exception?5Have?5Caught?5When?5Execu@ 1009e30c     KNpc.obj
 0003:0000133c       ??_C@_01FNHM@d?$AA@        1009e33c     KNpc.obj
 0003:00001340       ??_C@_08GGGI@SubWorld?$AA@ 1009e340     KNpc.obj
 0003:0000134c       ??_C@_08IPKA@PlayerId?$AA@ 1009e34c     KNpc.obj
 0003:00001358       ??_C@_0M@IFME@PlayerIndex?$AA@ 1009e358     KNpc.obj
 0003:00001364       ??_C@_0DK@NACC@?$FLKNPC?$FN?5Exception?5Have?5Caught?5Whe@ 1009e364     KNpc.obj
 0003:000013a0       ??_C@_05GCE@NpcId?$AA@     1009e3a0     KNpc.obj
 0003:000013a8       ??_C@_08BDIH@NpcIndex?$AA@ 1009e3a8     KNpc.obj
 0003:000013b4       ??_C@_02HDNN@sd?$AA@       1009e3b4     KNpc.obj
 0003:000013b8       ??_C@_0DL@KLIB@?$FLKNPC?$FN?5Exception?5Have?5Caught?5Whe@ 1009e3b8     KNpc.obj
 0003:000013f4       ??_C@_02HICB@dd?$AA@       1009e3f4     KNpc.obj
 0003:000013f8       ??_C@_0CC@JFHM@?2settings?2npc?2npcgoldtemplate?4tx@ 1009e3f8     KNpcGold.obj
 0003:0000141c       ??_C@_0O@LHFK@LevelDistance?$AA@ 1009e41c     KNpcSet.obj
 0003:0000142c       ??_C@_08JPPK@BeKilled?$AA@ 1009e42c     KNpcSet.obj
 0003:00001438       ??_C@_0O@EOLH@KillPartnerPK?$AA@ 1009e438     KNpcSet.obj
 0003:00001448       ??_C@_08ENDF@EnmityPK?$AA@ 1009e448     KNpcSet.obj
 0003:00001454       ??_C@_0BA@LGOG@KillerPKFaction?$AA@ 1009e454     KNpcSet.obj
 0003:00001464       ??_C@_0BB@PPAP@FactionPKFaction?$AA@ 1009e464     KNpcSet.obj
 0003:00001478       ??_C@_02MOMN@PK?$AA@       1009e478     KNpcSet.obj
 0003:0000147c       ??_C@_04MMDE@rate?$AA@     1009e47c     KNpcSet.obj
 0003:00001484       ??_C@_0BJ@NDJO@?2settings?2npc?2pkrate?4ini?$AA@ 1009e484     KNpcSet.obj
 0003:000014a0       ??_C@_0CD@GEFG@?2settings?2npc?2player?2basevalue?4i@ 1009e4a0     KNpcSet.obj
 0003:000014c4       ??_C@_0M@DFBK@AttackFrame?$AA@ 1009e4c4     KNpcSet.obj
 0003:000014d0       ??_C@_09DKND@WalkSpeed?$AA@ 1009e4d0     KNpcSet.obj
 0003:000014dc       ??_C@_08OMKI@RunSpeed?$AA@ 1009e4dc     KNpcSet.obj
 0003:000014e8       ??_C@_06GEBA@Common?$AA@   1009e4e8     KNpcSet.obj
 0003:000014f0       ??_C@_09LLIK@HurtFrame?$AA@ 1009e4f0     KNpcSet.obj
 0003:000014fc       ??_C@_03GDBN@NPC?$AA@      1009e4fc     KNpcSet.obj
 0003:00001500       ??_C@_0O@MBLH@OnDeathScript?$AA@ 1009e500     KNpcSet.obj
 0003:00001510       ??_C@_0BL@IPEP@?9?9?$DOError?5Execute?3?5?$CFu?5?$FL?$CFs?$FN?6?$AA@ 1009e510     KNpcSet.obj
 0003:0000152c       ??_C@_0BE@HPEH@?$FLDropFile?5Error?$FN?$CFs?6?$AA@ 1009e52c     KNpcTemplate.obj
 0003:00001540       ??_C@_08KHIJ@RandRate?$AA@ 1009e540     KNpcTemplate.obj
 0003:0000154c       ??_C@_0L@ECJB@Particular?$AA@ 1009e54c     KNpcTemplate.obj
 0003:00001558       ??_C@_06GNMN@Detail?$AA@   1009e558     KNpcTemplate.obj
 0003:00001560       ??_C@_05FDCO@Genre?$AA@    1009e560     KNpcTemplate.obj
 0003:00001568       ??_C@_0N@JMHI@MinItemLevel?$AA@ 1009e568     KNpcTemplate.obj
 0003:00001578       ??_C@_0N@BEKP@MaxItemLevel?$AA@ 1009e578     KNpcTemplate.obj
 0003:00001588       ??_C@_0BC@JOHF@MaxItemLevelScale?$AA@ 1009e588     KNpcTemplate.obj
 0003:0000159c       ??_C@_0BC@DFKE@MinItemLevelScale?$AA@ 1009e59c     KNpcTemplate.obj
 0003:000015b0       ??_C@_0L@JCHN@MoneyScale?$AA@ 1009e5b0     KNpcTemplate.obj
 0003:000015bc       ??_C@_09MPBL@MoneyRate?$AA@ 1009e5bc     KNpcTemplate.obj
 0003:000015c8       ??_C@_09NMAE@MagicRate?$AA@ 1009e5c8     KNpcTemplate.obj
 0003:000015d4       ??_C@_09NIOL@RandRange?$AA@ 1009e5d4     KNpcTemplate.obj
 0003:000015e0       ??_C@_04NLIF@Main?$AA@     1009e5e0     KNpcTemplate.obj
 0003:000015e8       ??_C@_05HCNL@Count?$AA@    1009e5e8     KNpcTemplate.obj
 0003:000015f0       ??_C@_0M@CMOP@LevelScript?$AA@ 1009e5f0     KNpcTemplate.obj
 0003:000015fc       ??_C@_0M@LJCM@ReviveFrame?$AA@ 1009e5fc     KNpcTemplate.obj
 0003:00001608       ??_C@_0L@NGAE@HitRecover?$AA@ 1009e608     KNpcTemplate.obj
 0003:00001614       ??_C@_09LAOO@AIMaxTime?$AA@ 1009e614     KNpcTemplate.obj
 0003:00001620       ??_C@_0N@DACG@DropRateFile?$AA@ 1009e620     KNpcTemplate.obj
 0003:00001630       ??_C@_0N@JKIB@VisionRadius?$AA@ 1009e630     KNpcTemplate.obj
 0003:00001640       ??_C@_0N@OHDC@ActiveRadius?$AA@ 1009e640     KNpcTemplate.obj
 0003:00001650       ??_C@_0BB@CDAE@PhysicsResistMax?$AA@ 1009e650     KNpcTemplate.obj
 0003:00001664       ??_C@_0BA@HJIF@PoisonResistMax?$AA@ 1009e664     KNpcTemplate.obj
 0003:00001674       ??_C@_0P@HAFF@LightResistMax?$AA@ 1009e674     KNpcTemplate.obj
 0003:00001684       ??_C@_0O@NKIG@ColdResistMax?$AA@ 1009e684     KNpcTemplate.obj
 0003:00001694       ??_C@_0O@KOED@FireResistMax?$AA@ 1009e694     KNpcTemplate.obj
 0003:000016a4       ??_C@_09NMBA@AIParam10?$AA@ 1009e6a4     KNpcTemplate.obj
 0003:000016b0       ??_C@_08NEDM@AIParam9?$AA@ 1009e6b0     KNpcTemplate.obj
 0003:000016bc       ??_C@_08HOKL@AIParam8?$AA@ 1009e6bc     KNpcTemplate.obj
 0003:000016c8       ??_C@_08HPPG@AIParam7?$AA@ 1009e6c8     KNpcTemplate.obj
 0003:000016d4       ??_C@_08NFGB@AIParam6?$AA@ 1009e6d4     KNpcTemplate.obj
 0003:000016e0       ??_C@_08CKNI@AIParam5?$AA@ 1009e6e0     KNpcTemplate.obj
 0003:000016ec       ??_C@_08IAEP@AIParam4?$AA@ 1009e6ec     KNpcTemplate.obj
 0003:000016f8       ??_C@_08NFKK@AIParam3?$AA@ 1009e6f8     KNpcTemplate.obj
 0003:00001704       ??_C@_08HPDN@AIParam2?$AA@ 1009e704     KNpcTemplate.obj
 0003:00001710       ??_C@_08IAIE@AIParam1?$AA@ 1009e710     KNpcTemplate.obj
 0003:0000171c       ??_C@_06KAOA@AIMode?$AA@   1009e71c     KNpcTemplate.obj
 0003:00001724       ??_C@_08CPAE@Treasure?$AA@ 1009e724     KNpcTemplate.obj
 0003:00001730       ??_C@_07EPMP@Stature?$AA@  1009e730     KNpcTemplate.obj
 0003:00001738       ??_C@_0M@HKIJ@StandFrame1?$AA@ 1009e738     KNpcTemplate.obj
 0003:00001744       ??_C@_0L@IOGM@StandFrame?$AA@ 1009e744     KNpcTemplate.obj
 0003:00001750       ??_C@_09FMAN@CastSpeed?$AA@ 1009e750     KNpcTemplate.obj
 0003:0000175c       ??_C@_0M@KMC@AttackSpeed?$AA@ 1009e75c     KNpcTemplate.obj
 0003:00001768       ??_C@_08NDHA@RunFrame?$AA@ 1009e768     KNpcTemplate.obj
 0003:00001774       ??_C@_09FAL@WalkFrame?$AA@ 1009e774     KNpcTemplate.obj
 0003:00001780       ??_C@_0L@JA@DeathFrame?$AA@ 1009e780     KNpcTemplate.obj
 0003:0000178c       ??_C@_09OPBO@CorpseIdx?$AA@ 1009e78c     KNpcTemplate.obj
 0003:00001798       ??_C@_0L@MIBL@ClientOnly?$AA@ 1009e798     KNpcTemplate.obj
 0003:000017a4       ??_C@_09IFFL@HeadImage?$AA@ 1009e7a4     KNpcTemplate.obj
 0003:000017b0       ??_C@_04PEBP@Kind?$AA@     1009e7b0     KNpcTemplate.obj
 0003:000017b8       ??_C@_0BC@MFAA@LightingMagicBase?$AA@ 1009e7b8     KNpcTemplate.obj
 0003:000017cc       ??_C@_0BD@GOAP@LightingDamageBase?$AA@ 1009e7cc     KNpcTemplate.obj
 0003:000017e0       ??_C@_0O@KGNB@FireMagicBase?$AA@ 1009e7e0     KNpcTemplate.obj
 0003:000017f0       ??_C@_0P@OKGM@FireDamageBase?$AA@ 1009e7f0     KNpcTemplate.obj
 0003:00001800       ??_C@_0O@NCBE@ColdMagicBase?$AA@ 1009e800     KNpcTemplate.obj
 0003:00001810       ??_C@_0P@BLBI@ColdDamageBase?$AA@ 1009e810     KNpcTemplate.obj
 0003:00001820       ??_C@_0BA@HBBH@PoisonMagicBase?$AA@ 1009e820     KNpcTemplate.obj
 0003:00001830       ??_C@_0BB@HELL@PoisonDamageBase?$AA@ 1009e830     KNpcTemplate.obj
 0003:00001844       ??_C@_0BC@JCJA@PhysicalMagicBase?$AA@ 1009e844     KNpcTemplate.obj
 0003:00001858       ??_C@_0BD@JJFI@PhysicalDamageBase?$AA@ 1009e858     KNpcTemplate.obj
 0003:0000186c       ??_C@_0O@HKOB@PhysicsResist?$AA@ 1009e86c     KNpcTemplate.obj
 0003:0000187c       ??_C@_0N@KLCP@PoisonResist?$AA@ 1009e87c     KNpcTemplate.obj
 0003:0000188c       ??_C@_0M@HEPL@LightResist?$AA@ 1009e88c     KNpcTemplate.obj
 0003:00001898       ??_C@_0L@GLDE@ColdResist?$AA@ 1009e898     KNpcTemplate.obj
 0003:000018a4       ??_C@_0L@LKA@FireResist?$AA@ 1009e8a4     KNpcTemplate.obj
 0003:000018b0       ??_C@_07BJEB@BlueLum?$AA@  1009e8b0     KNpcTemplate.obj
 0003:000018b8       ??_C@_08KOFB@GreenLum?$AA@ 1009e8b8     KNpcTemplate.obj
 0003:000018c4       ??_C@_06PIMC@RedLum?$AA@   1009e8c4     KNpcTemplate.obj
 0003:000018cc       ??_C@_09GMGP@MaxDamage?$AA@ 1009e8cc     KNpcTemplate.obj
 0003:000018d8       ??_C@_0BA@FGHM@MaxDamageParam3?$AA@ 1009e8d8     KNpcTemplate.obj
 0003:000018e8       ??_C@_0BA@PMOL@MaxDamageParam2?$AA@ 1009e8e8     KNpcTemplate.obj
 0003:000018f8       ??_C@_0BA@DFC@MaxDamageParam1?$AA@ 1009e8f8     KNpcTemplate.obj
 0003:00001908       ??_C@_0P@FFHD@MaxDamageParam?$AA@ 1009e908     KNpcTemplate.obj
 0003:00001918       ??_C@_09CDDM@MinDamage?$AA@ 1009e918     KNpcTemplate.obj
 0003:00001924       ??_C@_0BA@KFEF@MinDamageParam3?$AA@ 1009e924     KNpcTemplate.obj
 0003:00001934       ??_C@_0BA@PNC@MinDamageParam2?$AA@ 1009e934     KNpcTemplate.obj
 0003:00001944       ??_C@_0BA@PAGL@MinDamageParam1?$AA@ 1009e944     KNpcTemplate.obj
 0003:00001954       ??_C@_0P@GMML@MinDamageParam?$AA@ 1009e954     KNpcTemplate.obj
 0003:00001964       ??_C@_07OBBI@Defense?$AA@  1009e964     KNpcTemplate.obj
 0003:0000196c       ??_C@_0O@KMDL@DefenseParam3?$AA@ 1009e96c     KNpcTemplate.obj
 0003:0000197c       ??_C@_0O@GKM@DefenseParam2?$AA@ 1009e97c     KNpcTemplate.obj
 0003:0000198c       ??_C@_0O@PJBF@DefenseParam1?$AA@ 1009e98c     KNpcTemplate.obj
 0003:0000199c       ??_C@_0N@BCNC@DefenseParam?$AA@ 1009e99c     KNpcTemplate.obj
 0003:000019ac       ??_C@_02OFJB@AR?$AA@       1009e9ac     KNpcTemplate.obj
 0003:000019b0       ??_C@_08DLOD@ARParam3?$AA@ 1009e9b0     KNpcTemplate.obj
 0003:000019bc       ??_C@_08JBHE@ARParam2?$AA@ 1009e9bc     KNpcTemplate.obj
 0003:000019c8       ??_C@_08GOMN@ARParam1?$AA@ 1009e9c8     KNpcTemplate.obj
 0003:000019d4       ??_C@_07MKBE@ARParam?$AA@  1009e9d4     KNpcTemplate.obj
 0003:000019dc       ??_C@_0O@CGDG@LifeReplenish?$AA@ 1009e9dc     KNpcTemplate.obj
 0003:000019ec       ??_C@_04BBGC@Life?$AA@     1009e9ec     KNpcTemplate.obj
 0003:000019f4       ??_C@_0L@IOHA@LifeParam3?$AA@ 1009e9f4     KNpcTemplate.obj
 0003:00001a00       ??_C@_0L@CEOH@LifeParam2?$AA@ 1009ea00     KNpcTemplate.obj
 0003:00001a0c       ??_C@_0L@NLFO@LifeParam1?$AA@ 1009ea0c     KNpcTemplate.obj
 0003:00001a18       ??_C@_09FJGJ@LifeParam?$AA@ 1009ea18     KNpcTemplate.obj
 0003:00001a24       ??_C@_03GBLM@Exp?$AA@      1009ea24     KNpcTemplate.obj
 0003:00001a28       ??_C@_09GDHO@ExpParam3?$AA@ 1009ea28     KNpcTemplate.obj
 0003:00001a34       ??_C@_09MJOJ@ExpParam2?$AA@ 1009ea34     KNpcTemplate.obj
 0003:00001a40       ??_C@_09DGFA@ExpParam1?$AA@ 1009ea40     KNpcTemplate.obj
 0003:00001a4c       ??_C@_08FHLH@ExpParam?$AA@ 1009ea4c     KNpcTemplate.obj
 0003:00001a58       ??_C@_0BA@IMLB@PasstSkillLevel?$AA@ 1009ea58     KNpcTemplate.obj
 0003:00001a68       ??_C@_0N@JLHM@PasstSkillId?$AA@ 1009ea68     KNpcTemplate.obj
 0003:00001a78       ??_C@_0P@GGEH@AuraSkillLevel?$AA@ 1009ea78     KNpcTemplate.obj
 0003:00001a88       ??_C@_0M@GGDH@AuraSkillId?$AA@ 1009ea88     KNpcTemplate.obj
 0003:00001a94       ??_C@_06NGDK@Level4?$AA@   1009ea94     KNpcTemplate.obj
 0003:00001a9c       ??_C@_06EPAA@Skill4?$AA@   1009ea9c     KNpcTemplate.obj
 0003:00001aa4       ??_C@_06IDNP@Level3?$AA@   1009eaa4     KNpcTemplate.obj
 0003:00001aac       ??_C@_06BKOF@Skill3?$AA@   1009eaac     KNpcTemplate.obj
 0003:00001ab4       ??_C@_06CJEI@Level2?$AA@   1009eab4     KNpcTemplate.obj
 0003:00001abc       ??_C@_06LAHC@Skill2?$AA@   1009eabc     KNpcTemplate.obj
 0003:00001ac4       ??_C@_06NGPB@Level1?$AA@   1009eac4     KNpcTemplate.obj
 0003:00001acc       ??_C@_06EPML@Skill1?$AA@   1009eacc     KNpcTemplate.obj
 0003:00001ad4       ??_C@_0BA@HKB@GetNpcLevelData?$AA@ 1009ead4     KNpcTemplate.obj
 0003:00001ae4       ??_C@_04GLOC@ddss?$AA@     1009eae4     KNpcTemplate.obj
 0003:00001aec       ??_C@_0O@NCJC@GetNpcKeyData?$AA@ 1009eaec     KNpcTemplate.obj
 0003:00001afc       ??_C@_06JJPN@ddsnnn?$AA@   1009eafc     KNpcTemplate.obj
 0003:00001b04       ??_C@_0BJ@DICG@?2script?2player?2login?4lua?$AA@ 1009eb04     KPlayer.obj
 0003:00001b20       ??_C@_0CD@CANC@Load?5PlayerInfo?5Step?5?$CFd?5Failed?4?4@ 1009eb20     KPlayer.obj
 0003:00001b44       ??_C@_0CE@OEOP@player?5Packing?5sync?5data?5failed?4@ 1009eb44     KPlayer.obj
 0003:00001b68       ??_C@_0CK@HJIM@player?5Packing?5skill?5sync?5data?5f@ 1009eb68     KPlayer.obj
 0003:00001b94       ??_C@_0FO@CCON@C?Jp?5?$KO?i?5tu?5luy?Vn?5?$DMcolor?$DNgold?$DO?$CFd?5c@ 1009eb94     KPlayer.obj
 0003:00001bf4       ??_C@_0EG@PHKN@?$DMcolor?$DNgreen?$DO?$FL?5?$CFs?5?$FN?$DMcolor?$DO?5?$KO?$LH?5?$KO?$LJ@ 1009ebf4     KPlayer.obj
 0003:00001c3c       ??_C@_07MGFK@K?$PM?5n?$KIng?$AA@ 1009ec3c     KPlayer.obj
 0003:00001c44       ??_C@_0EB@BPKD@?$DMcolor?$DNgreen?$DO?$FL?5?$CFs?5?$FN?$DMcolor?$DO?5c?Gn?5p@ 1009ec44     KPlayer.obj
 0003:00001c88       ??_C@_06HMGG@PickUp?$AA@   1009ec88     KPlayer.obj
 0003:00001c90       ??_C@_08DGPO@Nh?$LOc?5nh?k?$AA@ 1009ec90     KPlayer.obj
 0003:00001c9c       ??_C@_0CL@JKOK@Khu?5v?yc?5n?$LFy?5kh?$KLng?5th?S?5s?v?5d?tng?5th@ 1009ec9c     KPlayer.obj
 0003:00001cc8       ??_C@_0BK@GJNL@?2script?2player?2revive?4lua?$AA@ 1009ecc8     KPlayer.obj
 0003:00001ce4       ??_C@_02IELE@ds?$AA@       1009ece4     KPlayer.obj
 0003:00001ce8       ??_C@_01KNFJ@?$CD?$AA@     1009ece8     KPlayer.obj
 0003:00001cec       ??_C@_05OGEL@?$CFs?$HM?$CFs?$AA@ 1009ecec     KPlayer.obj
 0003:00001cf4       ??_C@_0M@CLMD@TREMBLEITEM?$AA@ 1009ecf4     KPlayer.obj
 0003:00001d00       ??_C@_0L@NNOP@ExeTremble?$AA@ 1009ed00     KPlayer.obj
 0003:00001d0c       ??_C@_07KFDO@OFFLINE?$AA@  1009ed0c     KPlayer.obj
 0003:00001d14       ??_C@_07HKLF@Offline?$AA@  1009ed14     KPlayer.obj
 0003:00001d1c       ??_C@_08PFGK@BINDITEM?$AA@ 1009ed1c     KPlayer.obj
 0003:00001d28       ??_C@_06GELG@Script?$AA@   1009ed28     KPlayer.obj
 0003:00001d30       ??_C@_08JAOJ@OnUnBind?$AA@ 1009ed30     KPlayer.obj
 0003:00001d3c       ??_C@_06BKLO@OnBind?$AA@   1009ed3c     KPlayer.obj
 0003:00001d44       ??_C@_04JFJ@SHOP?$AA@      1009ed44     KPlayer.obj
 0003:00001d4c       ??_C@_0L@BIEF@ShopScript?$AA@ 1009ed4c     KPlayer.obj
 0003:00001d58       ??_C@_0L@HABH@OpenMarket?$AA@ 1009ed58     KPlayer.obj
 0003:00001d64       ??_C@_01KALE@?$HM?$AA@     1009ed64     KPlayer.obj
 0003:00001d68       ??_C@_0M@NOFH@?5?$CIB?$LIn?5h?Ut?$CJ?5?$AA@ 1009ed68     KPlayer.obj
 0003:00001d74       ??_C@_0DD@FILK@Exception?5Have?5Caught?5When?5Execu@ 1009ed74     KPlayer.obj
 0003:00001da8       ??_C@_0BA@KPNG@ExtSkillLevel?$CFd?$AA@ 1009eda8     KPlayer.obj
 0003:00001db8       ??_C@_0L@MHIA@ExtSkill?$CFd?$AA@ 1009edb8     KPlayer.obj
 0003:00001dc4       ?g_dwChannelOr@@3PAKA      1009edc4     KPlayerChat.obj
 0003:00001de8       ?g_dwChannelAnd@@3PAKA     1009ede8     KPlayerChat.obj
 0003:00001e10       ?GUID_ATLVer30@ATL@@3U_GUID@@A 1009ee10     KPlayerChat.obj
 0003:00001e20       ??_C@_08NNGO@?N?R?$LF?D?$LK?C?S?Q?$AA@ 1009ee20     KPlayerChat.obj
 0003:00001e2c       ??_C@_0CN@IGMB@player?5Packing?5friend?52?5sync?5dat@ 1009ee2c     KPlayerChat.obj
 0003:00001e5c       ??_C@_0CL@DIFD@player?5Packing?5friend?5sync?5data?5@ 1009ee5c     KPlayerChat.obj
 0003:00001e88       ??_C@_05EHIP@?G?W?H?K?6?$AA@ 1009ee88     KPlayerChat.obj
 0003:00001e90       ??_C@_09LGGH@C?uu?5nh?$KJn?6?$AA@ 1009ee90     KPlayerChat.obj
 0003:00001e9c       ??_C@_0BD@MKD@M?mi?5nh?Kp?5giang?5h?e?5?$AA@ 1009ee9c     KPlayerFaction.obj
 0003:00001eb0       ??_C@_0CI@LEOJ@?2settings?2npcres?2PlayerMenuState@ 1009eeb0     KPlayerMenuState.obj
 0003:00001ed8       ??_C@_0DA@IHBG@Khu?5v?yc?5n?$LFy?5kh?$KLng?5th?S?5chuy?Sn?5?$KO?fi@ 1009eed8     KPlayerPK.obj
 0003:00001f08       ??_C@_07PEME@?$CFd_Type?$AA@ 1009ef08     KPlayerSet.obj
 0003:00001f10       ??_C@_05FLPC@?$CFd_No?$AA@ 1009ef10     KPlayerSet.obj
 0003:00001f18       ??_C@_09FKNE@ResetTask?$AA@ 1009ef18     KPlayerSet.obj
 0003:00001f24       ??_C@_08HNJ@SyncTask?$AA@  1009ef24     KPlayerSet.obj
 0003:00001f30       ??_C@_0N@HIDN@ServerConfig?$AA@ 1009ef30     KPlayerSet.obj
 0003:00001f40       ??_C@_07HDHI@ExpRate?$AA@  1009ef40     KPlayerSet.obj
 0003:00001f48       ??_C@_09BOBH@TongLeave?$AA@ 1009ef48     KPlayerSet.obj
 0003:00001f54       ??_C@_0L@KHIE@TongChange?$AA@ 1009ef54     KPlayerSet.obj
 0003:00001f60       ??_C@_05FMHM@Price?$AA@    1009ef60     KPlayerSet.obj
 0003:00001f68       ??_C@_06NLKF@Repute?$AA@   1009ef68     KPlayerSet.obj
 0003:00001f70       ??_C@_04GFKM@Item?$AA@     1009ef70     KPlayerSet.obj
 0003:00001f78       ??_C@_05COBC@Money?$AA@    1009ef78     KPlayerSet.obj
 0003:00001f80       ??_C@_09MKCK@LeadLevel?$AA@ 1009ef80     KPlayerSet.obj
 0003:00001f8c       ??_C@_0L@OHL@TongCreate?$AA@ 1009ef8c     KPlayerSet.obj
 0003:00001f98       ??_C@_05PGGH@Level?$AA@    1009ef98     KPlayerSet.obj
 0003:00001fa0       ??_C@_0BL@PBNL@?2settings?2tong?2tongset?4ini?$AA@ 1009efa0     KPlayerSet.obj
 0003:00001fbc       ??_C@_0CC@LHGP@?2settings?2npc?2player?2pkpunish?4tx@ 1009efbc     KPlayerSet.obj
 0003:00001fe0       ??_C@_0BK@GMJL@?2script?2player?2logout?4lua?$AA@ 1009efe0     KPlayerSet.obj
 0003:00001ffc       ??_C@_08OJDC@OnLogout?$AA@ 1009effc     KPlayerSet.obj
 0003:00002008       ??_C@_0CM@FHKC@So?5Tien?3?$CFd?5?9?5So?5xu?3?$CFd?5?9?5S?h?5l?$KN?nng@ 1009f008     KPlayerSet.obj
 0003:00002034       ??_C@_0CD@PPJL@?2settings?2npc?2player?2level_add?4t@ 1009f034     KPlayerSet.obj
 0003:00002058       ??_C@_0CD@GGIO@?2settings?2npc?2player?2level_exp?4t@ 1009f058     KPlayerSet.obj
 0003:0000207c       ??_C@_0CI@JEAL@?2settings?2npc?2player?2level_lead_@ 1009f07c     KPlayerSet.obj
 0003:000020a4       ??_C@_05PDHA@Lucky?$AA@    1009f0a4     KPlayerSet.obj
 0003:000020ac       ??_C@_07OCFL@Engergy?$AA@  1009f0ac     KPlayerSet.obj
 0003:000020b4       ??_C@_08MCFD@Vitality?$AA@ 1009f0b4     KPlayerSet.obj
 0003:000020c0       ??_C@_09OBDH@Dexterity?$AA@ 1009f0c0     KPlayerSet.obj
 0003:000020cc       ??_C@_08GLCH@Strength?$AA@ 1009f0cc     KPlayerSet.obj
 0003:000020d8       ??_C@_0DA@DDN@?2settings?2npc?2player?2newplayerba@ 1009f0d8     KPlayerSet.obj
 0003:00002108       ??_C@_05FIIP@earth?$AA@    1009f108     KPlayerSet.obj
 0003:00002110       ??_C@_04OLBH@fire?$AA@     1009f110     KPlayerSet.obj
 0003:00002118       ??_C@_05CCAC@water?$AA@    1009f118     KPlayerSet.obj
 0003:00002120       ??_C@_04EOHJ@wood?$AA@     1009f120     KPlayerSet.obj
 0003:00002128       ??_C@_05KMGP@metal?$AA@    1009f128     KPlayerSet.obj
 0003:00002130       ??_C@_08ENJL@Bang?5ch?q?$AA@ 1009f130     KPlayerTong.obj
 0003:0000213c       ??_C@_08NOLM@Bang?5h?ii?$AA@ 1009f13c     KPlayerTong.obj
 0003:00002148       ??_C@_0BD@JCIP@Ng?$KJn?5qu?$PM?5kh?$KLng?5?$KO?q?$CB?$AA@ 1009f148     KPlayerTong.obj
 0003:0000215c       ?TABFILE_EQUIPMENT@@3PAPADA 1009f15c     KBasPropTbl.obj
 0003:00002190       ??_C@_0L@FDIM@Mantle?4txt?$AA@ 1009f190     KBasPropTbl.obj
 0003:0000219c       ??_C@_08KCP@Mask?4txt?$AA@ 1009f19c     KBasPropTbl.obj
 0003:000021a8       ??_C@_09EEPL@Horse?4txt?$AA@ 1009f1a8     KBasPropTbl.obj
 0003:000021b4       ??_C@_0M@KGOC@Pendant?4txt?$AA@ 1009f1b4     KBasPropTbl.obj
 0003:000021c0       ??_C@_08BAAI@Cuff?4txt?$AA@ 1009f1c0     KBasPropTbl.obj
 0003:000021cc       ??_C@_08PAEK@Ring?4txt?$AA@ 1009f1cc     KBasPropTbl.obj
 0003:000021d8       ??_C@_0L@BFDO@Amulet?4txt?$AA@ 1009f1d8     KBasPropTbl.obj
 0003:000021e4       ??_C@_08HFCC@Belt?4txt?$AA@ 1009f1e4     KBasPropTbl.obj
 0003:000021f0       ??_C@_08OCEE@Boot?4txt?$AA@ 1009f1f0     KBasPropTbl.obj
 0003:000021fc       ??_C@_08HFB@Helm?4txt?$AA@ 1009f1fc     KBasPropTbl.obj
 0003:00002208       ??_C@_09KIMI@Armor?4txt?$AA@ 1009f208     KBasPropTbl.obj
 0003:00002214       ??_C@_0BA@EMDN@RangeWeapon?4txt?$AA@ 1009f214     KBasPropTbl.obj
 0003:00002224       ??_C@_0BA@MGBA@MeleeWeapon?4txt?$AA@ 1009f224     KBasPropTbl.obj
 0003:00002234       ??_C@_0P@BAML@?2settings?2item?$AA@ 1009f234     KBasPropTbl.obj
 0003:00002244       ??_C@_0BB@KAMG@?2magicattrib?4txt?$AA@ 1009f244     KBasPropTbl.obj
 0003:00002258       ??_C@_0O@KGDF@GoldEquip?4txt?$AA@ 1009f258     KBasPropTbl.obj
 0003:00002268       ??_C@_0BA@BOLM@BrokenEquip?4txt?$AA@ 1009f268     KBasPropTbl.obj
 0003:00002278       ??_C@_0L@DJI@potion?4txt?$AA@ 1009f278     KBasPropTbl.obj
 0003:00002284       ??_C@_0N@KHKF@questkey?4txt?$AA@ 1009f284     KBasPropTbl.obj
 0003:00002294       ??_C@_0L@JMEH@Script?4txt?$AA@ 1009f294     KBasPropTbl.obj
 0003:000022a0       ??_C@_08IOIG@mine?4txt?$AA@ 1009f2a0     KBasPropTbl.obj
 0003:000022ac       ??_C@_0BJ@FGEF@?2settings?2shop?2goods?4txt?$AA@ 1009f2ac     KBuySell.obj
 0003:000022c8       ??_C@_0BL@KEAB@?2settings?2shop?2buysell?4txt?$AA@ 1009f2c8     KBuySell.obj
 0003:000022e4       ??_C@_0O@BKKO@1?$CF03d?$CF02d?$CF02d?$AA@ 1009f2e4     KItem.obj
 0003:000022f4       ??_C@_0CA@KHOG@?2settings?2item?2GoldEquipRes?4txt?$AA@ 1009f2f4     KItemChangeRes.obj
 0003:00002314       ??_C@_0BM@HJJL@?2settings?2item?2HorseRes?4txt?$AA@ 1009f314     KItemChangeRes.obj
 0003:00002330       ??_C@_0BL@BCHA@?2settings?2item?2HelmRes?4txt?$AA@ 1009f330     KItemChangeRes.obj
 0003:0000234c       ??_C@_0BM@KPKN@?2settings?2item?2ArmorRes?4txt?$AA@ 1009f34c     KItemChangeRes.obj
 0003:00002368       ??_C@_0BM@KIHB@?2settings?2item?2RangeRes?4txt?$AA@ 1009f368     KItemChangeRes.obj
 0003:00002384       ??_C@_0BM@CJDD@?2settings?2item?2MeleeRes?4txt?$AA@ 1009f384     KItemChangeRes.obj
 0003:000023a0       ??_C@_07LDBP@ResType?$AA@  1009f3a0     KItemChangeRes.obj
 0003:000023a8       ??_C@_05DDEO@nMax3?$AA@    1009f3a8     KItemGenerator.obj
 0003:000023b0       ??_C@_05LOKN@nMin3?$AA@    1009f3b0     KItemGenerator.obj
 0003:000023b8       ??_C@_05JJNJ@nMax2?$AA@    1009f3b8     KItemGenerator.obj
 0003:000023c0       ??_C@_05BEDK@nMin2?$AA@    1009f3c0     KItemGenerator.obj
 0003:000023c8       ??_C@_05GGGA@nMax1?$AA@    1009f3c8     KItemGenerator.obj
 0003:000023d0       ??_C@_05OLID@nMin1?$AA@    1009f3d0     KItemGenerator.obj
 0003:000023d8       ??_C@_0L@LONJ@nMagicType?$AA@ 1009f3d8     KItemGenerator.obj
 0003:000023e4       ??_C@_0DB@JMML@Loi?5Item?5May?5Man?3?5Tong?5phan?5tram@ 1009f3e4     KItemGenerator.obj
 0003:00002418       ??_C@_0CA@EKCB@?$FLKItemGenerator?$FN?5Loi?5nLucky?5?$DM?50?$AA@ 1009f418     KItemGenerator.obj
 0003:00002438       ?g_nEquipPower@@3PAHA      1009f438     KItemList.obj
 0003:00002474       ?ms_ActiveEquip@KItemList@@0PAY01HA 1009f474     KItemList.obj
 0003:000024ec       ?ms_ActivedEquip@KItemList@@0PAY01HA 1009f4ec     KItemList.obj
 0003:00002564       ?ms_RoomMap@KItemList@@0PAHA 1009f564     KItemList.obj
 0003:0000259c       ??_C@_05EPJ@OnUse?$AA@     1009f59c     KItemList.obj
 0003:000025a4       ??_C@_04LCOO@Move?$AA@     1009f5a4     KItemSet.obj
 0003:000025ac       ??_C@_06PPP@Defend?$AA@    1009f5ac     KItemSet.obj
 0003:000025b4       ??_C@_05LNOF@Horse?$AA@    1009f5b4     KItemSet.obj
 0003:000025bc       ??_C@_07CIKC@Pendant?$AA@  1009f5bc     KItemSet.obj
 0003:000025c4       ??_C@_05LBOP@Ring2?$AA@    1009f5c4     KItemSet.obj
 0003:000025cc       ??_C@_05EOFG@Ring1?$AA@    1009f5cc     KItemSet.obj
 0003:000025d4       ??_C@_06BCFK@Amulet?$AA@   1009f5d4     KItemSet.obj
 0003:000025dc       ??_C@_04MHHA@Cuff?$AA@     1009f5dc     KItemSet.obj
 0003:000025e4       ??_C@_04DNDI@Foot?$AA@     1009f5e4     KItemSet.obj
 0003:000025ec       ??_C@_04KHBH@Belt?$AA@     1009f5ec     KItemSet.obj
 0003:000025f4       ??_C@_04HCKI@Body?$AA@     1009f5f4     KItemSet.obj
 0003:000025fc       ??_C@_04JHAH@Head?$AA@     1009f5fc     KItemSet.obj
 0003:00002604       ??_C@_06MBHJ@Attack?$AA@   1009f604     KItemSet.obj
 0003:0000260c       ??_C@_06DNLJ@Weapon?$AA@   1009f60c     KItemSet.obj
 0003:00002614       ??_C@_0BA@OABO@MagicPriceScale?$AA@ 1009f614     KItemSet.obj
 0003:00002624       ??_C@_06NNPN@Repair?$AA@   1009f624     KItemSet.obj
 0003:0000262c       ??_C@_0P@ILEH@ItemPriceScale?$AA@ 1009f62c     KItemSet.obj
 0003:0000263c       ??_C@_0BO@NLPP@?2settings?2item?2AbradeRate?4ini?$AA@ 1009f63c     KItemSet.obj
 0003:0000265c       ??_C@_06PGLI@CoinID?$AA@   1009f65c     KItemSet.obj
 0003:00002664       ??_C@_0CD@EFAN@?$FLAdd?$CK?$FN?5Find?5Free?5Node?5Item?5Error@ 1009f664     KItemSet.obj
 0003:00002688       ??_C@_0CC@EEGH@?$FLAdd?$FN?5Find?5Free?5Node?5Item?5Error?$CB@ 1009f688     KItemSet.obj
 0003:000026ac       ??_C@_0CH@FJMJ@?$FLAddExist?$FN?5Find?5Free?5Node?5Item?5E@ 1009f6ac     KItemSet.obj
 0003:000026d4       ??_C@_0DF@HDGC@Exception?5Have?5Chought?5When?5Exec@ 1009f6d4     KObj.obj
 0003:0000270c       ??_C@_08NHHJ@ObjIndex?$AA@ 1009f70c     KObj.obj
 0003:00002718       ?g_szObjKind@@3PAY0CA@DA   1009f718     KObjSet.obj
 0003:00002898       ?g_dwObjKindNum@@3PAKA     1009f898     KObjSet.obj
 0003:000028c8       ??_C@_0BL@LMPI@?2settings?2obj?2moneyobj?4txt?$AA@ 1009f8c8     KObjSet.obj
 0003:000028e4       ??_C@_0BK@NKBG@?2settings?2obj?2objdata?4txt?$AA@ 1009f8e4     KObjSet.obj
 0003:00002900       ??_C@_0FG@FBOG@?$FLITEM_COLOR_FIX?$FN?5?$CFs?5?$HM?5Genre?3?$CFd?5C@ 1009f900     KObjSet.obj
 0003:00002958       ??_C@_0M@HLNI@?2?$CFs?2?$CF03d_?$CFs?$AA@ 1009f958     KObjSet.obj
 0003:00002964       ??_C@_09NOIM@Obj_S?4dat?$AA@ 1009f964     KObjSet.obj
 0003:00002970       ??_C@_0BG@GBII@?2script?2realtimer?4lua?$AA@ 1009f970     KCore.obj
 0003:00002988       ??_C@_08FNAA@DataBase?$AA@ 1009f988     KCore.obj
 0003:00002994       ??_C@_05BCJB@jxSQL?$AA@    1009f994     KCore.obj
 0003:0000299c       ??_C@_08HAOI@PassWord?$AA@ 1009f99c     KCore.obj
 0003:000029a8       ??_C@_0BC@MENN@?$EA9?$CGSd?$CDS73h1?$EASAcxX?$AA@ 1009f9a8     KCore.obj
 0003:000029bc       ??_C@_04JJBJ@User?$AA@     1009f9bc     KCore.obj
 0003:000029c4       ??_C@_02HDBG@sa?$AA@       1009f9c4     KCore.obj
 0003:000029c8       ??_C@_07ENNF@account?$AA@  1009f9c8     KCore.obj
 0003:000029d0       ??_C@_06HCAM@Server?$AA@   1009f9d0     KCore.obj
 0003:000029d8       ??_C@_0O@EMFJ@TLINKVN?924216?$AA@ 1009f9d8     KCore.obj
 0003:000029e8       ??_C@_0N@IGBM@database?4ini?$AA@ 1009f9e8     KCore.obj
 0003:000029f8       ??_C@_0BB@KIJI@?$LG?T?S?$KG?N?o?$MA?m?$LM?$LM?D?$NM?$LB?$OA?$LK?E?$AA@ 1009f9f8     KCore.obj
 0003:00002a0c       ??_C@_08IBLA@?O?j?O?$LI?$MA?$OA?$LB?p?$AA@ 1009fa0c     KCore.obj
 0003:00002a18       ??_C@_08HOFG@?$LO?$NP?L?e?$MA?$OA?$LB?p?$AA@ 1009fa18     KCore.obj
 0003:00002a24       ??_C@_0CB@NFOO@?2settings?2weaponphysicsskill?4txt@ 1009fa24     KCore.obj
 0003:00002a48       ??_C@_0BD@MGKB@?2maps?2WorldSet?4ini?$AA@ 1009fa48     KCore.obj
 0003:00002a5c       ??_C@_0BE@CBPD@?2maps?2WorldSet4?4ini?$AA@ 1009fa5c     KCore.obj
 0003:00002a70       ??_C@_07NFFN@gs4?4exe?$AA@ 1009fa70     KCore.obj
 0003:00002a78       ??_C@_0BE@EBAJ@?2maps?2WorldSet3?4ini?$AA@ 1009fa78     KCore.obj
 0003:00002a8c       ??_C@_07LFKH@gs3?4exe?$AA@ 1009fa8c     KCore.obj
 0003:00002a94       ??_C@_0BE@OBCM@?2maps?2WorldSet2?4ini?$AA@ 1009fa94     KCore.obj
 0003:00002aa8       ??_C@_07BFIC@gs2?4exe?$AA@ 1009faa8     KCore.obj
 0003:00002ab0       ??_C@_0BE@BED@?2maps?2WorldSet1?4ini?$AA@ 1009fab0     KCore.obj
 0003:00002ac4       ??_C@_07PFON@gs1?4exe?$AA@ 1009fac4     KCore.obj
 0003:00002acc       ??_C@_0BK@JIJJ@Init?5Load?5File?5Error?$CB?$CB?$CB?$CB?6?$AA@ 1009facc     KCore.obj
 0003:00002ae8       ??_C@_0BK@PEEG@Init?5PlayerSet?5Error?$CB?$CB?$CB?$CB?6?$AA@ 1009fae8     KCore.obj
 0003:00002b04       ??_C@_0BD@CLPK@?2settings?2npcS?4txt?$AA@ 1009fb04     KCore.obj
 0003:00002b18       ??_C@_0BG@LHJJ@?2settings?2missles?4txt?$AA@ 1009fb18     KCore.obj
 0003:00002b30       ??_C@_0BF@GMDK@?2settings?2skills?4txt?$AA@ 1009fb30     KCore.obj
 0003:00002b48       ??_C@_06KBFD@?$CD32770?$AA@ 1009fb48     KCore.obj
 0003:00002b50       ??_C@_08IOGN@DebugWin?$AA@ 1009fb50     KCore.obj
 0003:00002b5c       ??_C@_02JJJH@?6?6?$AA@     1009fb5c     KCore.obj
 0003:00002b60       ??_C@_0BA@MAKP@MONEY?5RATE?3?7?$CFd?6?$AA@ 1009fb60     KCore.obj
 0003:00002b70       ??_C@_0O@GPGK@EXP?5RATE?3?7?$CFd?6?$AA@ 1009fb70     KCore.obj
 0003:00002b80       ??_C@_0GB@FPJA@TOTAL?5MEMMORY?3?5?$CFdmb?5?$FLThis?5number@ 1009fb80     KCore.obj
 0003:00002be4       ??_C@_0CJ@HFNA@MAX?5MISSLE?3?7?$CFd?7?9MEMMORY?7?$CFld?$CK?$CFld?7@ 1009fbe4     KCore.obj
 0003:00002c10       ??_C@_0CH@EFPC@MAX?5ITEM?3?7?$CFd?7?9MEMMORY?7?$CFld?$CK?$CFld?7?$DN?7@ 1009fc10     KCore.obj
 0003:00002c38       ??_C@_0CJ@FBI@MAX?5OBJECT?3?7?$CFd?7?9MEMMORY?7?$CFld?$CK?$CFld?7@ 1009fc38     KCore.obj
 0003:00002c64       ??_C@_0CJ@BFHF@MAX?5PLAYER?3?7?$CFd?7?9MEMMORY?7?$CFld?$CK?$CFld?7@ 1009fc64     KCore.obj
 0003:00002c90       ??_C@_0CG@JBBC@MAX?5NPC?3?7?$CFd?7?9MEMMORY?7?$CFld?$CK?$CFld?7?$DN?7?$CF@ 1009fc90     KCore.obj
 0003:00002cb8       ??_C@_0CK@EAAG@MAX?5SUBWORD?3?7?$CFd?7?9MEMMORY?7?$CFld?$CK?$CFld@ 1009fcb8     KCore.obj
 0003:00002ce4       ??_C@_0FI@EEEB@Deverlop?5By?3?5Kenny?5Nguyen?$DL?5?9?5Mai@ 1009fce4     KCore.obj
 0003:00002d3c       ??_C@_0GB@LADH@Author?5Source?3?5Streamer?5Kinnox?$DL?5@ 1009fd3c     KCore.obj
 0003:00002da0       ??_C@_0BK@BLDO@?2settings?2gamesetting?4ini?$AA@ 1009fda0     KCore.obj
 0003:00002dbc       ??_C@_0BO@HMG@?2settings?2npc?2replacename?4txt?$AA@ 1009fdbc     KCore.obj
 0003:00002ddc       ??_C@_0BM@FOLC@?2settings?2task?2missions?4txt?$AA@ 1009fddc     KCore.obj
 0003:00002df8       ??_C@_0BJ@CKAD@?2settings?2WharfPrice?4txt?$AA@ 1009fdf8     KCore.obj
 0003:00002e14       ??_C@_0BE@LEE@?2settings?2Wharf?4txt?$AA@ 1009fe14     KCore.obj
 0003:00002e28       ??_C@_0BM@KBJD@?2settings?2WayPointPrice?4txt?$AA@ 1009fe28     KCore.obj
 0003:00002e44       ??_C@_0BL@GLLI@?2settings?2StationPrice?4txt?$AA@ 1009fe44     KCore.obj
 0003:00002e60       ??_C@_0BG@DOKI@?2settings?2Station?4txt?$AA@ 1009fe60     KCore.obj
 0003:00002e78       ??_C@_0BH@GGLN@?2settings?2WayPoint?4txt?$AA@ 1009fe78     KCore.obj
 0003:00002e90       ??_C@_0BM@IIFL@?2settings?2item?2questkey?4txt?$AA@ 1009fe90     KCore.obj
 0003:00002eac       ??_C@_0BP@OMPF@?2settings?2battles?2defvalue?4ini?$AA@ 1009feac     KCore.obj
 0003:00002ecc       ??_C@_0CC@GNML@?2settings?2item?2magicattrib_ge?4tx@ 1009fecc     KCore.obj
 0003:00002ef0       ??_C@_0CF@JJHD@?2settings?2item?2magicscript_stack@ 1009fef0     KCore.obj
 0003:00002f18       ??_C@_0CC@MCLP@?2settings?2item?2questkey_stack?4tx@ 1009ff18     KCore.obj
 0003:00002f3c       ??_C@_0CK@GJEJ@?2script?2npclevelscript?2npclevels@ 1009ff3c     KCore.obj
 0003:00002f68       ??_C@_0CA@HGEO@?2settings?2npcres?2NpcResKind?4txt?$AA@ 1009ff68     KCore.obj
 0003:00002f88       ??_C@_08BAIB@MissleId?$AA@ 1009ff88     KCore.obj
 0003:00002f94       ??_C@_0BH@ECCB@MAP?5ID?3?5?$CFd?5?9?5NAME?3?5?$CFs?6?$AA@ 1009ff94     KSubWorld.obj
 0003:00002fac       ??_C@_0CL@HOEM@MAP?5ID?3?5?$CFd?5?9?5NAME?3?5?$CFs?5?9?5CONFIG?3?5@ 1009ffac     KSubWorld.obj
 0003:00002fd8       ??_C@_0M@GIGM@?$CFd_NameShow?$AA@ 1009ffd8     KSubWorld.obj
 0003:00002fe4       ??_C@_0BG@HIBA@?2settings?2MapList?4ini?$AA@ 1009ffe4     KSubWorld.obj
 0003:00002ffc       ??_C@_08LJLC@?2maps?2?$CFs?$AA@ 1009fffc     KSubWorld.obj
 0003:00003008       ??_C@_04IMHF@rect?$AA@     100a0008     KSubWorld.obj
 0003:00003010       ??_C@_04BOOC@MAIN?$AA@     100a0010     KSubWorld.obj
 0003:00003018       ??_C@_08PLIK@IsInDoor?$AA@ 100a0018     KSubWorld.obj
 0003:00003024       ??_C@_06DPCC@?$CFs?4wor?$AA@ 100a0024     KSubWorld.obj
 0003:0000302c       ??_C@_05MPCN@?2maps?$AA@   100a002c     KSubWorld.obj
 0003:00003034       ??_C@_0BC@CIIJ@?$CFd_GoldenDropRate?$AA@ 100a0034     KSubWorld.obj
 0003:00003048       ??_C@_0O@LBCB@?$CFd_NpcExpMaxL?$AA@ 100a0048     KSubWorld.obj
 0003:00003058       ??_C@_0O@DMMC@?$CFd_NpcExpMinL?$AA@ 100a0058     KSubWorld.obj
 0003:00003068       ??_C@_09BKDJ@?$CFd_NpcExp?$AA@ 100a0068     KSubWorld.obj
 0003:00003074       ??_C@_0BC@OCED@?$CFd_NewWorldScript?$AA@ 100a0074     KSubWorld.obj
 0003:00003088       ??_C@_0L@LHNC@?$CFd_MapInfo?$AA@ 100a0088     KSubWorld.obj
 0003:00003094       ??_C@_0O@HJHC@?$CFd_GoldenType?$AA@ 100a0094     KSubWorld.obj
 0003:000030a4       ??_C@_0BB@GBPK@?$CFd_AutoGoldenNpc?$AA@ 100a00a4     KSubWorld.obj
 0003:000030b8       ??_C@_0BB@IAJH@?$CFd_NpcSeriesAuto?$AA@ 100a00b8     KSubWorld.obj
 0003:000030cc       ??_C@_0L@PLLC@?$CFd_MapType?$AA@ 100a00cc     KSubWorld.obj
 0003:000030d8       ??_C@_04DECM@List?$AA@     100a00d8     KSubWorld.obj
 0003:000030e0       ??_C@_0M@NBEE@MapList?4ini?$AA@ 100a00e0     KSubWorld.obj
 0003:000030ec       ??_C@_09LAFI@?2settings?$AA@ 100a00ec     KSubWorld.obj
 0003:000030f8       ??_C@_0CP@LMLF@Player?5change?5region?5to?5not?5exis@ 100a00f8     KSubWorld.obj
 0003:00003128       ??_C@_0CK@CMDI@player?5Packing?5world?5sync?5data?5f@ 100a0128     KSubWorld.obj
 0003:00003154       ??_C@_0BI@IHIF@mapedit_templatesection?$AA@ 100a0154     KSubWorld.obj
 0003:0000316c       ??_C@_04FCOP@Type?$AA@     100a016c     KSubWorld.obj
 0003:00003174       ??_C@_09PFB@_data?4ini?$AA@ 100a0174     KSubWorld.obj
 0003:00003180       ??_C@_05MNCH@event?$AA@    100a0180     KSubWorld.obj
 0003:00003188       ??_C@_0N@DEDD@groundoffset?$AA@ 100a0188     KSubWorld.obj
 0003:00003198       ??_C@_01PCFE@?2?$AA@       100a0198     KSubWorld.obj
 0003:0000319c       ??_C@_0L@CFBG@elementnum?$AA@ 100a019c     KSubWorld.obj
 0003:000031a8       ??_C@_0BI@KFGE@Region?3?$CI?$CFd?$CJ?5Player?$CI?$CFd?$CJ?6?$AA@ 100a01a8     KSubWorld.obj
 0003:000031c0       ??_C@_0CI@MOOG@SubWorld?3?5?$CFd?5?9?5WorldID?3?5?$CFd?5Load?5@ 100a01c0     KSubWorldSet.obj
 0003:000031e8       ??_C@_05MKFP@World?$AA@    100a01e8     KSubWorldSet.obj
 0003:000031f0       ??_C@_09JBME@World?$CF02d?$AA@ 100a01f0     KSubWorldSet.obj
 0003:000031fc       ??_C@_0BG@ODEP@?9?9SubWorld?5Count?3?5?$CFd?6?$AA@ 100a01fc     KSubWorldSet.obj
 0003:00003214       ??_C@_0CJ@OPHM@?9?9?9?9?9?9?9?9?9?9?9?9?9?9?9?9?9?9?9?9?9?9?9?9?9?9?9?9?9?9?9?9@ 100a0214     KSubWorldSet.obj
 0003:00003240       ??_C@_04MIPP@Init?$AA@     100a0240     KSubWorldSet.obj
 0003:00003248       ??_C@_0N@FGF@?2package?4ini?$AA@ 100a0248     KSubWorldSet.obj
 0003:00003258       ??_C@_0O@OOOG@RevivePos?4ini?$AA@ 100a0258     KSubWorldSet.obj
 0003:00003268       ??_C@_0O@CHBD@HappenTimeMax?$AA@ 100a0268     KWeatherMgr.obj
 0003:00003278       ??_C@_0O@MEEF@HappenTimeMin?$AA@ 100a0278     KWeatherMgr.obj
 0003:00003288       ??_C@_0M@IIHA@LifeTimeMax?$AA@ 100a0288     KWeatherMgr.obj
 0003:00003294       ??_C@_0M@GLCG@LifeTimeMin?$AA@ 100a0294     KWeatherMgr.obj
 0003:000032a0       ??_C@_0M@DNFL@Weather?$CF?43d?$AA@ 100a02a0     KWeatherMgr.obj
 0003:000032ac       ??_C@_06BPIM@Odds?$CFd?$AA@ 100a02ac     KWeatherMgr.obj
 0003:000032b4       ??_C@_09NCEL@Weather?$CFd?$AA@ 100a02b4     KWeatherMgr.obj
 0003:000032c0       ??_C@_07GGMB@Weather?$AA@  100a02c0     KWeatherMgr.obj
 0003:000032c8       ??_C@_0L@GPHD@WeatherNum?$AA@ 100a02c8     KWeatherMgr.obj
 0003:000032d4       ??_C@_0BO@LAIF@?2settings?2Weather?2Weather?4ini?$AA@ 100a02d4     KWeatherMgr.obj
 0003:000032f4       ??_C@_0L@IOJF@?$CFs?2?$CF03d_?$CFs?$AA@ 100a02f4     KRegion.obj
 0003:00003300       ??_C@_0N@ODHN@Region_S?4dat?$AA@ 100a0300     KRegion.obj
 0003:00003310       ??_C@_09BMBH@?2?$CFsv_?$CF03d?$AA@ 100a0310     KRegion.obj
 0003:0000331c       ??_C@_0BG@KKED@Loi?5Region?5X?5Y?5?$CFd?5?$CFd?6?$AA@ 100a031c     KRegion.obj
 0003:00003334       ?g_nSinBuffer@@3PAHA       100a0334     KMath.obj
 0003:00003434       ?g_nCosBuffer@@3PAHA       100a0434     KMath.obj
 0003:00003534       ?g_InternalDirSinCosCodeBuffer@@3PAEA 100a0534     KMath.obj
 0003:00003558       ?g_InternalIsAccrueConquerCodeBuffer@@3PAEA 100a0558     KMath.obj
 0003:00003584       ?g_nSin@@3PAHA             100a0584     KMath.obj
 0003:00003588       ?g_nCos@@3PAHA             100a0588     KMath.obj
 0003:0000358c       ?g_InternalDirSinCosCode@@3PAEA 100a058c     KMath.obj
 0003:00003590       ?g_InternalIsAccrueConquerCode@@3PAEA 100a0590     KMath.obj
 0003:00003594       ?g_nProtocolSize@@3PAHA    100a0594     KProtocol.obj
 0003:00003994       ??_C@_07KPAD@Capital?$AA@  100a0994     KProtocolProcess.obj
 0003:0000399c       ??_C@_04NBCE@City?$AA@     100a099c     KProtocolProcess.obj
 0003:000039a4       ??_C@_07KBOL@OpenTop?$AA@  100a09a4     KProtocolProcess.obj
 0003:000039ac       ??_C@_0CG@HKLF@?2script?2mission?2battles?2updateto@ 100a09ac     KProtocolProcess.obj
 0003:000039d8       ?GameScriptFuns@@3PAUTLua_Funcs@@A 100a09d8     ScriptFuns.obj
 0003:00004598       ?WorldScriptFuns@@3PAUTLua_Funcs@@A 100a1598     ScriptFuns.obj
 0003:000045e8       ??_C@_0BB@PGHK@AddLoaclTimeNews?$AA@ 100a15e8     ScriptFuns.obj
 0003:000045fc       ??_C@_0N@LGLB@FadeOutMusic?$AA@ 100a15fc     ScriptFuns.obj
 0003:0000460c       ??_C@_0M@OLBE@FadeInMusic?$AA@ 100a160c     ScriptFuns.obj
 0003:00004618       ??_C@_09MJFL@PlayMusic?$AA@ 100a1618     ScriptFuns.obj
 0003:00004624       ??_C@_0P@GINC@GetLockSongJin?$AA@ 100a1624     ScriptFuns.obj
 0003:00004634       ??_C@_0P@OMIB@SetLockSongJin?$AA@ 100a1634     ScriptFuns.obj
 0003:00004644       ??_C@_0M@DICA@TrembleItem?$AA@ 100a1644     ScriptFuns.obj
 0003:00004650       ??_C@_09KAOD@GetPOItem?$AA@ 100a1650     ScriptFuns.obj
 0003:0000465c       ??_C@_0L@LGIK@SetPItemID?$AA@ 100a165c     ScriptFuns.obj
 0003:00004668       ??_C@_0BB@MOBM@SendNotification?$AA@ 100a1668     ScriptFuns.obj
 0003:0000467c       ??_C@_08HHJJ@DelPwbox?$AA@ 100a167c     ScriptFuns.obj
 0003:00004688       ??_C@_0N@JKNL@SendTopTKNew?$AA@ 100a1688     ScriptFuns.obj
 0003:00004698       ??_C@_0P@DPBK@DeleteTopTKNew?$AA@ 100a1698     ScriptFuns.obj
 0003:000046a8       ??_C@_0P@FNDC@UpdateTopTKNew?$AA@ 100a16a8     ScriptFuns.obj
 0003:000046b8       ??_C@_0BD@GFPA@SetDisconectPlayer?$AA@ 100a16b8     ScriptFuns.obj
 0003:000046cc       ??_C@_0BA@MLCB@SetStatusLixian?$AA@ 100a16cc     ScriptFuns.obj
 0003:000046dc       ??_C@_07PAOI@TimeBox?$AA@  100a16dc     ScriptFuns.obj
 0003:000046e4       ??_C@_0O@KHMI@OpenReWardBox?$AA@ 100a16e4     ScriptFuns.obj
 0003:000046f4       ??_C@_09ILKD@GetROItem?$AA@ 100a16f4     ScriptFuns.obj
 0003:00004700       ??_C@_0L@KDHH@EndGiveBox?$AA@ 100a1700     ScriptFuns.obj
 0003:0000470c       ??_C@_0M@PAEA@OpenGiveBox?$AA@ 100a170c     ScriptFuns.obj
 0003:00004718       ??_C@_0N@NNHB@SetExPandBox?$AA@ 100a1718     ScriptFuns.obj
 0003:00004728       ??_C@_0N@LEHD@GetExPandBox?$AA@ 100a1728     ScriptFuns.obj
 0003:00004738       ??_C@_0M@BHAG@SetStoreBox?$AA@ 100a1738     ScriptFuns.obj
 0003:00004744       ??_C@_0M@BFMF@GetStoreBox?$AA@ 100a1744     ScriptFuns.obj
 0003:00004750       ??_C@_0P@JEKD@KickOutAccount?$AA@ 100a1750     ScriptFuns.obj
 0003:00004760       ??_C@_0L@MKMF@GetTimeNow?$AA@ 100a1760     ScriptFuns.obj
 0003:0000476c       ??_C@_06DIKL@Random?$AA@   100a176c     ScriptFuns.obj
 0003:00004774       ??_C@_07EHCK@RANDOMC?$AA@  100a1774     ScriptFuns.obj
 0003:0000477c       ??_C@_06FDCE@RANDOM?$AA@   100a177c     ScriptFuns.obj
 0003:00004784       ??_C@_0BC@KOJE@SetObjPickExecute?$AA@ 100a1784     ScriptFuns.obj
 0003:00004798       ??_C@_0BG@PIOB@CalcFreeItemCellCount?$AA@ 100a1798     ScriptFuns.obj
 0003:000047b0       ??_C@_06FNLC@DelObj?$AA@   100a17b0     ScriptFuns.obj
 0003:000047b8       ??_C@_07HKND@DropObj?$AA@  100a17b8     ScriptFuns.obj
 0003:000047c0       ??_C@_0N@DBMI@UnBanAccount?$AA@ 100a17c0     ScriptFuns.obj
 0003:000047d0       ??_C@_0L@JGNF@BanAccount?$AA@ 100a17d0     ScriptFuns.obj
 0003:000047dc       ??_C@_0BB@JPMM@CallClientScript?$AA@ 100a17dc     ScriptFuns.obj
 0003:000047f0       ??_C@_0L@DIBO@OpenMyShop?$AA@ 100a17f0     ScriptFuns.obj
 0003:000047fc       ??_C@_0O@CPGD@SavePlayerLog?$AA@ 100a17fc     ScriptFuns.obj
 0003:0000480c       ??_C@_0O@BIKE@GetMAByRecord?$AA@ 100a180c     ScriptFuns.obj
 0003:0000481c       ??_C@_0BB@IIOB@CheckMagicAttrib?$AA@ 100a181c     ScriptFuns.obj
 0003:00004830       ??_C@_0BF@KBHD@GetMagicAtrribRecord?$AA@ 100a1830     ScriptFuns.obj
 0003:00004848       ??_C@_0O@HKCC@GetTongFigure?$AA@ 100a1848     ScriptFuns.obj
 0003:00004858       ??_C@_0O@NPP@GetTongMaster?$AA@ 100a1858     ScriptFuns.obj
 0003:00004868       ??_C@_0M@DPJM@GetTongName?$AA@ 100a1868     ScriptFuns.obj
 0003:00004874       ??_C@_09ODAH@GetTongID?$AA@ 100a1874     ScriptFuns.obj
 0003:00004880       ??_C@_0BD@NMPB@AskClientForString?$AA@ 100a1880     ScriptFuns.obj
 0003:00004894       ??_C@_0BD@IMGG@AskClientForNumber?$AA@ 100a1894     ScriptFuns.obj
 0003:000048a8       ??_C@_0BB@DLCN@IniFile_SaveData?$AA@ 100a18a8     ScriptFuns.obj
 0003:000048bc       ??_C@_0BA@IHGP@IniFile_GetData?$AA@ 100a18bc     ScriptFuns.obj
 0003:000048cc       ??_C@_0O@DOLI@IniFile_Clear?$AA@ 100a18cc     ScriptFuns.obj
 0003:000048dc       ??_C@_0N@LKNK@IniFile_Load?$AA@ 100a18dc     ScriptFuns.obj
 0003:000048ec       ??_C@_0BA@FCMH@TabFile_GetCell?$AA@ 100a18ec     ScriptFuns.obj
 0003:000048fc       ??_C@_0BE@DDCN@TabFile_GetRowCount?$AA@ 100a18fc     ScriptFuns.obj
 0003:00004910       ??_C@_0BG@DBAP@TabFile_GetColumCount?$AA@ 100a1910     ScriptFuns.obj
 0003:00004928       ??_C@_0O@LCPM@TabFile_Clear?$AA@ 100a1928     ScriptFuns.obj
 0003:00004938       ??_C@_0N@POOD@TabFile_Load?$AA@ 100a1938     ScriptFuns.obj
 0003:00004948       ??_C@_0M@NEO@FileName2Id?$AA@ 100a1948     ScriptFuns.obj
 0003:00004954       ??_C@_0M@KNNM@GetGameTime?$AA@ 100a1954     ScriptFuns.obj
 0003:00004960       ??_C@_0BC@MEJM@GetTownPortalFlag?$AA@ 100a1960     ScriptFuns.obj
 0003:00004974       ??_C@_0BB@FGBN@ForbidTownPortal?$AA@ 100a1974     ScriptFuns.obj
 0003:00004988       ??_C@_0BC@OPPA@RestoreOwnFeature?$AA@ 100a1988     ScriptFuns.obj
 0003:0000499c       ??_C@_0BB@LIGE@ChangeOwnFeature?$AA@ 100a199c     ScriptFuns.obj
 0003:000049b0       ??_C@_09DH@ResetMask?$AA@  100a19b0     ScriptFuns.obj
 0003:000049bc       ??_C@_07IGHJ@SetMask?$AA@  100a19bc     ScriptFuns.obj
 0003:000049c4       ??_C@_0BA@OECB@ReloadAllScript?$AA@ 100a19c4     ScriptFuns.obj
 0003:000049d4       ??_C@_0N@ONHE@ReloadScript?$AA@ 100a19d4     ScriptFuns.obj
 0003:000049e4       ??_C@_09LMLL@MyRefresh?$AA@ 100a19e4     ScriptFuns.obj
 0003:000049f0       ??_C@_0P@FMCB@LoginDelaySync?$AA@ 100a19f0     ScriptFuns.obj
 0003:00004a00       ??_C@_0BE@KCNF@ClearLockBronzeCoin?$AA@ 100a1a00     ScriptFuns.obj
 0003:00004a14       ??_C@_0BC@KOAL@PayLockBronzeCoin?$AA@ 100a1a14     ScriptFuns.obj
 0003:00004a28       ??_C@_0BC@HKNL@GetLockBronzeCoin?$AA@ 100a1a28     ScriptFuns.obj
 0003:00004a3c       ??_C@_0BC@EJNI@AddLockBronzeCoin?$AA@ 100a1a3c     ScriptFuns.obj
 0003:00004a50       ??_C@_09MFKJ@PayJbCoin?$AA@ 100a1a50     ScriptFuns.obj
 0003:00004a5c       ??_C@_09GOAH@GetJbCoin?$AA@ 100a1a5c     ScriptFuns.obj
 0003:00004a68       ??_C@_09ECMD@AddJbCoin?$AA@ 100a1a68     ScriptFuns.obj
 0003:00004a74       ??_C@_0M@JDGB@PayExtPoint?$AA@ 100a1a74     ScriptFuns.obj
 0003:00004a80       ??_C@_0M@EIBC@GetExtPoint?$AA@ 100a1a80     ScriptFuns.obj
 0003:00004a8c       ??_C@_0BD@JOCG@ResetBaseAttribute?$AA@ 100a1a8c     ScriptFuns.obj
 0003:00004aa0       ??_C@_07EKKJ@GetProp?$AA@  100a1aa0     ScriptFuns.obj
 0003:00004aa8       ??_C@_07DKCB@AddProp?$AA@  100a1aa8     ScriptFuns.obj
 0003:00004ab0       ??_C@_0M@NMBH@UpdateSkill?$AA@ 100a1ab0     ScriptFuns.obj
 0003:00004abc       ??_C@_0O@BNFC@RollbackSkill?$AA@ 100a1abc     ScriptFuns.obj
 0003:00004acc       ??_C@_09LLCJ@MakeEnemy?$AA@ 100a1acc     ScriptFuns.obj
 0003:00004ad8       ??_C@_0N@IDF@SwearBrother?$AA@ 100a1ad8     ScriptFuns.obj
 0003:00004ae8       ??_C@_09CMCM@SetPunish?$AA@ 100a1ae8     ScriptFuns.obj
 0003:00004af4       ??_C@_08JNGG@OpenTong?$AA@ 100a1af4     ScriptFuns.obj
 0003:00004b00       ??_C@_0L@FHGL@ShowLadder?$AA@ 100a1b00     ScriptFuns.obj
 0003:00004b0c       ??_C@_0M@DAAC@ForbitTrade?$AA@ 100a1b0c     ScriptFuns.obj
 0003:00004b18       ??_C@_09BKLL@GetPKFlag?$AA@ 100a1b18     ScriptFuns.obj
 0003:00004b24       ??_C@_09DHBJ@SetPKFlag?$AA@ 100a1b24     ScriptFuns.obj
 0003:00004b30       ??_C@_0P@BCCO@ForbidChangePK?$AA@ 100a1b30     ScriptFuns.obj
 0003:00004b40       ??_C@_05MFDB@SetPK?$AA@    100a1b40     ScriptFuns.obj
 0003:00004b48       ??_C@_05EHPB@GetPK?$AA@    100a1b48     ScriptFuns.obj
 0003:00004b50       ??_C@_0O@JBJ@SetCreateTeam?$AA@ 100a1b50     ScriptFuns.obj
 0003:00004b60       ??_C@_0M@CJLJ@SetLogoutRV?$AA@ 100a1b60     ScriptFuns.obj
 0003:00004b6c       ??_C@_0N@JPJJ@ClearMapTrap?$AA@ 100a1b6c     ScriptFuns.obj
 0003:00004b7c       ??_C@_0M@EPEN@ClearMapObj?$AA@ 100a1b7c     ScriptFuns.obj
 0003:00004b88       ??_C@_0L@KFEH@GetMapName?$AA@ 100a1b88     ScriptFuns.obj
 0003:00004b94       ??_C@_0P@LEOM@GetMapInfoFile?$AA@ 100a1b94     ScriptFuns.obj
 0003:00004ba4       ??_C@_0O@CGLA@CountNpcInMap?$AA@ 100a1ba4     ScriptFuns.obj
 0003:00004bb4       ??_C@_0N@HIEJ@AddMapObject?$AA@ 100a1bb4     ScriptFuns.obj
 0003:00004bc4       ??_C@_0BB@OPJ@AddMapTrapByCell?$AA@ 100a1bc4     ScriptFuns.obj
 0003:00004bd8       ??_C@_0L@GBGK@AddMapTrap?$AA@ 100a1bd8     ScriptFuns.obj
 0003:00004be4       ??_C@_0BA@MLPG@SetLogoutScript?$AA@ 100a1be4     ScriptFuns.obj
 0003:00004bf4       ??_C@_0P@FOCJ@SetDeathScript?$AA@ 100a1bf4     ScriptFuns.obj
 0003:00004c04       ??_C@_0N@IAHJ@Msg2MSPlayer?$AA@ 100a1c04     ScriptFuns.obj
 0003:00004c14       ??_C@_09GMFA@Msg2MSAll?$AA@ 100a1c14     ScriptFuns.obj
 0003:00004c20       ??_C@_0M@PPLD@Msg2MSGroup?$AA@ 100a1c20     ScriptFuns.obj
 0003:00004c2c       ??_C@_0L@PBCH@GetPMParam?$AA@ 100a1c2c     ScriptFuns.obj
 0003:00004c38       ??_C@_0L@DCAK@SetPMParam?$AA@ 100a1c38     ScriptFuns.obj
 0003:00004c44       ??_C@_0BB@PMB@GetMSPlayerCount?$AA@ 100a1c44     ScriptFuns.obj
 0003:00004c58       ??_C@_0M@CKFB@NpcIdx2PIdx?$AA@ 100a1c58     ScriptFuns.obj
 0003:00004c64       ??_C@_0M@HLDD@MSDIdx2PIdx?$AA@ 100a1c64     ScriptFuns.obj
 0003:00004c70       ??_C@_0M@DHHI@PIdx2MSDIdx?$AA@ 100a1c70     ScriptFuns.obj
 0003:00004c7c       ??_C@_0O@COLD@GetNextPlayer?$AA@ 100a1c7c     ScriptFuns.obj
 0003:00004c8c       ??_C@_0M@BFJJ@DelMSPlayer?$AA@ 100a1c8c     ScriptFuns.obj
 0003:00004c98       ??_C@_0M@MIKK@AddMSPlayer?$AA@ 100a1c98     ScriptFuns.obj
 0003:00004ca4       ??_C@_0O@EMCK@GetMSIdxGroup?$AA@ 100a1ca4     ScriptFuns.obj
 0003:00004cb4       ??_C@_0O@GDLP@GetMSRestTime?$AA@ 100a1cb4     ScriptFuns.obj
 0003:00004cc4       ??_C@_0BB@FPEI@StopMissionTimer?$AA@ 100a1cc4     ScriptFuns.obj
 0003:00004cd8       ??_C@_0BC@FFEF@StartMissionTimer?$AA@ 100a1cd8     ScriptFuns.obj
 0003:00004cec       ??_C@_0M@HHEK@JoinMission?$AA@ 100a1cec     ScriptFuns.obj
 0003:00004cf8       ??_C@_0N@LOFK@CloseMission?$AA@ 100a1cf8     ScriptFuns.obj
 0003:00004d08       ??_C@_0L@KAIM@RunMission?$AA@ 100a1d08     ScriptFuns.obj
 0003:00004d14       ??_C@_0M@BOC@OpenMission?$AA@ 100a1d14     ScriptFuns.obj
 0003:00004d20       ??_C@_0P@JDOI@SetGlbMissionV?$AA@ 100a1d20     ScriptFuns.obj
 0003:00004d30       ??_C@_0P@BHLL@GetGlbMissionV?$AA@ 100a1d30     ScriptFuns.obj
 0003:00004d40       ??_C@_0M@PEFB@SetMissionS?$AA@ 100a1d40     ScriptFuns.obj
 0003:00004d4c       ??_C@_0M@PGJC@GetMissionS?$AA@ 100a1d4c     ScriptFuns.obj
 0003:00004d58       ??_C@_0M@PEJK@SetMissionV?$AA@ 100a1d58     ScriptFuns.obj
 0003:00004d64       ??_C@_0M@PGFJ@GetMissionV?$AA@ 100a1d64     ScriptFuns.obj
 0003:00004d70       ??_C@_07HMFG@AddNote?$AA@  100a1d70     ScriptFuns.obj
 0003:00004d78       ??_C@_0M@DDHF@SetChatFlag?$AA@ 100a1d78     ScriptFuns.obj
 0003:00004d84       ??_C@_0O@CPON@SetSkillLevel?$AA@ 100a1d84     ScriptFuns.obj
 0003:00004d94       ??_C@_0L@LFKG@GetSkillId?$AA@ 100a1d94     ScriptFuns.obj
 0003:00004da0       ??_C@_0M@MCLF@KickOutSelf?$AA@ 100a1da0     ScriptFuns.obj
 0003:00004dac       ??_C@_0O@LLHA@KickOutPlayer?$AA@ 100a1dac     ScriptFuns.obj
 0003:00004dbc       ??_C@_0BB@FDMP@GetTerminiFState?$AA@ 100a1dbc     ScriptFuns.obj
 0003:00004dd0       ??_C@_0M@IDKP@GetWharfPos?$AA@ 100a1dd0     ScriptFuns.obj
 0003:00004ddc       ??_C@_08NKGA@GetWharf?$AA@ 100a1ddc     ScriptFuns.obj
 0003:00004de8       ??_C@_0O@BCPB@GetWharfPrice?$AA@ 100a1de8     ScriptFuns.obj
 0003:00004df8       ??_C@_0O@DMFG@GetWharfCount?$AA@ 100a1df8     ScriptFuns.obj
 0003:00004e08       ??_C@_0N@MIPF@GetWharfName?$AA@ 100a1e08     ScriptFuns.obj
 0003:00004e18       ??_C@_0O@PMLI@GetServerName?$AA@ 100a1e18     ScriptFuns.obj
 0003:00004e28       ??_C@_0N@HFBA@SetPropState?$AA@ 100a1e28     ScriptFuns.obj
 0003:00004e38       ??_C@_08NBJD@SetTitle?$AA@ 100a1e38     ScriptFuns.obj
 0003:00004e44       ??_C@_08HDMA@GetTitle?$AA@ 100a1e44     ScriptFuns.obj
 0003:00004e50       ??_C@_07JAIL@SetRank?$AA@  100a1e50     ScriptFuns.obj
 0003:00004e58       ??_C@_07MDIH@GetRank?$AA@  100a1e58     ScriptFuns.obj
 0003:00004e60       ??_C@_0M@MGF@GetNpcCount?$AA@ 100a1e60     ScriptFuns.obj
 0003:00004e6c       ??_C@_0M@MIJL@GetObjCount?$AA@ 100a1e6c     ScriptFuns.obj
 0003:00004e78       ??_C@_0N@MPLG@GetItemCount?$AA@ 100a1e78     ScriptFuns.obj
 0003:00004e88       ??_C@_0P@FLMF@GetPlayerCount?$AA@ 100a1e88     ScriptFuns.obj
 0003:00004e98       ??_C@_0P@HEDM@GetWayPointPos?$AA@ 100a1e98     ScriptFuns.obj
 0003:00004ea8       ??_C@_0O@CFDB@GetStationPos?$AA@ 100a1ea8     ScriptFuns.obj
 0003:00004eb8       ??_C@_0BC@IDGB@GetPrice2WayPoint?$AA@ 100a1eb8     ScriptFuns.obj
 0003:00004ecc       ??_C@_0BB@OJAG@GetPrice2Station?$AA@ 100a1ecc     ScriptFuns.obj
 0003:00004ee0       ??_C@_0BA@KNAC@GetWayPointName?$AA@ 100a1ee0     ScriptFuns.obj
 0003:00004ef0       ??_C@_0P@MOFD@GetStationName?$AA@ 100a1ef0     ScriptFuns.obj
 0003:00004f00       ??_C@_0M@IHOF@GetWayPoint?$AA@ 100a1f00     ScriptFuns.obj
 0003:00004f0c       ??_C@_07CNLH@GetCity?$AA@  100a1f0c     ScriptFuns.obj
 0003:00004f14       ??_C@_0N@DJCD@GetCityCount?$AA@ 100a1f14     ScriptFuns.obj
 0003:00004f24       ??_C@_0BA@NPFA@GetStationCount?$AA@ 100a1f24     ScriptFuns.obj
 0003:00004f34       ??_C@_0L@GNCJ@GetStation?$AA@ 100a1f34     ScriptFuns.obj
 0003:00004f40       ??_C@_0L@PANJ@AddTermini?$AA@ 100a1f40     ScriptFuns.obj
 0003:00004f4c       ??_C@_0L@NAF@AddStation?$AA@ 100a1f4c     ScriptFuns.obj
 0003:00004f58       ??_C@_07DIEO@OpenBox?$AA@  100a1f58     ScriptFuns.obj
 0003:00004f60       ??_C@_0BB@BEMN@ReturnFromPortal?$AA@ 100a1f60     ScriptFuns.obj
 0003:00004f74       ??_C@_0O@BAEB@UseTownPortal?$AA@ 100a1f74     ScriptFuns.obj
 0003:00004f84       ??_C@_04JMNJ@Sale?$AA@     100a1f84     ScriptFuns.obj
 0003:00004f8c       ??_C@_0L@LKLP@KillPlayer?$AA@ 100a1f8c     ScriptFuns.obj
 0003:00004f98       ??_C@_07GPCG@KillNpc?$AA@  100a1f98     ScriptFuns.obj
 0003:00004fa0       ??_C@_09CDIF@AttackNpc?$AA@ 100a1fa0     ScriptFuns.obj
 0003:00004fac       ??_C@_09BDCA@ExeScript?$AA@ 100a1fac     ScriptFuns.obj
 0003:00004fb8       ??_C@_06FONF@PrePay?$AA@   100a1fb8     ScriptFuns.obj
 0003:00004fc0       ??_C@_04BFBH@Earn?$AA@     100a1fc0     ScriptFuns.obj
 0003:00004fc8       ??_C@_03GNOC@Pay?$AA@      100a1fc8     ScriptFuns.obj
 0003:00004fcc       ??_C@_07NPLA@GetCash?$AA@  100a1fcc     ScriptFuns.obj
 0003:00004fd4       ??_C@_06PDDL@GetVit?$AA@   100a1fd4     ScriptFuns.obj
 0003:00004fdc       ??_C@_07KGEA@GetStrg?$AA@  100a1fdc     ScriptFuns.obj
 0003:00004fe4       ??_C@_06GHGG@GetDex?$AA@   100a1fe4     ScriptFuns.obj
 0003:00004fec       ??_C@_06BDPG@GetEng?$AA@   100a1fec     ScriptFuns.obj
 0003:00004ff4       ??_C@_08DDIM@GetLucky?$AA@ 100a1ff4     ScriptFuns.obj
 0003:00005000       ??_C@_09DGNJ@GetRestSP?$AA@ 100a2000     ScriptFuns.obj
 0003:0000500c       ??_C@_09HBCF@GetRestAP?$AA@ 100a200c     ScriptFuns.obj
 0003:00005018       ??_C@_08DGJL@GetLevel?$AA@ 100a2018     ScriptFuns.obj
 0003:00005024       ??_C@_0L@DAMJ@GetLeadExp?$AA@ 100a2024     ScriptFuns.obj
 0003:00005030       ??_C@_07PFGG@GetUUID?$AA@  100a2030     ScriptFuns.obj
 0003:00005038       ??_C@_07OKEH@SetName?$AA@  100a2038     ScriptFuns.obj
 0003:00005040       ??_C@_0BD@OPFO@ClearDamageCounter?$AA@ 100a2040     ScriptFuns.obj
 0003:00005054       ??_C@_0BB@OBDM@GetDamageCounter?$AA@ 100a2054     ScriptFuns.obj
 0003:00005068       ??_C@_0M@MLAN@ClearDamage?$AA@ 100a2068     ScriptFuns.obj
 0003:00005074       ??_C@_09BEPP@GetDamage?$AA@ 100a2074     ScriptFuns.obj
 0003:00005080       ??_C@_07LJEL@GetName?$AA@  100a2080     ScriptFuns.obj
 0003:00005088       ??_C@_0P@MAEH@GetLastDiagNpc?$AA@ 100a2088     ScriptFuns.obj
 0003:00005098       ??_C@_09OGCA@GetPlayer?$AA@ 100a2098     ScriptFuns.obj
 0003:000050a4       ??_C@_0L@HMPO@GetAccount?$AA@ 100a20a4     ScriptFuns.obj
 0003:000050b0       ??_C@_09GFEH@SetSeries?$AA@ 100a20b0     ScriptFuns.obj
 0003:000050bc       ??_C@_09EIOF@GetSeries?$AA@ 100a20bc     ScriptFuns.obj
 0003:000050c8       ??_C@_06PIGN@GetSex?$AA@   100a20c8     ScriptFuns.obj
 0003:000050d0       ??_C@_09JADP@GetDefend?$AA@ 100a20d0     ScriptFuns.obj
 0003:000050dc       ??_C@_0P@GLIH@RestoreStamina?$AA@ 100a20dc     ScriptFuns.obj
 0003:000050ec       ??_C@_0L@CADN@GetStamina?$AA@ 100a20ec     ScriptFuns.obj
 0003:000050f8       ??_C@_0M@ICGG@RestoreMana?$AA@ 100a20f8     ScriptFuns.obj
 0003:00005104       ??_C@_07EHBO@GetMana?$AA@  100a2104     ScriptFuns.obj
 0003:0000510c       ??_C@_0M@CIIJ@RestoreLife?$AA@ 100a210c     ScriptFuns.obj
 0003:00005118       ??_C@_07ONPB@GetLife?$AA@  100a2118     ScriptFuns.obj
 0003:00005120       ??_C@_08JEMI@SetLevel?$AA@ 100a2120     ScriptFuns.obj
 0003:0000512c       ??_C@_09BFAF@AddSumExp?$AA@ 100a212c     ScriptFuns.obj
 0003:00005138       ??_C@_09JLDK@AddOwnExp?$AA@ 100a2138     ScriptFuns.obj
 0003:00005144       ??_C@_06HKPB@AddExp?$AA@   100a2144     ScriptFuns.obj
 0003:0000514c       ??_C@_0O@DIKE@GetExpPercent?$AA@ 100a214c     ScriptFuns.obj
 0003:0000515c       ??_C@_06PCDF@GetExp?$AA@   100a215c     ScriptFuns.obj
 0003:00005164       ??_C@_07BGMP@SetPhyR?$AA@  100a2164     ScriptFuns.obj
 0003:0000516c       ??_C@_07EFMD@GetPhyR?$AA@  100a216c     ScriptFuns.obj
 0003:00005174       ??_C@_0L@JAGE@SetPoisonR?$AA@ 100a2174     ScriptFuns.obj
 0003:00005180       ??_C@_0L@FDEJ@GetPoisonR?$AA@ 100a2180     ScriptFuns.obj
 0003:0000518c       ??_C@_09MIMC@SetLightR?$AA@ 100a218c     ScriptFuns.obj
 0003:00005198       ??_C@_09OFGA@GetLightR?$AA@ 100a2198     ScriptFuns.obj
 0003:000051a4       ??_C@_08HCHA@SetFireR?$AA@ 100a21a4     ScriptFuns.obj
 0003:000051b0       ??_C@_08NACD@GetFireR?$AA@ 100a21b0     ScriptFuns.obj
 0003:000051bc       ??_C@_08MGCO@SetColdR?$AA@ 100a21bc     ScriptFuns.obj
 0003:000051c8       ??_C@_08GEHN@GetColdR?$AA@ 100a21c8     ScriptFuns.obj
 0003:000051d4       ??_C@_0N@CIKB@GetFactionNo?$AA@ 100a21d4     ScriptFuns.obj
 0003:000051e4       ??_C@_0L@KPF@SetFaction?$AA@ 100a21e4     ScriptFuns.obj
 0003:000051f0       ??_C@_0L@MJNI@GetFaction?$AA@ 100a21f0     ScriptFuns.obj
 0003:000051fc       ??_C@_0M@EPAC@RestoreCamp?$AA@ 100a21fc     ScriptFuns.obj
 0003:00005208       ??_C@_07NJHG@SetCamp?$AA@  100a2208     ScriptFuns.obj
 0003:00005210       ??_C@_0L@IKED@SetCurCamp?$AA@ 100a2210     ScriptFuns.obj
 0003:0000521c       ??_C@_07IKHK@GetCamp?$AA@  100a221c     ScriptFuns.obj
 0003:00005224       ??_C@_0L@EJGO@GetCurCamp?$AA@ 100a2224     ScriptFuns.obj
 0003:00005230       ??_C@_0M@ONLK@SetClearPos?$AA@ 100a2230     ScriptFuns.obj
 0003:0000523c       ??_C@_0O@CHHD@SetTempRevPos?$AA@ 100a223c     ScriptFuns.obj
 0003:0000524c       ??_C@_09FMLC@SetRevPos?$AA@ 100a224c     ScriptFuns.obj
 0003:00005258       ??_C@_0N@IKMK@SetNpcScript?$AA@ 100a2258     ScriptFuns.obj
 0003:00005268       ??_C@_08JEDI@GetNpcID?$AA@ 100a2268     ScriptFuns.obj
 0003:00005274       ??_C@_0O@BHMD@FindAroundNpc?$AA@ 100a2274     ScriptFuns.obj
 0003:00005284       ??_C@_0BE@DGE@ClearMapNpcWithName?$AA@ 100a2284     ScriptFuns.obj
 0003:00005298       ??_C@_0M@KEII@ClearMapNpc?$AA@ 100a2298     ScriptFuns.obj
 0003:000052a4       ??_C@_06LGHH@DelNpc?$AA@   100a22a4     ScriptFuns.obj
 0003:000052ac       ??_C@_0BB@KJCK@AddNpcSkillState?$AA@ 100a22ac     ScriptFuns.obj
 0003:000052c0       ??_C@_06PPOC@AddNpc?$AA@   100a22c0     ScriptFuns.obj
 0003:000052c8       ??_C@_0O@GOM@GetFightState?$AA@ 100a22c8     ScriptFuns.obj
 0003:000052d8       ??_C@_0O@FFIF@SetFightState?$AA@ 100a22d8     ScriptFuns.obj
 0003:000052e8       ??_C@_0N@MIFC@GetLeadLevel?$AA@ 100a22e8     ScriptFuns.obj
 0003:000052f8       ??_C@_0L@FAOF@AddLeadExp?$AA@ 100a22f8     ScriptFuns.obj
 0003:00005304       ??_C@_0P@JKLA@SubWorldIdx2ID?$AA@ 100a2304     ScriptFuns.obj
 0003:00005314       ??_C@_0P@DEC@SubWorldID2Idx?$AA@ 100a2314     ScriptFuns.obj
 0003:00005324       ??_C@_0BA@OOIE@ClearStateSkill?$AA@ 100a2324     ScriptFuns.obj
 0003:00005334       ??_C@_09GDOD@CastSkill?$AA@ 100a2334     ScriptFuns.obj
 0003:00005340       ??_C@_0O@FACP@AddSkillState?$AA@ 100a2340     ScriptFuns.obj
 0003:00005350       ??_C@_0O@PHNM@GetMagicPoint?$AA@ 100a2350     ScriptFuns.obj
 0003:00005360       ??_C@_0O@NFKG@AddMagicPoint?$AA@ 100a2360     ScriptFuns.obj
 0003:00005370       ??_C@_0O@GINP@GetMagicLevel?$AA@ 100a2370     ScriptFuns.obj
 0003:00005380       ??_C@_09POBA@HaveMagic?$AA@ 100a2380     ScriptFuns.obj
 0003:0000538c       ??_C@_08LBFJ@DelMagic?$AA@ 100a238c     ScriptFuns.obj
 0003:00005398       ??_C@_08FKFJ@AddMagic?$AA@ 100a2398     ScriptFuns.obj
 0003:000053a4       ??_C@_08BBHA@SyncItem?$AA@ 100a23a4     ScriptFuns.obj
 0003:000053b0       ??_C@_0N@OFMP@GetItemParam?$AA@ 100a23b0     ScriptFuns.obj
 0003:000053c0       ??_C@_0N@IMMN@SetItemParam?$AA@ 100a23c0     ScriptFuns.obj
 0003:000053d0       ??_C@_0BD@ENAG@GetItemMagicAttrib?$AA@ 100a23d0     ScriptFuns.obj
 0003:000053e4       ??_C@_0M@IOFN@GetGoldItem?$AA@ 100a23e4     ScriptFuns.obj
 0003:000053f0       ??_C@_0M@FKDN@AddGoldItem?$AA@ 100a23f0     ScriptFuns.obj
 0003:000053fc       ??_C@_0N@BLEF@GetEquipItem?$AA@ 100a23fc     ScriptFuns.obj
 0003:0000540c       ??_C@_0M@IPHA@GetHandItem?$AA@ 100a240c     ScriptFuns.obj
 0003:00005418       ??_C@_0O@HMDM@SetItemRecord?$AA@ 100a2418     ScriptFuns.obj
 0003:00005428       ??_C@_0M@HDAK@GetItemInfo?$AA@ 100a2428     ScriptFuns.obj
 0003:00005434       ??_C@_0BD@LKAB@GetItemExpiredTime?$AA@ 100a2434     ScriptFuns.obj
 0003:00005448       ??_C@_0N@HPDL@AddItemAgain?$AA@ 100a2448     ScriptFuns.obj
 0003:00005458       ??_C@_0BD@FDKM@RestoreBrokenEquip?$AA@ 100a2458     ScriptFuns.obj
 0003:0000546c       ??_C@_0BA@PBMJ@SetItemRandSeed?$AA@ 100a246c     ScriptFuns.obj
 0003:0000547c       ??_C@_0M@GAGL@SetItemLuck?$AA@ 100a247c     ScriptFuns.obj
 0003:00005488       ??_C@_0BC@PGLN@GetItemMagicLevel?$AA@ 100a2488     ScriptFuns.obj
 0003:0000549c       ??_C@_0BC@GECG@SetItemMagicLevel?$AA@ 100a249c     ScriptFuns.obj
 0003:000054b0       ??_C@_0O@ICPB@SetItemSeries?$AA@ 100a24b0     ScriptFuns.obj
 0003:000054c0       ??_C@_0N@CCAI@SetItemLevel?$AA@ 100a24c0     ScriptFuns.obj
 0003:000054d0       ??_C@_0O@DIBJ@SetItemDetail?$AA@ 100a24d0     ScriptFuns.obj
 0003:000054e0       ??_C@_0BC@EOGK@SetItemParticular?$AA@ 100a24e0     ScriptFuns.obj
 0003:000054f4       ??_C@_0N@IHEB@SetItemGenre?$AA@ 100a24f4     ScriptFuns.obj
 0003:00005504       ??_C@_0P@JFFF@GetItemVersion?$AA@ 100a2504     ScriptFuns.obj
 0003:00005514       ??_C@_0BA@NBEN@GetItemRandSeed?$AA@ 100a2514     ScriptFuns.obj
 0003:00005524       ??_C@_0M@NLLP@GetItemProp?$AA@ 100a2524     ScriptFuns.obj
 0003:00005530       ??_C@_0BB@OHEM@GetItemBindState?$AA@ 100a2530     ScriptFuns.obj
 0003:00005544       ??_C@_0BB@HMGM@SetItemBindState?$AA@ 100a2544     ScriptFuns.obj
 0003:00005558       ??_C@_0BB@JDAB@ConsumeItemInBag?$AA@ 100a2558     ScriptFuns.obj
 0003:0000556c       ??_C@_0BC@OBHF@GetItemCountInBag?$AA@ 100a256c     ScriptFuns.obj
 0003:00005580       ??_C@_0BB@NKJL@CountFreeBagCell?$AA@ 100a2580     ScriptFuns.obj
 0003:00005594       ??_C@_0M@OHAM@AddMineItem?$AA@ 100a2594     ScriptFuns.obj
 0003:000055a0       ??_C@_0BB@NHNB@GetTaskItemCount?$AA@ 100a25a0     ScriptFuns.obj
 0003:000055b4       ??_C@_0O@IHJC@HaveEventItem?$AA@ 100a25b4     ScriptFuns.obj
 0003:000055c4       ??_C@_0M@DAPH@DelTaskItem?$AA@ 100a25c4     ScriptFuns.obj
 0003:000055d0       ??_C@_0M@ONME@AddTaskItem?$AA@ 100a25d0     ScriptFuns.obj
 0003:000055dc       ??_C@_0P@FKDO@DelItemByIndex?$AA@ 100a25dc     ScriptFuns.obj
 0003:000055ec       ??_C@_09IJMP@DelMyItem?$AA@ 100a25ec     ScriptFuns.obj
 0003:000055f8       ??_C@_08CCOH@IsMyItem?$AA@ 100a25f8     ScriptFuns.obj
 0003:00005604       ??_C@_09HOCE@AddMyItem?$AA@ 100a2604     ScriptFuns.obj
 0003:00005610       ??_C@_0O@HOOE@AddScriptItem?$AA@ 100a2610     ScriptFuns.obj
 0003:00005620       ??_C@_0N@NILH@DelStackItem?$AA@ 100a2620     ScriptFuns.obj
 0003:00005630       ??_C@_0N@ENPJ@UseStackItem?$AA@ 100a2630     ScriptFuns.obj
 0003:00005640       ??_C@_0BC@LDA@GetItemStackCount?$AA@ 100a2640     ScriptFuns.obj
 0003:00005654       ??_C@_0N@JGGK@AddStackItem?$AA@ 100a2654     ScriptFuns.obj
 0003:00005664       ??_C@_09IDIE@AddItemEx?$AA@ 100a2664     ScriptFuns.obj
 0003:00005670       ??_C@_07OJLH@AddItem?$AA@  100a2670     ScriptFuns.obj
 0003:00005678       ??_C@_0P@NNJN@FindEmptyPlace?$AA@ 100a2678     ScriptFuns.obj
 0003:00005688       ??_C@_0N@LMNN@DropRateItem?$AA@ 100a2688     ScriptFuns.obj
 0003:00005698       ??_C@_08BLNJ@DropItem?$AA@ 100a2698     ScriptFuns.obj
 0003:000056a4       ??_C@_09OFGM@DropMoney?$AA@ 100a26a4     ScriptFuns.obj
 0003:000056b0       ??_C@_06MHKO@IsBoss?$AA@   100a26b0     ScriptFuns.obj
 0003:000056b8       ??_C@_0L@GMPG@SetNpcLife?$AA@ 100a26b8     ScriptFuns.obj
 0003:000056c4       ??_C@_0N@GFED@SetNpcDamage?$AA@ 100a26c4     ScriptFuns.obj
 0003:000056d4       ??_C@_0M@LAKD@SetNpcSkill?$AA@ 100a26d4     ScriptFuns.obj
 0003:000056e0       ??_C@_0BC@BPLA@SetNpcReduceDamge?$AA@ 100a26e0     ScriptFuns.obj
 0003:000056f4       ??_C@_0L@DIEM@SetNpcName?$AA@ 100a26f4     ScriptFuns.obj
 0003:00005700       ??_C@_0O@HOBP@SetNpcCurCamp?$AA@ 100a2700     ScriptFuns.obj
 0003:00005710       ??_C@_0M@CGBM@GetNpcParam?$AA@ 100a2710     ScriptFuns.obj
 0003:0000571c       ??_C@_0M@CENP@SetNpcParam?$AA@ 100a271c     ScriptFuns.obj
 0003:00005728       ??_C@_0N@FAFL@GetNpcSeries?$AA@ 100a2728     ScriptFuns.obj
 0003:00005738       ??_C@_0N@DJFJ@SetNpcSeries?$AA@ 100a2738     ScriptFuns.obj
 0003:00005748       ??_C@_0L@DEFM@GetNpcGold?$AA@ 100a2748     ScriptFuns.obj
 0003:00005754       ??_C@_09BHEN@GetNpcPos?$AA@ 100a2754     ScriptFuns.obj
 0003:00005760       ??_C@_0L@PLGB@GetNpcName?$AA@ 100a2760     ScriptFuns.obj
 0003:0000576c       ??_C@_0M@IINJ@GetNpcLevel?$AA@ 100a276c     ScriptFuns.obj
 0003:00005778       ??_C@_08LNBJ@NewWorld?$AA@ 100a2778     ScriptFuns.obj
 0003:00005784       ??_C@_0M@CHKB@GetWorldPos?$AA@ 100a2784     ScriptFuns.obj
 0003:00005790       ??_C@_06DNFG@GetPos?$AA@   100a2790     ScriptFuns.obj
 0003:00005798       ??_C@_06DBNE@SetPos?$AA@   100a2798     ScriptFuns.obj
 0003:000057a0       ??_C@_05IMNH@GetIP?$AA@    100a27a0     ScriptFuns.obj
 0003:000057a8       ??_C@_07OCBM@GetInfo?$AA@  100a27a8     ScriptFuns.obj
 0003:000057b0       ??_C@_0M@HKFA@Msg2Faction?$AA@ 100a27b0     ScriptFuns.obj
 0003:000057bc       ??_C@_06CPOM@Msg2IP?$AA@   100a27bc     ScriptFuns.obj
 0003:000057c4       ??_C@_06BAEE@Msg2GM?$AA@   100a27c4     ScriptFuns.obj
 0003:000057cc       ??_C@_0L@NFNI@Msg2Region?$AA@ 100a27cc     ScriptFuns.obj
 0003:000057d8       ??_C@_0N@ICDI@Msg2SubWorld?$AA@ 100a27d8     ScriptFuns.obj
 0003:000057e8       ??_C@_08DOHE@Msg2Team?$AA@ 100a27e8     ScriptFuns.obj
 0003:000057f4       ??_C@_0L@GOIE@Msg2Player?$AA@ 100a27f4     ScriptFuns.obj
 0003:00005800       ??_C@_0P@CFAG@GetTeamCaptain?$AA@ 100a2800     ScriptFuns.obj
 0003:00005810       ??_C@_0O@OGMA@GetTeamMember?$AA@ 100a2810     ScriptFuns.obj
 0003:00005820       ??_C@_09ODJA@LeaveTeam?$AA@ 100a2820     ScriptFuns.obj
 0003:0000582c       ??_C@_0M@EGPJ@GetTeamSize?$AA@ 100a282c     ScriptFuns.obj
 0003:00005838       ??_C@_07HPEC@GetTeam?$AA@  100a2838     ScriptFuns.obj
 0003:00005840       ??_C@_09KNBL@IsCaptain?$AA@ 100a2840     ScriptFuns.obj
 0003:0000584c       ??_C@_07NMJK@SetTask?$AA@  100a284c     ScriptFuns.obj
 0003:00005854       ??_C@_07IPJG@GetTask?$AA@  100a2854     ScriptFuns.obj
 0003:0000585c       ??_C@_0L@IFPB@GetTimerId?$AA@ 100a285c     ScriptFuns.obj
 0003:00005868       ??_C@_0M@NFEE@GetRestTime?$AA@ 100a2868     ScriptFuns.obj
 0003:00005874       ??_C@_09BPHN@StopTimer?$AA@ 100a2874     ScriptFuns.obj
 0003:00005880       ??_C@_08GNDB@SetTimer?$AA@ 100a2880     ScriptFuns.obj
 0003:0000588c       ??_C@_09NBCO@GetNpcIdx?$AA@ 100a288c     ScriptFuns.obj
 0003:00005898       ??_C@_09MINI@GetFuyuan?$AA@ 100a2898     ScriptFuns.obj
 0003:000058a4       ??_C@_09OEBM@AddFuyuan?$AA@ 100a28a4     ScriptFuns.obj
 0003:000058b0       ??_C@_09EEGF@GetRepute?$AA@ 100a28b0     ScriptFuns.obj
 0003:000058bc       ??_C@_09GIKB@AddRepute?$AA@ 100a28bc     ScriptFuns.obj
 0003:000058c8       ??_C@_0N@KDB@GetTransLife?$AA@ 100a28c8     ScriptFuns.obj
 0003:000058d8       ??_C@_0N@HAOF@AddTransLife?$AA@ 100a28d8     ScriptFuns.obj
 0003:000058e8       ??_C@_0BC@HKAI@AddLocalCountNews?$AA@ 100a28e8     ScriptFuns.obj
 0003:000058fc       ??_C@_0BB@DMOB@AddLocalTimeNews?$AA@ 100a28fc     ScriptFuns.obj
 0003:00005910       ??_C@_0N@COKK@AddLocalNews?$AA@ 100a2910     ScriptFuns.obj
 0003:00005920       ??_C@_0BD@MGEH@AddGlobalCountNews?$AA@ 100a2920     ScriptFuns.obj
 0003:00005934       ??_C@_0BC@HDMA@AddGlobalTimeNews?$AA@ 100a2934     ScriptFuns.obj
 0003:00005948       ??_C@_0BA@PAFD@AddGlobalNewsEx?$AA@ 100a2948     ScriptFuns.obj
 0003:00005958       ??_C@_0O@EMDD@AddGlobalNews?$AA@ 100a2958     ScriptFuns.obj
 0003:00005968       ??_C@_0L@JJKJ@PutMessage?$AA@ 100a2968     ScriptFuns.obj
 0003:00005974       ??_C@_07HBPN@Include?$AA@  100a2974     ScriptFuns.obj
 0003:0000597c       ??_C@_07CNBH@SetByte?$AA@  100a297c     ScriptFuns.obj
 0003:00005984       ??_C@_06JGIJ@SetBit?$AA@   100a2984     ScriptFuns.obj
 0003:0000598c       ??_C@_07HOBL@GetByte?$AA@  100a298c     ScriptFuns.obj
 0003:00005994       ??_C@_06JKAL@GetBit?$AA@   100a2994     ScriptFuns.obj
 0003:0000599c       ??_C@_07NNP@Message?$AA@   100a299c     ScriptFuns.obj
 0003:000059a4       ??_C@_0M@MPOH@SetTaskTemp?$AA@ 100a29a4     ScriptFuns.obj
 0003:000059b0       ??_C@_0M@MNCE@GetTaskTemp?$AA@ 100a29b0     ScriptFuns.obj
 0003:000059bc       ??_C@_04MNKN@Talk?$AA@     100a29bc     ScriptFuns.obj
 0003:000059c4       ??_C@_08GOO@SayImage?$AA@  100a29c4     ScriptFuns.obj
 0003:000059d0       ??_C@_03JLNJ@Say?$AA@      100a29d0     ScriptFuns.obj
 0003:000059d4       ??_C@_0DA@KPDG@Danh?5v?dng?5b?$LJn?5t?$KIng?5?$DMcolor?$DNgreen?$DO@ 100a29d4     ScriptFuns.obj
 0003:00005a04       ??_C@_0DA@PJII@Danh?5v?dng?5b?$LJn?5gi?$LGm?5?$DMcolor?$DNgreen?$DO@ 100a2a04     ScriptFuns.obj
 0003:00005a34       ??_C@_0DB@HELJ@Ph?sc?5duy?$KKn?5b?$LJn?5t?$KIng?5?$DMcolor?$DNgreen@ 100a2a34     ScriptFuns.obj
 0003:00005a68       ??_C@_0DB@CCAH@Ph?sc?5duy?$KKn?5b?$LJn?5gi?$LGm?5?$DMcolor?$DNgreen@ 100a2a68     ScriptFuns.obj
 0003:00005a9c       ??_C@_01FDLN@?1?$AA@       100a2a9c     ScriptFuns.obj
 0003:00005aa0       ??_C@_01PLJA@0?$AA@        100a2aa0     ScriptFuns.obj
 0003:00005aa4       ??_C@_05DNHK@?$CFs?$CFd?$HM?$AA@ 100a2aa4     ScriptFuns.obj
 0003:00005aac       ??_C@_05DGIG@?$CFs?$CFs?$HM?$AA@ 100a2aac     ScriptFuns.obj
 0003:00005ab4       ??_C@_07FDED@L?gi?5Bug?$AA@ 100a2ab4     ScriptFuns.obj
 0003:00005abc       ??_C@_0CI@OMKB@Bug?5h?$LFm?5LuaMsgToPlayer?5vui?5l?$NPng?5@ 100a2abc     ScriptFuns.obj
 0003:00005ae4       ??_C@_0P@LPDK@Tin?5t?xc?5t?f?5?$KO?ii?$AA@ 100a2ae4     ScriptFuns.obj
 0003:00005af4       ??_C@_0L@PFGE@Picture?5ID?$AA@ 100a2af4     ScriptFuns.obj
 0003:00005b00       ??_C@_0L@DEJK@NpcResType?$AA@ 100a2b00     ScriptFuns.obj
 0003:00005b0c       ??_C@_0BC@IBMI@LUA_ADD?5TASK?5ITEM?$AA@ 100a2b0c     ScriptFuns.obj
 0003:00005b20       ??_C@_0BC@ONMC@LUA_ADD?5MINE?5ITEM?$AA@ 100a2b20     ScriptFuns.obj
 0003:00005b34       ??_C@_0N@LLNM@LUA_ADD?5ITEM?$AA@ 100a2b34     ScriptFuns.obj
 0003:00005b44       ??_C@_0BA@NPEG@LUA_ADD?5ITEM?5EX?$AA@ 100a2b44     ScriptFuns.obj
 0003:00005b54       ??_C@_0BE@CCCA@LUA_ADD?5SCRIPT?5ITEM?$AA@ 100a2b54     ScriptFuns.obj
 0003:00005b68       ??_C@_0BC@DHP@LUA_ADD?5GOLD?5ITEM?$AA@ 100a2b68     ScriptFuns.obj
 0003:00005b7c       ??_C@_0L@BAJC@DetailType?$AA@ 100a2b7c     ScriptFuns.obj
 0003:00005b88       ??_C@_0BO@JPJJ@GM?5Kick?5out?5specific?5player?4?6?$AA@ 100a2b88     ScriptFuns.obj
 0003:00005ba8       ??_C@_0BJ@PFAG@GM?5Kick?5out?5player?5one?4?6?$AA@ 100a2ba8     ScriptFuns.obj
 0003:00005bc4       ??_C@_04PPKB@DESC?$AA@     100a2bc4     ScriptFuns.obj
 0003:00005bcc       ??_C@_06MDNL@?N?$NO?C?$PL?$LD?G?$AA@ 100a2bcc     ScriptFuns.obj
 0003:00005bd4       ??_C@_06LJHI@?N?$LE?$LM?G?B?$LM?$AA@ 100a2bd4     ScriptFuns.obj
 0003:00005bdc       ??_C@_05LBOG@0?00?00?$AA@  100a2bdc     ScriptFuns.obj
 0003:00005be4       ??_C@_06LGMI@SECT?$CFd?$AA@ 100a2be4     ScriptFuns.obj
 0003:00005bec       ??_C@_05BNPO@COUNT?$AA@    100a2bec     ScriptFuns.obj
 0003:00005bf4       ??_C@_04MGAC@SECT?$AA@     100a2bf4     ScriptFuns.obj
 0003:00005bfc       ??_C@_08BAGP@?N?$LE?V?$KK?B?k?M?$LH?$AA@ 100a2bfc     ScriptFuns.obj
 0003:00005c08       ??_C@_0BN@KKHL@GetWharfPos?5Script?5Is?5Error?$CB?$AA@ 100a2c08     ScriptFuns.obj
 0003:00005c28       ??_C@_0L@GOO@FightState?$AA@ 100a2c28     ScriptFuns.obj
 0003:00005c34       ??_C@_0M@JENI@InitMission?$AA@ 100a2c34     ScriptFuns.obj
 0003:00005c40       ??_C@_0L@FCNF@EndMission?$AA@ 100a2c40     ScriptFuns.obj
 0003:00005c4c       ??_C@_02DKED@GM?$AA@       100a2c4c     ScriptFuns.obj
 0003:00005c50       ??_C@_0DK@EGGI@Name?3?$CFs?0Lvl?3?$CFd?0IP?3?$CFs?0Lf?3?$CFd?$HM?$CFd?0Mn@ 100a2c50     ScriptFuns.obj
 0003:00005c8c       ??_C@_07EJLB@?$CFd_name?$AA@ 100a2c8c     ScriptFuns.obj
 0003:00005c94       ??_C@_09KNIH@UpdateTop?$AA@ 100a2c94     ScriptFuns.obj
 0003:00005ca0       ??_C@_09IDBN@DeleteTop?$AA@ 100a2ca0     ScriptFuns.obj
 0003:00005cac       ??_C@_0N@GDFL@IntegerValue?$AA@ 100a2cac     KScriptValueSet.obj
 0003:00005cbc       ??_C@_0M@PCFE@StringValue?$AA@ 100a2cbc     KScriptValueSet.obj
 0003:00005cc8       ??_C@_07FCHL@?2script?$AA@ 100a2cc8     KSortScript.obj
 0003:00005cd0       ??_C@_04GABA@?4TXT?$AA@    100a2cd0     KSortScript.obj
 0003:00005cd8       ??_C@_04IBCA@?4LUA?$AA@    100a2cd8     KSortScript.obj
 0003:00005ce0       ??_C@_02OOND@?4?4?$AA@     100a2ce0     KSortScript.obj
 0003:00005ce4       ??_C@_01PJCK@?4?$AA@       100a2ce4     KSortScript.obj
 0003:00005ce8       ??_C@_03DCMC@?$CK?4?$CK?$AA@ 100a2ce8     KSortScript.obj
 0003:00005cec       ??_C@_05KEJO@?$CFs?2?$CFs?$AA@ 100a2cec     KSortScript.obj
 0003:00005d40       ??_C@_0CA@KJJA@G?vi?5ti?Rn?5v?$LFo?5bang?5h?ii?5th?Jt?5b?$LJi?$CB?$AA@ 100a2d40     CoreServerShell.obj
 0003:00005d60       ??_C@_0BE@KELO@?2script?2preload?4lua?$AA@ 100a2d60     CoreServerShell.obj
 0003:00005d74       ??_C@_07BLHP@OnTimer?$AA@  100a2d74     CoreServerShell.obj
 0003:00005d7c       ??_C@_0BI@FDGD@?2settings?2MagicDesc?4Ini?$AA@ 100a2d7c     KMagicDesc.obj
 0003:00005d94       ??_C@_03DDGG@Nam?$AA@      100a2d94     KMagicDesc.obj
 0003:00005d98       ??_C@_04HFGK@N?w?5?5?$AA@  100a2d98     KMagicDesc.obj
 0003:00005da0       ??_C@_01GJD@?9?$AA@        100a2da0     KMagicDesc.obj
 0003:00005da4       ??_C@_01PJOB@?$CL?$AA@     100a2da4     KMagicDesc.obj
 0003:00005da8       ??_C@_06KCKH@?$FL?5?$CFs?5?$FN?$AA@ 100a2da8     KMagicDesc.obj
 0003:00005db0       ??_C@_0P@PEKG@v?b?5c?$KLng?5v?hn?5c?c?$AA@ 100a2db0     KMagicDesc.obj
 0003:00005dc0       ??_C@_04HFMI@Ti?Rn?$AA@    100a2dc0     KMagicDesc.obj
 0003:00005dc8       ??_C@_07GCNK@Th?S?5L?yc?$AA@ 100a2dc8     KMagicDesc.obj
 0003:00005dd0       ??_C@_08GALG@Sinh?5L?yc?$AA@ 100a2dd0     KMagicDesc.obj
 0003:00005ddc       ??_C@_07LCIC@N?ii?5L?yc?$AA@ 100a2ddc     KMagicDesc.obj
 0003:00005de4       ??_C@_06PFFN@V?$KL?5h?V?5?$AA@ 100a2de4     KMagicDesc.obj
 0003:00005dec       ??_C@_04MMIF@Th?f?5?$AA@   100a2dec     KMagicDesc.obj
 0003:00005df4       ??_C@_03HELO@H?aa?$AA@     100a2df4     KMagicDesc.obj
 0003:00005df8       ??_C@_04DFOG@Th?qy?$AA@    100a2df8     KMagicDesc.obj
 0003:00005e00       ??_C@_03IOII@M?ic?$AA@     100a2e00     KMagicDesc.obj
 0003:00005e04       ??_C@_03JMHO@Kim?$AA@      100a2e04     KMagicDesc.obj
 0003:00005e08       ??_C@_08BILC@Descript?$AA@ 100a2e08     KMagicDesc.obj
 0003:00005e14       ??_C@_0DA@GADK@Exception?5Have?5Caught?5When?5Execu@ 100a2e14     KMission.obj
 0003:00005e44       ?g_WayPointPriceUnit@@3HA  100a2e44     KTaskFuns.obj
 0003:00005e48       ?g_StationPriceUnit@@3HA   100a2e48     KTaskFuns.obj
 0003:00005e4c       ?g_DockPriceUnit@@3HA      100a2e4c     KTaskFuns.obj
 0003:00005e50       ??_C@_0BI@MOLC@?2settings?2timertask?4txt?$AA@ 100a2e50     KTaskFuns.obj
 0003:00005e68       ??_C@_06PDJ@SCRIPT?$AA@    100a2e68     KTaskFuns.obj
 0003:00005e70       ??_C@_0EA@FAMI@SELECT?5nExtPoint?5FROM?5View_Accou@ 100a2e70     KB_MSSQL.obj
 0003:00005eb0       ??_C@_0EG@GEHA@UPDATE?5View_AccountMoney?5SET?5nEx@ 100a2eb0     KB_MSSQL.obj
 0003:00005ef8       ??_C@_0FC@JGFK@UPDATE?5View_AccountMoney?5SET?5nEx@ 100a2ef8     KB_MSSQL.obj
 0003:00005f4c       ??_C@_0EB@DHKE@SELECT?5nExtPoint2?5FROM?5View_Acco@ 100a2f4c     KB_MSSQL.obj
 0003:00005f90       ??_C@_0EH@DFKE@UPDATE?5View_AccountMoney?5SET?5nEx@ 100a2f90     KB_MSSQL.obj
 0003:00005fd8       ??_C@_0FE@MGMF@UPDATE?5View_AccountMoney?5SET?5nEx@ 100a2fd8     KB_MSSQL.obj
 0003:0000602c       ??_C@_0EH@JDAM@UPDATE?5View_AccountLicense?5SET?5c@ 100a302c     KB_MSSQL.obj
 0003:00006074       ??_C@_0ED@DNEK@SELECT?5cClientKey?5FROM?5View_Acco@ 100a3074     KB_MSSQL.obj
 0003:000060b8       ??_C@_0EA@GMEF@UPDATE?5Account_info?5SET?5iSongJin@ 100a30b8     KB_MSSQL.obj
 0003:000060f8       ??_C@_0GE@MELO@SELECT?5cClientKey?0iSongJin?5FROM?5@ 100a30f8     KB_MSSQL.obj
 0003:00006160       __GUID_00000515_0000_0010_8000_00aa006d2ea4 100a3160     ZEG_MSSQLServer_Connection.obj
 0003:00006170       ??_R0?AV_com_error@@@8     100a3170     ZEG_MSSQLServer_Connection.obj
 0003:0000618c       ??_C@_0CL@JPMJ@?$FLSQLConnection?3?3OpenConnect?$FNCOM?5@ 100a318c     ZEG_MSSQLServer_Connection.obj
 0003:000061b8       ??_C@_0BF@NADL@Unknown?5error?50x?$CF0lX?$AA@ 100a31b8     ZEG_MSSQLServer_Connection.obj
 0003:000061d0       ??_C@_0BE@OPIO@IDispatch?5error?5?$CD?$CFd?$AA@ 100a31d0     ZEG_MSSQLServer_Connection.obj
 0003:000061e8       __GUID_00000508_0000_0010_8000_00aa006d2ea4 100a31e8     ZEG_MSSQLServer_Connection.obj
 0003:000061f8       ??_C@_0O@PKKE@ADODB?4Command?$AA@ 100a31f8     ZEG_MSSQLServer_Connection.obj
 0003:00006208       ??_C@_09KKBE@Database?$DN?$AA@ 100a3208     ZEG_MSSQLServer_Connection.obj
 0003:00006214       ??_C@_01FAJB@?$DL?$AA@     100a3214     ZEG_MSSQLServer_Connection.obj
 0003:00006218       ??_C@_07FBJB@Server?$DN?$AA@ 100a3218     ZEG_MSSQLServer_Connection.obj
 0003:00006220       ??_C@_0BF@LIBE@driver?$DN?$HLSQL?5Server?$HN?$DL?$AA@ 100a3220     ZEG_MSSQLServer_Connection.obj
 0003:00006238       ??_C@_0BB@ICNN@ADODB?4Connection?$AA@ 100a3238     ZEG_MSSQLServer_Connection.obj
 0003:0000624c       ??_C@_0CP@KMAI@?$FLZEG_MSSQLServer_Connection?3?3Do?5@ 100a324c     ZEG_MSSQLServer_Connection.obj
 0003:00006280       __GUID_0000050e_0000_0010_8000_00aa006d2ea4 100a3280     ZEG_MSSQLServer_Connection.obj
 0003:00006290       ??_C@_0BA@LOMB@ADODB?4Recordset?$AA@ 100a3290     ZEG_MSSQLServer_Connection.obj
 0003:000062a0       ??_C@_0DC@LJIP@?$FLZEG_MSSQLServer_Connection?3?3DoS@ 100a32a0     ZEG_MSSQLServer_Connection.obj
 0003:000062d8       __GUID_00000550_0000_0010_8000_00aa006d2ea4 100a32d8     ZEG_MSSQLServer_Connection.obj
 0003:000062e8       __GUID_00000000_0000_0000_c000_000000000046 100a32e8     ZEG_MSSQLServer_Connection.obj
 0003:000062f8       __GUID_00000556_0000_0010_8000_00aa006d2ea4 100a32f8     ZEG_MSSQLServer_Connection.obj
 0003:00006308       __GUID_b08400bd_f9d1_4d02_b856_71d5dba123e9 100a3308     ZEG_MSSQLServer_Connection.obj
 0003:00006318       __GUID_00000512_0000_0010_8000_00aa006d2ea4 100a3318     ZEG_MSSQLServer_Result.obj
 0003:00006328       __GUID_00000506_0000_0010_8000_00aa006d2ea4 100a3328     ZEG_MSSQLServer_Result.obj
 0003:00006338       ??_R0?AVCException@Win32@OnlineGameLib@@@8 100a3338     common:Buffer.obj
 0003:00006368       ??_C@_0BB@BJC@CBuffer?3?3AddData?$AA@ 100a3368     common:Buffer.obj
 0003:0000637c       ??_C@_0BL@HPMM@Not?5enough?5space?5in?5buffer?$AA@ 100a337c     common:Buffer.obj
 0003:00006398       ??_C@_0BD@MKLK@CBuffer?3?3Release?$CI?$CJ?$AA@ 100a3398     common:Buffer.obj
 0003:000063ac       ??_C@_0BG@EBOE@m_ref?5is?5already?5zero?$AA@ 100a33ac     common:Buffer.obj
 0003:000063c4       ??_C@_0BP@ONCE@CBuffer?3?3Allocator?3?3Allocate?$CI?$CJ?$AA@ 100a33c4     common:Buffer.obj
 0003:000063e4       ??_C@_0O@MNOP@Out?5of?5memory?$AA@ 100a33e4     common:Buffer.obj
 0003:000063f4       ??_C@_0BO@NDNG@CBuffer?3?3Allocator?3?3Release?$CI?$CJ?$AA@ 100a33f4     common:Buffer.obj
 0003:00006414       ??_C@_0BA@GJNE@pBuffer?5is?5null?$AA@ 100a3414     common:Buffer.obj
 0003:00006424       ?_Init_cnt@Init@ios_base@std@@0HA 100a3424     libcpmt:iostream.obj
 0003:00006428       ??_R0?AVios_base@std@@@8   100a3428     libcpmt:iostream.obj
 0003:00006448       ??_R0?AV?$basic_ios@DU?$char_traits@D@std@@@std@@@8 100a3448     libcpmt:iostream.obj
 0003:00006480       ??_R0?AV?$basic_istream@DU?$char_traits@D@std@@@std@@@8 100a3480     libcpmt:iostream.obj
 0003:000064c0       ??_R0?AV?$basic_ostream@DU?$char_traits@D@std@@@std@@@8 100a34c0     libcpmt:iostream.obj
 0003:00006500       ??_R0?AV?$basic_streambuf@DU?$char_traits@D@std@@@std@@@8 100a3500     libcpmt:iostream.obj
 0003:00006540       ??_R0?AV?$basic_filebuf@DU?$char_traits@D@std@@@std@@@8 100a3540     libcpmt:iostream.obj
 0003:0000657c       ?_Init_cnt@_Winit@std@@0HA 100a357c     libcpmt:wiostrea.obj
 0003:00006580       ??_R0?AV?$basic_ios@GU?$char_traits@G@std@@@std@@@8 100a3580     libcpmt:wiostrea.obj
 0003:000065b8       ??_R0?AV?$basic_istream@GU?$char_traits@G@std@@@std@@@8 100a35b8     libcpmt:wiostrea.obj
 0003:000065f8       ??_R0?AV?$basic_ostream@GU?$char_traits@G@std@@@std@@@8 100a35f8     libcpmt:wiostrea.obj
 0003:00006638       ??_R0?AV?$basic_filebuf@GU?$char_traits@G@std@@@std@@@8 100a3638     libcpmt:wiostrea.obj
 0003:00006678       ??_R0?AV?$basic_streambuf@GU?$char_traits@G@std@@@std@@@8 100a3678     libcpmt:wiostrea.obj
 0003:000066b8       ??_R0?AVexception@@@8      100a36b8     libcpmt:string.obj
 0003:000066d0       ??_R0?AVlogic_error@std@@@8 100a36d0     libcpmt:string.obj
 0003:000066f0       ??_R0?AVlength_error@std@@@8 100a36f0     libcpmt:string.obj
 0003:00006710       ??_R0?AVout_of_range@std@@@8 100a3710     libcpmt:string.obj
 0003:00006730       ?_Sync@ios_base@std@@0_NA  100a3730     libcpmt:ios.obj
 0003:00006738       ??_R0?AVruntime_error@std@@@8 100a3738     libcpmt:ios.obj
 0003:00006758       ??_R0?AVfailure@ios_base@std@@@8 100a3758     libcpmt:ios.obj
 0003:00006780       ??_R0?AVfacet@locale@std@@@8 100a3780     libcpmt:locale0.obj
 0003:000067a0       ??_R0?AV_Locimp@locale@std@@@8 100a37a0     libcpmt:locale0.obj
 0003:000067c8       ??_R0?AVbad_alloc@std@@@8  100a37c8     libcpmt:nomemory.obj
 0003:000067e4       __fltused                  100a37e4     LIBCMT:fpinit.obj
 0003:000067e8       __ldused                   100a37e8     LIBCMT:fpinit.obj
 0003:000067ec       __FPinit                   100a37ec     LIBCMT:fpinit.obj
 0003:000067f0       __FPmtinit                 100a37f0     LIBCMT:fpinit.obj
 0003:000067f4       __FPmtterm                 100a37f4     LIBCMT:fpinit.obj
 0003:000067f8       __NLG_Destination          100a37f8     LIBCMT:exsup.obj
 0003:00006810       ??_R0?AVtype_info@@@8      100a3810     LIBCMT:typinfo.obj
 0003:00006828       __aexit_rtn                100a3828     LIBCMT:dllcrt0.obj
 0003:0000682c       ?__pMyUnhandledExceptionFilter@@3PAXA 100a382c     LIBCMT:throw.obj
 0003:00006830       __iob                      100a3830     LIBCMT:_file.obj
 0003:00006ab0       __locktable                100a3ab0     LIBCMT:mlock.obj
 0003:00006c80       ___lc_category             100a3c80     LIBCMT:setlocal.obj
 0003:00006cc8       __pctype                   100a3cc8     LIBCMT:ctype.obj
 0003:00006ccc       __pwctype                  100a3ccc     LIBCMT:ctype.obj
 0003:00006cd0       __ctype                    100a3cd0     LIBCMT:ctype.obj
 0003:00007040       ___mb_cur_max              100a4040     LIBCMT:nlsdata1.obj
 0003:00007044       ___decimal_point           100a4044     LIBCMT:nlsdata1.obj
 0003:00007048       ___decimal_point_length    100a4048     LIBCMT:nlsdata1.obj
 0003:0000704c       ___nullstring              100a404c     LIBCMT:output.obj
 0003:00007050       ___wnullstring             100a4050     LIBCMT:output.obj
 0003:00007054       __cfltcvt_tab              100a4054     LIBCMT:cmiscdat.obj
 0003:00007070       ___tlsindex                100a4070     LIBCMT:tidtable.obj
 0003:00007074       ?__pInconsistency@@3P6AXXZA 100a4074     LIBCMT:hooks.obj
 0003:00007080       __timezone                 100a4080     LIBCMT:timeset.obj
 0003:00007084       __daylight                 100a4084     LIBCMT:timeset.obj
 0003:00007088       __dstbias                  100a4088     LIBCMT:timeset.obj
 0003:0000710c       __tzname                   100a410c     LIBCMT:timeset.obj
 0003:00007134       __lpdays                   100a4134     LIBCMT:days.obj
 0003:00007168       __days                     100a4168     LIBCMT:days.obj
 0003:000071a0       ___badioinfo               100a41a0     LIBCMT:ioinit.obj
 0003:000071c4       __amblksiz                 100a41c4     LIBCMT:heapinit.obj
 0003:00007258       ___sbh_threshold           100a4258     LIBCMT:sbheap.obj
 0003:00007260       ___rgLocInfo               100a4260     LIBCMT:getqloc.obj
 0003:00007704       ___rglangidNotDefault      100a4704     LIBCMT:getqloc.obj
 0003:00007718       ___rg_country              100a4718     LIBCMT:getqloc.obj
 0003:000077d0       ___rg_language             100a47d0     LIBCMT:getqloc.obj
 0003:00007a10       __XcptActTab               100a4a10     LIBCMT:winxfltr.obj
 0003:00007a88       __First_FPE_Indx           100a4a88     LIBCMT:winxfltr.obj
 0003:00007a8c       __Num_FPE                  100a4a8c     LIBCMT:winxfltr.obj
 0003:00007a90       __XcptActTabSize           100a4a90     LIBCMT:winxfltr.obj
 0003:00007a94       __XcptActTabCount          100a4a94     LIBCMT:winxfltr.obj
 0003:00007b90       ___lc_time_curr            100a4b90     LIBCMT:strftime.obj
 0003:00007b98       ___lc_time_c               100a4b98     LIBCMT:strftime.obj
 0003:00007c48       ___lconv_static_decimal    100a4c48     LIBCMT:lconv.obj
 0003:00007c50       ___lconv_c                 100a4c50     LIBCMT:lconv.obj
 0003:00007c80       ___lconv                   100a4c80     LIBCMT:lconv.obj
 0003:00007c90       __pow10pos                 100a4c90     LIBCMT:constpow.obj
 0003:00007df0       __pow10neg                 100a4df0     LIBCMT:constpow.obj
 0003:00007f50       __GUID_df0b3d60_548f_101b_8e65_08002b2bd119 100a4f50     comsupp:comsupp.obj
 0003:00007f60       __GUID_1cf2b120_547d_101b_8e65_08002b2bd119 100a4f60     comsupp:comsupp.obj
 0003:00007f70       __GUID_00020400_0000_0000_c000_000000000046 100a4f70     comsupp:comsupp.obj
 0003:00007f80       ??_C@_00A@?$AA@            100a4f80     KThiefSkill.obj
 0003:00007f88       ?Missle@@3PAVKMissle@@A    100a4f88     KMissle.obj
 0003:057c4e88       ?g_MisslesLib@@3PAVKMissle@@A 15861e88     KMissle.obj
 0003:057f7720       ?g_nRandMissleTab@@3PAHA   15894720     KMissle.obj
 0003:057f78b0       ?MissleSet@@3VKMissleSet@@A 158948b0     KMissleSet.obj
 0003:057f78c8       ?g_SkillManager@@3VKSkillManager@@A 158948c8     KSkillManager.obj
 0003:0587c5c8       ?g_ulSkillCount@@3KA       159195c8     KSkillManager.obj
 0003:0587c5d0       ?g_Faction@@3VKFaction@@A  159195d0     KFaction.obj
 0003:0587c868       ?g_pNpcTemplate@@3PAY1GE@4PAVKNpcTemplate@@A 15919868     KNpc.obj
 0003:05d413a8       ?Npc@@3PAVKNpc@@A          15dde3a8     KNpc.obj
 0003:1c9813b0       ?NpcAI@@3VKNpcAI@@A        2ca1e3b0     KNpcAI.obj
 0003:1c9813b8       ?g_NpcAttribModify@@3VKNpcAttribModify@@A 2ca1e3b8     KNpcAttribModify.obj
 0003:1c9817f8       ?NpcSet@@3VKNpcSet@@A      2ca1e7f8     KNpcSet.obj
 0003:1c984110       ?g_ItemDropRateBinTree@@3V?$BinSTree@VKItemDropRateNode@@@@A 2ca21110     KNpcTemplate.obj
 0003:1c984120       ?g_nLastNetMsgLoop@@3HA    2ca21120     KPlayer.obj
 0003:1c984128       ?Player@@3PAVKPlayer@@A    2ca21128     KPlayer.obj
 0003:24f696a8       ?ATL_CREATE_OBJECT@CComApartment@ATL@@2IA 350066a8     KPlayerChat.obj
 0003:24f696b0       ?m_libid@CComModule@ATL@@2U_GUID@@A 350066b0     KPlayerChat.obj
 0003:24f696c0       ?_pModule@ATL@@3PAVCComModule@1@A 350066c0     KPlayerChat.obj
 0003:24f696c8       ?g_DBMsgList@@3VKList@@A   350066c8     KPlayerDBFuns.obj
 0003:24f696e0       ?g_PlayerLicense@@3VKLicense@@A 350066e0     KPlayerSet.obj
 0003:24f696e8       ?PlayerSet@@3VKPlayerSet@@A 350066e8     KPlayerSet.obj
 0003:24f69f98       ?g_DockPriceTabFile@@3VKTabFile@@A 35006f98     KPlayerTask.obj
 0003:24f69fb8       ?g_WayPointPriceTabFile@@3VKTabFile@@A 35006fb8     KPlayerTask.obj
 0003:24f69fd8       ?g_StationPriceTabFile@@3VKTabFile@@A 35006fd8     KPlayerTask.obj
 0003:24f69ff8       ?g_DockTabFile@@3VKTabFile@@A 35006ff8     KPlayerTask.obj
 0003:24f6a018       ?g_StationTabFile@@3VKTabFile@@A 35007018     KPlayerTask.obj
 0003:24f6a038       ?g_WayPointTabFile@@3VKTabFile@@A 35007038     KPlayerTask.obj
 0003:24f6a058       ?g_TaskGlobalValue@@3PAHA  35007058     KPlayerTask.obj
 0003:24f6ee78       ?g_pStationPriceTab@@3PAHA 3500be78     KPlayerTask.obj
 0003:24f6ee7c       ?g_pWayPointPriceTab@@3PAHA 3500be7c     KPlayerTask.obj
 0003:24f6ee80       ?g_pDockPriceTab@@3PAHA    3500be80     KPlayerTask.obj
 0003:24f6ee88       ?g_TeamSet@@3VKTeamSet@@A  3500be88     KPlayerTeam.obj
 0003:24f6ee90       ?g_Team@@3PAVKTeam@@A      3500be90     KPlayerTeam.obj
 0003:24f7bcd0       ?BuySell@@3VKBuySell@@A    35018cd0     KBuySell.obj
 0003:24f7bce8       ?Item@@3PAVKItem@@A        35018ce8     KItem.obj
 0003:26be7328       ?g_ItemChangeRes@@3VKItemChangeRes@@A 36c84328     KItemChangeRes.obj
 0003:26be73e8       ?ItemGen@@3VKItemGenerator@@A 36c843e8     KItemGenerator.obj
 0003:26becf30       ?g_ItemLicense@@3VKLicense@@A 36c89f30     KItemSet.obj
 0003:26becf38       ?ItemSet@@3VKItemSet@@A    36c89f38     KItemSet.obj
 0003:26bed4c8       ?Object@@3PAVKObj@@A       36c8a4c8     KObj.obj
 0003:2727cfc8       ?ObjSet@@3VKObjSet@@A      37319fc8     KObjSet.obj
 0003:2727d01c       ?g_ObjLicense@@3VKLicense@@A 3731a01c     KObjSet.obj
 0003:2727d020       ?tagSQLInfo@@3Utag_DATABASEINFO@@A 3731a020     KCore.obj
 0003:2727d060       ?g_WorldScript@@3VKLuaScript@@A 3731a060     KCore.obj
 0003:2727d0d4       ?g_bDebugScript@@3HA       3731a0d4     KCore.obj
 0003:2727d0d8       ?g_pStartScript@@3PAVKLuaScript@@A 3731a0d8     KCore.obj
 0003:2727d0dc       ?g_nHandSkill@@3HA         3731a0dc     KCore.obj
 0003:2727d0e0       ?g_nRangeWeaponSkill@@3PAHA 3731a0e0     KCore.obj
 0003:2727d270       ?g_nMeleeWeaponSkill@@3PAHA 3731a270     KCore.obj
 0003:2727d400       ?g_BattleSettingFile@@3VKIniFile@@A 3731a400     KCore.obj
 0003:2727d460       ?g_GoldMagicTab@@3VKTabFile@@A 3731a460     KCore.obj
 0003:2727d480       ?g_MagicScriptStackTabFile@@3VKTabFile@@A 3731a480     KCore.obj
 0003:2727d4a0       ?g_QuestStackTabFile@@3VKTabFile@@A 3731a4a0     KCore.obj
 0003:2727d4c0       ?g_GameSettingFile@@3VKIniFile@@A 3731a4c0     KCore.obj
 0003:2727d520       ?g_NpcKindFile@@3VKTabFile@@A 3731a520     KCore.obj
 0003:2727d540       ?g_NpcSetting@@3VKTabFile@@A 3731a540     KCore.obj
 0003:2727d560       ?g_SkillLevelSetting@@3VKTabFile@@A 3731a560     KCore.obj
 0003:2727d580       ?g_MisslesSetting@@3VKTabFile@@A 3731a580     KCore.obj
 0003:2727d5a0       ?g_OrdinSkillsSetting@@3VKTabFile@@A 3731a5a0     KCore.obj
 0003:2727d5c0       ?g_pServer@@3PAUIServer@@A 3731a5c0     KCore.obj
 0003:2727d5c8       ?g_TitleTabSetting@@3VKTabFile@@A 3731a5c8     KCore.obj
 0003:2727d5e8       ?g_ReplaceName_Npc@@3VKTabFile@@A 3731a5e8     KCore.obj
 0003:2727d608       ?g_TimerLoop@@3HA          3731a608     KCore.obj
 0003:2727d60c       ?g_pNpcLevelScript@@3PAVKLuaScript@@A 3731a60c     KCore.obj
 0003:2727d610       ?g_GlobalMissionArray@@3V?$KMissionArray@VKMission@@$0DC@@@A 3731a610     KSubWorld.obj
 0003:2752a590       ?SubWorld@@3PAVKSubWorld@@A 375c7590     KSubWorld.obj
 0003:2809f5c0       ?nActiveRegionCount@@3HA   3813c5c0     KSubWorldSet.obj
 0003:2809f5c8       ?g_SubWorldSet@@3VKSubWorldSet@@A 3813c5c8     KSubWorldSet.obj
 0003:2809f5d0       ?g_nConquerSeries@@3PAHA   3813c5d0     KMath.obj
 0003:2809f5e4       ?g_nAccrueSeries@@3PAHA    3813c5e4     KMath.obj
 0003:2809f5f8       ?g_NewProtocolProcess@@3VKNewProtocolProcess@@A 3813c5f8     KNewProtocolProcess.obj
 0003:2809f660       ?_Nil@?$_Tree@GU?$pair@$$CBGP6AXPAUIClient@@KKHPAEH@Z@std@@U_Kfn@?$map@GP6AXPAUIClient@@KKHPAEH@ZU?$less@G@std@@V?$allocator@P6AXPAUIClient@@KKHPAEH@Z@3@@2@U?$less@G@2@V?$allocator@P6AXPAUIClient@@KKHPAEH@Z@2@@std@@1PAU_Node@12@A 3813c660     KNewProtocolProcess.obj
 0003:2809f664       ?_Nilrefs@?$_Tree@GU?$pair@$$CBGP6AXPAUIClient@@KKHPAEH@Z@std@@U_Kfn@?$map@GP6AXPAUIClient@@KKHPAEH@ZU?$less@G@std@@V?$allocator@P6AXPAUIClient@@KKHPAEH@Z@3@@2@U?$less@G@2@V?$allocator@P6AXPAUIClient@@KKHPAEH@Z@2@@std@@1IA 3813c664     KNewProtocolProcess.obj
 0003:2809f668       ?g_ProtocolProcess@@3VKProtocolProcess@@A 3813c668     KProtocolProcess.obj
 0003:2809fa60       ?g_EventItemTab@@3VKTabFile@@A 3813ca60     ScriptFuns.obj
 0003:2809fa80       ?g_StoryScriptList@@3VKScriptList@@A 3813ca80     ScriptFuns.obj
 0003:2809fa98       ?g_ScriptValueSet@@3VKScriptValueSet@@A 3813ca98     KScriptValueSet.obj
 0003:2809facc       ?g_pMainScript@@3PAVKLuaScript@@A 3813cacc     KScriptValueSet.obj
 0003:2809fad0       ?g_szCurScriptDir@@3PADA   3813cad0     KSortScript.obj
 0003:2809fbd4       ?nCurrentScriptNum@@3IA    3813cbd4     KSortScript.obj
 0003:2809fbd8       ?g_ScriptBinTree@@3V?$BinSTree@VKSortScriptNode@@@@A 3813cbd8     KSortScript.obj
 0003:2809fbe8       ?g_ScriptSet@@3PAVKLuaScript@@A 3813cbe8     KSortScript.obj
 0003:281baf30       ?g_MagicDesc@@3VKMagicDesc@@A 38257f30     KMagicDesc.obj
 0003:281bb190       ?g_TimerTask@@3VKTimerTaskFun@@A 38258190     KTaskFuns.obj
 0003:281bb1a8       ?m_TimerTaskTab@KTimerTaskFun@@2VKTabFile@@A 382581a8     KTaskFuns.obj
 0003:281bb1c8       ?g_MissionTabFile@@3VKTabFile@@A 382581c8     KTaskFuns.obj
 0003:281bb1e8       ?Ladder@@3VKLadder@@A      382581e8     KLadder.obj
 0003:281bcbd0       ?g_LoadFile@@3VZLoadFile@@A 38259bd0     ZLoadFile.obj
 0003:281bcee0       ?_Nilrefs@?$_Tree@EU?$pair@$$CBEPAVCBuffer@Win32@OnlineGameLib@@@std@@U_Kfn@?$map@EPAVCBuffer@Win32@OnlineGameLib@@U?$less@E@std@@V?$allocator@PAVCBuffer@Win32@OnlineGameLib@@@5@@2@U?$less@E@2@V?$allocator@PAVCBuffer@Win32@OnlineGameLib@@@2@@std@@1IA 38259ee0     common:Buffer.obj
 0003:281bcee4       ?_Nil@?$_Tree@EU?$pair@$$CBEPAVCBuffer@Win32@OnlineGameLib@@@std@@U_Kfn@?$map@EPAVCBuffer@Win32@OnlineGameLib@@U?$less@E@std@@V?$allocator@PAVCBuffer@Win32@OnlineGameLib@@@5@@2@U?$less@E@2@V?$allocator@PAVCBuffer@Win32@OnlineGameLib@@@2@@std@@1PAU_Node@12@A 38259ee4     common:Buffer.obj
 0003:281bcee8       ?clog@std@@3V?$basic_ostream@DU?$char_traits@D@std@@@1@A 38259ee8     libcpmt:iostream.obj
 0003:281bcf78       ?cout@std@@3V?$basic_ostream@DU?$char_traits@D@std@@@1@A 38259f78     libcpmt:iostream.obj
 0003:281bd008       ?cin@std@@3V?$basic_istream@DU?$char_traits@D@std@@@1@A 3825a008     libcpmt:iostream.obj
 0003:281bd0a0       ?cerr@std@@3V?$basic_ostream@DU?$char_traits@D@std@@@1@A 3825a0a0     libcpmt:iostream.obj
 0003:281bd0d8       ?wcerr@std@@3V?$basic_ostream@GU?$char_traits@G@std@@@1@A 3825a0d8     libcpmt:wiostrea.obj
 0003:281bd118       ?wclog@std@@3V?$basic_ostream@GU?$char_traits@G@std@@@1@A 3825a118     libcpmt:wiostrea.obj
 0003:281bd150       ?wcin@std@@3V?$basic_istream@GU?$char_traits@G@std@@@1@A 3825a150     libcpmt:wiostrea.obj
 0003:281bd240       ?wcout@std@@3V?$basic_ostream@GU?$char_traits@G@std@@@1@A 3825a240     libcpmt:wiostrea.obj
 0003:281bd2ec       ?_Index@ios_base@std@@0HA  3825a2ec     libcpmt:ios.obj
 0003:281bd324       ?_Clocptr@_Locimp@locale@std@@0PAV123@A 3825a324     libcpmt:locale0.obj
 0003:281bd328       ?_Global@_Locimp@locale@std@@0PAV123@A 3825a328     libcpmt:locale0.obj
 0003:281bd32c       ?_Id_cnt@id@locale@std@@0HA 3825a32c     libcpmt:locale0.obj
 0003:281bd330       ?_Cltab@?$ctype@D@std@@0PBFB 3825a330     libcpmt:locale0.obj
 0003:281bd354       ___fastflag                3825a354     LIBCMT:fpinit.obj
 0003:281bd358       __adjust_fdiv              3825a358     LIBCMT:fpinit.obj
 0003:281bd37c       __aenvptr                  3825a37c     LIBCMT:dllcrt0.obj
 0003:281bd380       __wenvptr                  3825a380     LIBCMT:dllcrt0.obj
 0003:281bd384       ___error_mode              3825a384     LIBCMT:dllcrt0.obj
 0003:281bd388       ___app_type                3825a388     LIBCMT:dllcrt0.obj
 0003:281bd38c       __cflush                   3825a38c     LIBCMT:_file.obj
 0003:281bd3fc       ___lc_handle               3825a3fc     LIBCMT:nlsdata2.obj
 0003:281bd414       ___lc_codepage             3825a414     LIBCMT:nlsdata2.obj
 0003:281bd418       ___lc_collate_cp           3825a418     LIBCMT:nlsdata2.obj
 0003:281bd41c       __umaskval                 3825a41c     LIBCMT:crt0dat.obj
 0003:281bd420       __osver                    3825a420     LIBCMT:crt0dat.obj
 0003:281bd424       __winver                   3825a424     LIBCMT:crt0dat.obj
 0003:281bd428       __winmajor                 3825a428     LIBCMT:crt0dat.obj
 0003:281bd42c       __winminor                 3825a42c     LIBCMT:crt0dat.obj
 0003:281bd430       ___argc                    3825a430     LIBCMT:crt0dat.obj
 0003:281bd434       ___argv                    3825a434     LIBCMT:crt0dat.obj
 0003:281bd438       ___wargv                   3825a438     LIBCMT:crt0dat.obj
 0003:281bd43c       __environ                  3825a43c     LIBCMT:crt0dat.obj
 0003:281bd440       ___initenv                 3825a440     LIBCMT:crt0dat.obj
 0003:281bd444       __wenviron                 3825a444     LIBCMT:crt0dat.obj
 0003:281bd448       ___winitenv                3825a448     LIBCMT:crt0dat.obj
 0003:281bd44c       __pgmptr                   3825a44c     LIBCMT:crt0dat.obj
 0003:281bd450       __wpgmptr                  3825a450     LIBCMT:crt0dat.obj
 0003:281bd454       __exitflag                 3825a454     LIBCMT:crt0dat.obj
 0003:281bd458       __C_Termination_Done       3825a458     LIBCMT:crt0dat.obj
 0003:281bd45c       __C_Exit_Done              3825a45c     LIBCMT:crt0dat.obj
 0003:281bd460       __stdbuf                   3825a460     LIBCMT:_sftbuf.obj
 0003:281bd65c       __adbgmsg                  3825a65c     LIBCMT:crt0msg.obj
 0003:281bd664       ___lc_time_intl            3825a664     LIBCMT:inittime.obj
 0003:281bd680       ___lc_id                   3825a680     LIBCMT:nlsdata3.obj
 0003:281bd6c8       ?_pnhHeap@@3P6AHI@ZA       3825a6c8     LIBCMT:handler.obj
 0003:281bd6cc       __newmode                  3825a6cc     LIBCMT:_newmode.obj
 0003:281bd6ec       ___lconv_static_null       3825a6ec     LIBCMT:lconv.obj
 0003:281bd718       __GUID_00000000_0000_0000_0000_000000000000 3825a718     comsupp:comsupp.obj
 0003:281bd728       ?vtMissing@@3V_variant_t@@A 3825a728     comsupp:comutil.obj
 0003:281bd738       ___@@_PchSym_@00@UsfbvmgsrvgprvnUhdliwlmormvUhlfixvhUxlivUhvieviivovzhvUhgwzucOlyq@ 3825a738     <common>
 0003:281bd73c       ??_B?1???id@?$ctype@G@std@@$D@@9@51 3825a73c     <common>
 0003:281bd740       ?_Stinit@?1??_Init@?$basic_filebuf@GU?$char_traits@G@std@@@std@@IAEXPAU_iobuf@@W4_Initfl@23@@Z@4HA 3825a740     <common>
 0003:281bd744       ??_B?1???id@?$collate@D@std@@$D@@9@51 3825a744     <common>
 0003:281bd748       ?_Stinit@?1??_Init@?$basic_filebuf@DU?$char_traits@D@std@@@std@@IAEXPAU_iobuf@@W4_Initfl@23@@Z@4HA 3825a748     <common>
 0003:281bd74c       ?_Stz@?$fpos@H@std@@0HA    3825a74c     <common>
 0003:281bd750       ___alternate_form          3825a750     <common>
 0003:281bd754       ___no_lead_zeros           3825a754     <common>
 0003:281bd758       ___mbcodepage              3825a758     <common>
 0003:281bd760       ___mbulinfo                3825a760     <common>
 0003:281bd76c       ___ismbcodepage            3825a76c     <common>
 0003:281bd780       __mbcasemap                3825a780     <common>
 0003:281bd880       __mbctype                  3825a880     <common>
 0003:281bd984       ___mblcid                  3825a984     <common>
 0003:281bd988       ___sbh_sizeHeaderList      3825a988     <common>
 0003:281bd98c       ___sbh_indGroupDefer       3825a98c     <common>
 0003:281bd990       ___sbh_pHeaderScan         3825a990     <common>
 0003:281bd994       ___sbh_pHeaderDefer        3825a994     <common>
 0003:281bd998       ___sbh_cntHeaderList       3825a998     <common>
 0003:281bd99c       ___sbh_pHeaderList         3825a99c     <common>
 0003:281bd9a0       __crtheap                  3825a9a0     <common>
 0003:281bd9c0       ___pioinfo                 3825a9c0     <common>
 0003:281bdac0       __nhandle                  3825aac0     <common>
 0003:281bdac4       ___env_initialized         3825aac4     <common>
 0003:281bdac8       ___mbctype_initialized     3825aac8     <common>
 0003:281bdacc       ___onexitend               3825aacc     <common>
 0003:281bdad0       ___onexitbegin             3825aad0     <common>
 0003:281bdad4       ___setlc_active            3825aad4     <common>
 0003:281bdad8       ___unguarded_readlc_active 3825aad8     <common>
 0003:281bdadc       ___piob                    3825aadc     <common>
 0003:281bdae0       __bufin                    3825aae0     <common>
 0003:281beae0       __nstream                  3825bae0     <common>
 0003:281beae4       __acmdln                   3825bae4     <common>
 0003:281beae8       __pRawDllMain              3825bae8     <common>

 entry point at        0001:0007897a

 Static symbols

 0001:00071080       _$E22                      10072080 f   stdafx.obj
 0001:000710a0       _$E21                      100720a0 f   stdafx.obj
 0001:00071050       _$E22                      10072050 f   KLittleMap.obj
 0001:00071070       _$E21                      10072070 f   KLittleMap.obj
 0001:00071020       _$E22                      10072020 f   KJXPathFinder.obj
 0001:00071040       _$E21                      10072040 f   KJXPathFinder.obj
 0001:00070f70       _$E20                      10071f70 f   Kautoai.obj
 0001:00070f80       _$E17                      10071f80 f   Kautoai.obj
 0001:00070f90       _$E19                      10071f90 f   Kautoai.obj
 0001:00070fa0       _$E18                      10071fa0 f   Kautoai.obj
 0001:00070fb0       _$E26                      10071fb0 f   Kautoai.obj
 0001:00070fc0       _$E23                      10071fc0 f   Kautoai.obj
 0001:00070fd0       _$E25                      10071fd0 f   Kautoai.obj
 0001:00070fe0       _$E24                      10071fe0 f   Kautoai.obj
 0001:00070ff0       _$E36                      10071ff0 f   Kautoai.obj
 0001:00071010       _$E35                      10072010 f   Kautoai.obj
 0001:00070f40       _$E22                      10071f40 f   ZEG_MSSQLServer_Result.obj
 0001:00070f60       _$E21                      10071f60 f   ZEG_MSSQLServer_Result.obj
 0001:00070860       _$E22                      10071860 f   ZEG_MSSQLServer_Connection.obj
 0001:00070880       _$E21                      10071880 f   ZEG_MSSQLServer_Connection.obj
 0001:0006edc0       _$E22                      1006fdc0 f   KB_MSSQL.obj
 0001:0006ede0       _$E21                      1006fde0 f   KB_MSSQL.obj
 0001:0006d980       _$E22                      1006e980 f   KWorldMsg.obj
 0001:0006d9a0       _$E21                      1006e9a0 f   KWorldMsg.obj
 0001:0006d2f0       _$E20                      1006e2f0 f   ZLoadFile.obj
 0001:0006d300       _$E17                      1006e300 f   ZLoadFile.obj
 0001:0006d310       _$E19                      1006e310 f   ZLoadFile.obj
 0001:0006d320       _$E18                      1006e320 f   ZLoadFile.obj
 0001:0006d810       _$E27                      1006e810 f   ZLoadFile.obj
 0001:0006d830       _$E26                      1006e830 f   ZLoadFile.obj
 0001:0006d0d0       _$E20                      1006e0d0 f   KLadder.obj
 0001:0006d0e0       _$E17                      1006e0e0 f   KLadder.obj
 0001:0006d0f0       _$E19                      1006e0f0 f   KLadder.obj
 0001:0006d100       _$E18                      1006e100 f   KLadder.obj
 0001:0006d2c0       _$E27                      1006e2c0 f   KLadder.obj
 0001:0006d2e0       _$E26                      1006e2e0 f   KLadder.obj
 0001:0006d0a0       _$E22                      1006e0a0 f   KMapMusic.obj
 0001:0006d0c0       _$E21                      1006e0c0 f   KMapMusic.obj
 0001:0006d070       _$E22                      1006e070 f   KOption.obj
 0001:0006d090       _$E21                      1006e090 f   KOption.obj
 0001:0006cb20       _$E23                      1006db20 f   KTaskFuns.obj
 0001:0006cb30       _$E20                      1006db30 f   KTaskFuns.obj
 0001:0006cb40       _$E22                      1006db40 f   KTaskFuns.obj
 0001:0006cb50       _$E21                      1006db50 f   KTaskFuns.obj
 0001:0006cd40       _$E29                      1006dd40 f   KTaskFuns.obj
 0001:0006cd50       _$E25                      1006dd50 f   KTaskFuns.obj
 0001:0006cd60       _$E28                      1006dd60 f   KTaskFuns.obj
 0001:0006cd70       _$E26                      1006dd70 f   KTaskFuns.obj
 0001:0006cff0       _$E32                      1006dff0 f   KTaskFuns.obj
 0001:0006d000       _$E31                      1006e000 f   KTaskFuns.obj
 0001:0006d040       _$E39                      1006e040 f   KTaskFuns.obj
 0001:0006d060       _$E38                      1006e060 f   KTaskFuns.obj
 0001:0006caf0       _$E22                      1006daf0 f   KMission.obj
 0001:0006cb10       _$E21                      1006db10 f   KMission.obj
 0001:0006c220       _$E20                      1006d220 f   KMagicDesc.obj
 0001:0006c230       _$E17                      1006d230 f   KMagicDesc.obj
 0001:0006c240       _$E19                      1006d240 f   KMagicDesc.obj
 0001:0006c250       _$E18                      1006d250 f   KMagicDesc.obj
 0001:0006c900       _$E27                      1006d900 f   KMagicDesc.obj
 0001:0006c920       _$E26                      1006d920 f   KMagicDesc.obj
 0001:0006c1f0       _$E22                      1006d1f0 f   KWeather.obj
 0001:0006c210       _$E21                      1006d210 f   KWeather.obj
 0001:00069fa0       _$E27                      1006afa0 f   CoreServerShell.obj
 0001:00069fb0       _$E26                      1006afb0 f   CoreServerShell.obj
 0001:0006c1c0       _$E34                      1006d1c0 f   CoreServerShell.obj
 0001:0006c1e0       _$E33                      1006d1e0 f   CoreServerShell.obj
 0001:000695c0       _$E20                      1006a5c0 f   KSortScript.obj
 0001:000695d0       _$E17                      1006a5d0 f   KSortScript.obj
 0001:000695f0       _$E19                      1006a5f0 f   KSortScript.obj
 0001:00069600       _$E18                      1006a600 f   KSortScript.obj
 0001:00069620       _$E25                      1006a620 f   KSortScript.obj
 0001:00069630       _$E22                      1006a630 f   KSortScript.obj
 0001:00069650       _$E24                      1006a650 f   KSortScript.obj
 0001:00069660       _$E23                      1006a660 f   KSortScript.obj
 0001:00069730       ?LoadAllScript@@YAKPAD@Z   1006a730 f   KSortScript.obj
 0001:00069aa0       ?LoadScriptToSortList@@YAHPAD@Z 1006aaa0 f   KSortScript.obj
 0001:00069b70       ?LoadScriptToSortListA@@YAHPAD@Z 1006ab70 f   KSortScript.obj
 0001:00069f70       _$E32                      1006af70 f   KSortScript.obj
 0001:00069f90       _$E31                      1006af90 f   KSortScript.obj
 0001:00068d40       _$E20                      10069d40 f   KScriptValueSet.obj
 0001:00068d50       _$E17                      10069d50 f   KScriptValueSet.obj
 0001:00068d60       _$E19                      10069d60 f   KScriptValueSet.obj
 0001:00068d70       _$E18                      10069d70 f   KScriptValueSet.obj
 0001:00069590       _$E27                      1006a590 f   KScriptValueSet.obj
 0001:000695b0       _$E26                      1006a5b0 f   KScriptValueSet.obj
 0001:00054a40       _$E29                      10055a40 f   ScriptFuns.obj
 0001:00054a50       _$E26                      10055a50 f   ScriptFuns.obj
 0001:00054a60       _$E28                      10055a60 f   ScriptFuns.obj
 0001:00054a70       _$E27                      10055a70 f   ScriptFuns.obj
 0001:00058270       _$E34                      10059270 f   ScriptFuns.obj
 0001:00058280       _$E31                      10059280 f   ScriptFuns.obj
 0001:00058290       _$E33                      10059290 f   ScriptFuns.obj
 0001:000582a0       _$E32                      100592a0 f   ScriptFuns.obj
 0001:00068d10       _$E41                      10069d10 f   ScriptFuns.obj
 0001:00068d30       _$E40                      10069d30 f   ScriptFuns.obj
 0001:000527c0       _$E23                      100537c0 f   KProtocolProcess.obj
 0001:000527d0       _$E20                      100537d0 f   KProtocolProcess.obj
 0001:000527e0       _$E22                      100537e0 f   KProtocolProcess.obj
 0001:000527f0       _$E21                      100537f0 f   KProtocolProcess.obj
 0001:00054a10       _$E30                      10055a10 f   KProtocolProcess.obj
 0001:00054a30       _$E29                      10055a30 f   KProtocolProcess.obj
 0001:00052790       _$E25                      10053790 f   KProtocol.obj
 0001:000527b0       _$E24                      100537b0 f   KProtocol.obj
 0001:00050f20       _$E29                      10051f20 f   KNewProtocolProcess.obj
 0001:00050f30       _$E26                      10051f30 f   KNewProtocolProcess.obj
 0001:00050f40       _$E28                      10051f40 f   KNewProtocolProcess.obj
 0001:00050f50       _$E27                      10051f50 f   KNewProtocolProcess.obj
 0001:00052720       _$E36                      10053720 f   KNewProtocolProcess.obj
 0001:00052740       _$E35                      10053740 f   KNewProtocolProcess.obj
 0001:00050ef0       _$E31                      10051ef0 f   KGMProcess.obj
 0001:00050f10       _$E30                      10051f10 f   KGMProcess.obj
 0001:00050d40       _$E22                      10051d40 f   KMath.obj
 0001:00050d60       _$E21                      10051d60 f   KMath.obj
 0001:00050c90       _$E25                      10051c90 f   KRegion.obj
 0001:00050cb0       _$E24                      10051cb0 f   KRegion.obj
 0001:0004f580       _$E22                      10050580 f   KWeatherMgr.obj
 0001:0004f5a0       _$E21                      100505a0 f   KWeatherMgr.obj
 0001:0004edb0       _$E21                      1004fdb0 f   KSubWorldSet.obj
 0001:0004edc0       _$E20                      1004fdc0 f   KSubWorldSet.obj
 0001:0004f210       _$E28                      10050210 f   KSubWorldSet.obj
 0001:0004f230       _$E27                      10050230 f   KSubWorldSet.obj
 0001:0004bd90       _$E23                      1004cd90 f   KSubWorld.obj
 0001:0004bda0       _$E20                      1004cda0 f   KSubWorld.obj
 0001:0004bdc0       _$E22                      1004cdc0 f   KSubWorld.obj
 0001:0004bdd0       _$E21                      1004cdd0 f   KSubWorld.obj
 0001:0004bdf0       _$E28                      1004cdf0 f   KSubWorld.obj
 0001:0004be00       _$E25                      1004ce00 f   KSubWorld.obj
 0001:0004be10       _$E27                      1004ce10 f   KSubWorld.obj
 0001:0004be20       _$E26                      1004ce20 f   KSubWorld.obj
 0001:0004ed80       _$E36                      1004fd80 f   KSubWorld.obj
 0001:0004eda0       _$E35                      1004fda0 f   KSubWorld.obj
 0001:0004ac90       _$E23                      1004bc90 f   KCore.obj
 0001:0004aca0       _$E20                      1004bca0 f   KCore.obj
 0001:0004acb0       _$E22                      1004bcb0 f   KCore.obj
 0001:0004acc0       _$E21                      1004bcc0 f   KCore.obj
 0001:0004acd0       _$E28                      1004bcd0 f   KCore.obj
 0001:0004ace0       _$E25                      1004bce0 f   KCore.obj
 0001:0004acf0       _$E27                      1004bcf0 f   KCore.obj
 0001:0004ad00       _$E26                      1004bd00 f   KCore.obj
 0001:0004ad10       _$E33                      1004bd10 f   KCore.obj
 0001:0004ad20       _$E30                      1004bd20 f   KCore.obj
 0001:0004ad40       _$E32                      1004bd40 f   KCore.obj
 0001:0004ad50       _$E31                      1004bd50 f   KCore.obj
 0001:0004ad70       _$E38                      1004bd70 f   KCore.obj
 0001:0004ad80       _$E35                      1004bd80 f   KCore.obj
 0001:0004ad90       _$E37                      1004bd90 f   KCore.obj
 0001:0004ada0       _$E36                      1004bda0 f   KCore.obj
 0001:0004adb0       _$E43                      1004bdb0 f   KCore.obj
 0001:0004adc0       _$E40                      1004bdc0 f   KCore.obj
 0001:0004add0       _$E42                      1004bdd0 f   KCore.obj
 0001:0004ade0       _$E41                      1004bde0 f   KCore.obj
 0001:0004adf0       _$E48                      1004bdf0 f   KCore.obj
 0001:0004ae00       _$E45                      1004be00 f   KCore.obj
 0001:0004ae10       _$E47                      1004be10 f   KCore.obj
 0001:0004ae20       _$E46                      1004be20 f   KCore.obj
 0001:0004ae30       _$E53                      1004be30 f   KCore.obj
 0001:0004ae40       _$E50                      1004be40 f   KCore.obj
 0001:0004ae50       _$E52                      1004be50 f   KCore.obj
 0001:0004ae60       _$E51                      1004be60 f   KCore.obj
 0001:0004ae70       _$E58                      1004be70 f   KCore.obj
 0001:0004ae80       _$E55                      1004be80 f   KCore.obj
 0001:0004ae90       _$E57                      1004be90 f   KCore.obj
 0001:0004aea0       _$E56                      1004bea0 f   KCore.obj
 0001:0004aeb0       _$E63                      1004beb0 f   KCore.obj
 0001:0004aec0       _$E60                      1004bec0 f   KCore.obj
 0001:0004aed0       _$E62                      1004bed0 f   KCore.obj
 0001:0004aee0       _$E61                      1004bee0 f   KCore.obj
 0001:0004aef0       _$E68                      1004bef0 f   KCore.obj
 0001:0004af00       _$E65                      1004bf00 f   KCore.obj
 0001:0004af10       _$E67                      1004bf10 f   KCore.obj
 0001:0004af20       _$E66                      1004bf20 f   KCore.obj
 0001:0004af30       _$E73                      1004bf30 f   KCore.obj
 0001:0004af40       _$E70                      1004bf40 f   KCore.obj
 0001:0004af50       _$E72                      1004bf50 f   KCore.obj
 0001:0004af60       _$E71                      1004bf60 f   KCore.obj
 0001:0004af70       _$E76                      1004bf70 f   KCore.obj
 0001:0004af80       _$E75                      1004bf80 f   KCore.obj
 0001:0004afa0       _$E81                      1004bfa0 f   KCore.obj
 0001:0004afb0       _$E78                      1004bfb0 f   KCore.obj
 0001:0004afc0       _$E80                      1004bfc0 f   KCore.obj
 0001:0004afd0       _$E79                      1004bfd0 f   KCore.obj
 0001:0004afe0       _$E86                      1004bfe0 f   KCore.obj
 0001:0004aff0       _$E83                      1004bff0 f   KCore.obj
 0001:0004b000       _$E85                      1004c000 f   KCore.obj
 0001:0004b010       _$E84                      1004c010 f   KCore.obj
 0001:0004bd60       _$E93                      1004cd60 f   KCore.obj
 0001:0004bd80       _$E92                      1004cd80 f   KCore.obj
 0001:0004ac60       _$E22                      1004bc60 f   KViewItem.obj
 0001:0004ac80       _$E21                      1004bc80 f   KViewItem.obj
 0001:00049650       _$E20                      1004a650 f   KObjSet.obj
 0001:00049660       _$E17                      1004a660 f   KObjSet.obj
 0001:00049670       _$E19                      1004a670 f   KObjSet.obj
 0001:00049680       _$E18                      1004a680 f   KObjSet.obj
 0001:00049690       _$E25                      1004a690 f   KObjSet.obj
 0001:000496a0       _$E22                      1004a6a0 f   KObjSet.obj
 0001:000496b0       _$E24                      1004a6b0 f   KObjSet.obj
 0001:000496c0       _$E23                      1004a6c0 f   KObjSet.obj
 0001:0004ac30       _$E32                      1004bc30 f   KObjSet.obj
 0001:0004ac50       _$E31                      1004bc50 f   KObjSet.obj
 0001:000482e0       _$E21                      100492e0 f   KObj.obj
 0001:000482f0       _$E20                      100492f0 f   KObj.obj
 0001:00049620       _$E28                      1004a620 f   KObj.obj
 0001:00049640       _$E27                      1004a640 f   KObj.obj
 0001:00047540       _$E20                      10048540 f   KItemSet.obj
 0001:00047550       _$E17                      10048550 f   KItemSet.obj
 0001:00047560       _$E19                      10048560 f   KItemSet.obj
 0001:00047570       _$E18                      10048570 f   KItemSet.obj
 0001:00047580       _$E25                      10048580 f   KItemSet.obj
 0001:00047590       _$E22                      10048590 f   KItemSet.obj
 0001:000475a0       _$E24                      100485a0 f   KItemSet.obj
 0001:000475b0       _$E23                      100485b0 f   KItemSet.obj
 0001:000482b0       _$E32                      100492b0 f   KItemSet.obj
 0001:000482d0       _$E31                      100492d0 f   KItemSet.obj
 0001:00047510       _$E25                      10048510 f   KItemList.obj
 0001:00047530       _$E24                      10048530 f   KItemList.obj
 0001:0003dea0       _$E20                      1003eea0 f   KItemGenerator.obj
 0001:0003deb0       _$E17                      1003eeb0 f   KItemGenerator.obj
 0001:0003dec0       _$E19                      1003eec0 f   KItemGenerator.obj
 0001:0003ded0       _$E18                      1003eed0 f   KItemGenerator.obj
 0001:0003dee0       _$E26                      1003eee0 f   KItemGenerator.obj
 0001:0003def0       _$E23                      1003eef0 f   KItemGenerator.obj
 0001:0003df00       _$E25                      1003ef00 f   KItemGenerator.obj
 0001:0003df10       _$E24                      1003ef10 f   KItemGenerator.obj
 0001:0003df20       _$E31                      1003ef20 f   KItemGenerator.obj
 0001:0003df30       _$E28                      1003ef30 f   KItemGenerator.obj
 0001:0003df40       _$E30                      1003ef40 f   KItemGenerator.obj
 0001:0003df50       _$E29                      1003ef50 f   KItemGenerator.obj
 0001:0003fa20       _$E38                      10040a20 f   KItemGenerator.obj
 0001:0003fa40       _$E37                      10040a40 f   KItemGenerator.obj
 0001:0003daa0       _$E20                      1003eaa0 f   KItemChangeRes.obj
 0001:0003dab0       _$E17                      1003eab0 f   KItemChangeRes.obj
 0001:0003dac0       _$E19                      1003eac0 f   KItemChangeRes.obj
 0001:0003dad0       _$E18                      1003ead0 f   KItemChangeRes.obj
 0001:0003de70       _$E27                      1003ee70 f   KItemChangeRes.obj
 0001:0003de90       _$E26                      1003ee90 f   KItemChangeRes.obj
 0001:0003c670       _$E20                      1003d670 f   KItem.obj
 0001:0003c680       _$E17                      1003d680 f   KItem.obj
 0001:0003c6a0       _$E19                      1003d6a0 f   KItem.obj
 0001:0003c6b0       _$E18                      1003d6b0 f   KItem.obj
 0001:0003da70       _$E27                      1003ea70 f   KItem.obj
 0001:0003da90       _$E26                      1003ea90 f   KItem.obj
 0001:0003c640       _$E22                      1003d640 f   KInventory.obj
 0001:0003c660       _$E21                      1003d660 f   KInventory.obj
 0001:0003acb0       _$E23                      1003bcb0 f   KBuySell.obj
 0001:0003acc0       _$E20                      1003bcc0 f   KBuySell.obj
 0001:0003acd0       _$E22                      1003bcd0 f   KBuySell.obj
 0001:0003ace0       _$E21                      1003bce0 f   KBuySell.obj
 0001:0003b900       _$E31                      1003c900 f   KBuySell.obj
 0001:0003b920       _$E30                      1003c920 f   KBuySell.obj
 0001:0003ac80       _$E22                      1003bc80 f   KBasPropTbl.obj
 0001:0003aca0       _$E21                      1003bca0 f   KBasPropTbl.obj
 0001:00038300       _$E22                      10039300 f   KSprControl.obj
 0001:00038320       _$E21                      10039320 f   KSprControl.obj
 0001:000382d0       _$E25                      100392d0 f   KPlayerTrade.obj
 0001:000382f0       _$E24                      100392f0 f   KPlayerTrade.obj
 0001:000381b0       _$E25                      100391b0 f   KPlayerTong.obj
 0001:000381d0       _$E24                      100391d0 f   KPlayerTong.obj
 0001:00035200       _$E21                      10036200 f   KPlayerTeam.obj
 0001:00035210       _$E20                      10036210 f   KPlayerTeam.obj
 0001:00036540       _$E28                      10037540 f   KPlayerTeam.obj
 0001:00036560       _$E27                      10037560 f   KPlayerTeam.obj
 0001:00034f80       _$E20                      10035f80 f   KPlayerTask.obj
 0001:00034f90       _$E17                      10035f90 f   KPlayerTask.obj
 0001:00034fa0       _$E19                      10035fa0 f   KPlayerTask.obj
 0001:00034fb0       _$E18                      10035fb0 f   KPlayerTask.obj
 0001:00034fc0       _$E25                      10035fc0 f   KPlayerTask.obj
 0001:00034fd0       _$E22                      10035fd0 f   KPlayerTask.obj
 0001:00034fe0       _$E24                      10035fe0 f   KPlayerTask.obj
 0001:00034ff0       _$E23                      10035ff0 f   KPlayerTask.obj
 0001:00035000       _$E30                      10036000 f   KPlayerTask.obj
 0001:00035010       _$E27                      10036010 f   KPlayerTask.obj
 0001:00035020       _$E29                      10036020 f   KPlayerTask.obj
 0001:00035030       _$E28                      10036030 f   KPlayerTask.obj
 0001:00035040       _$E35                      10036040 f   KPlayerTask.obj
 0001:00035050       _$E32                      10036050 f   KPlayerTask.obj
 0001:00035060       _$E34                      10036060 f   KPlayerTask.obj
 0001:00035070       _$E33                      10036070 f   KPlayerTask.obj
 0001:00035080       _$E40                      10036080 f   KPlayerTask.obj
 0001:00035090       _$E37                      10036090 f   KPlayerTask.obj
 0001:000350a0       _$E39                      100360a0 f   KPlayerTask.obj
 0001:000350b0       _$E38                      100360b0 f   KPlayerTask.obj
 0001:000350c0       _$E45                      100360c0 f   KPlayerTask.obj
 0001:000350d0       _$E42                      100360d0 f   KPlayerTask.obj
 0001:000350e0       _$E44                      100360e0 f   KPlayerTask.obj
 0001:000350f0       _$E43                      100360f0 f   KPlayerTask.obj
 0001:000351d0       _$E52                      100361d0 f   KPlayerTask.obj
 0001:000351f0       _$E51                      100361f0 f   KPlayerTask.obj
 0001:00034f50       _$E25                      10035f50 f   KPlayerShop.obj
 0001:00034f70       _$E24                      10035f70 f   KPlayerShop.obj
 0001:00032fb0       _$E23                      10033fb0 f   KPlayerSet.obj
 0001:00032fc0       _$E20                      10033fc0 f   KPlayerSet.obj
 0001:00032fd0       _$E22                      10033fd0 f   KPlayerSet.obj
 0001:00032fe0       _$E21                      10033fe0 f   KPlayerSet.obj
 0001:00032ff0       _$E28                      10033ff0 f   KPlayerSet.obj
 0001:00033000       _$E25                      10034000 f   KPlayerSet.obj
 0001:00033010       _$E27                      10034010 f   KPlayerSet.obj
 0001:00033020       _$E26                      10034020 f   KPlayerSet.obj
 0001:00034ef0       _$E35                      10035ef0 f   KPlayerSet.obj
 0001:00034f10       _$E34                      10035f10 f   KPlayerSet.obj
 0001:00032f80       _$E25                      10033f80 f   KPlayerPK.obj
 0001:00032fa0       _$E24                      10033fa0 f   KPlayerPK.obj
 0001:00032220       _$E22                      10033220 f   KPlayerMove.obj
 0001:00032240       _$E21                      10033240 f   KPlayerMove.obj
 0001:000321f0       _$E25                      100331f0 f   KPlayerMenuState.obj
 0001:00032210       _$E24                      10033210 f   KPlayerMenuState.obj
 0001:00031c60       _$E22                      10032c60 f   KPlayerFaction.obj
 0001:00031c80       _$E21                      10032c80 f   KPlayerFaction.obj
 0001:00030280       _$E23                      10031280 f   KPlayerDBFuns.obj
 0001:00030290       _$E20                      10031290 f   KPlayerDBFuns.obj
 0001:000302d0       _$E22                      100312d0 f   KPlayerDBFuns.obj
 0001:000302e0       _$E21                      100312e0 f   KPlayerDBFuns.obj
 0001:00031a80       _$E30                      10032a80 f   KPlayerDBFuns.obj
 0001:00031aa0       _$E29                      10032aa0 f   KPlayerDBFuns.obj
 0001:00030250       _$E31                      10031250 f   KPlayerChat.obj
 0001:00030270       _$E30                      10031270 f   KPlayerChat.obj
 0001:0002df90       _$E25                      1002ef90 f   KPlayerAI.obj
 0001:0002dfb0       _$E24                      1002efb0 f   KPlayerAI.obj
 0001:000220b0       _$E23                      100230b0 f   KPlayer.obj
 0001:000220c0       _$E20                      100230c0 f   KPlayer.obj
 0001:000220e0       _$E22                      100230e0 f   KPlayer.obj
 0001:000220f0       _$E21                      100230f0 f   KPlayer.obj
 0001:0002df60       _$E30                      1002ef60 f   KPlayer.obj
 0001:0002df80       _$E29                      1002ef80 f   KPlayer.obj
 0001:000203e0       _$E20                      100213e0 f   KNpcTemplate.obj
 0001:000203f0       _$E17                      100213f0 f   KNpcTemplate.obj
 0001:00020410       _$E19                      10021410 f   KNpcTemplate.obj
 0001:00020420       _$E18                      10021420 f   KNpcTemplate.obj
 0001:00022030       _$E27                      10023030 f   KNpcTemplate.obj
 0001:00022050       _$E26                      10023050 f   KNpcTemplate.obj
 0001:0001ee60       _$E23                      1001fe60 f   KNpcSet.obj
 0001:0001ee70       _$E20                      1001fe70 f   KNpcSet.obj
 0001:0001ee80       _$E22                      1001fe80 f   KNpcSet.obj
 0001:0001ee90       _$E21                      1001fe90 f   KNpcSet.obj
 0001:000203b0       _$E30                      100213b0 f   KNpcSet.obj
 0001:000203d0       _$E29                      100213d0 f   KNpcSet.obj
 0001:0001ee30       _$E22                      1001fe30 f   KNpcResNode.obj
 0001:0001ee50       _$E21                      1001fe50 f   KNpcResNode.obj
 0001:0001ee00       _$E22                      1001fe00 f   KNpcResList.obj
 0001:0001ee20       _$E21                      1001fe20 f   KNpcResList.obj
 0001:0001edd0       _$E22                      1001fdd0 f   KNpcRes.obj
 0001:0001edf0       _$E21                      1001fdf0 f   KNpcRes.obj
 0001:0001eda0       _$E22                      1001fda0 f   KNpcGold.obj
 0001:0001edc0       _$E21                      1001fdc0 f   KNpcGold.obj
 0001:0001d280       _$E22                      1001e280 f   KNpcFindPath.obj
 0001:0001d2a0       _$E21                      1001e2a0 f   KNpcFindPath.obj
 0001:0001cb70       _$E25                      1001db70 f   KNpcDeathCalcExp.obj
 0001:0001cb90       _$E24                      1001db90 f   KNpcDeathCalcExp.obj
 0001:0001ad90       _$E23                      1001bd90 f   KNpcAttribModify.obj
 0001:0001ada0       _$E20                      1001bda0 f   KNpcAttribModify.obj
 0001:0001adb0       _$E22                      1001bdb0 f   KNpcAttribModify.obj
 0001:0001adc0       _$E21                      1001bdc0 f   KNpcAttribModify.obj
 0001:0001c610       _$E30                      1001d610 f   KNpcAttribModify.obj
 0001:0001c630       _$E29                      1001d630 f   KNpcAttribModify.obj
 0001:00019170       _$E21                      1001a170 f   KNpcAI.obj
 0001:00019180       _$E20                      1001a180 f   KNpcAI.obj
 0001:0001ad60       _$E28                      1001bd60 f   KNpcAI.obj
 0001:0001ad80       _$E27                      1001bd80 f   KNpcAI.obj
 0001:0000a4c0       _$E23                      1000b4c0 f   KNpc.obj
 0001:0000a4d0       _$E20                      1000b4d0 f   KNpc.obj
 0001:0000a4e0       _$E22                      1000b4e0 f   KNpc.obj
 0001:0000a4f0       _$E21                      1000b4f0 f   KNpc.obj
 0001:0000a500       _$E29                      1000b500 f   KNpc.obj
 0001:0000a510       _$E26                      1000b510 f   KNpc.obj
 0001:0000a520       _$E28                      1000b520 f   KNpc.obj
 0001:0000a530       _$E27                      1000b530 f   KNpc.obj
 0001:0000a540       _$E34                      1000b540 f   KNpc.obj
 0001:0000a550       _$E31                      1000b550 f   KNpc.obj
 0001:0000a570       _$E33                      1000b570 f   KNpc.obj
 0001:0000a580       _$E32                      1000b580 f   KNpc.obj
 0001:00019140       _$E41                      1001a140 f   KNpc.obj
 0001:00019160       _$E40                      1001a160 f   KNpc.obj
 0001:0000a490       _$E22                      1000b490 f   KFaction.obj
 0001:0000a4b0       _$E21                      1000b4b0 f   KFaction.obj
 0001:00009ed0       _$E22                      1000aed0 f   Skill.obj
 0001:00009ef0       _$E21                      1000aef0 f   Skill.obj
 0001:00009ea0       _$E22                      1000aea0 f   KSkillSpecial.obj
 0001:00009ec0       _$E21                      1000aec0 f   KSkillSpecial.obj
 0001:00009e70       _$E25                      1000ae70 f   KSkills.obj
 0001:00009e90       _$E24                      1000ae90 f   KSkills.obj
 0001:00004150       _$E23                      10005150 f   KSkillManager.obj
 0001:00004160       _$E20                      10005160 f   KSkillManager.obj
 0001:00004170       _$E22                      10005170 f   KSkillManager.obj
 0001:00004180       _$E21                      10005180 f   KSkillManager.obj
 0001:000048e0       _$E36                      100058e0 f   KSkillManager.obj
 0001:00004900       _$E35                      10005900 f   KSkillManager.obj
 0001:00004120       _$E25                      10005120 f   KSkillList.obj
 0001:00004140       _$E24                      10005140 f   KSkillList.obj
 0001:000030f0       _$E20                      100040f0 f   KMissleSet.obj
 0001:00003100       _$E17                      10004100 f   KMissleSet.obj
 0001:00003110       _$E19                      10004110 f   KMissleSet.obj
 0001:00003120       _$E18                      10004120 f   KMissleSet.obj
 0001:00003490       _$E27                      10004490 f   KMissleSet.obj
 0001:000034b0       _$E26                      100044b0 f   KMissleSet.obj
 0001:000030c0       _$E25                      100040c0 f   KMissleRes.obj
 0001:000030e0       _$E24                      100040e0 f   KMissleRes.obj
 0001:00000c60       _$E23                      10001c60 f   KMissle.obj
 0001:00000c70       _$E20                      10001c70 f   KMissle.obj
 0001:00000c90       _$E22                      10001c90 f   KMissle.obj
 0001:00000ca0       _$E21                      10001ca0 f   KMissle.obj
 0001:00000cc0       _$E28                      10001cc0 f   KMissle.obj
 0001:00000cd0       _$E25                      10001cd0 f   KMissle.obj
 0001:00000cf0       _$E27                      10001cf0 f   KMissle.obj
 0001:00000d00       _$E26                      10001d00 f   KMissle.obj
 0001:00003090       _$E35                      10004090 f   KMissle.obj
 0001:000030b0       _$E34                      100040b0 f   KMissle.obj
 0001:00000b30       _$E25                      10001b30 f   KThiefSkill.obj
 0001:00000b50       _$E24                      10001b50 f   KThiefSkill.obj
 0001:00000070       _$E22                      10001070 f   KPlayerPartner.obj
 0001:00000090       _$E21                      10001090 f   KPlayerPartner.obj
 0001:00000030       _$E22                      10001030 f   KPartnerSkill.obj
 0001:00000050       _$E21                      10001050 f   KPartnerSkill.obj
 0001:00073f10       _$E19                      10074f10 f   common:Exception.obj
 0001:00073f30       _$E18                      10074f30 f   common:Exception.obj
 0001:00073930       _$E23                      10074930 f   common:Buffer.obj
 0001:00073950       _$E22                      10074950 f   common:Buffer.obj
 0001:0007715c       _$E2                       1007815c f   libcpmt:nomemory.obj
 0001:00076d57       __Mbrtowc_lk               10077d57 f   libcpmt:xmbtowc.obj
 0001:000767c0       _$E18                      100777c0 f   libcpmt:locale0.obj
 0001:000767ca       _$E15                      100777ca f   libcpmt:locale0.obj
 0001:000767cb       _$E17                      100777cb f   libcpmt:locale0.obj
 0001:000767d7       _$E16                      100777d7 f   libcpmt:locale0.obj
 0001:00076cb2       _$E29                      10077cb2 f   libcpmt:locale0.obj
 0001:00076cdc       _$E25                      10077cdc f   libcpmt:locale0.obj
 0001:00076ce8       _$E28                      10077ce8 f   libcpmt:locale0.obj
 0001:000761a3       ?_CleanUp@std@@YAXXZ       100771a3 f   libcpmt:xlock.obj
 0001:000760e3       _$E24                      100770e3 f   libcpmt:string.obj
 0001:0007610d       _$E20                      1007710d f   libcpmt:string.obj
 0001:00076119       _$E23                      10077119 f   libcpmt:string.obj
 0001:00074f08       _$E18                      10075f08 f   libcpmt:wiostrea.obj
 0001:00074f12       _$E15                      10075f12 f   libcpmt:wiostrea.obj
 0001:00074f1c       _$E17                      10075f1c f   libcpmt:wiostrea.obj
 0001:00074f28       _$E16                      10075f28 f   libcpmt:wiostrea.obj
 0001:00074f32       _$E24                      10075f32 f   libcpmt:wiostrea.obj
 0001:00074f3c       _$E21                      10075f3c f   libcpmt:wiostrea.obj
 0001:00074f46       _$E23                      10075f46 f   libcpmt:wiostrea.obj
 0001:00074f52       _$E22                      10075f52 f   libcpmt:wiostrea.obj
 0001:00074f5c       _$E29                      10075f5c f   libcpmt:wiostrea.obj
 0001:00074f66       _$E26                      10075f66 f   libcpmt:wiostrea.obj
 0001:00074f73       _$E28                      10075f73 f   libcpmt:wiostrea.obj
 0001:00074f7f       _$E27                      10075f7f f   libcpmt:wiostrea.obj
 0001:00074f89       _$E34                      10075f89 f   libcpmt:wiostrea.obj
 0001:00074f93       _$E31                      10075f93 f   libcpmt:wiostrea.obj
 0001:00074fa0       _$E33                      10075fa0 f   libcpmt:wiostrea.obj
 0001:00074fac       _$E32                      10075fac f   libcpmt:wiostrea.obj
 0001:00074fb6       _$E39                      10075fb6 f   libcpmt:wiostrea.obj
 0001:00074fc0       _$E36                      10075fc0 f   libcpmt:wiostrea.obj
 0001:00074fcd       _$E38                      10075fcd f   libcpmt:wiostrea.obj
 0001:00074fd9       _$E37                      10075fd9 f   libcpmt:wiostrea.obj
 0001:00074fe3       _$E44                      10075fe3 f   libcpmt:wiostrea.obj
 0001:00074fed       _$E41                      10075fed f   libcpmt:wiostrea.obj
 0001:00074ffc       _$E43                      10075ffc f   libcpmt:wiostrea.obj
 0001:00075008       _$E42                      10076008 f   libcpmt:wiostrea.obj
 0001:00075027       _$E49                      10076027 f   libcpmt:wiostrea.obj
 0001:00075031       _$E46                      10076031 f   libcpmt:wiostrea.obj
 0001:00075040       _$E48                      10076040 f   libcpmt:wiostrea.obj
 0001:0007504c       _$E47                      1007604c f   libcpmt:wiostrea.obj
 0001:0007506b       _$E54                      1007606b f   libcpmt:wiostrea.obj
 0001:00075075       _$E51                      10076075 f   libcpmt:wiostrea.obj
 0001:00075084       _$E53                      10076084 f   libcpmt:wiostrea.obj
 0001:00075090       _$E52                      10076090 f   libcpmt:wiostrea.obj
 0001:0007509a       _$E59                      1007609a f   libcpmt:wiostrea.obj
 0001:000750a4       _$E56                      100760a4 f   libcpmt:wiostrea.obj
 0001:000750b3       _$E58                      100760b3 f   libcpmt:wiostrea.obj
 0001:000750bf       _$E57                      100760bf f   libcpmt:wiostrea.obj
 0001:00075d8d       _$E70                      10076d8d f   libcpmt:wiostrea.obj
 0001:00075db7       _$E66                      10076db7 f   libcpmt:wiostrea.obj
 0001:00075dc3       _$E69                      10076dc3 f   libcpmt:wiostrea.obj
 0001:00073f4b       _$E18                      10074f4b f   libcpmt:iostream.obj
 0001:00073f55       _$E15                      10074f55 f   libcpmt:iostream.obj
 0001:00073f62       _$E17                      10074f62 f   libcpmt:iostream.obj
 0001:00073f6e       _$E16                      10074f6e f   libcpmt:iostream.obj
 0001:00073f78       _$E23                      10074f78 f   libcpmt:iostream.obj
 0001:00073f82       _$E20                      10074f82 f   libcpmt:iostream.obj
 0001:00073f8f       _$E22                      10074f8f f   libcpmt:iostream.obj
 0001:00073f9b       _$E21                      10074f9b f   libcpmt:iostream.obj
 0001:00073fa5       _$E28                      10074fa5 f   libcpmt:iostream.obj
 0001:00073faf       _$E25                      10074faf f   libcpmt:iostream.obj
 0001:00073fbe       _$E27                      10074fbe f   libcpmt:iostream.obj
 0001:00073fca       _$E26                      10074fca f   libcpmt:iostream.obj
 0001:00073fe9       _$E33                      10074fe9 f   libcpmt:iostream.obj
 0001:00073ff3       _$E30                      10074ff3 f   libcpmt:iostream.obj
 0001:00074002       _$E32                      10075002 f   libcpmt:iostream.obj
 0001:0007400e       _$E31                      1007500e f   libcpmt:iostream.obj
 0001:0007402d       _$E38                      1007502d f   libcpmt:iostream.obj
 0001:00074037       _$E35                      10075037 f   libcpmt:iostream.obj
 0001:00074044       _$E37                      10075044 f   libcpmt:iostream.obj
 0001:00074050       _$E36                      10075050 f   libcpmt:iostream.obj
 0001:0007405a       _$E43                      1007505a f   libcpmt:iostream.obj
 0001:00074064       _$E40                      10075064 f   libcpmt:iostream.obj
 0001:00074073       _$E42                      10075073 f   libcpmt:iostream.obj
 0001:0007407f       _$E41                      1007507f f   libcpmt:iostream.obj
 0001:00074089       _$E48                      10075089 f   libcpmt:iostream.obj
 0001:00074093       _$E45                      10075093 f   libcpmt:iostream.obj
 0001:000740a2       _$E47                      100750a2 f   libcpmt:iostream.obj
 0001:000740ae       _$E46                      100750ae f   libcpmt:iostream.obj
 0001:00074ec5       _$E60                      10075ec5 f   libcpmt:iostream.obj
 0001:00074eef       _$E56                      10075eef f   libcpmt:iostream.obj
 0001:00074efb       _$E59                      10075efb f   libcpmt:iostream.obj
 0001:00084d60       _findenv                   10085d60 f   LIBCMT:setenv.obj
 0001:00084db8       _copy_environ              10085db8 f   LIBCMT:setenv.obj
 0001:00084bae       _strncnt                   10085bae f   LIBCMT:a_cmp.obj
 0001:00083843       _ctrlevent_capture@4       10084843 f   LIBCMT:winsig.obj
 0001:00083a27       _siglookup                 10084a27 f   LIBCMT:winsig.obj
 0001:00083371       _xtoa                      10084371 f   LIBCMT:xtoa.obj
 0001:00083443       _x64toa@20                 10084443 f   LIBCMT:xtoa.obj
 0001:000828a4       __expandtime               100838a4 f   LIBCMT:strftime.obj
 0001:00082c93       __store_str                10083c93 f   LIBCMT:strftime.obj
 0001:00082cba       __store_num                10083cba f   LIBCMT:strftime.obj
 0001:00082d29       __store_number             10083d29 f   LIBCMT:strftime.obj
 0001:00082d72       __store_winword            10083d72 f   LIBCMT:strftime.obj
 0001:00081a9d       _getSystemCP               10082a9d f   LIBCMT:mbctype.obj
 0001:00081ae7       _CPtoLCID                  10082ae7 f   LIBCMT:mbctype.obj
 0001:00081b1a       _setSBCS                   10082b1a f   LIBCMT:mbctype.obj
 0001:00081b43       _setSBUpLow                10082b43 f   LIBCMT:mbctype.obj
 0001:000816b8       _xcptlookup                100826b8 f   LIBCMT:winxfltr.obj
 0001:00080c72       __abstract_cw              10081c72 f   LIBCMT:ieee87.obj
 0001:00080d04       __hw_cw                    10081d04 f   LIBCMT:ieee87.obj
 0001:00080d8d       __abstract_sw              10081d8d f   LIBCMT:ieee87.obj
 0001:00080357       _TranslateName             10081357 f   LIBCMT:getqloc.obj
 0001:000803af       _GetLcidFromLangCountry    100813af f   LIBCMT:getqloc.obj
 0001:00080436       _LangCountryEnumProc@4     10081436 f   LIBCMT:getqloc.obj
 0001:0008063a       _GetLcidFromLanguage       1008163a f   LIBCMT:getqloc.obj
 0001:00080690       _LanguageEnumProc@4        10081690 f   LIBCMT:getqloc.obj
 0001:0008074d       _GetLcidFromCountry        1008174d f   LIBCMT:getqloc.obj
 0001:00080784       _CountryEnumProc@4         10081784 f   LIBCMT:getqloc.obj
 0001:0008080a       _GetLcidFromDefault        1008180a f   LIBCMT:getqloc.obj
 0001:00080824       _ProcessCodePage           10081824 f   LIBCMT:getqloc.obj
 0001:0008088a       _TestDefaultCountry        1008188a f   LIBCMT:getqloc.obj
 0001:000808a9       _TestDefaultLanguage       100818a9 f   LIBCMT:getqloc.obj
 0001:0008090b       _IsThisWindowsNT           1008190b f   LIBCMT:getqloc.obj
 0001:00080941       _crtGetLocaleInfoA@16      10081941 f   LIBCMT:getqloc.obj
 0001:00080a27       _LcidFromHexString         10081a27 f   LIBCMT:getqloc.obj
 0001:00080a60       _GetPrimaryLen             10081a60 f   LIBCMT:getqloc.obj
 0001:0007fd2b       __get_lc_lconv             10080d2b f   LIBCMT:initmon.obj
 0001:0007fe4d       _fix_grouping              10080e4d f   LIBCMT:initmon.obj
 0001:0007fe84       __free_lc_lconv            10080e84 f   LIBCMT:initmon.obj
 0001:0007fc29       _fix_grouping              10080c29 f   LIBCMT:initnum.obj
 0001:0007f576       __get_lc_time              10080576 f   LIBCMT:inittime.obj
 0001:0007f8c4       __free_lc_time             100808c4 f   LIBCMT:inittime.obj
 0001:0007d146       _parse_cmdline             1007e146 f   LIBCMT:stdargv.obj
 0001:0007c7c2       __tzset_lk                 1007d7c2 f   LIBCMT:tzset.obj
 0001:0007ca6a       __isindst_lk               1007da6a f   LIBCMT:tzset.obj
 0001:0007cc16       _cvtdate                   1007dc16 f   LIBCMT:tzset.obj
 0001:0007c4c4       _strncnt                   1007d4c4 f   LIBCMT:a_map.obj
 0001:0007b520       ?FindHandler@@YAXPAUEHExceptionRecord@@PAUEHRegistrationNode@@PAU_CONTEXT@@PAXPBU_s_FuncInfo@@EH1@Z 1007c520 f   LIBCMT:frame.obj
 0001:0007b6d3       ?FindHandlerForForeignException@@YAXPAUEHExceptionRecord@@PAUEHRegistrationNode@@PAU_CONTEXT@@PAXPBU_s_FuncInfo@@HH1@Z 1007c6d3 f   LIBCMT:frame.obj
 0001:0007b77d       ?TypeMatch@@YAHPBU_s_HandlerType@@PBU_s_CatchableType@@PBU_s_ThrowInfo@@@Z 1007c77d f   LIBCMT:frame.obj
 0001:0007b878       ?FrameUnwindFilter@@YAHPAU_EXCEPTION_POINTERS@@@Z 1007c878 f   LIBCMT:frame.obj
 0001:0007b88e       ?CatchIt@@YAXPAUEHExceptionRecord@@PAUEHRegistrationNode@@PAU_CONTEXT@@PAXPBU_s_FuncInfo@@PBU_s_HandlerType@@PBU_s_CatchableType@@PBU_s_TryBlockMapEntry@@H1E@Z 1007c88e f   LIBCMT:frame.obj
 0001:0007b909       ?CallCatchBlock@@YAPAXPAUEHExceptionRecord@@PAUEHRegistrationNode@@PAU_CONTEXT@@PBU_s_FuncInfo@@PAXHK@Z 1007c909 f   LIBCMT:frame.obj
 0001:0007ba24       ?ExFilterRethrow@@YAHPAU_EXCEPTION_POINTERS@@@Z 1007ca24 f   LIBCMT:frame.obj
 0001:0007ba4e       ?BuildCatchObject@@YAXPAUEHExceptionRecord@@PAUEHRegistrationNode@@PBU_s_HandlerType@@PBU_s_CatchableType@@@Z 1007ca4e f   LIBCMT:frame.obj
 0001:0007bc79       ?AdjustPointer@@YAPAXPAXABUPMD@@@Z 1007cc79 f   LIBCMT:frame.obj
 0001:0007b1be       __cftoe2                   1007c1be f   LIBCMT:cvt.obj
 0001:0007b2d5       __cftof2                   1007c2d5 f   LIBCMT:cvt.obj
 0001:0007b460       __shift                    1007c460 f   LIBCMT:cvt.obj
 0001:0007af1d       _write_char                1007bf1d f   LIBCMT:output.obj
 0001:0007af52       _write_multi_char          1007bf52 f   LIBCMT:output.obj
 0001:0007af83       _write_string              1007bf83 f   LIBCMT:output.obj
 0001:0007afbb       _get_int_arg               1007bfbb f   LIBCMT:output.obj
 0001:0007afc8       _get_int64_arg             1007bfc8 f   LIBCMT:output.obj
 0001:0007afd8       _get_short_arg             1007bfd8 f   LIBCMT:output.obj
 0001:0007a3ea       _doexit                    1007b3ea f   LIBCMT:crt0dat.obj
 0001:0007a4a1       __initterm                 1007b4a1 f   LIBCMT:crt0dat.obj
 0001:00079ec5       __setlocale_set_cat        1007aec5 f   LIBCMT:setlocal.obj
 0001:00079fe0       __setlocale_get_all        1007afe0 f   LIBCMT:setlocal.obj
 0001:00079440       _flsall                    1007a440 f   LIBCMT:fflush.obj
 0001:00078cc0       LeadUp1                    10079cc0 f   LIBCMT:memcpy.obj
 0001:00078cec       LeadUp2                    10079cec f   LIBCMT:memcpy.obj
 0001:00078d10       LeadUp3                    10079d10 f   LIBCMT:memcpy.obj
 0001:00078d8f       UnwindUp0                  10079d8f f   LIBCMT:memcpy.obj
 0001:00078d7c       UnwindUp1                  10079d7c f   LIBCMT:memcpy.obj
 0001:00078d74       UnwindUp2                  10079d74 f   LIBCMT:memcpy.obj
 0001:00078d6c       UnwindUp3                  10079d6c f   LIBCMT:memcpy.obj
 0001:00078d64       UnwindUp4                  10079d64 f   LIBCMT:memcpy.obj
 0001:00078d5c       UnwindUp5                  10079d5c f   LIBCMT:memcpy.obj
 0001:00078d54       UnwindUp6                  10079d54 f   LIBCMT:memcpy.obj
 0001:00078d4c       UnwindUp7                  10079d4c f   LIBCMT:memcpy.obj
 0001:00078da8       TrailUp0                   10079da8 f   LIBCMT:memcpy.obj
 0001:00078db0       TrailUp1                   10079db0 f   LIBCMT:memcpy.obj
 0001:00078dbc       TrailUp2                   10079dbc f   LIBCMT:memcpy.obj
 0001:00078dd0       TrailUp3                   10079dd0 f   LIBCMT:memcpy.obj
 0001:00078e48       LeadDown1                  10079e48 f   LIBCMT:memcpy.obj
 0001:00078e68       LeadDown2                  10079e68 f   LIBCMT:memcpy.obj
 0001:00078e90       LeadDown3                  10079e90 f   LIBCMT:memcpy.obj
 0001:00078ee4       UnwindDown7                10079ee4 f   LIBCMT:memcpy.obj
 0001:00078eec       UnwindDown6                10079eec f   LIBCMT:memcpy.obj
 0001:00078ef4       UnwindDown5                10079ef4 f   LIBCMT:memcpy.obj
 0001:00078efc       UnwindDown4                10079efc f   LIBCMT:memcpy.obj
 0001:00078f04       UnwindDown3                10079f04 f   LIBCMT:memcpy.obj
 0001:00078f0c       UnwindDown2                10079f0c f   LIBCMT:memcpy.obj
 0001:00078f14       UnwindDown1                10079f14 f   LIBCMT:memcpy.obj
 0001:00078f27       UnwindDown0                10079f27 f   LIBCMT:memcpy.obj
 0001:00078f40       TrailDown0                 10079f40 f   LIBCMT:memcpy.obj
 0001:00078f48       TrailDown1                 10079f48 f   LIBCMT:memcpy.obj
 0001:00078f58       TrailDown2                 10079f58 f   LIBCMT:memcpy.obj
 0001:00078f6c       TrailDown3                 10079f6c f   LIBCMT:memcpy.obj
 0001:00078161       __make_time_t              10079161 f   LIBCMT:mktime.obj
 0001:00077e80       LeadUp1                    10078e80 f   LIBCMT:memmove.obj
 0001:00077eac       LeadUp2                    10078eac f   LIBCMT:memmove.obj
 0001:00077ed0       LeadUp3                    10078ed0 f   LIBCMT:memmove.obj
 0001:00077f4f       UnwindUp0                  10078f4f f   LIBCMT:memmove.obj
 0001:00077f3c       UnwindUp1                  10078f3c f   LIBCMT:memmove.obj
 0001:00077f34       UnwindUp2                  10078f34 f   LIBCMT:memmove.obj
 0001:00077f2c       UnwindUp3                  10078f2c f   LIBCMT:memmove.obj
 0001:00077f24       UnwindUp4                  10078f24 f   LIBCMT:memmove.obj
 0001:00077f1c       UnwindUp5                  10078f1c f   LIBCMT:memmove.obj
 0001:00077f14       UnwindUp6                  10078f14 f   LIBCMT:memmove.obj
 0001:00077f0c       UnwindUp7                  10078f0c f   LIBCMT:memmove.obj
 0001:00077f68       TrailUp0                   10078f68 f   LIBCMT:memmove.obj
 0001:00077f70       TrailUp1                   10078f70 f   LIBCMT:memmove.obj
 0001:00077f7c       TrailUp2                   10078f7c f   LIBCMT:memmove.obj
 0001:00077f90       TrailUp3                   10078f90 f   LIBCMT:memmove.obj
 0001:00078008       LeadDown1                  10079008 f   LIBCMT:memmove.obj
 0001:00078028       LeadDown2                  10079028 f   LIBCMT:memmove.obj
 0001:00078050       LeadDown3                  10079050 f   LIBCMT:memmove.obj
 0001:000780a4       UnwindDown7                100790a4 f   LIBCMT:memmove.obj
 0001:000780ac       UnwindDown6                100790ac f   LIBCMT:memmove.obj
 0001:000780b4       UnwindDown5                100790b4 f   LIBCMT:memmove.obj
 0001:000780bc       UnwindDown4                100790bc f   LIBCMT:memmove.obj
 0001:000780c4       UnwindDown3                100790c4 f   LIBCMT:memmove.obj
 0001:000780cc       UnwindDown2                100790cc f   LIBCMT:memmove.obj
 0001:000780d4       UnwindDown1                100790d4 f   LIBCMT:memmove.obj
 0001:000780e7       UnwindDown0                100790e7 f   LIBCMT:memmove.obj
 0001:00078100       TrailDown0                 10079100 f   LIBCMT:memmove.obj
 0001:00078108       TrailDown1                 10079108 f   LIBCMT:memmove.obj
 0001:00078118       TrailDown2                 10079118 f   LIBCMT:memmove.obj
 0001:0007812c       TrailDown3                 1007912c f   LIBCMT:memmove.obj
 0001:0007785e       ?ArrayUnwindFilter@@YAHPAU_EXCEPTION_POINTERS@@@Z 1007885e f   LIBCMT:ehvecdtr.obj
 0001:00077628       _gu_return                 10078628 f   LIBCMT:exsup.obj
 0001:00077630       __unwind_handler           10078630 f   LIBCMT:exsup.obj
 0001:00077443       ?CatchGuardHandler@@YA?AW4_EXCEPTION_DISPOSITION@@PAUEHExceptionRecord@@PAUCatchGuardRN@@PAX2@Z 10078443 f   LIBCMT:trnsctrl.obj
 0001:0007751e       ?TranslatorGuardHandler@@YA?AW4_EXCEPTION_DISPOSITION@@PAUEHExceptionRecord@@PAUTranslatorGuardRN@@PAX2@Z 1007851e f   LIBCMT:trnsctrl.obj
 0001:0008556c       _$E4                       1008656c f   comsupp:comutil.obj
 0001:00085576       _$E1                       10086576 f   comsupp:comutil.obj
 0001:00085588       _$E3                       10086588 f   comsupp:comutil.obj
 0001:00085594       _$E2                       10086594 f   comsupp:comutil.obj
 0001:00084f9b       ?_com_invoke_helper@@YAJPAUIDispatch@@JGGPAXPBGPADPAPAUIErrorInfo@@@Z 10085f9b f   comsupp:comsupp.obj
