 Bishop

 Timestamp is 6916c3da (Fri Nov 14 00:53:30 2025)

 Preferred load address is 00400000

 Start         Length     Name                   Class
 0001:00000000 0003e424H .text                   CODE
 0001:0003e430 0000364eH .text$x                 CODE
 0002:00000000 00000268H .idata$5                DATA
 0002:00000268 00001974H .rdata                  DATA
 0002:00001be0 0000122cH .rdata$r                DATA
 0002:00002e10 00005b10H .xdata$x                DATA
 0002:00008920 000000a0H .idata$2                DATA
 0002:000089c0 00000014H .idata$3                DATA
 0002:000089d4 00000268H .idata$4                DATA
 0002:00008c3c 00000a2eH .idata$6                DATA
 0002:0000966a 00000000H .edata                  DATA
 0003:00000000 00000004H .CRT$XCA                DATA
 0003:00000004 0000012cH .CRT$XCU                DATA
 0003:00000130 00000004H .CRT$XCZ                DATA
 0003:00000134 00000004H .CRT$XIA                DATA
 0003:00000138 0000000cH .CRT$XIC                DATA
 0003:00000144 00000004H .CRT$XIY                DATA
 0003:00000148 00000004H .CRT$XIZ                DATA
 0003:0000014c 00000004H .CRT$XPA                DATA
 0003:00000150 00000004H .CRT$XPX                DATA
 0003:00000154 00000004H .CRT$XPZ                DATA
 0003:00000158 00000004H .CRT$XTA                DATA
 0003:0000015c 00000004H .CRT$XTB                DATA
 0003:00000160 00000004H .CRT$XTZ                DATA
 0003:00000170 00004350H .data                   DATA
 0003:000044c0 00002310H .bss                    DATA
 0004:00000000 000002c8H .rsrc$01                DATA
 0004:000002d0 00006d90H .rsrc$02                DATA

  Address         Publics by Value              Rva+Base     Lib:Object

 0001:00000050       ??0CBishopApp@@QAE@XZ      00401050 f   Application.obj
 0001:00000070       ??_ECBishopApp@@UAEPAXI@Z  00401070 f i Application.obj
 0001:00000070       ??_GCBishopApp@@UAEPAXI@Z  00401070 f i Application.obj
 0001:00000090       ??0CBishopApp@@QAE@PAUHINSTANCE__@@@Z 00401090 f   Application.obj
 0001:000000c0       ??1CBishopApp@@UAE@XZ      004010c0 f   Application.obj
 0001:000000d0       ?Run@CBishopApp@@QAEHXZ    004010d0 f   Application.obj
 0001:00000170       ?LoginSystem@CBishopApp@@IAE_NXZ 00401170 f   Application.obj
 0001:000001a0       ?LoginDlgProc@CBishopApp@@KGHPAUHWND__@@IIJ@Z 004011a0 f   Application.obj
 0001:000003b0       ?EnterToAffirm@CBishopApp@@KAXPAUHWND__@@@Z 004013b0 f   Application.obj
 0001:00000420       ?LeaveToAffirm@CBishopApp@@KAXPAUHWND__@@@Z 00401420 f   Application.obj
 0001:00000480       ?CheckUserInfo@CBishopApp@@KA_NPAUHWND__@@@Z 00401480 f   Application.obj
 0001:00000580       ?ServerLoginRoutine@CBishopApp@@KGKPAUHWND__@@@Z 00401580 f   Application.obj
 0001:00000620       ?RegisterMainWndClass@CBishopApp@@IAEHXZ 00401620 f   Application.obj
 0001:000006d0       ?MainDialog@CBishopApp@@IAEIXZ 004016d0 f   Application.obj
 0001:00000780       ?MainWndProc@CBishopApp@@KGHPAUHWND__@@IIJ@Z 00401780 f   Application.obj
 0001:00000cb0       ?AddGameServerInfo@CBishopApp@@CAXPAUHWND__@@IPBD@Z 00401cb0 f   Application.obj
 0001:00000d10       ?DelGameServerInfo@CBishopApp@@CAXPAUHWND__@@I@Z 00401d10 f   Application.obj
 0001:00000d90       ?InitMainDlg@CBishopApp@@KAXPAUHWND__@@@Z 00401d90 f   Application.obj
 0001:00000e50       ?CloseMainDlg@CBishopApp@@KAXPAUHWND__@@@Z 00401e50 f   Application.obj
 0001:00000e70       ?UpdateVariable@CBishopApp@@KAXPAUHWND__@@@Z 00401e70 f   Application.obj
 0001:00000f50       ?EnableGameSvrCtrl@CBishopApp@@KAXPAUHWND__@@H@Z 00401f50 f   Application.obj
 0001:00000fd0       ?EnableCtrl@CBishopApp@@KAXPAUHWND__@@IH@Z 00401fd0 f   Application.obj
 0001:00001000       ?SendAnnounceText@CBishopApp@@KAXPAUHWND__@@PBDIIH@Z 00402000 f   Application.obj
 0001:000010d0       ?_Grow@?$basic_string@DU?$char_traits@D@std@@V?$allocator@D@2@@std@@AAE_NI_N@Z 004020d0 f i Application.obj
 0001:000011f0       ?_Copy@?$basic_string@DU?$char_traits@D@std@@V?$allocator@D@2@@std@@AAEXI@Z 004021f0 f i Application.obj
 0001:00001330       ?id@?$ctype@G@std@@$E      00402330 f i Application.obj
 0001:00001340       _WinMain@16                00402340 f   Bishop.obj
 0001:000013a0       ??0CEvent@Win32@OnlineGameLib@@QAE@PAU_SECURITY_ATTRIBUTES@@_N1@Z 004023a0 f   Event.obj
 0001:000014b0       ??1CWin32Exception@Win32@OnlineGameLib@@UAE@XZ 004024b0 f i Event.obj
 0001:00001530       ??_ECException@Win32@OnlineGameLib@@UAEPAXI@Z 00402530 f i Event.obj
 0001:00001530       ??_GCException@Win32@OnlineGameLib@@UAEPAXI@Z 00402530 f i Event.obj
 0001:00001550       ??1CException@Win32@OnlineGameLib@@UAE@XZ 00402550 f i Event.obj
 0001:000015d0       ??0CWin32Exception@Win32@OnlineGameLib@@QAE@ABV012@@Z 004025d0 f i Event.obj
 0001:00001710       ??0CException@Win32@OnlineGameLib@@QAE@ABV012@@Z 00402710 f i Event.obj
 0001:00001850       ??_ECWin32Exception@Win32@OnlineGameLib@@UAEPAXI@Z 00402850 f i Event.obj
 0001:00001850       ??_GCWin32Exception@Win32@OnlineGameLib@@UAEPAXI@Z 00402850 f i Event.obj
 0001:00001870       ??_GCEvent@Win32@OnlineGameLib@@UAEPAXI@Z 00402870 f i Event.obj
 0001:00001870       ??_ECEvent@Win32@OnlineGameLib@@UAEPAXI@Z 00402870 f i Event.obj
 0001:00001890       ??0CEvent@Win32@OnlineGameLib@@QAE@PAU_SECURITY_ATTRIBUTES@@_N1PBD@Z 00402890 f   Event.obj
 0001:000018c0       ??1CEvent@Win32@OnlineGameLib@@UAE@XZ 004028c0 f   Event.obj
 0001:000018e0       ?Wait@CEvent@Win32@OnlineGameLib@@QBEXXZ 004028e0 f   Event.obj
 0001:000019e0       ?Wait@CEvent@Win32@OnlineGameLib@@QBE_NK@Z 004029e0 f   Event.obj
 0001:00001ad0       ?Reset@CEvent@Win32@OnlineGameLib@@QAEXXZ 00402ad0 f   Event.obj
 0001:00001ba0       ?Set@CEvent@Win32@OnlineGameLib@@QAEXXZ 00402ba0 f   Event.obj
 0001:00001c70       ?Pulse@CEvent@Win32@OnlineGameLib@@QAEXXZ 00402c70 f   Event.obj
 0001:00001d40       ??1?$basic_string@DU?$char_traits@D@std@@V?$allocator@D@2@@std@@QAE@XZ 00402d40 f i Event.obj
 0001:00001d80       ?assign@?$basic_string@DU?$char_traits@D@std@@V?$allocator@D@2@@std@@QAEAAV12@ABV12@II@Z 00402d80 f i Event.obj
 0001:00001f80       ?_Tidy@?$basic_string@DU?$char_traits@D@std@@V?$allocator@D@2@@std@@AAEX_N@Z 00402f80 f i Event.obj
 0001:00001fd0       ?assign@?$basic_string@DU?$char_traits@D@std@@V?$allocator@D@2@@std@@QAEAAV12@PBDI@Z 00402fd0 f i Event.obj
 0001:00002070       ?erase@?$basic_string@DU?$char_traits@D@std@@V?$allocator@D@2@@std@@QAEAAV12@II@Z 00403070 f i Event.obj
 0001:00002190       ?_Eos@?$basic_string@DU?$char_traits@D@std@@V?$allocator@D@2@@std@@AAEXI@Z 00403190 f i Event.obj
 0001:000021b0       ?max_size@?$basic_string@DU?$char_traits@D@std@@V?$allocator@D@2@@std@@QBEIXZ 004031b0 f i Event.obj
 0001:000021c0       ?_Split@?$basic_string@DU?$char_traits@D@std@@V?$allocator@D@2@@std@@AAEXXZ 004031c0 f i Event.obj
 0001:00002350       ??1?$set@V?$basic_string@DU?$char_traits@D@std@@V?$allocator@D@2@@std@@U?$less@V?$basic_string@DU?$char_traits@D@std@@V?$allocator@D@2@@std@@@2@V?$allocator@V?$basic_string@DU?$char_traits@D@std@@V?$allocator@D@2@@std@@@2@@std@@QAE@XZ 00403350 f i GamePlayer.obj
 0001:000024d0       ??1?$map@V?$basic_string@DU?$char_traits@D@std@@V?$allocator@D@2@@std@@PAVIPlayer@@U?$less@V?$basic_string@DU?$char_traits@D@std@@V?$allocator@D@2@@std@@@2@V?$allocator@PAVIPlayer@@@2@@std@@QAE@XZ 004034d0 f i GamePlayer.obj
 0001:00002660       ?SetupGlobalAllocator@CGamePlayer@@SA_NII@Z 00403660 f   GamePlayer.obj
 0001:00002680       ??0CTask@CGamePlayer@@IAE@XZ 00403680 f   GamePlayer.obj
 0001:000026a0       ??1CTask@CGamePlayer@@QAE@XZ 004036a0 f   GamePlayer.obj
 0001:00002760       ??0CTask@CGamePlayer@@QAE@PAV1@I@Z 00403760 f   GamePlayer.obj
 0001:00002790       ?AddCmd@CTask@CGamePlayer@@QAEIP82@AEIXZ@Z 00403790 f   GamePlayer.obj
 0001:000027f0       ?Execute@CTask@CGamePlayer@@QAEIXZ 004037f0 f   GamePlayer.obj
 0001:00002870       ??0CDataQueue@CGamePlayer@@QAE@II@Z 00403870 f   GamePlayer.obj
 0001:00002960       ??1?$map@JPAVCBuffer@Win32@OnlineGameLib@@U?$less@J@std@@V?$allocator@PAVCBuffer@Win32@OnlineGameLib@@@5@@std@@QAE@XZ 00403960 f i GamePlayer.obj
 0001:000029d0       ??1CDataQueue@CGamePlayer@@QAE@XZ 004039d0 f   GamePlayer.obj
 0001:00002a90       ??1CCriticalSection@Win32@OnlineGameLib@@QAE@XZ 00403a90 f i GamePlayer.obj
 0001:00002aa0       ?Empty@CDataQueue@CGamePlayer@@QAEXXZ 00403aa0 f   GamePlayer.obj
 0001:00002b50       ??1Owner@CCriticalSection@Win32@OnlineGameLib@@QAE@XZ 00403b50 f i GamePlayer.obj
 0001:00002b60       ?AddData@CDataQueue@CGamePlayer@@QAE_NJPBEI@Z 00403b60 f   GamePlayer.obj
 0001:00002cb0       ?Attach@CDataQueue@CGamePlayer@@QAEPAVCBuffer@Win32@OnlineGameLib@@J@Z 00403cb0 f   GamePlayer.obj
 0001:00002d70       ?Detach@CDataQueue@CGamePlayer@@QAEXJ@Z 00403d70 f   GamePlayer.obj
 0001:00002d80       ?Clear@CDataQueue@CGamePlayer@@QAEXJ@Z 00403d80 f   GamePlayer.obj
 0001:00002e40       ??0CGamePlayer@@QAE@I@Z    00403e40 f   GamePlayer.obj
 0001:00003020       ??1IPlayer@@UAE@XZ         00404020 f i GamePlayer.obj
 0001:00003030       ??_GIPlayer@@UAEPAXI@Z     00404030 f i GamePlayer.obj
 0001:00003030       ??_EIPlayer@@UAEPAXI@Z     00404030 f i GamePlayer.obj
 0001:00003050       ?IsActive@CGamePlayer@@UAE_NXZ 00404050 f i GamePlayer.obj
 0001:00003060       ??_ECGamePlayer@@UAEPAXI@Z 00404060 f i GamePlayer.obj
 0001:00003060       ??_GCGamePlayer@@UAEPAXI@Z 00404060 f i GamePlayer.obj
 0001:00003080       ??_FCDataQueue@CGamePlayer@@QAEXXZ 00404080 f i GamePlayer.obj
 0001:00003090       ??1CGamePlayer@@UAE@XZ     00404090 f   GamePlayer.obj
 0001:000032a0       ?Active@CGamePlayer@@UAE_NXZ 004042a0 f   GamePlayer.obj
 0001:000032f0       ?Inactive@CGamePlayer@@UAE_NXZ 004042f0 f   GamePlayer.obj
 0001:00003cf0       ?SafeClose@CGamePlayer@@IAEIXZ 00404cf0 f   GamePlayer.obj
 0001:00003d00       ?_UnlockAccount@CGamePlayer@@IAE_NXZ 00404d00 f   GamePlayer.obj
 0001:00003e00       ?ATTACH_NETWORK@CGamePlayer@@SAXPAUIClient@@PAUIServer@@0@Z 00404e00 f   GamePlayer.obj
 0001:00003e20       ?DETACH_NETWORK@CGamePlayer@@SAXXZ 00404e20 f   GamePlayer.obj
 0001:00003ea0       ?DispatchTask@CGamePlayer@@UAE_NI@Z 00404ea0 f   GamePlayer.obj
 0001:00003ed0       ?IsWorking@CGamePlayer@@UAE_NXZ 00404ed0 f   GamePlayer.obj
 0001:00003ef0       ?Run@CGamePlayer@@UAE_NXZ  00404ef0 f   GamePlayer.obj
 0001:00004210       ?AppendData@CGamePlayer@@UAE_NIPBXI@Z 00405210 f   GamePlayer.obj
 0001:00004270       ?SmallPackProcess@CGamePlayer@@IAE_NIPBXI@Z 00405270 f   GamePlayer.obj
 0001:000042c0       ?LargePackProcess@CGamePlayer@@IAE_NIPBXI@Z 004052c0 f   GamePlayer.obj
 0001:00004360       ?DispatchTaskForAccount@CGamePlayer@@IAE_NPBXI@Z 00405360 f   GamePlayer.obj
 0001:000043a0       ?DispatchTaskForDBRole@CGamePlayer@@IAE_NPBXI@Z 004053a0 f   GamePlayer.obj
 0001:000043e0       ?DispatchTaskForPlayer@CGamePlayer@@IAE_NPBXI@Z 004053e0 f   GamePlayer.obj
 0001:00004420       ?_ClearTaskQueue@CGamePlayer@@IAEXXZ 00405420 f   GamePlayer.obj
 0001:00004450       ?InitTaskProcessor@CGamePlayer@@AAEXXZ 00405450 f   GamePlayer.obj
 0001:00004520       ?TaskCompleted@CGamePlayer@@IAE_NXZ 00405520 f   GamePlayer.obj
 0001:00004640       ?WaitForAccPwd@CGamePlayer@@IAEIXZ 00405640 f   GamePlayer.obj
 0001:00004e20       ?QueryAccPwd@CGamePlayer@@IAEIXZ 00405e20 f   GamePlayer.obj
 0001:00005060       ?VerifyAccount@CGamePlayer@@IAEIXZ 00406060 f   GamePlayer.obj
 0001:00005590       ?_VerifyAccount_ToPlayer@CGamePlayer@@IAE_NIK@Z 00406590 f   GamePlayer.obj
 0001:00005730       ?QueryRoleList@CGamePlayer@@IAEIXZ 00406730 f   GamePlayer.obj
 0001:00005850       ?ProcessRoleList@CGamePlayer@@IAEIXZ 00406850 f   GamePlayer.obj
 0001:00005990       ?SelAddDelRole@CGamePlayer@@IAEIXZ 00406990 f   GamePlayer.obj
 0001:00005c00       ?DelRole_WaitForVerify@CGamePlayer@@IAEIXZ 00406c00 f   GamePlayer.obj
 0001:00005db0       ?WaitForCreateResult@CGamePlayer@@IAEIXZ 00406db0 f   GamePlayer.obj
 0001:00005eb0       ?WaitForDeleteResult@CGamePlayer@@IAEIXZ 00406eb0 f   GamePlayer.obj
 0001:00005fb0       ?_QueryRoleInfo_ToDBRole@CGamePlayer@@IAE_NPBD_N@Z 00406fb0 f   GamePlayer.obj
 0001:000060a0       ?_CreateNewPlayer_ToDBRole@CGamePlayer@@IAE_NPBDHHG@Z 004070a0 f   GamePlayer.obj
 0001:000062b0       ?_DeleteRole_ToDBRole@CGamePlayer@@IAEIPBXI@Z 004072b0 f   GamePlayer.obj
 0001:000064d0       ?QueryAccExt@CGamePlayer@@IAEIXZ 004074d0 f   GamePlayer.obj
 0001:000065d0       ?VerifyAccExt@CGamePlayer@@IAEIXZ 004075d0 f   GamePlayer.obj
 0001:000066a0       ?ProcessRoleInfo@CGamePlayer@@IAEIXZ 004076a0 f   GamePlayer.obj
 0001:00006810       ?_SyncRoleInfo_ToGameServer@CGamePlayer@@IAE_NPBXI@Z 00407810 f   GamePlayer.obj
 0001:00006d40       ?WaitForGameSvrPermit@CGamePlayer@@IAEIXZ 00407d40 f   GamePlayer.obj
 0001:00006f60       ?Attach@CGamePlayer@@UAE_NPBD@Z 00407f60 f   GamePlayer.obj
 0001:00007030       ?Add@CGamePlayer@@SA_NPBDPAVIPlayer@@@Z 00408030 f   GamePlayer.obj
 0001:000071d0       ??1?$pair@$$CBV?$basic_string@DU?$char_traits@D@std@@V?$allocator@D@2@@std@@PAVIPlayer@@@std@@QAE@XZ 004081d0 f i GamePlayer.obj
 0001:00007210       ?Del@CGamePlayer@@SA_NPBD@Z 00408210 f   GamePlayer.obj
 0001:00007350       ?Get@CGamePlayer@@SAPAVIPlayer@@PBD@Z 00408350 f   GamePlayer.obj
 0001:000074c0       ??0?$set@V?$basic_string@DU?$char_traits@D@std@@V?$allocator@D@2@@std@@U?$less@V?$basic_string@DU?$char_traits@D@std@@V?$allocator@D@2@@std@@@2@V?$allocator@V?$basic_string@DU?$char_traits@D@std@@V?$allocator@D@2@@std@@@2@@std@@QAE@ABU?$less@V?$basic_string@DU?$char_traits@D@std@@V?$allocator@D@2@@std@@@1@ABV?$allocator@V?$basic_string@DU?$char_traits@D@std@@V?$allocator@D@2@@std@@@1@@Z 004084c0 f i GamePlayer.obj
 0001:00007590       ??1?$vector@PAVICommand@@V?$allocator@PAVICommand@@@std@@@std@@QAE@XZ 00408590 f i GamePlayer.obj
 0001:000075c0       ??0?$map@V?$basic_string@DU?$char_traits@D@std@@V?$allocator@D@2@@std@@PAVIPlayer@@U?$less@V?$basic_string@DU?$char_traits@D@std@@V?$allocator@D@2@@std@@@2@V?$allocator@PAVIPlayer@@@2@@std@@QAE@ABU?$less@V?$basic_string@DU?$char_traits@D@std@@V?$allocator@D@2@@std@@@1@ABV?$allocator@PAVIPlayer@@@1@@Z 004085c0 f i GamePlayer.obj
 0001:00007690       ?insert@?$_Tree@V?$basic_string@DU?$char_traits@D@std@@V?$allocator@D@2@@std@@V12@U_Kfn@?$set@V?$basic_string@DU?$char_traits@D@std@@V?$allocator@D@2@@std@@U?$less@V?$basic_string@DU?$char_traits@D@std@@V?$allocator@D@2@@std@@@2@V?$allocator@V?$basic_string@DU?$char_traits@D@std@@V?$allocator@D@2@@std@@@2@@2@U?$less@V?$basic_string@DU?$char_traits@D@std@@V?$allocator@D@2@@std@@@2@V?$allocator@V?$basic_string@DU?$char_traits@D@std@@V?$allocator@D@2@@std@@@2@@std@@QAE?AU?$pair@Viterator@?$_Tree@V?$basic_string@DU?$char_traits@D@std@@V?$allocator@D@2@@std@@V12@U_Kfn@?$set@V?$basic_string@DU?$char_traits@D@std@@V?$allocator@D@2@@std@@U?$less@V?$basic_string@DU?$char_traits@D@std@@V?$allocator@D@2@@std@@@2@V?$allocator@V?$basic_string@DU?$char_traits@D@std@@V?$allocator@D@2@@std@@@2@@2@U?$less@V?$basic_string@DU?$char_traits@D@std@@V?$allocator@D@2@@std@@@2@V?$allocator@V?$basic_string@DU?$char_traits@D@std@@V?$allocator@D@2@@std@@@2@@std@@_N@2@ABV?$basic_string@DU?$char_traits@D@std@@V?$allocator@D@2@@2@@Z 00408690 f i GamePlayer.obj
 0001:00007800       ?compare@?$basic_string@DU?$char_traits@D@std@@V?$allocator@D@2@@std@@QBEHIIPBDI@Z 00408800 f i GamePlayer.obj
 0001:00007870       ?erase@?$_Tree@V?$basic_string@DU?$char_traits@D@std@@V?$allocator@D@2@@std@@V12@U_Kfn@?$set@V?$basic_string@DU?$char_traits@D@std@@V?$allocator@D@2@@std@@U?$less@V?$basic_string@DU?$char_traits@D@std@@V?$allocator@D@2@@std@@@2@V?$allocator@V?$basic_string@DU?$char_traits@D@std@@V?$allocator@D@2@@std@@@2@@2@U?$less@V?$basic_string@DU?$char_traits@D@std@@V?$allocator@D@2@@std@@@2@V?$allocator@V?$basic_string@DU?$char_traits@D@std@@V?$allocator@D@2@@std@@@2@@std@@QAE?AViterator@12@V312@@Z 00408870 f i GamePlayer.obj
 0001:00007da0       ?erase@?$_Tree@V?$basic_string@DU?$char_traits@D@std@@V?$allocator@D@2@@std@@V12@U_Kfn@?$set@V?$basic_string@DU?$char_traits@D@std@@V?$allocator@D@2@@std@@U?$less@V?$basic_string@DU?$char_traits@D@std@@V?$allocator@D@2@@std@@@2@V?$allocator@V?$basic_string@DU?$char_traits@D@std@@V?$allocator@D@2@@std@@@2@@2@U?$less@V?$basic_string@DU?$char_traits@D@std@@V?$allocator@D@2@@std@@@2@V?$allocator@V?$basic_string@DU?$char_traits@D@std@@V?$allocator@D@2@@std@@@2@@std@@QAE?AViterator@12@V312@0@Z 00408da0 f i GamePlayer.obj
 0001:00007ee0       ?erase@?$_Tree@V?$basic_string@DU?$char_traits@D@std@@V?$allocator@D@2@@std@@V12@U_Kfn@?$set@V?$basic_string@DU?$char_traits@D@std@@V?$allocator@D@2@@std@@U?$less@V?$basic_string@DU?$char_traits@D@std@@V?$allocator@D@2@@std@@@2@V?$allocator@V?$basic_string@DU?$char_traits@D@std@@V?$allocator@D@2@@std@@@2@@2@U?$less@V?$basic_string@DU?$char_traits@D@std@@V?$allocator@D@2@@std@@@2@V?$allocator@V?$basic_string@DU?$char_traits@D@std@@V?$allocator@D@2@@std@@@2@@std@@QAEIABV?$basic_string@DU?$char_traits@D@std@@V?$allocator@D@2@@2@@Z 00408ee0 f i GamePlayer.obj
 0001:00007f30       ?find@?$_Tree@V?$basic_string@DU?$char_traits@D@std@@V?$allocator@D@2@@std@@V12@U_Kfn@?$set@V?$basic_string@DU?$char_traits@D@std@@V?$allocator@D@2@@std@@U?$less@V?$basic_string@DU?$char_traits@D@std@@V?$allocator@D@2@@std@@@2@V?$allocator@V?$basic_string@DU?$char_traits@D@std@@V?$allocator@D@2@@std@@@2@@2@U?$less@V?$basic_string@DU?$char_traits@D@std@@V?$allocator@D@2@@std@@@2@V?$allocator@V?$basic_string@DU?$char_traits@D@std@@V?$allocator@D@2@@std@@@2@@std@@QAE?AViterator@12@ABV?$basic_string@DU?$char_traits@D@std@@V?$allocator@D@2@@2@@Z 00408f30 f i GamePlayer.obj
 0001:00007fc0       ?insert@?$_Tree@V?$basic_string@DU?$char_traits@D@std@@V?$allocator@D@2@@std@@U?$pair@$$CBV?$basic_string@DU?$char_traits@D@std@@V?$allocator@D@2@@std@@PAVIPlayer@@@2@U_Kfn@?$map@V?$basic_string@DU?$char_traits@D@std@@V?$allocator@D@2@@std@@PAVIPlayer@@U?$less@V?$basic_string@DU?$char_traits@D@std@@V?$allocator@D@2@@std@@@2@V?$allocator@PAVIPlayer@@@2@@2@U?$less@V?$basic_string@DU?$char_traits@D@std@@V?$allocator@D@2@@std@@@2@V?$allocator@PAVIPlayer@@@2@@std@@QAE?AU?$pair@Viterator@?$_Tree@V?$basic_string@DU?$char_traits@D@std@@V?$allocator@D@2@@std@@U?$pair@$$CBV?$basic_string@DU?$char_traits@D@std@@V?$allocator@D@2@@std@@PAVIPlayer@@@2@U_Kfn@?$map@V?$basic_string@DU?$char_traits@D@std@@V?$allocator@D@2@@std@@PAVIPlayer@@U?$less@V?$basic_string@DU?$char_traits@D@std@@V?$allocator@D@2@@std@@@2@V?$allocator@PAVIPlayer@@@2@@2@U?$less@V?$basic_string@DU?$char_traits@D@std@@V?$allocator@D@2@@std@@@2@V?$allocator@PAVIPlayer@@@2@@std@@_N@2@ABU?$pair@$$CBV?$basic_string@DU?$char_traits@D@std@@V?$allocator@D@2@@std@@PAVIPlayer@@@2@@Z 00408fc0 f i GamePlayer.obj
 0001:00008130       ?erase@?$_Tree@V?$basic_string@DU?$char_traits@D@std@@V?$allocator@D@2@@std@@U?$pair@$$CBV?$basic_string@DU?$char_traits@D@std@@V?$allocator@D@2@@std@@PAVIPlayer@@@2@U_Kfn@?$map@V?$basic_string@DU?$char_traits@D@std@@V?$allocator@D@2@@std@@PAVIPlayer@@U?$less@V?$basic_string@DU?$char_traits@D@std@@V?$allocator@D@2@@std@@@2@V?$allocator@PAVIPlayer@@@2@@2@U?$less@V?$basic_string@DU?$char_traits@D@std@@V?$allocator@D@2@@std@@@2@V?$allocator@PAVIPlayer@@@2@@std@@QAE?AViterator@12@V312@@Z 00409130 f i GamePlayer.obj
 0001:00008660       ?erase@?$_Tree@V?$basic_string@DU?$char_traits@D@std@@V?$allocator@D@2@@std@@U?$pair@$$CBV?$basic_string@DU?$char_traits@D@std@@V?$allocator@D@2@@std@@PAVIPlayer@@@2@U_Kfn@?$map@V?$basic_string@DU?$char_traits@D@std@@V?$allocator@D@2@@std@@PAVIPlayer@@U?$less@V?$basic_string@DU?$char_traits@D@std@@V?$allocator@D@2@@std@@@2@V?$allocator@PAVIPlayer@@@2@@2@U?$less@V?$basic_string@DU?$char_traits@D@std@@V?$allocator@D@2@@std@@@2@V?$allocator@PAVIPlayer@@@2@@std@@QAE?AViterator@12@V312@0@Z 00409660 f i GamePlayer.obj
 0001:000087a0       ?find@?$_Tree@V?$basic_string@DU?$char_traits@D@std@@V?$allocator@D@2@@std@@U?$pair@$$CBV?$basic_string@DU?$char_traits@D@std@@V?$allocator@D@2@@std@@PAVIPlayer@@@2@U_Kfn@?$map@V?$basic_string@DU?$char_traits@D@std@@V?$allocator@D@2@@std@@PAVIPlayer@@U?$less@V?$basic_string@DU?$char_traits@D@std@@V?$allocator@D@2@@std@@@2@V?$allocator@PAVIPlayer@@@2@@2@U?$less@V?$basic_string@DU?$char_traits@D@std@@V?$allocator@D@2@@std@@@2@V?$allocator@PAVIPlayer@@@2@@std@@QAE?AViterator@12@ABV?$basic_string@DU?$char_traits@D@std@@V?$allocator@D@2@@2@@Z 004097a0 f i GamePlayer.obj
 0001:00008830       ?insert@?$_Tree@JU?$pair@$$CBJPAVCBuffer@Win32@OnlineGameLib@@@std@@U_Kfn@?$map@JPAVCBuffer@Win32@OnlineGameLib@@U?$less@J@std@@V?$allocator@PAVCBuffer@Win32@OnlineGameLib@@@5@@2@U?$less@J@2@V?$allocator@PAVCBuffer@Win32@OnlineGameLib@@@2@@std@@QAE?AU?$pair@Viterator@?$_Tree@JU?$pair@$$CBJPAVCBuffer@Win32@OnlineGameLib@@@std@@U_Kfn@?$map@JPAVCBuffer@Win32@OnlineGameLib@@U?$less@J@std@@V?$allocator@PAVCBuffer@Win32@OnlineGameLib@@@5@@2@U?$less@J@2@V?$allocator@PAVCBuffer@Win32@OnlineGameLib@@@2@@std@@_N@2@ABU?$pair@$$CBJPAVCBuffer@Win32@OnlineGameLib@@@2@@Z 00409830 f i GamePlayer.obj
 0001:00008960       ?erase@?$_Tree@JU?$pair@$$CBJPAVCBuffer@Win32@OnlineGameLib@@@std@@U_Kfn@?$map@JPAVCBuffer@Win32@OnlineGameLib@@U?$less@J@std@@V?$allocator@PAVCBuffer@Win32@OnlineGameLib@@@5@@2@U?$less@J@2@V?$allocator@PAVCBuffer@Win32@OnlineGameLib@@@2@@std@@QAE?AViterator@12@V312@@Z 00409960 f i GamePlayer.obj
 0001:00008e80       ?erase@?$_Tree@JU?$pair@$$CBJPAVCBuffer@Win32@OnlineGameLib@@@std@@U_Kfn@?$map@JPAVCBuffer@Win32@OnlineGameLib@@U?$less@J@std@@V?$allocator@PAVCBuffer@Win32@OnlineGameLib@@@5@@2@U?$less@J@2@V?$allocator@PAVCBuffer@Win32@OnlineGameLib@@@2@@std@@QAE?AViterator@12@V312@0@Z 00409e80 f i GamePlayer.obj
 0001:00008fb0       ??0?$pair@Viterator@?$_Tree@V?$basic_string@DU?$char_traits@D@std@@V?$allocator@D@2@@std@@V12@U_Kfn@?$set@V?$basic_string@DU?$char_traits@D@std@@V?$allocator@D@2@@std@@U?$less@V?$basic_string@DU?$char_traits@D@std@@V?$allocator@D@2@@std@@@2@V?$allocator@V?$basic_string@DU?$char_traits@D@std@@V?$allocator@D@2@@std@@@2@@2@U?$less@V?$basic_string@DU?$char_traits@D@std@@V?$allocator@D@2@@std@@@2@V?$allocator@V?$basic_string@DU?$char_traits@D@std@@V?$allocator@D@2@@std@@@2@@std@@_N@std@@QAE@ABViterator@?$_Tree@V?$basic_string@DU?$char_traits@D@std@@V?$allocator@D@2@@std@@V12@U_Kfn@?$set@V?$basic_string@DU?$char_traits@D@std@@V?$allocator@D@2@@std@@U?$less@V?$basic_string@DU?$char_traits@D@std@@V?$allocator@D@2@@std@@@2@V?$allocator@V?$basic_string@DU?$char_traits@D@std@@V?$allocator@D@2@@std@@@2@@2@U?$less@V?$basic_string@DU?$char_traits@D@std@@V?$allocator@D@2@@std@@@2@V?$allocator@V?$basic_string@DU?$char_traits@D@std@@V?$allocator@D@2@@std@@@2@@1@AB_N@Z 00409fb0 f i GamePlayer.obj
 0001:00008fd0       ??0?$pair@Viterator@?$_Tree@V?$basic_string@DU?$char_traits@D@std@@V?$allocator@D@2@@std@@U?$pair@$$CBV?$basic_string@DU?$char_traits@D@std@@V?$allocator@D@2@@std@@PAVIPlayer@@@2@U_Kfn@?$map@V?$basic_string@DU?$char_traits@D@std@@V?$allocator@D@2@@std@@PAVIPlayer@@U?$less@V?$basic_string@DU?$char_traits@D@std@@V?$allocator@D@2@@std@@@2@V?$allocator@PAVIPlayer@@@2@@2@U?$less@V?$basic_string@DU?$char_traits@D@std@@V?$allocator@D@2@@std@@@2@V?$allocator@PAVIPlayer@@@2@@std@@_N@std@@QAE@ABViterator@?$_Tree@V?$basic_string@DU?$char_traits@D@std@@V?$allocator@D@2@@std@@U?$pair@$$CBV?$basic_string@DU?$char_traits@D@std@@V?$allocator@D@2@@std@@PAVIPlayer@@@2@U_Kfn@?$map@V?$basic_string@DU?$char_traits@D@std@@V?$allocator@D@2@@std@@PAVIPlayer@@U?$less@V?$basic_string@DU?$char_traits@D@std@@V?$allocator@D@2@@std@@@2@V?$allocator@PAVIPlayer@@@2@@2@U?$less@V?$basic_string@DU?$char_traits@D@std@@V?$allocator@D@2@@std@@@2@V?$allocator@PAVIPlayer@@@2@@1@AB_N@Z 00409fd0 f i GamePlayer.obj
 0001:00008ff0       ?lower_bound@?$_Tree@V?$basic_string@DU?$char_traits@D@std@@V?$allocator@D@2@@std@@V12@U_Kfn@?$set@V?$basic_string@DU?$char_traits@D@std@@V?$allocator@D@2@@std@@U?$less@V?$basic_string@DU?$char_traits@D@std@@V?$allocator@D@2@@std@@@2@V?$allocator@V?$basic_string@DU?$char_traits@D@std@@V?$allocator@D@2@@std@@@2@@2@U?$less@V?$basic_string@DU?$char_traits@D@std@@V?$allocator@D@2@@std@@@2@V?$allocator@V?$basic_string@DU?$char_traits@D@std@@V?$allocator@D@2@@std@@@2@@std@@QAE?AViterator@12@ABV?$basic_string@DU?$char_traits@D@std@@V?$allocator@D@2@@2@@Z 00409ff0 f i GamePlayer.obj
 0001:00009010       ?equal_range@?$_Tree@V?$basic_string@DU?$char_traits@D@std@@V?$allocator@D@2@@std@@V12@U_Kfn@?$set@V?$basic_string@DU?$char_traits@D@std@@V?$allocator@D@2@@std@@U?$less@V?$basic_string@DU?$char_traits@D@std@@V?$allocator@D@2@@std@@@2@V?$allocator@V?$basic_string@DU?$char_traits@D@std@@V?$allocator@D@2@@std@@@2@@2@U?$less@V?$basic_string@DU?$char_traits@D@std@@V?$allocator@D@2@@std@@@2@V?$allocator@V?$basic_string@DU?$char_traits@D@std@@V?$allocator@D@2@@std@@@2@@std@@QAE?AU?$pair@Viterator@?$_Tree@V?$basic_string@DU?$char_traits@D@std@@V?$allocator@D@2@@std@@V12@U_Kfn@?$set@V?$basic_string@DU?$char_traits@D@std@@V?$allocator@D@2@@std@@U?$less@V?$basic_string@DU?$char_traits@D@std@@V?$allocator@D@2@@std@@@2@V?$allocator@V?$basic_string@DU?$char_traits@D@std@@V?$allocator@D@2@@std@@@2@@2@U?$less@V?$basic_string@DU?$char_traits@D@std@@V?$allocator@D@2@@std@@@2@V?$allocator@V?$basic_string@DU?$char_traits@D@std@@V?$allocator@D@2@@std@@@2@@std@@V123@@2@ABV?$basic_string@DU?$char_traits@D@std@@V?$allocator@D@2@@2@@Z 0040a010 f i GamePlayer.obj
 0001:00009040       ?_Erase@?$_Tree@V?$basic_string@DU?$char_traits@D@std@@V?$allocator@D@2@@std@@V12@U_Kfn@?$set@V?$basic_string@DU?$char_traits@D@std@@V?$allocator@D@2@@std@@U?$less@V?$basic_string@DU?$char_traits@D@std@@V?$allocator@D@2@@std@@@2@V?$allocator@V?$basic_string@DU?$char_traits@D@std@@V?$allocator@D@2@@std@@@2@@2@U?$less@V?$basic_string@DU?$char_traits@D@std@@V?$allocator@D@2@@std@@@2@V?$allocator@V?$basic_string@DU?$char_traits@D@std@@V?$allocator@D@2@@std@@@2@@std@@IAEXPAU_Node@12@@Z 0040a040 f i GamePlayer.obj
 0001:000090f0       ?_Insert@?$_Tree@V?$basic_string@DU?$char_traits@D@std@@V?$allocator@D@2@@std@@V12@U_Kfn@?$set@V?$basic_string@DU?$char_traits@D@std@@V?$allocator@D@2@@std@@U?$less@V?$basic_string@DU?$char_traits@D@std@@V?$allocator@D@2@@std@@@2@V?$allocator@V?$basic_string@DU?$char_traits@D@std@@V?$allocator@D@2@@std@@@2@@2@U?$less@V?$basic_string@DU?$char_traits@D@std@@V?$allocator@D@2@@std@@@2@V?$allocator@V?$basic_string@DU?$char_traits@D@std@@V?$allocator@D@2@@std@@@2@@std@@IAE?AViterator@12@PAU_Node@12@0ABV?$basic_string@DU?$char_traits@D@std@@V?$allocator@D@2@@2@@Z 0040a0f0 f i GamePlayer.obj
 0001:00009400       ?insert@?$vector@PAVICommand@@V?$allocator@PAVICommand@@@std@@@std@@QAEXPAPAVICommand@@IABQAV3@@Z 0040a400 f i GamePlayer.obj
 0001:00009610       ?lower_bound@?$_Tree@V?$basic_string@DU?$char_traits@D@std@@V?$allocator@D@2@@std@@U?$pair@$$CBV?$basic_string@DU?$char_traits@D@std@@V?$allocator@D@2@@std@@PAVIPlayer@@@2@U_Kfn@?$map@V?$basic_string@DU?$char_traits@D@std@@V?$allocator@D@2@@std@@PAVIPlayer@@U?$less@V?$basic_string@DU?$char_traits@D@std@@V?$allocator@D@2@@std@@@2@V?$allocator@PAVIPlayer@@@2@@2@U?$less@V?$basic_string@DU?$char_traits@D@std@@V?$allocator@D@2@@std@@@2@V?$allocator@PAVIPlayer@@@2@@std@@QAE?AViterator@12@ABV?$basic_string@DU?$char_traits@D@std@@V?$allocator@D@2@@2@@Z 0040a610 f i GamePlayer.obj
 0001:00009630       ?_Erase@?$_Tree@V?$basic_string@DU?$char_traits@D@std@@V?$allocator@D@2@@std@@U?$pair@$$CBV?$basic_string@DU?$char_traits@D@std@@V?$allocator@D@2@@std@@PAVIPlayer@@@2@U_Kfn@?$map@V?$basic_string@DU?$char_traits@D@std@@V?$allocator@D@2@@std@@PAVIPlayer@@U?$less@V?$basic_string@DU?$char_traits@D@std@@V?$allocator@D@2@@std@@@2@V?$allocator@PAVIPlayer@@@2@@2@U?$less@V?$basic_string@DU?$char_traits@D@std@@V?$allocator@D@2@@std@@@2@V?$allocator@PAVIPlayer@@@2@@std@@IAEXPAU_Node@12@@Z 0040a630 f i GamePlayer.obj
 0001:000096e0       ?_Insert@?$_Tree@V?$basic_string@DU?$char_traits@D@std@@V?$allocator@D@2@@std@@U?$pair@$$CBV?$basic_string@DU?$char_traits@D@std@@V?$allocator@D@2@@std@@PAVIPlayer@@@2@U_Kfn@?$map@V?$basic_string@DU?$char_traits@D@std@@V?$allocator@D@2@@std@@PAVIPlayer@@U?$less@V?$basic_string@DU?$char_traits@D@std@@V?$allocator@D@2@@std@@@2@V?$allocator@PAVIPlayer@@@2@@2@U?$less@V?$basic_string@DU?$char_traits@D@std@@V?$allocator@D@2@@std@@@2@V?$allocator@PAVIPlayer@@@2@@std@@IAE?AViterator@12@PAU_Node@12@0ABU?$pair@$$CBV?$basic_string@DU?$char_traits@D@std@@V?$allocator@D@2@@std@@PAVIPlayer@@@2@@Z 0040a6e0 f i GamePlayer.obj
 0001:000099f0       ?lower_bound@?$_Tree@JU?$pair@$$CBJPAVCBuffer@Win32@OnlineGameLib@@@std@@U_Kfn@?$map@JPAVCBuffer@Win32@OnlineGameLib@@U?$less@J@std@@V?$allocator@PAVCBuffer@Win32@OnlineGameLib@@@5@@2@U?$less@J@2@V?$allocator@PAVCBuffer@Win32@OnlineGameLib@@@2@@std@@QAE?AViterator@12@ABJ@Z 0040a9f0 f i GamePlayer.obj
 0001:00009a10       ?_Erase@?$_Tree@JU?$pair@$$CBJPAVCBuffer@Win32@OnlineGameLib@@@std@@U_Kfn@?$map@JPAVCBuffer@Win32@OnlineGameLib@@U?$less@J@std@@V?$allocator@PAVCBuffer@Win32@OnlineGameLib@@@5@@2@U?$less@J@2@V?$allocator@PAVCBuffer@Win32@OnlineGameLib@@@2@@std@@IAEXPAU_Node@12@@Z 0040aa10 f i GamePlayer.obj
 0001:00009aa0       ?_Insert@?$_Tree@JU?$pair@$$CBJPAVCBuffer@Win32@OnlineGameLib@@@std@@U_Kfn@?$map@JPAVCBuffer@Win32@OnlineGameLib@@U?$less@J@std@@V?$allocator@PAVCBuffer@Win32@OnlineGameLib@@@5@@2@U?$less@J@2@V?$allocator@PAVCBuffer@Win32@OnlineGameLib@@@2@@std@@IAE?AViterator@12@PAU_Node@12@0ABU?$pair@$$CBJPAVCBuffer@Win32@OnlineGameLib@@@2@@Z 0040aaa0 f i GamePlayer.obj
 0001:00009da0       ?_Inc@const_iterator@?$_Tree@JU?$pair@$$CBJPAVCBuffer@Win32@OnlineGameLib@@@std@@U_Kfn@?$map@JPAVCBuffer@Win32@OnlineGameLib@@U?$less@J@std@@V?$allocator@PAVCBuffer@Win32@OnlineGameLib@@@5@@2@U?$less@J@2@V?$allocator@PAVCBuffer@Win32@OnlineGameLib@@@2@@std@@QAEXXZ 0040ada0 f i GamePlayer.obj
 0001:00009e50       ?_Lbound@?$_Tree@V?$basic_string@DU?$char_traits@D@std@@V?$allocator@D@2@@std@@V12@U_Kfn@?$set@V?$basic_string@DU?$char_traits@D@std@@V?$allocator@D@2@@std@@U?$less@V?$basic_string@DU?$char_traits@D@std@@V?$allocator@D@2@@std@@@2@V?$allocator@V?$basic_string@DU?$char_traits@D@std@@V?$allocator@D@2@@std@@@2@@2@U?$less@V?$basic_string@DU?$char_traits@D@std@@V?$allocator@D@2@@std@@@2@V?$allocator@V?$basic_string@DU?$char_traits@D@std@@V?$allocator@D@2@@std@@@2@@std@@IBEPAU_Node@12@ABV?$basic_string@DU?$char_traits@D@std@@V?$allocator@D@2@@2@@Z 0040ae50 f i GamePlayer.obj
 0001:00009f10       ?_Dec@const_iterator@?$_Tree@V?$basic_string@DU?$char_traits@D@std@@V?$allocator@D@2@@std@@V12@U_Kfn@?$set@V?$basic_string@DU?$char_traits@D@std@@V?$allocator@D@2@@std@@U?$less@V?$basic_string@DU?$char_traits@D@std@@V?$allocator@D@2@@std@@@2@V?$allocator@V?$basic_string@DU?$char_traits@D@std@@V?$allocator@D@2@@std@@@2@@2@U?$less@V?$basic_string@DU?$char_traits@D@std@@V?$allocator@D@2@@std@@@2@V?$allocator@V?$basic_string@DU?$char_traits@D@std@@V?$allocator@D@2@@std@@@2@@std@@QAEXXZ 0040af10 f i GamePlayer.obj
 0001:00009fd0       ?_Lbound@?$_Tree@V?$basic_string@DU?$char_traits@D@std@@V?$allocator@D@2@@std@@U?$pair@$$CBV?$basic_string@DU?$char_traits@D@std@@V?$allocator@D@2@@std@@PAVIPlayer@@@2@U_Kfn@?$map@V?$basic_string@DU?$char_traits@D@std@@V?$allocator@D@2@@std@@PAVIPlayer@@U?$less@V?$basic_string@DU?$char_traits@D@std@@V?$allocator@D@2@@std@@@2@V?$allocator@PAVIPlayer@@@2@@2@U?$less@V?$basic_string@DU?$char_traits@D@std@@V?$allocator@D@2@@std@@@2@V?$allocator@PAVIPlayer@@@2@@std@@IBEPAU_Node@12@ABV?$basic_string@DU?$char_traits@D@std@@V?$allocator@D@2@@2@@Z 0040afd0 f i GamePlayer.obj
 0001:0000a090       ?_Dec@const_iterator@?$_Tree@V?$basic_string@DU?$char_traits@D@std@@V?$allocator@D@2@@std@@U?$pair@$$CBV?$basic_string@DU?$char_traits@D@std@@V?$allocator@D@2@@std@@PAVIPlayer@@@2@U_Kfn@?$map@V?$basic_string@DU?$char_traits@D@std@@V?$allocator@D@2@@std@@PAVIPlayer@@U?$less@V?$basic_string@DU?$char_traits@D@std@@V?$allocator@D@2@@std@@@2@V?$allocator@PAVIPlayer@@@2@@2@U?$less@V?$basic_string@DU?$char_traits@D@std@@V?$allocator@D@2@@std@@@2@V?$allocator@PAVIPlayer@@@2@@std@@QAEXXZ 0040b090 f i GamePlayer.obj
 0001:0000a150       ?_Lbound@?$_Tree@JU?$pair@$$CBJPAVCBuffer@Win32@OnlineGameLib@@@std@@U_Kfn@?$map@JPAVCBuffer@Win32@OnlineGameLib@@U?$less@J@std@@V?$allocator@PAVCBuffer@Win32@OnlineGameLib@@@5@@2@U?$less@J@2@V?$allocator@PAVCBuffer@Win32@OnlineGameLib@@@2@@std@@IBEPAU_Node@12@ABJ@Z 0040b150 f i GamePlayer.obj
 0001:0000a1a0       ?_Dec@const_iterator@?$_Tree@JU?$pair@$$CBJPAVCBuffer@Win32@OnlineGameLib@@@std@@U_Kfn@?$map@JPAVCBuffer@Win32@OnlineGameLib@@U?$less@J@std@@V?$allocator@PAVCBuffer@Win32@OnlineGameLib@@@5@@2@U?$less@J@2@V?$allocator@PAVCBuffer@Win32@OnlineGameLib@@@2@@std@@QAEXXZ 0040b1a0 f i GamePlayer.obj
 0001:0000a260       ?_Ubound@?$_Tree@V?$basic_string@DU?$char_traits@D@std@@V?$allocator@D@2@@std@@V12@U_Kfn@?$set@V?$basic_string@DU?$char_traits@D@std@@V?$allocator@D@2@@std@@U?$less@V?$basic_string@DU?$char_traits@D@std@@V?$allocator@D@2@@std@@@2@V?$allocator@V?$basic_string@DU?$char_traits@D@std@@V?$allocator@D@2@@std@@@2@@2@U?$less@V?$basic_string@DU?$char_traits@D@std@@V?$allocator@D@2@@std@@@2@V?$allocator@V?$basic_string@DU?$char_traits@D@std@@V?$allocator@D@2@@std@@@2@@std@@IBEPAU_Node@12@ABV?$basic_string@DU?$char_traits@D@std@@V?$allocator@D@2@@2@@Z 0040b260 f i GamePlayer.obj
 0001:0000a330       ?_Inc@const_iterator@?$_Tree@V?$basic_string@DU?$char_traits@D@std@@V?$allocator@D@2@@std@@V12@U_Kfn@?$set@V?$basic_string@DU?$char_traits@D@std@@V?$allocator@D@2@@std@@U?$less@V?$basic_string@DU?$char_traits@D@std@@V?$allocator@D@2@@std@@@2@V?$allocator@V?$basic_string@DU?$char_traits@D@std@@V?$allocator@D@2@@std@@@2@@2@U?$less@V?$basic_string@DU?$char_traits@D@std@@V?$allocator@D@2@@std@@@2@V?$allocator@V?$basic_string@DU?$char_traits@D@std@@V?$allocator@D@2@@std@@@2@@std@@QAEXXZ 0040b330 f i GamePlayer.obj
 0001:0000a3e0       ?_Inc@const_iterator@?$_Tree@V?$basic_string@DU?$char_traits@D@std@@V?$allocator@D@2@@std@@U?$pair@$$CBV?$basic_string@DU?$char_traits@D@std@@V?$allocator@D@2@@std@@PAVIPlayer@@@2@U_Kfn@?$map@V?$basic_string@DU?$char_traits@D@std@@V?$allocator@D@2@@std@@PAVIPlayer@@U?$less@V?$basic_string@DU?$char_traits@D@std@@V?$allocator@D@2@@std@@@2@V?$allocator@PAVIPlayer@@@2@@2@U?$less@V?$basic_string@DU?$char_traits@D@std@@V?$allocator@D@2@@std@@@2@V?$allocator@PAVIPlayer@@@2@@std@@QAEXXZ 0040b3e0 f i GamePlayer.obj
 0001:0000a490       ?Execute@?$CTaskCommand@VCGamePlayer@@@@UAEIXZ 0040b490 f i GamePlayer.obj
 0001:0000a4a0       ?ToString@Win32@OnlineGameLib@@YA?AV?$basic_string@DU?$char_traits@D@std@@V?$allocator@D@2@@std@@J@Z 0040b4a0 f i GamePlayer.obj
 0001:0000a6a0       ??0ios_base@std@@IAE@XZ    0040b6a0 f i GamePlayer.obj
 0001:0000a6b0       ??_Gios_base@std@@UAEPAXI@Z 0040b6b0 f i GamePlayer.obj
 0001:0000a6b0       ??_Eios_base@std@@UAEPAXI@Z 0040b6b0 f i GamePlayer.obj
 0001:0000a6d0       ??0strstreambuf@std@@QAE@H@Z 0040b6d0 f i GamePlayer.obj
 0001:0000a7c0       ??_Gstrstreambuf@std@@UAEPAXI@Z 0040b7c0 f i GamePlayer.obj
 0001:0000a7c0       ??_Estrstreambuf@std@@UAEPAXI@Z 0040b7c0 f i GamePlayer.obj
 0001:0000a7e0       ??_Gstrstream@std@@UAEPAXI@Z 0040b7e0 f i GamePlayer.obj
 0001:0000a7e0       ??_Estrstream@std@@UAEPAXI@Z 0040b7e0 f i GamePlayer.obj
 0001:0000a810       ??_Dstrstream@std@@QAEXXZ  0040b810 f i GamePlayer.obj
 0001:0000a830       ?put@?$basic_ostream@DU?$char_traits@D@std@@@std@@QAEAAV12@D@Z 0040b830 f i GamePlayer.obj
 0001:0000a9a0       ??1?$basic_ios@DU?$char_traits@D@std@@@std@@UAE@XZ 0040b9a0 f i GamePlayer.obj
 0001:0000a9b0       ??1?$basic_streambuf@DU?$char_traits@D@std@@@std@@UAE@XZ 0040b9b0 f i GamePlayer.obj
 0001:0000aa00       ?overflow@?$basic_streambuf@DU?$char_traits@D@std@@@std@@MAEHH@Z 0040ba00 f i GamePlayer.obj
 0001:0000aa10       ?pbackfail@?$basic_streambuf@DU?$char_traits@D@std@@@std@@MAEHH@Z 0040ba10 f i GamePlayer.obj
 0001:0000aa20       ?showmanyc@?$basic_streambuf@DU?$char_traits@D@std@@@std@@MAEHXZ 0040ba20 f i GamePlayer.obj
 0001:0000aa30       ?underflow@?$basic_streambuf@DU?$char_traits@D@std@@@std@@MAEHXZ 0040ba30 f i GamePlayer.obj
 0001:0000aa40       ?uflow@?$basic_streambuf@DU?$char_traits@D@std@@@std@@MAEHXZ 0040ba40 f i GamePlayer.obj
 0001:0000aa70       ?xsgetn@?$basic_streambuf@DU?$char_traits@D@std@@@std@@MAEHPADH@Z 0040ba70 f i GamePlayer.obj
 0001:0000ab10       ?xsputn@?$basic_streambuf@DU?$char_traits@D@std@@@std@@MAEHPBDH@Z 0040bb10 f i GamePlayer.obj
 0001:0000abb0       ?seekoff@?$basic_streambuf@DU?$char_traits@D@std@@@std@@MAE?AV?$fpos@H@2@JW4seekdir@ios_base@2@H@Z 0040bbb0 f i GamePlayer.obj
 0001:0000abe0       ?seekpos@?$basic_streambuf@DU?$char_traits@D@std@@@std@@MAE?AV?$fpos@H@2@V32@H@Z 0040bbe0 f i GamePlayer.obj
 0001:0000ac10       ?setbuf@?$basic_streambuf@DU?$char_traits@D@std@@@std@@MAEPAV12@PADH@Z 0040bc10 f i GamePlayer.obj
 0001:0000ac20       ?sync@?$basic_streambuf@DU?$char_traits@D@std@@@std@@MAEHXZ 0040bc20 f i GamePlayer.obj
 0001:0000ac30       ?imbue@?$basic_streambuf@DU?$char_traits@D@std@@@std@@MAEXABVlocale@2@@Z 0040bc30 f i GamePlayer.obj
 0001:0000ac40       ??0?$basic_iostream@DU?$char_traits@D@std@@@std@@QAE@PAV?$basic_streambuf@DU?$char_traits@D@std@@@1@@Z 0040bc40 f i GamePlayer.obj
 0001:0000ad10       ??1?$basic_istream@DU?$char_traits@D@std@@@std@@UAE@XZ 0040bd10 f i GamePlayer.obj
 0001:0000ad20       ??1?$basic_iostream@DU?$char_traits@D@std@@@std@@UAE@XZ 0040bd20 f i GamePlayer.obj
 0001:0000ad60       ??_G?$basic_ostream@DU?$char_traits@D@std@@@std@@UAEPAXI@Z 0040bd60 f i GamePlayer.obj
 0001:0000ad60       ??_E?$basic_ostream@DU?$char_traits@D@std@@@std@@UAEPAXI@Z 0040bd60 f i GamePlayer.obj
 0001:0000ad90       ??_E?$basic_ios@DU?$char_traits@D@std@@@std@@UAEPAXI@Z 0040bd90 f i GamePlayer.obj
 0001:0000ad90       ??_G?$basic_ios@DU?$char_traits@D@std@@@std@@UAEPAXI@Z 0040bd90 f i GamePlayer.obj
 0001:0000adb0       ??_G?$basic_istream@DU?$char_traits@D@std@@@std@@UAEPAXI@Z 0040bdb0 f i GamePlayer.obj
 0001:0000adb0       ??_E?$basic_istream@DU?$char_traits@D@std@@@std@@UAEPAXI@Z 0040bdb0 f i GamePlayer.obj
 0001:0000ade0       ??_G?$basic_streambuf@DU?$char_traits@D@std@@@std@@UAEPAXI@Z 0040bde0 f i GamePlayer.obj
 0001:0000ade0       ??_E?$basic_streambuf@DU?$char_traits@D@std@@@std@@UAEPAXI@Z 0040bde0 f i GamePlayer.obj
 0001:0000ae00       ??_E?$basic_iostream@DU?$char_traits@D@std@@@std@@UAEPAXI@Z 0040be00 f i GamePlayer.obj
 0001:0000ae00       ??_G?$basic_iostream@DU?$char_traits@D@std@@@std@@UAEPAXI@Z 0040be00 f i GamePlayer.obj
 0001:0000ae30       ??1sentry@?$basic_ostream@DU?$char_traits@D@std@@@std@@QAE@XZ 0040be30 f i GamePlayer.obj
 0001:0000aea0       ??0?$fpos@H@std@@QAE@J@Z   0040bea0 f i GamePlayer.obj
 0001:0000aee0       ?opfx@?$basic_ostream@DU?$char_traits@D@std@@@std@@QAE_NXZ 0040bee0 f i GamePlayer.obj
 0001:0000af60       ?_Distance@std@@YAXViterator@?$_Tree@V?$basic_string@DU?$char_traits@D@std@@V?$allocator@D@2@@std@@V12@U_Kfn@?$set@V?$basic_string@DU?$char_traits@D@std@@V?$allocator@D@2@@std@@U?$less@V?$basic_string@DU?$char_traits@D@std@@V?$allocator@D@2@@std@@@2@V?$allocator@V?$basic_string@DU?$char_traits@D@std@@V?$allocator@D@2@@std@@@2@@2@U?$less@V?$basic_string@DU?$char_traits@D@std@@V?$allocator@D@2@@std@@@2@V?$allocator@V?$basic_string@DU?$char_traits@D@std@@V?$allocator@D@2@@std@@@2@@1@0AAI@Z 0040bf60 f i GamePlayer.obj
 0001:0000af90       ?_Construct@std@@YAXPAV?$basic_string@DU?$char_traits@D@std@@V?$allocator@D@2@@1@ABV21@@Z 0040bf90 f i GamePlayer.obj
 0001:0000b100       ??3@YAXPAX0@Z              0040c100 f i GamePlayer.obj
 0001:0000b110       ?_Construct@std@@YAXPAU?$pair@$$CBV?$basic_string@DU?$char_traits@D@std@@V?$allocator@D@2@@std@@PAVIPlayer@@@1@ABU21@@Z 0040c110 f i GamePlayer.obj
 0001:0000b260       ?_Construct@std@@YAXPAU?$pair@$$CBJPAVCBuffer@Win32@OnlineGameLib@@@1@ABU21@@Z 0040c260 f i GamePlayer.obj
 0001:0000b280       ??_G?$CTaskCommand@VCGamePlayer@@@@UAEPAXI@Z 0040c280 f i GamePlayer.obj
 0001:0000b280       ??_E?$CTaskCommand@VCGamePlayer@@@@UAEPAXI@Z 0040c280 f i GamePlayer.obj
 0001:0000b2a0       ??1?$CTaskCommand@VCGamePlayer@@@@UAE@XZ 0040c2a0 f i GamePlayer.obj
 0001:0000b2b0       ??_EICommand@@UAEPAXI@Z    0040c2b0 f i GamePlayer.obj
 0001:0000b2b0       ??_GICommand@@UAEPAXI@Z    0040c2b0 f i GamePlayer.obj
 0001:0000b2d0       ?compare@?$basic_string@DU?$char_traits@D@std@@V?$allocator@D@2@@std@@QBEHABV12@@Z 0040c2d0 f i GamePlayer.obj
 0001:0000b320       ??6?$basic_ostream@DU?$char_traits@D@std@@@std@@QAEAAV01@J@Z 0040c320 f i GamePlayer.obj
 0001:0000b560       ??1bad_cast@std@@UAE@XZ    0040c560 f i GamePlayer.obj
 0001:0000b570       ?_Doraise@bad_cast@std@@MBEXXZ 0040c570 f i GamePlayer.obj
 0001:0000b590       ??_Ebad_cast@std@@UAEPAXI@Z 0040c590 f i GamePlayer.obj
 0001:0000b590       ??_Gbad_cast@std@@UAEPAXI@Z 0040c590 f i GamePlayer.obj
 0001:0000b5b0       ??0bad_cast@std@@QAE@ABV01@@Z 0040c5b0 f i GamePlayer.obj
 0001:0000b5d0       ??Bid@locale@std@@QAEIXZ   0040c5d0 f i GamePlayer.obj
 0001:0000b600       ?_Decref@facet@locale@std@@QAEPAV123@XZ 0040c600 f i GamePlayer.obj
 0001:0000b640       ??1locale@std@@QAE@XZ      0040c640 f i GamePlayer.obj
 0001:0000b660       ?getloc@ios_base@std@@QBE?AVlocale@2@XZ 0040c660 f i GamePlayer.obj
 0001:0000b6a0       ?_Distance@std@@YAXViterator@?$_Tree@V?$basic_string@DU?$char_traits@D@std@@V?$allocator@D@2@@std@@V12@U_Kfn@?$set@V?$basic_string@DU?$char_traits@D@std@@V?$allocator@D@2@@std@@U?$less@V?$basic_string@DU?$char_traits@D@std@@V?$allocator@D@2@@std@@@2@V?$allocator@V?$basic_string@DU?$char_traits@D@std@@V?$allocator@D@2@@std@@@2@@2@U?$less@V?$basic_string@DU?$char_traits@D@std@@V?$allocator@D@2@@std@@@2@V?$allocator@V?$basic_string@DU?$char_traits@D@std@@V?$allocator@D@2@@std@@@2@@1@0AAIUbidirectional_iterator_tag@1@@Z 0040c6a0 f i GamePlayer.obj
 0001:0000b700       ??0?$num_put@DV?$ostreambuf_iterator@DU?$char_traits@D@std@@@std@@@std@@QAE@I@Z 0040c700 f i GamePlayer.obj
 0001:0000b760       ??1facet@locale@std@@UAE@XZ 0040c760 f i GamePlayer.obj
 0001:0000b770       ??_Efacet@locale@std@@UAEPAXI@Z 0040c770 f i GamePlayer.obj
 0001:0000b770       ??_Gfacet@locale@std@@UAEPAXI@Z 0040c770 f i GamePlayer.obj
 0001:0000b790       ?do_put@?$num_put@DV?$ostreambuf_iterator@DU?$char_traits@D@std@@@std@@@std@@MBE?AV?$ostreambuf_iterator@DU?$char_traits@D@std@@@2@V32@AAVios_base@2@D_N@Z 0040c790 f i GamePlayer.obj
 0001:0000ba60       ??0bad_cast@std@@QAE@PBD@Z 0040ca60 f i GamePlayer.obj
 0001:0000ba80       ?sputc@?$basic_streambuf@DU?$char_traits@D@std@@@std@@QAEHD@Z 0040ca80 f i GamePlayer.obj
 0001:0000bad0       ?do_put@?$num_put@DV?$ostreambuf_iterator@DU?$char_traits@D@std@@@std@@@std@@MBE?AV?$ostreambuf_iterator@DU?$char_traits@D@std@@@2@V32@AAVios_base@2@DJ@Z 0040cad0 f i GamePlayer.obj
 0001:0000bb80       ?do_put@?$num_put@DV?$ostreambuf_iterator@DU?$char_traits@D@std@@@std@@@std@@MBE?AV?$ostreambuf_iterator@DU?$char_traits@D@std@@@2@V32@AAVios_base@2@DK@Z 0040cb80 f i GamePlayer.obj
 0001:0000bc30       ?do_put@?$num_put@DV?$ostreambuf_iterator@DU?$char_traits@D@std@@@std@@@std@@MBE?AV?$ostreambuf_iterator@DU?$char_traits@D@std@@@2@V32@AAVios_base@2@DN@Z 0040cc30 f i GamePlayer.obj
 0001:0000bd20       ?do_put@?$num_put@DV?$ostreambuf_iterator@DU?$char_traits@D@std@@@std@@@std@@MBE?AV?$ostreambuf_iterator@DU?$char_traits@D@std@@@2@V32@AAVios_base@2@DO@Z 0040cd20 f i GamePlayer.obj
 0001:0000be10       ?do_put@?$num_put@DV?$ostreambuf_iterator@DU?$char_traits@D@std@@@std@@@std@@MBE?AV?$ostreambuf_iterator@DU?$char_traits@D@std@@@2@V32@AAVios_base@2@DPBX@Z 0040ce10 f i GamePlayer.obj
 0001:0000bfd0       ??_E?$num_put@DV?$ostreambuf_iterator@DU?$char_traits@D@std@@@std@@@std@@UAEPAXI@Z 0040cfd0 f i GamePlayer.obj
 0001:0000bfd0       ??_G?$num_put@DV?$ostreambuf_iterator@DU?$char_traits@D@std@@@std@@@std@@UAEPAXI@Z 0040cfd0 f i GamePlayer.obj
 0001:0000bff0       ??1?$num_put@DV?$ostreambuf_iterator@DU?$char_traits@D@std@@@std@@@std@@UAE@XZ 0040cff0 f i GamePlayer.obj
 0001:0000c000       ?_Fput@?$num_put@DV?$ostreambuf_iterator@DU?$char_traits@D@std@@@std@@@std@@KA?AV?$ostreambuf_iterator@DU?$char_traits@D@std@@@2@V32@AAVios_base@2@DPBDII@Z 0040d000 f i GamePlayer.obj
 0001:0000c410       ?_Iput@?$num_put@DV?$ostreambuf_iterator@DU?$char_traits@D@std@@@std@@@std@@KA?AV?$ostreambuf_iterator@DU?$char_traits@D@std@@@2@V32@AAVios_base@2@DPADI@Z 0040d410 f i GamePlayer.obj
 0001:0000c860       ?_Rep@?$num_put@DV?$ostreambuf_iterator@DU?$char_traits@D@std@@@std@@@std@@KA?AV?$ostreambuf_iterator@DU?$char_traits@D@std@@@2@V32@DI@Z 0040d860 f i GamePlayer.obj
 0001:0000c8e0       ?falsename@?$numpunct@D@std@@QBE?AV?$basic_string@DU?$char_traits@D@std@@V?$allocator@D@2@@2@XZ 0040d8e0 f i GamePlayer.obj
 0001:0000c900       ?truename@?$numpunct@D@std@@QBE?AV?$basic_string@DU?$char_traits@D@std@@V?$allocator@D@2@@2@XZ 0040d900 f i GamePlayer.obj
 0001:0000c920       ??4?$ostreambuf_iterator@DU?$char_traits@D@std@@@std@@QAEAAV01@D@Z 0040d920 f i GamePlayer.obj
 0001:0000c980       ?grouping@?$numpunct@D@std@@QBE?AV?$basic_string@DU?$char_traits@D@std@@V?$allocator@D@2@@2@XZ 0040d980 f i GamePlayer.obj
 0001:0000c9a0       ??0?$numpunct@D@std@@QAE@I@Z 0040d9a0 f i GamePlayer.obj
 0001:0000cac0       ?do_decimal_point@?$numpunct@D@std@@MBEDXZ 0040dac0 f i GamePlayer.obj
 0001:0000cad0       ?do_thousands_sep@?$numpunct@D@std@@MBEDXZ 0040dad0 f i GamePlayer.obj
 0001:0000cae0       ?do_grouping@?$numpunct@D@std@@MBE?AV?$basic_string@DU?$char_traits@D@std@@V?$allocator@D@2@@2@XZ 0040dae0 f i GamePlayer.obj
 0001:0000cbb0       ?do_falsename@?$numpunct@D@std@@MBE?AV?$basic_string@DU?$char_traits@D@std@@V?$allocator@D@2@@2@XZ 0040dbb0 f i GamePlayer.obj
 0001:0000cc80       ?do_truename@?$numpunct@D@std@@MBE?AV?$basic_string@DU?$char_traits@D@std@@V?$allocator@D@2@@2@XZ 0040dc80 f i GamePlayer.obj
 0001:0000cd50       ??_E?$numpunct@D@std@@UAEPAXI@Z 0040dd50 f i GamePlayer.obj
 0001:0000cd50       ??_G?$numpunct@D@std@@UAEPAXI@Z 0040dd50 f i GamePlayer.obj
 0001:0000cd70       ??1?$numpunct@D@std@@UAE@XZ 0040dd70 f i GamePlayer.obj
 0001:0000cda0       ?_Save@?$_Tidyfac@V?$num_put@DV?$ostreambuf_iterator@DU?$char_traits@D@std@@@std@@@std@@@std@@SAPAV?$num_put@DV?$ostreambuf_iterator@DU?$char_traits@D@std@@@std@@@2@PAV32@@Z 0040dda0 f i GamePlayer.obj
 0001:0000ce20       ?_Save@?$_Tidyfac@V?$numpunct@D@std@@@std@@SAPAV?$numpunct@D@2@PAV32@@Z 0040de20 f i GamePlayer.obj
 0001:0000cea0       ?_Tidy@?$_Tidyfac@V?$num_put@DV?$ostreambuf_iterator@DU?$char_traits@D@std@@@std@@@std@@@std@@SAXXZ 0040dea0 f i GamePlayer.obj
 0001:0000cf40       ?_Tidy@?$_Tidyfac@V?$numpunct@D@std@@@std@@SAXXZ 0040df40 f i GamePlayer.obj
 0001:0000d030       ?id@?$numpunct@D@std@@$E   0040e030 f i GamePlayer.obj
 0001:0000d040       ?id@?$num_put@DV?$ostreambuf_iterator@DU?$char_traits@D@std@@@$E 0040e040 f i GamePlayer.obj
 0001:0000d160       ??1?$map@IV?$list@PAVIGServer@@V?$allocator@PAVIGServer@@@std@@@std@@U?$less@I@2@V?$allocator@V?$list@PAVIGServer@@V?$allocator@PAVIGServer@@@std@@@std@@@2@@std@@QAE@XZ 0040e160 f i GameServer.obj
 0001:0000d2f0       ??1?$map@IPAVIGServer@@U?$less@I@std@@V?$allocator@PAVIGServer@@@3@@std@@QAE@XZ 0040e2f0 f i GameServer.obj
 0001:0000d4b0       ??1?$map@V?$basic_string@DU?$char_traits@D@std@@V?$allocator@D@2@@std@@UTransferInfo@@U?$less@V?$basic_string@DU?$char_traits@D@std@@V?$allocator@D@2@@std@@@2@V?$allocator@UTransferInfo@@@2@@std@@QAE@XZ 0040e4b0 f i GameServer.obj
 0001:0000d560       ?SetupGlobalAllocator@CGameServer@@SA_NII@Z 0040e560 f   GameServer.obj
 0001:0000d580       ?BeginTransfer@CGameServer@@SAXPBD@Z 0040e580 f   GameServer.obj
 0001:0000d840       ??1TransferInfo@@QAE@XZ    0040e840 f i GameServer.obj
 0001:0000d880       ?EndTransfer@CGameServer@@SAXPBD@Z 0040e880 f   GameServer.obj
 0001:0000da80       ?IsInTransfer@CGameServer@@SA_NPBD@Z 0040ea80 f   GameServer.obj
 0001:0000dbb0       ?CleanupStaleTransfers@CGameServer@@SAXXZ 0040ebb0 f   GameServer.obj
 0001:0000ddf0       ??0CGameServer@@QAE@PAUIServer@@PAUIClient@@I@Z 0040edf0 f   GameServer.obj
 0001:0000df90       ??1IGServer@@UAE@XZ        0040ef90 f i GameServer.obj
 0001:0000dfa0       ??_EIGServer@@UAEPAXI@Z    0040efa0 f i GameServer.obj
 0001:0000dfa0       ??_GIGServer@@UAEPAXI@Z    0040efa0 f i GameServer.obj
 0001:0000dfc0       ?GetID@CGameServer@@UAEIXZ 0040efc0 f i GameServer.obj
 0001:0000dfd0       ?GetCapability@CGameServer@@UAEIXZ 0040efd0 f i GameServer.obj
 0001:0000dfe0       ?GetIP@CGameServer@@UAEIE@Z 0040efe0 f i GameServer.obj
 0001:0000e000       ?GetIndentify@CGameServer@@UAEIXZ 0040f000 f i GameServer.obj
 0001:0000e010       ??_ECGameServer@@UAEPAXI@Z 0040f010 f i GameServer.obj
 0001:0000e010       ??_GCGameServer@@UAEPAXI@Z 0040f010 f i GameServer.obj
 0001:0000e030       ??1CGameServer@@UAE@XZ     0040f030 f   GameServer.obj
 0001:0000e190       ??1?$map@V?$basic_string@DU?$char_traits@D@std@@V?$allocator@D@2@@std@@PAXU?$less@V?$basic_string@DU?$char_traits@D@std@@V?$allocator@D@2@@std@@@2@V?$allocator@PAX@2@@std@@QAE@XZ 0040f190 f i GameServer.obj
 0001:0000e200       ?Create@CGameServer@@UAE_NXZ 0040f200 f   GameServer.obj
 0001:0000e270       ?Destroy@CGameServer@@UAE_NXZ 0040f270 f   GameServer.obj
 0001:0000e4a0       ?GameSvrEventNotify@CGameServer@@SGXPAXABK1@Z 0040f4a0 f   GameServer.obj
 0001:0000e650       ?Begin@CGameServer@@SA_NPAUIServer@@@Z 0040f650 f   GameServer.obj
 0001:0000e690       ?End@CGameServer@@SAXXZ    0040f690 f   GameServer.obj
 0001:0000e7c0       ?ManagerThreadFunction@CGameServer@@CGKPAX@Z 0040f7c0 f   GameServer.obj
 0001:0000e940       ?AnalyzeRequire@CGameServer@@UAE_NPBXI@Z 0040f940 f   GameServer.obj
 0001:0000e9a0       ?LargePackProcess@CGameServer@@IAE_NEPBXI@Z 0040f9a0 f   GameServer.obj
 0001:0000e9b0       ?SmallPackProcess@CGameServer@@IAE_NEPBXI@Z 0040f9b0 f   GameServer.obj
 0001:0000e9e0       ?DispatchTask@CGameServer@@UAE_NIPBXI@Z 0040f9e0 f   GameServer.obj
 0001:0000ea20       ?_QueryMapID@CGameServer@@IAE_NXZ 0040fa20 f   GameServer.obj
 0001:0000ea60       ?_QueryGameSvrInfo@CGameServer@@IAE_NXZ 0040fa60 f   GameServer.obj
 0001:0000eaa0       ?_UpdateMapID@CGameServer@@IAE_NPBXI@Z 0040faa0 f   GameServer.obj
 0001:0000eae0       ?_UpdateGameSvrInfo@CGameServer@@IAE_NPBXI@Z 0040fae0 f   GameServer.obj
 0001:0000ec70       ?_RequestSvrIP@CGameServer@@IAE_NPBXI@Z 0040fc70 f   GameServer.obj
 0001:0000ed00       ?_NotifyPlayerLogin@CGameServer@@IAE_NPBXI@Z 0040fd00 f   GameServer.obj
 0001:0000edc0       ?_RegisterAccount@CGameServer@@IAE_NPBXI@Z 0040fdc0 f   GameServer.obj
 0001:0000ede0       ?_NotifyEnterGame@CGameServer@@IAE_NPBXI@Z 0040fde0 f   GameServer.obj
 0001:0000eef0       ?_NotifyLeaveGame@CGameServer@@IAE_NPBXI@Z 0040fef0 f   GameServer.obj
 0001:0000f020       ?PushAccount@CGameServer@@IAE_NPBD@Z 00410020 f   GameServer.obj
 0001:0000f030       ?PopAccount@CGameServer@@IAE_NPBD_N@Z 00410030 f   GameServer.obj
 0001:0000f070       ?Attach@CGameServer@@UAE_NPBD_N@Z 00410070 f   GameServer.obj
 0001:0000f150       ?AttatchAccountToGameServer@CGameServer@@AAE_NPBD_N@Z 00410150 f   GameServer.obj
 0001:0000f380       ??1?$pair@$$CBV?$basic_string@DU?$char_traits@D@std@@V?$allocator@D@2@@std@@PAX@std@@QAE@XZ 00410380 f i GameServer.obj
 0001:0000f3c0       ?HaveAccountInGameServer@CGameServer@@AAE_NPBD@Z 004103c0 f   GameServer.obj
 0001:0000f540       ?DetachAccountFromGameServer@CGameServer@@QAE_NPBD@Z 00410540 f   GameServer.obj
 0001:0000f6a0       ?ConsumeMoney@CGameServer@@IAE_NPBD@Z 004106a0 f   GameServer.obj
 0001:0000f7b0       ?FreezeMoney@CGameServer@@IAE_NPBD@Z 004107b0 f   GameServer.obj
 0001:0000f8c0       ?_PlayerLogicLogout@CGameServer@@IAE_NPBXI@Z 004108c0 f   GameServer.obj
 0001:0000f930       ?_SyncRoleInfo@CGameServer@@IAE_NPBXI@Z 00410930 f   GameServer.obj
 0001:0000fac0       ?RegisterServer@CGameServer@@CA_NIPAVIGServer@@@Z 00410ac0 f   GameServer.obj
 0001:0000fc90       ??1?$pair@$$CBIV?$list@PAVIGServer@@V?$allocator@PAVIGServer@@@std@@@std@@@std@@QAE@XZ 00410c90 f i GameServer.obj
 0001:0000fce0       ?QueryServer@CGameServer@@SAPAVIGServer@@I@Z 00410ce0 f   GameServer.obj
 0001:0000fdb0       ?FindServerByAccount@CGameServer@@SAHPBD@Z 00410db0 f   GameServer.obj
 0001:0000fec0       ?GetServer@CGameServer@@SAPAVIGServer@@I@Z 00410ec0 f   GameServer.obj
 0001:0000ff70       ?GetContent@CGameServer@@UAEIXZ 00410f70 f   GameServer.obj
 0001:0000ffa0       ?SendToAll@CGameServer@@SAXPBDHI@Z 00410fa0 f   GameServer.obj
 0001:00010070       ?SendText@CGameServer@@UAEXPBDHI@Z 00411070 f   GameServer.obj
 0001:00010120       ??0?$basic_string@DU?$char_traits@D@std@@V?$allocator@D@2@@std@@QAE@ABV?$allocator@D@1@@Z 00411120 f i GameServer.obj
 0001:00010140       ??0?$map@IV?$list@PAVIGServer@@V?$allocator@PAVIGServer@@@std@@@std@@U?$less@I@2@V?$allocator@V?$list@PAVIGServer@@V?$allocator@PAVIGServer@@@std@@@std@@@2@@std@@QAE@ABU?$less@I@1@ABV?$allocator@V?$list@PAVIGServer@@V?$allocator@PAVIGServer@@@std@@@std@@@1@@Z 00411140 f i GameServer.obj
 0001:00010210       ??1?$list@PAVIGServer@@V?$allocator@PAVIGServer@@@std@@@std@@QAE@XZ 00411210 f i GameServer.obj
 0001:00010260       ?begin@?$list@PAVIGServer@@V?$allocator@PAVIGServer@@@std@@@std@@QAE?AViterator@12@XZ 00411260 f i GameServer.obj
 0001:00010270       ??Eiterator@?$list@PAVIGServer@@V?$allocator@PAVIGServer@@@std@@@std@@QAE?AV012@H@Z 00411270 f i GameServer.obj
 0001:00010280       ??0?$map@IPAVIGServer@@U?$less@I@std@@V?$allocator@PAVIGServer@@@3@@std@@QAE@ABU?$less@I@1@ABV?$allocator@PAVIGServer@@@1@@Z 00411280 f i GameServer.obj
 0001:00010350       ??0?$map@V?$basic_string@DU?$char_traits@D@std@@V?$allocator@D@2@@std@@UTransferInfo@@U?$less@V?$basic_string@DU?$char_traits@D@std@@V?$allocator@D@2@@std@@@2@V?$allocator@UTransferInfo@@@2@@std@@QAE@ABU?$less@V?$basic_string@DU?$char_traits@D@std@@V?$allocator@D@2@@std@@@1@ABV?$allocator@UTransferInfo@@@1@@Z 00411350 f i GameServer.obj
 0001:00010420       ??1?$vector@V?$basic_string@DU?$char_traits@D@std@@V?$allocator@D@2@@std@@V?$allocator@V?$basic_string@DU?$char_traits@D@std@@V?$allocator@D@2@@std@@@2@@std@@QAE@XZ 00411420 f i GameServer.obj
 0001:00010480       ??1?$pair@$$CBV?$basic_string@DU?$char_traits@D@std@@V?$allocator@D@2@@std@@UTransferInfo@@@std@@QAE@XZ 00411480 f i GameServer.obj
 0001:000104f0       ?insert@?$_Tree@IU?$pair@$$CBIV?$list@PAVIGServer@@V?$allocator@PAVIGServer@@@std@@@std@@@std@@U_Kfn@?$map@IV?$list@PAVIGServer@@V?$allocator@PAVIGServer@@@std@@@std@@U?$less@I@2@V?$allocator@V?$list@PAVIGServer@@V?$allocator@PAVIGServer@@@std@@@std@@@2@@2@U?$less@I@2@V?$allocator@V?$list@PAVIGServer@@V?$allocator@PAVIGServer@@@std@@@std@@@2@@std@@QAE?AU?$pair@Viterator@?$_Tree@IU?$pair@$$CBIV?$list@PAVIGServer@@V?$allocator@PAVIGServer@@@std@@@std@@@std@@U_Kfn@?$map@IV?$list@PAVIGServer@@V?$allocator@PAVIGServer@@@std@@@std@@U?$less@I@2@V?$allocator@V?$list@PAVIGServer@@V?$allocator@PAVIGServer@@@std@@@std@@@2@@2@U?$less@I@2@V?$allocator@V?$list@PAVIGServer@@V?$allocator@PAVIGServer@@@std@@@std@@@2@@std@@_N@2@ABU?$pair@$$CBIV?$list@PAVIGServer@@V?$allocator@PAVIGServer@@@std@@@std@@@2@@Z 004114f0 f i GameServer.obj
 0001:00010620       ?erase@?$_Tree@IU?$pair@$$CBIV?$list@PAVIGServer@@V?$allocator@PAVIGServer@@@std@@@std@@@std@@U_Kfn@?$map@IV?$list@PAVIGServer@@V?$allocator@PAVIGServer@@@std@@@std@@U?$less@I@2@V?$allocator@V?$list@PAVIGServer@@V?$allocator@PAVIGServer@@@std@@@std@@@2@@2@U?$less@I@2@V?$allocator@V?$list@PAVIGServer@@V?$allocator@PAVIGServer@@@std@@@std@@@2@@std@@QAE?AViterator@12@V312@0@Z 00411620 f i GameServer.obj
 0001:00010760       ?find@?$_Tree@IU?$pair@$$CBIV?$list@PAVIGServer@@V?$allocator@PAVIGServer@@@std@@@std@@@std@@U_Kfn@?$map@IV?$list@PAVIGServer@@V?$allocator@PAVIGServer@@@std@@@std@@U?$less@I@2@V?$allocator@V?$list@PAVIGServer@@V?$allocator@PAVIGServer@@@std@@@std@@@2@@2@U?$less@I@2@V?$allocator@V?$list@PAVIGServer@@V?$allocator@PAVIGServer@@@std@@@std@@@2@@std@@QAE?AViterator@12@ABI@Z 00411760 f i GameServer.obj
 0001:000107b0       ?insert@?$list@PAVIGServer@@V?$allocator@PAVIGServer@@@std@@@std@@QAE?AViterator@12@V312@ABQAVIGServer@@@Z 004117b0 f i GameServer.obj
 0001:00010810       ?erase@?$list@PAVIGServer@@V?$allocator@PAVIGServer@@@std@@@std@@QAE?AViterator@12@V312@0@Z 00411810 f i GameServer.obj
 0001:00010860       ?_Buynode@?$list@PAVIGServer@@V?$allocator@PAVIGServer@@@std@@@std@@IAEPAU_Node@12@PAU312@0@Z 00411860 f i GameServer.obj
 0001:00010890       ?insert@?$_Tree@IU?$pair@$$CBIPAVIGServer@@@std@@U_Kfn@?$map@IPAVIGServer@@U?$less@I@std@@V?$allocator@PAVIGServer@@@3@@2@U?$less@I@2@V?$allocator@PAVIGServer@@@2@@std@@QAE?AU?$pair@Viterator@?$_Tree@IU?$pair@$$CBIPAVIGServer@@@std@@U_Kfn@?$map@IPAVIGServer@@U?$less@I@std@@V?$allocator@PAVIGServer@@@3@@2@U?$less@I@2@V?$allocator@PAVIGServer@@@2@@std@@_N@2@ABU?$pair@$$CBIPAVIGServer@@@2@@Z 00411890 f i GameServer.obj
 0001:000109c0       ?erase@?$_Tree@IU?$pair@$$CBIPAVIGServer@@@std@@U_Kfn@?$map@IPAVIGServer@@U?$less@I@std@@V?$allocator@PAVIGServer@@@3@@2@U?$less@I@2@V?$allocator@PAVIGServer@@@2@@std@@QAE?AViterator@12@V312@@Z 004119c0 f i GameServer.obj
 0001:00010ee0       ?erase@?$_Tree@IU?$pair@$$CBIPAVIGServer@@@std@@U_Kfn@?$map@IPAVIGServer@@U?$less@I@std@@V?$allocator@PAVIGServer@@@3@@2@U?$less@I@2@V?$allocator@PAVIGServer@@@2@@std@@QAE?AViterator@12@V312@0@Z 00411ee0 f i GameServer.obj
 0001:00011010       ?_Inc@const_iterator@?$_Tree@IU?$pair@$$CBIPAVIGServer@@@std@@U_Kfn@?$map@IPAVIGServer@@U?$less@I@std@@V?$allocator@PAVIGServer@@@3@@2@U?$less@I@2@V?$allocator@PAVIGServer@@@2@@std@@QAEXXZ 00412010 f i GameServer.obj
 0001:000110c0       ?insert@?$_Tree@V?$basic_string@DU?$char_traits@D@std@@V?$allocator@D@2@@std@@U?$pair@$$CBV?$basic_string@DU?$char_traits@D@std@@V?$allocator@D@2@@std@@PAX@2@U_Kfn@?$map@V?$basic_string@DU?$char_traits@D@std@@V?$allocator@D@2@@std@@PAXU?$less@V?$basic_string@DU?$char_traits@D@std@@V?$allocator@D@2@@std@@@2@V?$allocator@PAX@2@@2@U?$less@V?$basic_string@DU?$char_traits@D@std@@V?$allocator@D@2@@std@@@2@V?$allocator@PAX@2@@std@@QAE?AU?$pair@Viterator@?$_Tree@V?$basic_string@DU?$char_traits@D@std@@V?$allocator@D@2@@std@@U?$pair@$$CBV?$basic_string@DU?$char_traits@D@std@@V?$allocator@D@2@@std@@PAX@2@U_Kfn@?$map@V?$basic_string@DU?$char_traits@D@std@@V?$allocator@D@2@@std@@PAXU?$less@V?$basic_string@DU?$char_traits@D@std@@V?$allocator@D@2@@std@@@2@V?$allocator@PAX@2@@2@U?$less@V?$basic_string@DU?$char_traits@D@std@@V?$allocator@D@2@@std@@@2@V?$allocator@PAX@2@@std@@_N@2@ABU?$pair@$$CBV?$basic_string@DU?$char_traits@D@std@@V?$allocator@D@2@@std@@PAX@2@@Z 004120c0 f i GameServer.obj
 0001:00011230       ?erase@?$_Tree@V?$basic_string@DU?$char_traits@D@std@@V?$allocator@D@2@@std@@U?$pair@$$CBV?$basic_string@DU?$char_traits@D@std@@V?$allocator@D@2@@std@@PAX@2@U_Kfn@?$map@V?$basic_string@DU?$char_traits@D@std@@V?$allocator@D@2@@std@@PAXU?$less@V?$basic_string@DU?$char_traits@D@std@@V?$allocator@D@2@@std@@@2@V?$allocator@PAX@2@@2@U?$less@V?$basic_string@DU?$char_traits@D@std@@V?$allocator@D@2@@std@@@2@V?$allocator@PAX@2@@std@@QAE?AViterator@12@V312@@Z 00412230 f i GameServer.obj
 0001:00011760       ?erase@?$_Tree@V?$basic_string@DU?$char_traits@D@std@@V?$allocator@D@2@@std@@U?$pair@$$CBV?$basic_string@DU?$char_traits@D@std@@V?$allocator@D@2@@std@@PAX@2@U_Kfn@?$map@V?$basic_string@DU?$char_traits@D@std@@V?$allocator@D@2@@std@@PAXU?$less@V?$basic_string@DU?$char_traits@D@std@@V?$allocator@D@2@@std@@@2@V?$allocator@PAX@2@@2@U?$less@V?$basic_string@DU?$char_traits@D@std@@V?$allocator@D@2@@std@@@2@V?$allocator@PAX@2@@std@@QAE?AViterator@12@V312@0@Z 00412760 f i GameServer.obj
 0001:000118a0       ?find@?$_Tree@V?$basic_string@DU?$char_traits@D@std@@V?$allocator@D@2@@std@@U?$pair@$$CBV?$basic_string@DU?$char_traits@D@std@@V?$allocator@D@2@@std@@PAX@2@U_Kfn@?$map@V?$basic_string@DU?$char_traits@D@std@@V?$allocator@D@2@@std@@PAXU?$less@V?$basic_string@DU?$char_traits@D@std@@V?$allocator@D@2@@std@@@2@V?$allocator@PAX@2@@2@U?$less@V?$basic_string@DU?$char_traits@D@std@@V?$allocator@D@2@@std@@@2@V?$allocator@PAX@2@@std@@QAE?AViterator@12@ABV?$basic_string@DU?$char_traits@D@std@@V?$allocator@D@2@@2@@Z 004128a0 f i GameServer.obj
 0001:00011930       ?insert@?$map@V?$basic_string@DU?$char_traits@D@std@@V?$allocator@D@2@@std@@UTransferInfo@@U?$less@V?$basic_string@DU?$char_traits@D@std@@V?$allocator@D@2@@std@@@2@V?$allocator@UTransferInfo@@@2@@std@@QAE?AU?$pair@Viterator@?$_Tree@V?$basic_string@DU?$char_traits@D@std@@V?$allocator@D@2@@std@@U?$pair@$$CBV?$basic_string@DU?$char_traits@D@std@@V?$allocator@D@2@@std@@UTransferInfo@@@2@U_Kfn@?$map@V?$basic_string@DU?$char_traits@D@std@@V?$allocator@D@2@@std@@UTransferInfo@@U?$less@V?$basic_string@DU?$char_traits@D@std@@V?$allocator@D@2@@std@@@2@V?$allocator@UTransferInfo@@@2@@2@U?$less@V?$basic_string@DU?$char_traits@D@std@@V?$allocator@D@2@@std@@@2@V?$allocator@UTransferInfo@@@2@@std@@_N@2@ABU?$pair@$$CBV?$basic_string@DU?$char_traits@D@std@@V?$allocator@D@2@@std@@UTransferInfo@@@2@@Z 00412930 f i GameServer.obj
 0001:00011960       ?begin@?$_Tree@V?$basic_string@DU?$char_traits@D@std@@V?$allocator@D@2@@std@@U?$pair@$$CBV?$basic_string@DU?$char_traits@D@std@@V?$allocator@D@2@@std@@UTransferInfo@@@2@U_Kfn@?$map@V?$basic_string@DU?$char_traits@D@std@@V?$allocator@D@2@@std@@UTransferInfo@@U?$less@V?$basic_string@DU?$char_traits@D@std@@V?$allocator@D@2@@std@@@2@V?$allocator@UTransferInfo@@@2@@2@U?$less@V?$basic_string@DU?$char_traits@D@std@@V?$allocator@D@2@@std@@@2@V?$allocator@UTransferInfo@@@2@@std@@QAE?AViterator@12@XZ 00412960 f i GameServer.obj
 0001:00011970       ?erase@?$_Tree@V?$basic_string@DU?$char_traits@D@std@@V?$allocator@D@2@@std@@U?$pair@$$CBV?$basic_string@DU?$char_traits@D@std@@V?$allocator@D@2@@std@@UTransferInfo@@@2@U_Kfn@?$map@V?$basic_string@DU?$char_traits@D@std@@V?$allocator@D@2@@std@@UTransferInfo@@U?$less@V?$basic_string@DU?$char_traits@D@std@@V?$allocator@D@2@@std@@@2@V?$allocator@UTransferInfo@@@2@@2@U?$less@V?$basic_string@DU?$char_traits@D@std@@V?$allocator@D@2@@std@@@2@V?$allocator@UTransferInfo@@@2@@std@@QAE?AViterator@12@V312@0@Z 00412970 f i GameServer.obj
 0001:00011ab0       ??0?$pair@$$CBV?$basic_string@DU?$char_traits@D@std@@V?$allocator@D@2@@std@@UTransferInfo@@@std@@QAE@ABV?$basic_string@DU?$char_traits@D@std@@V?$allocator@D@2@@1@ABUTransferInfo@@@Z 00412ab0 f i GameServer.obj
 0001:00011be0       ?_Inc@const_iterator@?$_Tree@V?$basic_string@DU?$char_traits@D@std@@V?$allocator@D@2@@std@@U?$pair@$$CBV?$basic_string@DU?$char_traits@D@std@@V?$allocator@D@2@@std@@UTransferInfo@@@2@U_Kfn@?$map@V?$basic_string@DU?$char_traits@D@std@@V?$allocator@D@2@@std@@UTransferInfo@@U?$less@V?$basic_string@DU?$char_traits@D@std@@V?$allocator@D@2@@std@@@2@V?$allocator@UTransferInfo@@@2@@2@U?$less@V?$basic_string@DU?$char_traits@D@std@@V?$allocator@D@2@@std@@@2@V?$allocator@UTransferInfo@@@2@@std@@QAEXXZ 00412be0 f i GameServer.obj
 0001:00011c90       ??0?$pair@Viterator@?$_Tree@V?$basic_string@DU?$char_traits@D@std@@V?$allocator@D@2@@std@@U?$pair@$$CBV?$basic_string@DU?$char_traits@D@std@@V?$allocator@D@2@@std@@PAX@2@U_Kfn@?$map@V?$basic_string@DU?$char_traits@D@std@@V?$allocator@D@2@@std@@PAXU?$less@V?$basic_string@DU?$char_traits@D@std@@V?$allocator@D@2@@std@@@2@V?$allocator@PAX@2@@2@U?$less@V?$basic_string@DU?$char_traits@D@std@@V?$allocator@D@2@@std@@@2@V?$allocator@PAX@2@@std@@_N@std@@QAE@ABViterator@?$_Tree@V?$basic_string@DU?$char_traits@D@std@@V?$allocator@D@2@@std@@U?$pair@$$CBV?$basic_string@DU?$char_traits@D@std@@V?$allocator@D@2@@std@@PAX@2@U_Kfn@?$map@V?$basic_string@DU?$char_traits@D@std@@V?$allocator@D@2@@std@@PAXU?$less@V?$basic_string@DU?$char_traits@D@std@@V?$allocator@D@2@@std@@@2@V?$allocator@PAX@2@@2@U?$less@V?$basic_string@DU?$char_traits@D@std@@V?$allocator@D@2@@std@@@2@V?$allocator@PAX@2@@1@AB_N@Z 00412c90 f i GameServer.obj
 0001:00011cb0       ?erase@?$_Tree@IU?$pair@$$CBIV?$list@PAVIGServer@@V?$allocator@PAVIGServer@@@std@@@std@@@std@@U_Kfn@?$map@IV?$list@PAVIGServer@@V?$allocator@PAVIGServer@@@std@@@std@@U?$less@I@2@V?$allocator@V?$list@PAVIGServer@@V?$allocator@PAVIGServer@@@std@@@std@@@2@@2@U?$less@I@2@V?$allocator@V?$list@PAVIGServer@@V?$allocator@PAVIGServer@@@std@@@std@@@2@@std@@QAE?AViterator@12@V312@@Z 00412cb0 f i GameServer.obj
 0001:000121f0       ?erase@?$list@PAVIGServer@@V?$allocator@PAVIGServer@@@std@@@std@@QAE?AViterator@12@V312@@Z 004131f0 f i GameServer.obj
 0001:00012230       ?_Next@_Acc@?$list@PAVIGServer@@V?$allocator@PAVIGServer@@@std@@@std@@SAAAPAU_Node@23@PAU423@@Z 00413230 f i GameServer.obj
 0001:00012240       ?_Erase@?$_Tree@IU?$pair@$$CBIV?$list@PAVIGServer@@V?$allocator@PAVIGServer@@@std@@@std@@@std@@U_Kfn@?$map@IV?$list@PAVIGServer@@V?$allocator@PAVIGServer@@@std@@@std@@U?$less@I@2@V?$allocator@V?$list@PAVIGServer@@V?$allocator@PAVIGServer@@@std@@@std@@@2@@2@U?$less@I@2@V?$allocator@V?$list@PAVIGServer@@V?$allocator@PAVIGServer@@@std@@@std@@@2@@std@@IAEXPAU_Node@12@@Z 00413240 f i GameServer.obj
 0001:00012320       ?_Insert@?$_Tree@IU?$pair@$$CBIV?$list@PAVIGServer@@V?$allocator@PAVIGServer@@@std@@@std@@@std@@U_Kfn@?$map@IV?$list@PAVIGServer@@V?$allocator@PAVIGServer@@@std@@@std@@U?$less@I@2@V?$allocator@V?$list@PAVIGServer@@V?$allocator@PAVIGServer@@@std@@@std@@@2@@2@U?$less@I@2@V?$allocator@V?$list@PAVIGServer@@V?$allocator@PAVIGServer@@@std@@@std@@@2@@std@@IAE?AViterator@12@PAU_Node@12@0ABU?$pair@$$CBIV?$list@PAVIGServer@@V?$allocator@PAVIGServer@@@std@@@std@@@2@@Z 00413320 f i GameServer.obj
 0001:00012620       ?begin@?$list@PAVIGServer@@V?$allocator@PAVIGServer@@@std@@@std@@QBE?AVconst_iterator@12@XZ 00413620 f i GameServer.obj
 0001:00012630       ?end@?$list@PAVIGServer@@V?$allocator@PAVIGServer@@@std@@@std@@QBE?AVconst_iterator@12@XZ 00413630 f i GameServer.obj
 0001:00012640       ?insert@?$list@PAVIGServer@@V?$allocator@PAVIGServer@@@std@@@std@@QAEXViterator@12@Vconst_iterator@12@1@Z 00413640 f i GameServer.obj
 0001:000126b0       ?_Inc@const_iterator@?$_Tree@IU?$pair@$$CBIV?$list@PAVIGServer@@V?$allocator@PAVIGServer@@@std@@@std@@@std@@U_Kfn@?$map@IV?$list@PAVIGServer@@V?$allocator@PAVIGServer@@@std@@@std@@U?$less@I@2@V?$allocator@V?$list@PAVIGServer@@V?$allocator@PAVIGServer@@@std@@@std@@@2@@2@U?$less@I@2@V?$allocator@V?$list@PAVIGServer@@V?$allocator@PAVIGServer@@@std@@@std@@@2@@std@@QAEXXZ 004136b0 f i GameServer.obj
 0001:00012760       ?lower_bound@?$_Tree@IU?$pair@$$CBIPAVIGServer@@@std@@U_Kfn@?$map@IPAVIGServer@@U?$less@I@std@@V?$allocator@PAVIGServer@@@3@@2@U?$less@I@2@V?$allocator@PAVIGServer@@@2@@std@@QAE?AViterator@12@ABI@Z 00413760 f i GameServer.obj
 0001:00012780       ?_Erase@?$_Tree@IU?$pair@$$CBIPAVIGServer@@@std@@U_Kfn@?$map@IPAVIGServer@@U?$less@I@std@@V?$allocator@PAVIGServer@@@3@@2@U?$less@I@2@V?$allocator@PAVIGServer@@@2@@std@@IAEXPAU_Node@12@@Z 00413780 f i GameServer.obj
 0001:00012810       ?_Insert@?$_Tree@IU?$pair@$$CBIPAVIGServer@@@std@@U_Kfn@?$map@IPAVIGServer@@U?$less@I@std@@V?$allocator@PAVIGServer@@@3@@2@U?$less@I@2@V?$allocator@PAVIGServer@@@2@@std@@IAE?AViterator@12@PAU_Node@12@0ABU?$pair@$$CBIPAVIGServer@@@2@@Z 00413810 f i GameServer.obj
 0001:00012b10       ?_Min@?$_Tree@IU?$pair@$$CBIPAVIGServer@@@std@@U_Kfn@?$map@IPAVIGServer@@U?$less@I@std@@V?$allocator@PAVIGServer@@@3@@2@U?$less@I@2@V?$allocator@PAVIGServer@@@2@@std@@KAPAU_Node@12@PAU312@@Z 00413b10 f i GameServer.obj
 0001:00012b50       ?lower_bound@?$_Tree@V?$basic_string@DU?$char_traits@D@std@@V?$allocator@D@2@@std@@U?$pair@$$CBV?$basic_string@DU?$char_traits@D@std@@V?$allocator@D@2@@std@@PAX@2@U_Kfn@?$map@V?$basic_string@DU?$char_traits@D@std@@V?$allocator@D@2@@std@@PAXU?$less@V?$basic_string@DU?$char_traits@D@std@@V?$allocator@D@2@@std@@@2@V?$allocator@PAX@2@@2@U?$less@V?$basic_string@DU?$char_traits@D@std@@V?$allocator@D@2@@std@@@2@V?$allocator@PAX@2@@std@@QAE?AViterator@12@ABV?$basic_string@DU?$char_traits@D@std@@V?$allocator@D@2@@2@@Z 00413b50 f i GameServer.obj
 0001:00012b70       ?_Erase@?$_Tree@V?$basic_string@DU?$char_traits@D@std@@V?$allocator@D@2@@std@@U?$pair@$$CBV?$basic_string@DU?$char_traits@D@std@@V?$allocator@D@2@@std@@PAX@2@U_Kfn@?$map@V?$basic_string@DU?$char_traits@D@std@@V?$allocator@D@2@@std@@PAXU?$less@V?$basic_string@DU?$char_traits@D@std@@V?$allocator@D@2@@std@@@2@V?$allocator@PAX@2@@2@U?$less@V?$basic_string@DU?$char_traits@D@std@@V?$allocator@D@2@@std@@@2@V?$allocator@PAX@2@@std@@IAEXPAU_Node@12@@Z 00413b70 f i GameServer.obj
 0001:00012c20       ?_Insert@?$_Tree@V?$basic_string@DU?$char_traits@D@std@@V?$allocator@D@2@@std@@U?$pair@$$CBV?$basic_string@DU?$char_traits@D@std@@V?$allocator@D@2@@std@@PAX@2@U_Kfn@?$map@V?$basic_string@DU?$char_traits@D@std@@V?$allocator@D@2@@std@@PAXU?$less@V?$basic_string@DU?$char_traits@D@std@@V?$allocator@D@2@@std@@@2@V?$allocator@PAX@2@@2@U?$less@V?$basic_string@DU?$char_traits@D@std@@V?$allocator@D@2@@std@@@2@V?$allocator@PAX@2@@std@@IAE?AViterator@12@PAU_Node@12@0ABU?$pair@$$CBV?$basic_string@DU?$char_traits@D@std@@V?$allocator@D@2@@std@@PAX@2@@Z 00413c20 f i GameServer.obj
 0001:00012f30       ?_Inc@const_iterator@?$_Tree@V?$basic_string@DU?$char_traits@D@std@@V?$allocator@D@2@@std@@U?$pair@$$CBV?$basic_string@DU?$char_traits@D@std@@V?$allocator@D@2@@std@@PAX@2@U_Kfn@?$map@V?$basic_string@DU?$char_traits@D@std@@V?$allocator@D@2@@std@@PAXU?$less@V?$basic_string@DU?$char_traits@D@std@@V?$allocator@D@2@@std@@@2@V?$allocator@PAX@2@@2@U?$less@V?$basic_string@DU?$char_traits@D@std@@V?$allocator@D@2@@std@@@2@V?$allocator@PAX@2@@std@@QAEXXZ 00413f30 f i GameServer.obj
 0001:00012fe0       ?insert@?$_Tree@V?$basic_string@DU?$char_traits@D@std@@V?$allocator@D@2@@std@@U?$pair@$$CBV?$basic_string@DU?$char_traits@D@std@@V?$allocator@D@2@@std@@UTransferInfo@@@2@U_Kfn@?$map@V?$basic_string@DU?$char_traits@D@std@@V?$allocator@D@2@@std@@UTransferInfo@@U?$less@V?$basic_string@DU?$char_traits@D@std@@V?$allocator@D@2@@std@@@2@V?$allocator@UTransferInfo@@@2@@2@U?$less@V?$basic_string@DU?$char_traits@D@std@@V?$allocator@D@2@@std@@@2@V?$allocator@UTransferInfo@@@2@@std@@QAE?AU?$pair@Viterator@?$_Tree@V?$basic_string@DU?$char_traits@D@std@@V?$allocator@D@2@@std@@U?$pair@$$CBV?$basic_string@DU?$char_traits@D@std@@V?$allocator@D@2@@std@@UTransferInfo@@@2@U_Kfn@?$map@V?$basic_string@DU?$char_traits@D@std@@V?$allocator@D@2@@std@@UTransferInfo@@U?$less@V?$basic_string@DU?$char_traits@D@std@@V?$allocator@D@2@@std@@@2@V?$allocator@UTransferInfo@@@2@@2@U?$less@V?$basic_string@DU?$char_traits@D@std@@V?$allocator@D@2@@std@@@2@V?$allocator@UTransferInfo@@@2@@std@@_N@2@ABU?$pair@$$CBV?$basic_string@DU?$char_traits@D@std@@V?$allocator@D@2@@std@@UTransferInfo@@@2@@Z 00413fe0 f i GameServer.obj
 0001:00013150       ?erase@?$_Tree@V?$basic_string@DU?$char_traits@D@std@@V?$allocator@D@2@@std@@U?$pair@$$CBV?$basic_string@DU?$char_traits@D@std@@V?$allocator@D@2@@std@@UTransferInfo@@@2@U_Kfn@?$map@V?$basic_string@DU?$char_traits@D@std@@V?$allocator@D@2@@std@@UTransferInfo@@U?$less@V?$basic_string@DU?$char_traits@D@std@@V?$allocator@D@2@@std@@@2@V?$allocator@UTransferInfo@@@2@@2@U?$less@V?$basic_string@DU?$char_traits@D@std@@V?$allocator@D@2@@std@@@2@V?$allocator@UTransferInfo@@@2@@std@@QAE?AViterator@12@V312@@Z 00414150 f i GameServer.obj
 0001:000136c0       ?equal_range@?$_Tree@V?$basic_string@DU?$char_traits@D@std@@V?$allocator@D@2@@std@@U?$pair@$$CBV?$basic_string@DU?$char_traits@D@std@@V?$allocator@D@2@@std@@UTransferInfo@@@2@U_Kfn@?$map@V?$basic_string@DU?$char_traits@D@std@@V?$allocator@D@2@@std@@UTransferInfo@@U?$less@V?$basic_string@DU?$char_traits@D@std@@V?$allocator@D@2@@std@@@2@V?$allocator@UTransferInfo@@@2@@2@U?$less@V?$basic_string@DU?$char_traits@D@std@@V?$allocator@D@2@@std@@@2@V?$allocator@UTransferInfo@@@2@@std@@QAE?AU?$pair@Viterator@?$_Tree@V?$basic_string@DU?$char_traits@D@std@@V?$allocator@D@2@@std@@U?$pair@$$CBV?$basic_string@DU?$char_traits@D@std@@V?$allocator@D@2@@std@@UTransferInfo@@@2@U_Kfn@?$map@V?$basic_string@DU?$char_traits@D@std@@V?$allocator@D@2@@std@@UTransferInfo@@U?$less@V?$basic_string@DU?$char_traits@D@std@@V?$allocator@D@2@@std@@@2@V?$allocator@UTransferInfo@@@2@@2@U?$less@V?$basic_string@DU?$char_traits@D@std@@V?$allocator@D@2@@std@@@2@V?$allocator@UTransferInfo@@@2@@std@@V123@@2@ABV?$basic_string@DU?$char_traits@D@std@@V?$allocator@D@2@@2@@Z 004146c0 f i GameServer.obj
 0001:000136f0       ?_Erase@?$_Tree@V?$basic_string@DU?$char_traits@D@std@@V?$allocator@D@2@@std@@U?$pair@$$CBV?$basic_string@DU?$char_traits@D@std@@V?$allocator@D@2@@std@@UTransferInfo@@@2@U_Kfn@?$map@V?$basic_string@DU?$char_traits@D@std@@V?$allocator@D@2@@std@@UTransferInfo@@U?$less@V?$basic_string@DU?$char_traits@D@std@@V?$allocator@D@2@@std@@@2@V?$allocator@UTransferInfo@@@2@@2@U?$less@V?$basic_string@DU?$char_traits@D@std@@V?$allocator@D@2@@std@@@2@V?$allocator@UTransferInfo@@@2@@std@@IAEXPAU_Node@12@@Z 004146f0 f i GameServer.obj
 0001:000137d0       ?insert@?$vector@V?$basic_string@DU?$char_traits@D@std@@V?$allocator@D@2@@std@@V?$allocator@V?$basic_string@DU?$char_traits@D@std@@V?$allocator@D@2@@std@@@2@@std@@QAEXPAV?$basic_string@DU?$char_traits@D@std@@V?$allocator@D@2@@2@IABV32@@Z 004147d0 f i GameServer.obj
 0001:00013a90       ??0?$pair@Viterator@?$_Tree@V?$basic_string@DU?$char_traits@D@std@@V?$allocator@D@2@@std@@U?$pair@$$CBV?$basic_string@DU?$char_traits@D@std@@V?$allocator@D@2@@std@@UTransferInfo@@@2@U_Kfn@?$map@V?$basic_string@DU?$char_traits@D@std@@V?$allocator@D@2@@std@@UTransferInfo@@U?$less@V?$basic_string@DU?$char_traits@D@std@@V?$allocator@D@2@@std@@@2@V?$allocator@UTransferInfo@@@2@@2@U?$less@V?$basic_string@DU?$char_traits@D@std@@V?$allocator@D@2@@std@@@2@V?$allocator@UTransferInfo@@@2@@std@@_N@std@@QAE@ABViterator@?$_Tree@V?$basic_string@DU?$char_traits@D@std@@V?$allocator@D@2@@std@@U?$pair@$$CBV?$basic_string@DU?$char_traits@D@std@@V?$allocator@D@2@@std@@UTransferInfo@@@2@U_Kfn@?$map@V?$basic_string@DU?$char_traits@D@std@@V?$allocator@D@2@@std@@UTransferInfo@@U?$less@V?$basic_string@DU?$char_traits@D@std@@V?$allocator@D@2@@std@@@2@V?$allocator@UTransferInfo@@@2@@2@U?$less@V?$basic_string@DU?$char_traits@D@std@@V?$allocator@D@2@@std@@@2@V?$allocator@UTransferInfo@@@2@@1@AB_N@Z 00414a90 f i GameServer.obj
 0001:00013ab0       ?_Lbound@?$_Tree@IU?$pair@$$CBIV?$list@PAVIGServer@@V?$allocator@PAVIGServer@@@std@@@std@@@std@@U_Kfn@?$map@IV?$list@PAVIGServer@@V?$allocator@PAVIGServer@@@std@@@std@@U?$less@I@2@V?$allocator@V?$list@PAVIGServer@@V?$allocator@PAVIGServer@@@std@@@std@@@2@@2@U?$less@I@2@V?$allocator@V?$list@PAVIGServer@@V?$allocator@PAVIGServer@@@std@@@std@@@2@@std@@IBEPAU_Node@12@ABI@Z 00414ab0 f i GameServer.obj
 0001:00013b00       ?_Dec@const_iterator@?$_Tree@IU?$pair@$$CBIV?$list@PAVIGServer@@V?$allocator@PAVIGServer@@@std@@@std@@@std@@U_Kfn@?$map@IV?$list@PAVIGServer@@V?$allocator@PAVIGServer@@@std@@@std@@U?$less@I@2@V?$allocator@V?$list@PAVIGServer@@V?$allocator@PAVIGServer@@@std@@@std@@@2@@2@U?$less@I@2@V?$allocator@V?$list@PAVIGServer@@V?$allocator@PAVIGServer@@@std@@@std@@@2@@std@@QAEXXZ 00414b00 f i GameServer.obj
 0001:00013bc0       ?_Lbound@?$_Tree@IU?$pair@$$CBIPAVIGServer@@@std@@U_Kfn@?$map@IPAVIGServer@@U?$less@I@std@@V?$allocator@PAVIGServer@@@3@@2@U?$less@I@2@V?$allocator@PAVIGServer@@@2@@std@@IBEPAU_Node@12@ABI@Z 00414bc0 f i GameServer.obj
 0001:00013c10       ?_Dec@const_iterator@?$_Tree@IU?$pair@$$CBIPAVIGServer@@@std@@U_Kfn@?$map@IPAVIGServer@@U?$less@I@std@@V?$allocator@PAVIGServer@@@3@@2@U?$less@I@2@V?$allocator@PAVIGServer@@@2@@std@@QAEXXZ 00414c10 f i GameServer.obj
 0001:00013cd0       ?_Lbound@?$_Tree@V?$basic_string@DU?$char_traits@D@std@@V?$allocator@D@2@@std@@U?$pair@$$CBV?$basic_string@DU?$char_traits@D@std@@V?$allocator@D@2@@std@@PAX@2@U_Kfn@?$map@V?$basic_string@DU?$char_traits@D@std@@V?$allocator@D@2@@std@@PAXU?$less@V?$basic_string@DU?$char_traits@D@std@@V?$allocator@D@2@@std@@@2@V?$allocator@PAX@2@@2@U?$less@V?$basic_string@DU?$char_traits@D@std@@V?$allocator@D@2@@std@@@2@V?$allocator@PAX@2@@std@@IBEPAU_Node@12@ABV?$basic_string@DU?$char_traits@D@std@@V?$allocator@D@2@@2@@Z 00414cd0 f i GameServer.obj
 0001:00013d90       ?_Dec@const_iterator@?$_Tree@V?$basic_string@DU?$char_traits@D@std@@V?$allocator@D@2@@std@@U?$pair@$$CBV?$basic_string@DU?$char_traits@D@std@@V?$allocator@D@2@@std@@PAX@2@U_Kfn@?$map@V?$basic_string@DU?$char_traits@D@std@@V?$allocator@D@2@@std@@PAXU?$less@V?$basic_string@DU?$char_traits@D@std@@V?$allocator@D@2@@std@@@2@V?$allocator@PAX@2@@2@U?$less@V?$basic_string@DU?$char_traits@D@std@@V?$allocator@D@2@@std@@@2@V?$allocator@PAX@2@@std@@QAEXXZ 00414d90 f i GameServer.obj
 0001:00013e50       ?lower_bound@?$_Tree@V?$basic_string@DU?$char_traits@D@std@@V?$allocator@D@2@@std@@U?$pair@$$CBV?$basic_string@DU?$char_traits@D@std@@V?$allocator@D@2@@std@@UTransferInfo@@@2@U_Kfn@?$map@V?$basic_string@DU?$char_traits@D@std@@V?$allocator@D@2@@std@@UTransferInfo@@U?$less@V?$basic_string@DU?$char_traits@D@std@@V?$allocator@D@2@@std@@@2@V?$allocator@UTransferInfo@@@2@@2@U?$less@V?$basic_string@DU?$char_traits@D@std@@V?$allocator@D@2@@std@@@2@V?$allocator@UTransferInfo@@@2@@std@@QAE?AViterator@12@ABV?$basic_string@DU?$char_traits@D@std@@V?$allocator@D@2@@2@@Z 00414e50 f i GameServer.obj
 0001:00013e70       ?upper_bound@?$_Tree@V?$basic_string@DU?$char_traits@D@std@@V?$allocator@D@2@@std@@U?$pair@$$CBV?$basic_string@DU?$char_traits@D@std@@V?$allocator@D@2@@std@@UTransferInfo@@@2@U_Kfn@?$map@V?$basic_string@DU?$char_traits@D@std@@V?$allocator@D@2@@std@@UTransferInfo@@U?$less@V?$basic_string@DU?$char_traits@D@std@@V?$allocator@D@2@@std@@@2@V?$allocator@UTransferInfo@@@2@@2@U?$less@V?$basic_string@DU?$char_traits@D@std@@V?$allocator@D@2@@std@@@2@V?$allocator@UTransferInfo@@@2@@std@@QAE?AViterator@12@ABV?$basic_string@DU?$char_traits@D@std@@V?$allocator@D@2@@2@@Z 00414e70 f i GameServer.obj
 0001:00013e90       ?_Insert@?$_Tree@V?$basic_string@DU?$char_traits@D@std@@V?$allocator@D@2@@std@@U?$pair@$$CBV?$basic_string@DU?$char_traits@D@std@@V?$allocator@D@2@@std@@UTransferInfo@@@2@U_Kfn@?$map@V?$basic_string@DU?$char_traits@D@std@@V?$allocator@D@2@@std@@UTransferInfo@@U?$less@V?$basic_string@DU?$char_traits@D@std@@V?$allocator@D@2@@std@@@2@V?$allocator@UTransferInfo@@@2@@2@U?$less@V?$basic_string@DU?$char_traits@D@std@@V?$allocator@D@2@@std@@@2@V?$allocator@UTransferInfo@@@2@@std@@IAE?AViterator@12@PAU_Node@12@0ABU?$pair@$$CBV?$basic_string@DU?$char_traits@D@std@@V?$allocator@D@2@@std@@UTransferInfo@@@2@@Z 00414e90 f i GameServer.obj
 0001:000141a0       ?_Lbound@?$_Tree@V?$basic_string@DU?$char_traits@D@std@@V?$allocator@D@2@@std@@U?$pair@$$CBV?$basic_string@DU?$char_traits@D@std@@V?$allocator@D@2@@std@@UTransferInfo@@@2@U_Kfn@?$map@V?$basic_string@DU?$char_traits@D@std@@V?$allocator@D@2@@std@@UTransferInfo@@U?$less@V?$basic_string@DU?$char_traits@D@std@@V?$allocator@D@2@@std@@@2@V?$allocator@UTransferInfo@@@2@@2@U?$less@V?$basic_string@DU?$char_traits@D@std@@V?$allocator@D@2@@std@@@2@V?$allocator@UTransferInfo@@@2@@std@@IBEPAU_Node@12@ABV?$basic_string@DU?$char_traits@D@std@@V?$allocator@D@2@@2@@Z 004151a0 f i GameServer.obj
 0001:00014260       ?_Ubound@?$_Tree@V?$basic_string@DU?$char_traits@D@std@@V?$allocator@D@2@@std@@U?$pair@$$CBV?$basic_string@DU?$char_traits@D@std@@V?$allocator@D@2@@std@@UTransferInfo@@@2@U_Kfn@?$map@V?$basic_string@DU?$char_traits@D@std@@V?$allocator@D@2@@std@@UTransferInfo@@U?$less@V?$basic_string@DU?$char_traits@D@std@@V?$allocator@D@2@@std@@@2@V?$allocator@UTransferInfo@@@2@@2@U?$less@V?$basic_string@DU?$char_traits@D@std@@V?$allocator@D@2@@std@@@2@V?$allocator@UTransferInfo@@@2@@std@@IBEPAU_Node@12@ABV?$basic_string@DU?$char_traits@D@std@@V?$allocator@D@2@@2@@Z 00415260 f i GameServer.obj
 0001:00014330       ?_Dec@const_iterator@?$_Tree@V?$basic_string@DU?$char_traits@D@std@@V?$allocator@D@2@@std@@U?$pair@$$CBV?$basic_string@DU?$char_traits@D@std@@V?$allocator@D@2@@std@@UTransferInfo@@@2@U_Kfn@?$map@V?$basic_string@DU?$char_traits@D@std@@V?$allocator@D@2@@std@@UTransferInfo@@U?$less@V?$basic_string@DU?$char_traits@D@std@@V?$allocator@D@2@@std@@@2@V?$allocator@UTransferInfo@@@2@@2@U?$less@V?$basic_string@DU?$char_traits@D@std@@V?$allocator@D@2@@std@@@2@V?$allocator@UTransferInfo@@@2@@std@@QAEXXZ 00415330 f i GameServer.obj
 0001:000143f0       ?_Distance@std@@YAXViterator@?$_Tree@V?$basic_string@DU?$char_traits@D@std@@V?$allocator@D@2@@std@@U?$pair@$$CBV?$basic_string@DU?$char_traits@D@std@@V?$allocator@D@2@@std@@UTransferInfo@@@2@U_Kfn@?$map@V?$basic_string@DU?$char_traits@D@std@@V?$allocator@D@2@@std@@UTransferInfo@@U?$less@V?$basic_string@DU?$char_traits@D@std@@V?$allocator@D@2@@std@@@2@V?$allocator@UTransferInfo@@@2@@2@U?$less@V?$basic_string@DU?$char_traits@D@std@@V?$allocator@D@2@@std@@@2@V?$allocator@UTransferInfo@@@2@@1@0AAI@Z 004153f0 f i GameServer.obj
 0001:00014420       ?_Construct@std@@YAXPAU?$pair@$$CBIV?$list@PAVIGServer@@V?$allocator@PAVIGServer@@@std@@@std@@@1@ABU21@@Z 00415420 f i GameServer.obj
 0001:000144e0       ?_Construct@std@@YAXPAU?$pair@$$CBIPAVIGServer@@@1@ABU21@@Z 004154e0 f i GameServer.obj
 0001:00014500       ?_Construct@std@@YAXPAU?$pair@$$CBV?$basic_string@DU?$char_traits@D@std@@V?$allocator@D@2@@std@@PAX@1@ABU21@@Z 00415500 f i GameServer.obj
 0001:00014650       ?_Construct@std@@YAXPAU?$pair@$$CBV?$basic_string@DU?$char_traits@D@std@@V?$allocator@D@2@@std@@UTransferInfo@@@1@ABU21@@Z 00415650 f i GameServer.obj
 0001:000148c0       ??0CIntercessor@@QAE@KAAVCNetwork@@@Z 004158c0 f   Intercessor.obj
 0001:000149f0       ??_GCIntercessor@@UAEPAXI@Z 004159f0 f i Intercessor.obj
 0001:000149f0       ??_ECIntercessor@@UAEPAXI@Z 004159f0 f i Intercessor.obj
 0001:00014a10       ??1CIntercessor@@UAE@XZ    00415a10 f   Intercessor.obj
 0001:00014af0       ?Create@CIntercessor@@QAE_NPAUHWND__@@@Z 00415af0 f   Intercessor.obj
 0001:00014b90       ?Destroy@CIntercessor@@QAEXXZ 00415b90 f   Intercessor.obj
 0001:00014be0       ?DBRoleEventNotify@CIntercessor@@SGXPAXABK@Z 00415be0 f   Intercessor.obj
 0001:00014c30       ?_DBRoleEventNotify@CIntercessor@@IAEXABK@Z 00415c30 f   Intercessor.obj
 0001:00014c70       ?PlayerEventNotify@CIntercessor@@SGXPAXABK1@Z 00415c70 f   Intercessor.obj
 0001:00014cc0       ?_PlayerEventNotify@CIntercessor@@IAEXABK0@Z 00415cc0 f   Intercessor.obj
 0001:00014dd0       ?StartupNetwork@CIntercessor@@IAE_NXZ 00415dd0 f   Intercessor.obj
 0001:00015150       ?CleanNetwork@CIntercessor@@IAEXXZ 00416150 f   Intercessor.obj
 0001:000152c0       ?WorkingThreadFunction@CIntercessor@@KGKPAX@Z 004162c0 f   Intercessor.obj
 0001:00015320       ?Working@CIntercessor@@IAEHXZ 00416320 f   Intercessor.obj
 0001:00015440       ?HelperThreadFunction@CIntercessor@@KGKPAX@Z 00416440 f   Intercessor.obj
 0001:000154a0       ?Helper@CIntercessor@@IAEHXZ 004164a0 f   Intercessor.obj
 0001:000158d0       ?AnalyzePlayerRequire@CIntercessor@@IAE_NIPBXI@Z 004168d0 f   Intercessor.obj
 0001:000159f0       ?GetGameServerCount@CIntercessor@@QAEIXZ 004169f0 f   Intercessor.obj
 0001:00015a10       ?GetGameServerInfo@CIntercessor@@QAEPBDABK@Z 00416a10 f   Intercessor.obj
 0001:00015a30       ?erase@?$_Tree@IU?$pair@$$CBIPAVIPlayer@@@std@@U_Kfn@?$map@IPAVIPlayer@@U?$less@I@std@@V?$allocator@PAVIPlayer@@@3@@2@U?$less@I@2@V?$allocator@PAVIPlayer@@@2@@std@@QAE?AViterator@12@V312@0@Z 00416a30 f i Intercessor.obj
 0001:00015b60       ?insert@?$_Tree@IU?$pair@$$CBIPAVIPlayer@@@std@@U_Kfn@?$map@IPAVIPlayer@@U?$less@I@std@@V?$allocator@PAVIPlayer@@@3@@2@U?$less@I@2@V?$allocator@PAVIPlayer@@@2@@std@@QAE?AU?$pair@Viterator@?$_Tree@IU?$pair@$$CBIPAVIPlayer@@@std@@U_Kfn@?$map@IPAVIPlayer@@U?$less@I@std@@V?$allocator@PAVIPlayer@@@3@@2@U?$less@I@2@V?$allocator@PAVIPlayer@@@2@@std@@_N@2@ABU?$pair@$$CBIPAVIPlayer@@@2@@Z 00416b60 f i Intercessor.obj
 0001:00015c90       ?erase@?$_Tree@IU?$pair@$$CBIPAVIPlayer@@@std@@U_Kfn@?$map@IPAVIPlayer@@U?$less@I@std@@V?$allocator@PAVIPlayer@@@3@@2@U?$less@I@2@V?$allocator@PAVIPlayer@@@2@@std@@QAE?AViterator@12@V312@@Z 00416c90 f i Intercessor.obj
 0001:000161b0       ?_Erase@?$_Tree@IU?$pair@$$CBIPAVIPlayer@@@std@@U_Kfn@?$map@IPAVIPlayer@@U?$less@I@std@@V?$allocator@PAVIPlayer@@@3@@2@U?$less@I@2@V?$allocator@PAVIPlayer@@@2@@std@@IAEXPAU_Node@12@@Z 004171b0 f i Intercessor.obj
 0001:00016240       ?_Inc@const_iterator@?$_Tree@IU?$pair@$$CBIPAVIPlayer@@@std@@U_Kfn@?$map@IPAVIPlayer@@U?$less@I@std@@V?$allocator@PAVIPlayer@@@3@@2@U?$less@I@2@V?$allocator@PAVIPlayer@@@2@@std@@QAEXXZ 00417240 f i Intercessor.obj
 0001:000162f0       ??0?$pair@Viterator@?$_Tree@IU?$pair@$$CBIPAVIPlayer@@@std@@U_Kfn@?$map@IPAVIPlayer@@U?$less@I@std@@V?$allocator@PAVIPlayer@@@3@@2@U?$less@I@2@V?$allocator@PAVIPlayer@@@2@@std@@_N@std@@QAE@ABViterator@?$_Tree@IU?$pair@$$CBIPAVIPlayer@@@std@@U_Kfn@?$map@IPAVIPlayer@@U?$less@I@std@@V?$allocator@PAVIPlayer@@@3@@2@U?$less@I@2@V?$allocator@PAVIPlayer@@@2@@1@AB_N@Z 004172f0 f i Intercessor.obj
 0001:00016310       ?_Insert@?$_Tree@IU?$pair@$$CBIPAVIPlayer@@@std@@U_Kfn@?$map@IPAVIPlayer@@U?$less@I@std@@V?$allocator@PAVIPlayer@@@3@@2@U?$less@I@2@V?$allocator@PAVIPlayer@@@2@@std@@IAE?AViterator@12@PAU_Node@12@0ABU?$pair@$$CBIPAVIPlayer@@@2@@Z 00417310 f i Intercessor.obj
 0001:00016610       ?_Lbound@?$_Tree@IU?$pair@$$CBIPAVIPlayer@@@std@@U_Kfn@?$map@IPAVIPlayer@@U?$less@I@std@@V?$allocator@PAVIPlayer@@@3@@2@U?$less@I@2@V?$allocator@PAVIPlayer@@@2@@std@@IBEPAU_Node@12@ABI@Z 00417610 f i Intercessor.obj
 0001:00016660       ?_Dec@const_iterator@?$_Tree@IU?$pair@$$CBIPAVIPlayer@@@std@@U_Kfn@?$map@IPAVIPlayer@@U?$less@I@std@@V?$allocator@PAVIPlayer@@@3@@2@U?$less@I@2@V?$allocator@PAVIPlayer@@@2@@std@@QAEXXZ 00417660 f i Intercessor.obj
 0001:00016720       ?_Construct@std@@YAXPAU?$pair@$$CBIPAVIPlayer@@@1@ABU21@@Z 00417720 f i Intercessor.obj
 0001:00016810       ??0CNetwork@@QAE@XZ        00417810 f   Network.obj
 0001:00016850       ??_ECNetwork@@UAEPAXI@Z    00417850 f i Network.obj
 0001:00016850       ??_GCNetwork@@UAEPAXI@Z    00417850 f i Network.obj
 0001:00016870       ??1CNetwork@@UAE@XZ        00417870 f   Network.obj
 0001:000168f0       ?Create@CNetwork@@QAE_NXZ  004178f0 f   Network.obj
 0001:00016c60       ?Destroy@CNetwork@@QAEXXZ  00417c60 f   Network.obj
 0001:00016e50       ?append@?$basic_string@DU?$char_traits@D@std@@V?$allocator@D@2@@std@@QAEAAV12@ID@Z 00417e50 f i Network.obj
 0001:00016f20       ??Hstd@@YA?AV?$basic_string@DU?$char_traits@D@std@@V?$allocator@D@2@@0@ABV10@PBD@Z 00417f20 f i Network.obj
 0001:00017080       ??0CPlayerCreator@@QAE@XZ  00418080 f   PlayerCreator.obj
 0001:00017160       ??1?$map@IV?$vector@IV?$allocator@I@std@@@std@@U?$less@I@2@V?$allocator@V?$vector@IV?$allocator@I@std@@@std@@@2@@std@@QAE@XZ 00418160 f i PlayerCreator.obj
 0001:000171d0       ??1CPlayerCreator@@QAE@XZ  004181d0 f   PlayerCreator.obj
 0001:000172f0       ?Init@CPlayerCreator@@AAE_NXZ 004182f0 f   PlayerCreator.obj
 0001:00017740       ??1?$pair@$$CBIV?$vector@IV?$allocator@I@std@@@std@@@std@@QAE@XZ 00418740 f i PlayerCreator.obj
 0001:00017770       ?GetRevivalID@CPlayerCreator@@QAEIII@Z 00418770 f   PlayerCreator.obj
 0001:00017800       ?GetRoleData@CPlayerCreator@@QAEPBUTRoleData@@AAIPAUtagRoleGeneratorParam@1@@Z 00418800 f   PlayerCreator.obj
 0001:000178c0       ?GetRoleDataFromIni@CPlayerCreator@@AAE_NPAEPBD@Z 004188c0 f   PlayerCreator.obj
 0001:00017fc0       ??1?$vector@IV?$allocator@I@std@@@std@@QAE@XZ 00418fc0 f i PlayerCreator.obj
 0001:00017ff0       ?size@?$vector@IV?$allocator@I@std@@@std@@QBEIXZ 00418ff0 f i PlayerCreator.obj
 0001:00018010       ?insert@?$vector@IV?$allocator@I@std@@@std@@QAEXPAIIABI@Z 00419010 f i PlayerCreator.obj
 0001:00018220       ?_Destroy@?$vector@IV?$allocator@I@std@@@std@@IAEXPAI0@Z 00419220 f i PlayerCreator.obj
 0001:00018230       ?_Ucopy@?$vector@IV?$allocator@I@std@@@std@@IAEPAIPBI0PAI@Z 00419230 f i PlayerCreator.obj
 0001:00018260       ?insert@?$_Tree@IU?$pair@$$CBIV?$vector@IV?$allocator@I@std@@@std@@@std@@U_Kfn@?$map@IV?$vector@IV?$allocator@I@std@@@std@@U?$less@I@2@V?$allocator@V?$vector@IV?$allocator@I@std@@@std@@@2@@2@U?$less@I@2@V?$allocator@V?$vector@IV?$allocator@I@std@@@std@@@2@@std@@QAE?AU?$pair@Viterator@?$_Tree@IU?$pair@$$CBIV?$vector@IV?$allocator@I@std@@@std@@@std@@U_Kfn@?$map@IV?$vector@IV?$allocator@I@std@@@std@@U?$less@I@2@V?$allocator@V?$vector@IV?$allocator@I@std@@@std@@@2@@2@U?$less@I@2@V?$allocator@V?$vector@IV?$allocator@I@std@@@std@@@2@@std@@_N@2@ABU?$pair@$$CBIV?$vector@IV?$allocator@I@std@@@std@@@2@@Z 00419260 f i PlayerCreator.obj
 0001:00018390       ?erase@?$_Tree@IU?$pair@$$CBIV?$vector@IV?$allocator@I@std@@@std@@@std@@U_Kfn@?$map@IV?$vector@IV?$allocator@I@std@@@std@@U?$less@I@2@V?$allocator@V?$vector@IV?$allocator@I@std@@@std@@@2@@2@U?$less@I@2@V?$allocator@V?$vector@IV?$allocator@I@std@@@std@@@2@@std@@QAE?AViterator@12@V312@0@Z 00419390 f i PlayerCreator.obj
 0001:000184d0       ?erase@?$_Tree@IU?$pair@$$CBIV?$vector@IV?$allocator@I@std@@@std@@@std@@U_Kfn@?$map@IV?$vector@IV?$allocator@I@std@@@std@@U?$less@I@2@V?$allocator@V?$vector@IV?$allocator@I@std@@@std@@@2@@2@U?$less@I@2@V?$allocator@V?$vector@IV?$allocator@I@std@@@std@@@2@@std@@QAE?AViterator@12@V312@@Z 004194d0 f i PlayerCreator.obj
 0001:000189e0       ?lower_bound@?$_Tree@IU?$pair@$$CBIV?$vector@IV?$allocator@I@std@@@std@@@std@@U_Kfn@?$map@IV?$vector@IV?$allocator@I@std@@@std@@U?$less@I@2@V?$allocator@V?$vector@IV?$allocator@I@std@@@std@@@2@@2@U?$less@I@2@V?$allocator@V?$vector@IV?$allocator@I@std@@@std@@@2@@std@@QAE?AViterator@12@ABI@Z 004199e0 f i PlayerCreator.obj
 0001:00018a00       ?_Erase@?$_Tree@IU?$pair@$$CBIV?$vector@IV?$allocator@I@std@@@std@@@std@@U_Kfn@?$map@IV?$vector@IV?$allocator@I@std@@@std@@U?$less@I@2@V?$allocator@V?$vector@IV?$allocator@I@std@@@std@@@2@@2@U?$less@I@2@V?$allocator@V?$vector@IV?$allocator@I@std@@@std@@@2@@std@@IAEXPAU_Node@12@@Z 00419a00 f i PlayerCreator.obj
 0001:00018aa0       ?_Insert@?$_Tree@IU?$pair@$$CBIV?$vector@IV?$allocator@I@std@@@std@@@std@@U_Kfn@?$map@IV?$vector@IV?$allocator@I@std@@@std@@U?$less@I@2@V?$allocator@V?$vector@IV?$allocator@I@std@@@std@@@2@@2@U?$less@I@2@V?$allocator@V?$vector@IV?$allocator@I@std@@@std@@@2@@std@@IAE?AViterator@12@PAU_Node@12@0ABU?$pair@$$CBIV?$vector@IV?$allocator@I@std@@@std@@@2@@Z 00419aa0 f i PlayerCreator.obj
 0001:00018da0       ?_Inc@const_iterator@?$_Tree@IU?$pair@$$CBIV?$vector@IV?$allocator@I@std@@@std@@@std@@U_Kfn@?$map@IV?$vector@IV?$allocator@I@std@@@std@@U?$less@I@2@V?$allocator@V?$vector@IV?$allocator@I@std@@@std@@@2@@2@U?$less@I@2@V?$allocator@V?$vector@IV?$allocator@I@std@@@std@@@2@@std@@QAEXXZ 00419da0 f i PlayerCreator.obj
 0001:00018e50       ?_Lbound@?$_Tree@IU?$pair@$$CBIV?$vector@IV?$allocator@I@std@@@std@@@std@@U_Kfn@?$map@IV?$vector@IV?$allocator@I@std@@@std@@U?$less@I@2@V?$allocator@V?$vector@IV?$allocator@I@std@@@std@@@2@@2@U?$less@I@2@V?$allocator@V?$vector@IV?$allocator@I@std@@@std@@@2@@std@@IBEPAU_Node@12@ABI@Z 00419e50 f i PlayerCreator.obj
 0001:00018ea0       ?_Dec@const_iterator@?$_Tree@IU?$pair@$$CBIV?$vector@IV?$allocator@I@std@@@std@@@std@@U_Kfn@?$map@IV?$vector@IV?$allocator@I@std@@@std@@U?$less@I@2@V?$allocator@V?$vector@IV?$allocator@I@std@@@std@@@2@@2@U?$less@I@2@V?$allocator@V?$vector@IV?$allocator@I@std@@@std@@@2@@std@@QAEXXZ 00419ea0 f i PlayerCreator.obj
 0001:00018f60       ?_Construct@std@@YAXPAU?$pair@$$CBIV?$vector@IV?$allocator@I@std@@@std@@@1@ABU21@@Z 00419f60 f i PlayerCreator.obj
 0001:00019000       ??_G?$basic_string@DU?$char_traits@D@std@@V?$allocator@D@2@@std@@QAEPAXI@Z 0041a000 f i PlayerCreator.obj
 0001:00019120       ??0CSmartClient@@QAE@XZ    0041a120 f   SmartClient.obj
 0001:000191f0       ??_ECSmartClient@@UAEPAXI@Z 0041a1f0 f i SmartClient.obj
 0001:000191f0       ??_GCSmartClient@@UAEPAXI@Z 0041a1f0 f i SmartClient.obj
 0001:00019210       ??1CSmartClient@@UAE@XZ    0041a210 f   SmartClient.obj
 0001:00019380       ?Open@CSmartClient@@QAE_NQBDGPAUHWND__@@PBD2_N@Z 0041a380 f   SmartClient.obj
 0001:000195f0       ?Close@CSmartClient@@QAEXXZ 0041a5f0 f   SmartClient.obj
 0001:00019600       ?EventNotify@CSmartClient@@KGXPAXABK@Z 0041a600 f   SmartClient.obj
 0001:00019650       ?_EventNotify@CSmartClient@@IAEXABK@Z 0041a650 f   SmartClient.obj
 0001:000196a0       ?CreateConnectThread@CSmartClient@@IAE_NXZ 0041a6a0 f   SmartClient.obj
 0001:000196d0       ?WorkingThreadFunction@CSmartClient@@SGKPAX@Z 0041a6d0 f   SmartClient.obj
 0001:00019800       ?_Connect@CSmartClient@@IAEPAUIClient@@XZ 0041a800 f   SmartClient.obj
 0001:00019970       ?_Verify@CSmartClient@@IAEXPAUIClient@@_N@Z 0041a970 f   SmartClient.obj
 0001:00019d70       ?Send@CSmartClient@@QAE_NQBXABI@Z 0041ad70 f   SmartClient.obj
 0001:00019f20       ?Recv@CSmartClient@@QAEPBXAAI@Z 0041af20 f   SmartClient.obj
 0001:00019f60       ?IsNormal@CSmartClient@@AAE_NXZ 0041af60 f   SmartClient.obj
 0001:00019f90       ?IsConnecting@CSmartClient@@AAE_NXZ 0041af90 f   SmartClient.obj
 0001:00019fc0       ?IsVerifying@CSmartClient@@AAE_NXZ 0041afc0 f   SmartClient.obj
 0001:00019ff0       ?IsError@CSmartClient@@AAE_NXZ 0041aff0 f   SmartClient.obj
 0001:0001a020       ?SwitchToConnecting@CSmartClient@@AAEXXZ 0041b020 f   SmartClient.obj
 0001:0001a040       ?SetClientStatus@CSmartClient@@AAE_NW4enumClientStatus@1@@Z 0041b040 f   SmartClient.obj
 0001:0001a0f0       ??1?$list@PAVCBuffer@Win32@OnlineGameLib@@V?$allocator@PAVCBuffer@Win32@OnlineGameLib@@@std@@@std@@QAE@XZ 0041b0f0 f i SmartClient.obj
 0001:0001a140       ?erase@?$list@PAVCBuffer@Win32@OnlineGameLib@@V?$allocator@PAVCBuffer@Win32@OnlineGameLib@@@std@@@std@@QAE?AViterator@12@V312@@Z 0041b140 f i SmartClient.obj
 0001:0001a1b0       _InterlockedExchange@8     0041b1b0 f   kernel32:KERNEL32.dll
 0001:0001a1b6       _GetLastError@0            0041b1b6 f   kernel32:KERNEL32.dll
 0001:0001a1bc       _CreateEventA@16           0041b1bc f   kernel32:KERNEL32.dll
 0001:0001a1c2       _CloseHandle@4             0041b1c2 f   kernel32:KERNEL32.dll
 0001:0001a1c8       _WaitForSingleObject@8     0041b1c8 f   kernel32:KERNEL32.dll
 0001:0001a1ce       _ResetEvent@4              0041b1ce f   kernel32:KERNEL32.dll
 0001:0001a1d4       _SetEvent@4                0041b1d4 f   kernel32:KERNEL32.dll
 0001:0001a1da       _PulseEvent@4              0041b1da f   kernel32:KERNEL32.dll
 0001:0001a1e0       _InitializeCriticalSection@4 0041b1e0 f   kernel32:KERNEL32.dll
 0001:0001a1e6       _DeleteCriticalSection@4   0041b1e6 f   kernel32:KERNEL32.dll
 0001:0001a1ec       _LeaveCriticalSection@4    0041b1ec f   kernel32:KERNEL32.dll
 0001:0001a1f2       _EnterCriticalSection@4    0041b1f2 f   kernel32:KERNEL32.dll
 0001:0001a1f8       _InterlockedIncrement@4    0041b1f8 f   kernel32:KERNEL32.dll
 0001:0001a1fe       _InterlockedExchangeAdd@8  0041b1fe f   kernel32:KERNEL32.dll
 0001:0001a204       _GetTickCount@0            0041b204 f   kernel32:KERNEL32.dll
 0001:0001a20a       _GetLocalTime@4            0041b20a f   kernel32:KERNEL32.dll
 0001:0001a210       _CreateThread@24           0041b210 f   kernel32:KERNEL32.dll
 0001:0001a216       _TerminateThread@8         0041b216 f   kernel32:KERNEL32.dll
 0001:0001a21c       _Sleep@4                   0041b21c f   kernel32:KERNEL32.dll
 0001:0001a222       _GetProcAddress@8          0041b222 f   kernel32:KERNEL32.dll
 0001:0001a228       _FreeLibrary@4             0041b228 f   kernel32:KERNEL32.dll
 0001:0001a22e       _LoadLibraryA@4            0041b22e f   kernel32:KERNEL32.dll
 0001:0001a234       _DialogBoxParamA@20        0041b234 f   user32:USER32.dll
 0001:0001a23a       _LoadStringA@16            0041b23a f   user32:USER32.dll
 0001:0001a240       _MessageBoxA@16            0041b240 f   user32:USER32.dll
 0001:0001a246       _SetDlgItemInt@16          0041b246 f   user32:USER32.dll
 0001:0001a24c       _SetDlgItemTextA@12        0041b24c f   user32:USER32.dll
 0001:0001a252       _SetFocus@4                0041b252 f   user32:USER32.dll
 0001:0001a258       _GetDlgItem@8              0041b258 f   user32:USER32.dll
 0001:0001a25e       _PostMessageA@16           0041b25e f   user32:USER32.dll
 0001:0001a264       _EndDialog@8               0041b264 f   user32:USER32.dll
 0001:0001a26a       _EnableWindow@8            0041b26a f   user32:USER32.dll
 0001:0001a270       _GetDlgItemInt@16          0041b270 f   user32:USER32.dll
 0001:0001a276       _GetDlgItemTextA@16        0041b276 f   user32:USER32.dll
 0001:0001a27c       _RegisterClassExA@4        0041b27c f   user32:USER32.dll
 0001:0001a282       _LoadImageA@24             0041b282 f   user32:USER32.dll
 0001:0001a288       _GetSystemMetrics@4        0041b288 f   user32:USER32.dll
 0001:0001a28e       _LoadCursorA@8             0041b28e f   user32:USER32.dll
 0001:0001a294       _LoadIconA@8               0041b294 f   user32:USER32.dll
 0001:0001a29a       _DispatchMessageA@4        0041b29a f   user32:USER32.dll
 0001:0001a2a0       _TranslateMessage@4        0041b2a0 f   user32:USER32.dll
 0001:0001a2a6       _IsDialogMessageA@8        0041b2a6 f   user32:USER32.dll
 0001:0001a2ac       _IsWindow@4                0041b2ac f   user32:USER32.dll
 0001:0001a2b2       _GetMessageA@16            0041b2b2 f   user32:USER32.dll
 0001:0001a2b8       _UpdateWindow@4            0041b2b8 f   user32:USER32.dll
 0001:0001a2be       _ShowWindow@8              0041b2be f   user32:USER32.dll
 0001:0001a2c4       _CreateDialogParamA@20     0041b2c4 f   user32:USER32.dll
 0001:0001a2ca       _PostQuitMessage@4         0041b2ca f   user32:USER32.dll
 0001:0001a2d0       _DestroyWindow@4           0041b2d0 f   user32:USER32.dll
 0001:0001a2d6       _KillTimer@8               0041b2d6 f   user32:USER32.dll
 0001:0001a2dc       _IsDlgButtonChecked@8      0041b2dc f   user32:USER32.dll
 0001:0001a2e2       _SendMessageA@16           0041b2e2 f   user32:USER32.dll
 0001:0001a2e8       _SetWindowTextA@8          0041b2e8 f   user32:USER32.dll
 0001:0001a2ee       _SetTimer@16               0041b2ee f   user32:USER32.dll
 0001:0001a2f4       _CheckDlgButton@12         0041b2f4 f   user32:USER32.dll
 0001:0001a2fa       _GetStockObject@4          0041b2fa f   gdi32:GDI32.dll
 0001:0001a300       _CoCreateGuid@4            0041b300 f   ole32:ole32.dll
 0001:0001a310       ??0CMutex@Win32@OnlineGameLib@@QAE@PAU_SECURITY_ATTRIBUTES@@HHPBD@Z 0041b310 f   common:Mutex.obj
 0001:0001a5a0       ??_GCMutex@Win32@OnlineGameLib@@UAEPAXI@Z 0041b5a0 f i common:Mutex.obj
 0001:0001a5a0       ??_ECMutex@Win32@OnlineGameLib@@UAEPAXI@Z 0041b5a0 f i common:Mutex.obj
 0001:0001a5c0       ?GetMutex@CMutex@Win32@OnlineGameLib@@QBEPAXXZ 0041b5c0 f   common:Mutex.obj
 0001:0001a5d0       ?GetName@CMutex@Win32@OnlineGameLib@@QBEPBDXZ 0041b5d0 f   common:Mutex.obj
 0001:0001a5e0       ?Wait@CMutex@Win32@OnlineGameLib@@QBEXXZ 0041b5e0 f   common:Mutex.obj
 0001:0001a6e0       ?Wait@CMutex@Win32@OnlineGameLib@@QBE_NK@Z 0041b6e0 f   common:Mutex.obj
 0001:0001a7d0       ??1CMutex@Win32@OnlineGameLib@@UAE@XZ 0041b7d0 f   common:Mutex.obj
 0001:0001a850       ??0CWin32Exception@Win32@OnlineGameLib@@QAE@ABV?$basic_string@DU?$char_traits@D@std@@V?$allocator@D@2@@std@@K@Z 0041b850 f   common:Win32Exception.obj
 0001:0001a910       ??0CException@Win32@OnlineGameLib@@QAE@ABV?$basic_string@DU?$char_traits@D@std@@V?$allocator@D@2@@std@@0@Z 0041b910 f   common:Exception.obj
 0001:0001aa40       ?GetWhere@CException@Win32@OnlineGameLib@@UBE?AV?$basic_string@DU?$char_traits@D@std@@V?$allocator@D@2@@std@@XZ 0041ba40 f   common:Exception.obj
 0001:0001ab70       ?GetMessageA@CException@Win32@OnlineGameLib@@UBE?AV?$basic_string@DU?$char_traits@D@std@@V?$allocator@D@2@@std@@XZ 0041bb70 f   common:Exception.obj
 0001:0001aca0       ?MessageBoxA@CException@Win32@OnlineGameLib@@QBEXPAUHWND__@@@Z 0041bca0 f   common:Exception.obj
 0001:0001adb0       ??0CBuffer@Win32@OnlineGameLib@@AAE@AAVAllocator@012@I@Z 0041bdb0 f   common:Buffer.obj
 0001:0001ae30       ??1COpaqueUserData@OnlineGameLib@@IAE@XZ 0041be30 f i common:Buffer.obj
 0001:0001ae40       ??1CBuffer@Win32@OnlineGameLib@@AAE@XZ 0041be40 f   common:Buffer.obj
 0001:0001aea0       ?GetHeadPack@CBuffer@Win32@OnlineGameLib@@QAEPAV123@I@Z 0041bea0 f   common:Buffer.obj
 0001:0001aef0       ?GetNextPack@CBuffer@Win32@OnlineGameLib@@QAEPAV123@XZ 0041bef0 f   common:Buffer.obj
 0001:0001af40       ?AddData@CBuffer@Win32@OnlineGameLib@@QAEXQBDI@Z 0041bf40 f   common:Buffer.obj
 0001:0001b060       ?AddData@CBuffer@Win32@OnlineGameLib@@QAEXQBEI@Z 0041c060 f   common:Buffer.obj
 0001:0001b080       ?AddData@CBuffer@Win32@OnlineGameLib@@QAEXE@Z 0041c080 f   common:Buffer.obj
 0001:0001b090       ?SplitBuffer@CBuffer@Win32@OnlineGameLib@@QAEPAV123@I@Z 0041c090 f   common:Buffer.obj
 0001:0001b0e0       ?AllocateNewBuffer@CBuffer@Win32@OnlineGameLib@@QBEPAV123@XZ 0041c0e0 f   common:Buffer.obj
 0001:0001b0f0       ?Release@CBuffer@Win32@OnlineGameLib@@QAEXXZ 0041c0f0 f   common:Buffer.obj
 0001:0001b200       ??2CBuffer@Win32@OnlineGameLib@@CAPAXII@Z 0041c200 f   common:Buffer.obj
 0001:0001b210       ??3CBuffer@Win32@OnlineGameLib@@CAXPAXI@Z 0041c210 f   common:Buffer.obj
 0001:0001b220       ??0Allocator@CBuffer@Win32@OnlineGameLib@@QAE@II@Z 0041c220 f   common:Buffer.obj
 0001:0001b260       ?OnBufferCreated@Allocator@CBuffer@Win32@OnlineGameLib@@EAEXXZ 0041c260 f i common:Buffer.obj
 0001:0001b270       ?OnBufferAllocated@Allocator@CBuffer@Win32@OnlineGameLib@@EAEXXZ 0041c270 f i common:Buffer.obj
 0001:0001b280       ?OnBufferReleased@Allocator@CBuffer@Win32@OnlineGameLib@@EAEXXZ 0041c280 f i common:Buffer.obj
 0001:0001b290       ??_EAllocator@CBuffer@Win32@OnlineGameLib@@UAEPAXI@Z 0041c290 f i common:Buffer.obj
 0001:0001b290       ??_GAllocator@CBuffer@Win32@OnlineGameLib@@UAEPAXI@Z 0041c290 f i common:Buffer.obj
 0001:0001b2b0       ??1Allocator@CBuffer@Win32@OnlineGameLib@@UAE@XZ 0041c2b0 f   common:Buffer.obj
 0001:0001b320       ?Allocate@Allocator@CBuffer@Win32@OnlineGameLib@@QAEPAV234@XZ 0041c320 f   common:Buffer.obj
 0001:0001b480       ?Flush@Allocator@CBuffer@Win32@OnlineGameLib@@IAEXXZ 0041c480 f   common:Buffer.obj
 0001:0001b520       ?DestroyBuffer@Allocator@CBuffer@Win32@OnlineGameLib@@AAEXPAV234@@Z 0041c520 f i common:Buffer.obj
 0001:0001b580       ?Release@Allocator@CBuffer@Win32@OnlineGameLib@@AAEXPAV234@@Z 0041c580 f   common:Buffer.obj
 0001:0001b6f0       ??0CPackager@Win32@OnlineGameLib@@QAE@II@Z 0041c6f0 f   common:Buffer.obj
 0001:0001b880       ??_GCPackager@Win32@OnlineGameLib@@UAEPAXI@Z 0041c880 f i common:Buffer.obj
 0001:0001b880       ??_ECPackager@Win32@OnlineGameLib@@UAEPAXI@Z 0041c880 f i common:Buffer.obj
 0001:0001b8a0       ??1?$map@EPAVCBuffer@Win32@OnlineGameLib@@U?$less@E@std@@V?$allocator@PAVCBuffer@Win32@OnlineGameLib@@@5@@std@@QAE@XZ 0041c8a0 f i common:Buffer.obj
 0001:0001b910       ??1CPackager@Win32@OnlineGameLib@@UAE@XZ 0041c910 f   common:Buffer.obj
 0001:0001ba40       ?AddData@CPackager@Win32@OnlineGameLib@@QAEXEQBDIK@Z 0041ca40 f   common:Buffer.obj
 0001:0001bba0       ?AddData@CPackager@Win32@OnlineGameLib@@QAEXEQBEIK@Z 0041cba0 f   common:Buffer.obj
 0001:0001bbc0       ?DelData@CPackager@Win32@OnlineGameLib@@QAEXE@Z 0041cbc0 f   common:Buffer.obj
 0001:0001bce0       ?GetHeadPack@CPackager@Win32@OnlineGameLib@@QAEPAVCBuffer@23@EI@Z 0041cce0 f   common:Buffer.obj
 0001:0001be20       ?GetNextPack@CPackager@Win32@OnlineGameLib@@QAEPAVCBuffer@23@E@Z 0041ce20 f   common:Buffer.obj
 0001:0001bf50       ?PackUp@CPackager@Win32@OnlineGameLib@@QAEPAVCBuffer@23@PBXI@Z 0041cf50 f   common:Buffer.obj
 0001:0001c0a0       ?Empty@CPackager@Win32@OnlineGameLib@@QAEXXZ 0041d0a0 f   common:Buffer.obj
 0001:0001c1d0       ?insert@?$map@EPAVCBuffer@Win32@OnlineGameLib@@U?$less@E@std@@V?$allocator@PAVCBuffer@Win32@OnlineGameLib@@@5@@std@@QAE?AU?$pair@Viterator@?$_Tree@EU?$pair@$$CBEPAVCBuffer@Win32@OnlineGameLib@@@std@@U_Kfn@?$map@EPAVCBuffer@Win32@OnlineGameLib@@U?$less@E@std@@V?$allocator@PAVCBuffer@Win32@OnlineGameLib@@@5@@2@U?$less@E@2@V?$allocator@PAVCBuffer@Win32@OnlineGameLib@@@2@@std@@_N@2@ABU?$pair@$$CBEPAVCBuffer@Win32@OnlineGameLib@@@2@@Z 0041d1d0 f i common:Buffer.obj
 0001:0001c200       ?erase@?$_Tree@EU?$pair@$$CBEPAVCBuffer@Win32@OnlineGameLib@@@std@@U_Kfn@?$map@EPAVCBuffer@Win32@OnlineGameLib@@U?$less@E@std@@V?$allocator@PAVCBuffer@Win32@OnlineGameLib@@@5@@2@U?$less@E@2@V?$allocator@PAVCBuffer@Win32@OnlineGameLib@@@2@@std@@QAE?AViterator@12@V312@0@Z 0041d200 f i common:Buffer.obj
 0001:0001c330       ?find@?$_Tree@EU?$pair@$$CBEPAVCBuffer@Win32@OnlineGameLib@@@std@@U_Kfn@?$map@EPAVCBuffer@Win32@OnlineGameLib@@U?$less@E@std@@V?$allocator@PAVCBuffer@Win32@OnlineGameLib@@@5@@2@U?$less@E@2@V?$allocator@PAVCBuffer@Win32@OnlineGameLib@@@2@@std@@QAE?AViterator@12@ABE@Z 0041d330 f i common:Buffer.obj
 0001:0001c380       ?insert@?$_Tree@EU?$pair@$$CBEPAVCBuffer@Win32@OnlineGameLib@@@std@@U_Kfn@?$map@EPAVCBuffer@Win32@OnlineGameLib@@U?$less@E@std@@V?$allocator@PAVCBuffer@Win32@OnlineGameLib@@@5@@2@U?$less@E@2@V?$allocator@PAVCBuffer@Win32@OnlineGameLib@@@2@@std@@QAE?AU?$pair@Viterator@?$_Tree@EU?$pair@$$CBEPAVCBuffer@Win32@OnlineGameLib@@@std@@U_Kfn@?$map@EPAVCBuffer@Win32@OnlineGameLib@@U?$less@E@std@@V?$allocator@PAVCBuffer@Win32@OnlineGameLib@@@5@@2@U?$less@E@2@V?$allocator@PAVCBuffer@Win32@OnlineGameLib@@@2@@std@@_N@2@ABU?$pair@$$CBEPAVCBuffer@Win32@OnlineGameLib@@@2@@Z 0041d380 f i common:Buffer.obj
 0001:0001c4b0       ?erase@?$_Tree@EU?$pair@$$CBEPAVCBuffer@Win32@OnlineGameLib@@@std@@U_Kfn@?$map@EPAVCBuffer@Win32@OnlineGameLib@@U?$less@E@std@@V?$allocator@PAVCBuffer@Win32@OnlineGameLib@@@5@@2@U?$less@E@2@V?$allocator@PAVCBuffer@Win32@OnlineGameLib@@@2@@std@@QAE?AViterator@12@V312@@Z 0041d4b0 f i common:Buffer.obj
 0001:0001c9d0       ?lower_bound@?$_Tree@EU?$pair@$$CBEPAVCBuffer@Win32@OnlineGameLib@@@std@@U_Kfn@?$map@EPAVCBuffer@Win32@OnlineGameLib@@U?$less@E@std@@V?$allocator@PAVCBuffer@Win32@OnlineGameLib@@@5@@2@U?$less@E@2@V?$allocator@PAVCBuffer@Win32@OnlineGameLib@@@2@@std@@QAE?AViterator@12@ABE@Z 0041d9d0 f i common:Buffer.obj
 0001:0001c9f0       ?_Erase@?$_Tree@EU?$pair@$$CBEPAVCBuffer@Win32@OnlineGameLib@@@std@@U_Kfn@?$map@EPAVCBuffer@Win32@OnlineGameLib@@U?$less@E@std@@V?$allocator@PAVCBuffer@Win32@OnlineGameLib@@@5@@2@U?$less@E@2@V?$allocator@PAVCBuffer@Win32@OnlineGameLib@@@2@@std@@IAEXPAU_Node@12@@Z 0041d9f0 f i common:Buffer.obj
 0001:0001ca80       ?_Inc@const_iterator@?$_Tree@EU?$pair@$$CBEPAVCBuffer@Win32@OnlineGameLib@@@std@@U_Kfn@?$map@EPAVCBuffer@Win32@OnlineGameLib@@U?$less@E@std@@V?$allocator@PAVCBuffer@Win32@OnlineGameLib@@@5@@2@U?$less@E@2@V?$allocator@PAVCBuffer@Win32@OnlineGameLib@@@2@@std@@QAEXXZ 0041da80 f i common:Buffer.obj
 0001:0001cb30       ??0?$pair@Viterator@?$_Tree@EU?$pair@$$CBEPAVCBuffer@Win32@OnlineGameLib@@@std@@U_Kfn@?$map@EPAVCBuffer@Win32@OnlineGameLib@@U?$less@E@std@@V?$allocator@PAVCBuffer@Win32@OnlineGameLib@@@5@@2@U?$less@E@2@V?$allocator@PAVCBuffer@Win32@OnlineGameLib@@@2@@std@@_N@std@@QAE@ABViterator@?$_Tree@EU?$pair@$$CBEPAVCBuffer@Win32@OnlineGameLib@@@std@@U_Kfn@?$map@EPAVCBuffer@Win32@OnlineGameLib@@U?$less@E@std@@V?$allocator@PAVCBuffer@Win32@OnlineGameLib@@@5@@2@U?$less@E@2@V?$allocator@PAVCBuffer@Win32@OnlineGameLib@@@2@@1@AB_N@Z 0041db30 f i common:Buffer.obj
 0001:0001cb50       ?_Insert@?$_Tree@EU?$pair@$$CBEPAVCBuffer@Win32@OnlineGameLib@@@std@@U_Kfn@?$map@EPAVCBuffer@Win32@OnlineGameLib@@U?$less@E@std@@V?$allocator@PAVCBuffer@Win32@OnlineGameLib@@@5@@2@U?$less@E@2@V?$allocator@PAVCBuffer@Win32@OnlineGameLib@@@2@@std@@IAE?AViterator@12@PAU_Node@12@0ABU?$pair@$$CBEPAVCBuffer@Win32@OnlineGameLib@@@2@@Z 0041db50 f i common:Buffer.obj
 0001:0001ce50       ?_Lbound@?$_Tree@EU?$pair@$$CBEPAVCBuffer@Win32@OnlineGameLib@@@std@@U_Kfn@?$map@EPAVCBuffer@Win32@OnlineGameLib@@U?$less@E@std@@V?$allocator@PAVCBuffer@Win32@OnlineGameLib@@@5@@2@U?$less@E@2@V?$allocator@PAVCBuffer@Win32@OnlineGameLib@@@2@@std@@IBEPAU_Node@12@ABE@Z 0041de50 f i common:Buffer.obj
 0001:0001cea0       ?_Ubound@?$_Tree@EU?$pair@$$CBEPAVCBuffer@Win32@OnlineGameLib@@@std@@U_Kfn@?$map@EPAVCBuffer@Win32@OnlineGameLib@@U?$less@E@std@@V?$allocator@PAVCBuffer@Win32@OnlineGameLib@@@5@@2@U?$less@E@2@V?$allocator@PAVCBuffer@Win32@OnlineGameLib@@@2@@std@@IBEPAU_Node@12@ABE@Z 0041dea0 f i common:Buffer.obj
 0001:0001cef0       ?_Dec@const_iterator@?$_Tree@EU?$pair@$$CBEPAVCBuffer@Win32@OnlineGameLib@@@std@@U_Kfn@?$map@EPAVCBuffer@Win32@OnlineGameLib@@U?$less@E@std@@V?$allocator@PAVCBuffer@Win32@OnlineGameLib@@@5@@2@U?$less@E@2@V?$allocator@PAVCBuffer@Win32@OnlineGameLib@@@2@@std@@QAEXXZ 0041def0 f i common:Buffer.obj
 0001:0001cfb0       ?_Construct@std@@YAXPAU?$pair@$$CBEPAVCBuffer@Win32@OnlineGameLib@@@1@ABU21@@Z 0041dfb0 f i common:Buffer.obj
 0001:0001cfd0       ?_Distance@std@@YAXViterator@?$_Tree@EU?$pair@$$CBEPAVCBuffer@Win32@OnlineGameLib@@@std@@U_Kfn@?$map@EPAVCBuffer@Win32@OnlineGameLib@@U?$less@E@std@@V?$allocator@PAVCBuffer@Win32@OnlineGameLib@@@5@@2@U?$less@E@2@V?$allocator@PAVCBuffer@Win32@OnlineGameLib@@@2@@1@0AAIUbidirectional_iterator_tag@1@@Z 0041dfd0 f i common:Buffer.obj
 0001:0001d290       ?SetLogFileName@Win32@OnlineGameLib@@YAXABV?$basic_string@DU?$char_traits@D@std@@V?$allocator@D@2@@std@@@Z 0041e290 f   common:Utils.obj
 0001:0001d3a0       ?Message@Win32@OnlineGameLib@@YAXQBD@Z 0041e3a0 f   common:Utils.obj
 0001:0001d3d0       ?Output@Win32@OnlineGameLib@@YAXABV?$basic_string@DU?$char_traits@D@std@@V?$allocator@D@2@@std@@@Z 0041e3d0 f   common:Utils.obj
 0001:0001d3e0       ?Trace@Win32@OnlineGameLib@@YAXABV?$basic_string@DU?$char_traits@D@std@@V?$allocator@D@2@@std@@0@Z 0041e3e0 f   common:Utils.obj
 0001:0001d3f0       ?GetLastErrorMessage@Win32@OnlineGameLib@@YA?AV?$basic_string@DU?$char_traits@D@std@@V?$allocator@D@2@@std@@K@Z 0041e3f0 f   common:Utils.obj
 0001:0001d510       ?HexToString@Win32@OnlineGameLib@@YA?AV?$basic_string@DU?$char_traits@D@std@@V?$allocator@D@2@@std@@PBEI@Z 0041e510 f   common:Utils.obj
 0001:0001d6a0       ?StringToHex@Win32@OnlineGameLib@@YAXABV?$basic_string@DU?$char_traits@D@std@@V?$allocator@D@2@@std@@PAEI@Z 0041e6a0 f   common:Utils.obj
 0001:0001d7e0       ?HexStringToDWORD@Win32@OnlineGameLib@@YAKPBD@Z 0041e7e0 f   common:Utils.obj
 0001:0001d840       ?HashStr2ID@Win32@OnlineGameLib@@YAKQBD@Z 0041e840 f   common:Utils.obj
 0001:0001d890       ?net_aton@Win32@OnlineGameLib@@YAKPBD@Z 0041e890 f   common:Utils.obj
 0001:0001d920       ?net_ntoa@Win32@OnlineGameLib@@YAPBDK@Z 0041e920 f   common:Utils.obj
 0001:0001d960       ?GetCurrentDirectoryA@Win32@OnlineGameLib@@YA?AV?$basic_string@DU?$char_traits@D@std@@V?$allocator@D@2@@std@@XZ 0041e960 f   common:Utils.obj
 0001:0001dae0       ?GetAppFullPath@Win32@OnlineGameLib@@YA?AV?$basic_string@DU?$char_traits@D@std@@V?$allocator@D@2@@std@@PAUHINSTANCE__@@@Z 0041eae0 f   common:Utils.obj
 0001:0001dcc0       ?GetDateStamp@Win32@OnlineGameLib@@YA?AV?$basic_string@DU?$char_traits@D@std@@V?$allocator@D@2@@std@@XZ 0041ecc0 f   common:Utils.obj
 0001:0001dde0       ?GetTimeStamp@Win32@OnlineGameLib@@YA?AV?$basic_string@DU?$char_traits@D@std@@V?$allocator@D@2@@std@@XZ 0041ede0 f   common:Utils.obj
 0001:0001def0       ?ToHex@Win32@OnlineGameLib@@YA?AV?$basic_string@DU?$char_traits@D@std@@V?$allocator@D@2@@std@@E@Z 0041eef0 f   common:Utils.obj
 0001:0001dfd0       ?DumpData@Win32@OnlineGameLib@@YA?AV?$basic_string@DU?$char_traits@D@std@@V?$allocator@D@2@@std@@QBEII@Z 0041efd0 f   common:Utils.obj
 0001:0001e370       ?GetComputerNameA@Win32@OnlineGameLib@@YA?AV?$basic_string@DU?$char_traits@D@std@@V?$allocator@D@2@@std@@XZ 0041f370 f   common:Utils.obj
 0001:0001e5c0       ?GetModuleFileNameA@Win32@OnlineGameLib@@YA?AV?$basic_string@DU?$char_traits@D@std@@V?$allocator@D@2@@std@@PAUHINSTANCE__@@@Z 0041f5c0 f   common:Utils.obj
 0001:0001e820       ?GetUserNameA@Win32@OnlineGameLib@@YA?AV?$basic_string@DU?$char_traits@D@std@@V?$allocator@D@2@@std@@XZ 0041f820 f   common:Utils.obj
 0001:0001ea80       ?StripLeading@Win32@OnlineGameLib@@YA?AV?$basic_string@DU?$char_traits@D@std@@V?$allocator@D@2@@std@@ABV34@D@Z 0041fa80 f   common:Utils.obj
 0001:0001eb60       ?StripTrailing@Win32@OnlineGameLib@@YA?AV?$basic_string@DU?$char_traits@D@std@@V?$allocator@D@2@@std@@ABV34@D@Z 0041fb60 f   common:Utils.obj
 0001:0001ebb0       ?GetFileVersion@Win32@OnlineGameLib@@YA?AV?$basic_string@DU?$char_traits@D@std@@V?$allocator@D@2@@std@@XZ 0041fbb0 f   common:Utils.obj
 0001:0001ee90       ?GetLocalName@Win32@OnlineGameLib@@YA_NPADI@Z 0041fe90 f   common:Utils.obj
 0001:0001ef90       ?GetLocalAddress@Win32@OnlineGameLib@@YA_NPADIH@Z 0041ff90 f   common:Utils.obj
 0001:0001f0c0       ?substr@?$basic_string@DU?$char_traits@D@std@@V?$allocator@D@2@@std@@QBE?AV12@II@Z 004200c0 f i common:Utils.obj
 0001:0001f250       ??0?$basic_fstream@DU?$char_traits@D@std@@@std@@QAE@XZ 00420250 f i common:Utils.obj
 0001:0001f3b0       ?_Incref@facet@locale@std@@QAEXXZ 004203b0 f i common:Utils.obj
 0001:0001f3e0       ??0?$basic_ostream@DU?$char_traits@D@std@@@std@@QAE@PAV?$basic_streambuf@DU?$char_traits@D@std@@@1@_N1@Z 004203e0 f i common:Utils.obj
 0001:0001f4a0       ??1?$basic_fstream@DU?$char_traits@D@std@@@std@@UAE@XZ 004204a0 f i common:Utils.obj
 0001:0001f5e0       ?overflow@?$basic_filebuf@DU?$char_traits@D@std@@@std@@MAEHH@Z 004205e0 f i common:Utils.obj
 0001:0001f7c0       ?pbackfail@?$basic_filebuf@DU?$char_traits@D@std@@@std@@MAEHH@Z 004207c0 f i common:Utils.obj
 0001:0001f960       ?underflow@?$basic_filebuf@DU?$char_traits@D@std@@@std@@MAEHXZ 00420960 f i common:Utils.obj
 0001:0001f990       ?uflow@?$basic_filebuf@DU?$char_traits@D@std@@@std@@MAEHXZ 00420990 f i common:Utils.obj
 0001:0001fb80       ?seekoff@?$basic_filebuf@DU?$char_traits@D@std@@@std@@MAE?AV?$fpos@H@2@JW4seekdir@ios_base@2@H@Z 00420b80 f i common:Utils.obj
 0001:0001fc10       ?seekpos@?$basic_filebuf@DU?$char_traits@D@std@@@std@@MAE?AV?$fpos@H@2@V32@H@Z 00420c10 f i common:Utils.obj
 0001:0001fda0       ?setbuf@?$basic_filebuf@DU?$char_traits@D@std@@@std@@MAEPAV?$basic_streambuf@DU?$char_traits@D@std@@@2@PADH@Z 00420da0 f i common:Utils.obj
 0001:0001fdd0       ?sync@?$basic_filebuf@DU?$char_traits@D@std@@@std@@MAEHXZ 00420dd0 f i common:Utils.obj
 0001:0001fdf0       ??1?$auto_ptr@D@std@@QAE@XZ 00420df0 f i common:Utils.obj
 0001:0001fe00       ??1?$auto_ptr@E@std@@QAE@XZ 00420e00 f i common:Utils.obj
 0001:0001fe10       ??_E?$basic_fstream@DU?$char_traits@D@std@@@std@@UAEPAXI@Z 00420e10 f i common:Utils.obj
 0001:0001fe10       ??_G?$basic_fstream@DU?$char_traits@D@std@@@std@@UAEPAXI@Z 00420e10 f i common:Utils.obj
 0001:0001fe40       ??_E?$basic_filebuf@DU?$char_traits@D@std@@@std@@UAEPAXI@Z 00420e40 f i common:Utils.obj
 0001:0001fe40       ??_G?$basic_filebuf@DU?$char_traits@D@std@@@std@@UAEPAXI@Z 00420e40 f i common:Utils.obj
 0001:0001fe60       ??1?$basic_filebuf@DU?$char_traits@D@std@@@std@@UAE@XZ 00420e60 f i common:Utils.obj
 0001:0001ffb0       ?init@?$basic_ios@DU?$char_traits@D@std@@@std@@IAEXPAV?$basic_streambuf@DU?$char_traits@D@std@@@2@_N@Z 00420fb0 f i common:Utils.obj
 0001:00020000       ?_Init@?$basic_streambuf@DU?$char_traits@D@std@@@std@@IAEXXZ 00421000 f i common:Utils.obj
 0001:00020060       ?append@?$basic_string@DU?$char_traits@D@std@@V?$allocator@D@2@@std@@QAEAAV12@ABV12@II@Z 00421060 f i common:Utils.obj
 0001:00020140       ?append@?$basic_string@DU?$char_traits@D@std@@V?$allocator@D@2@@std@@QAEAAV12@PBDI@Z 00421140 f i common:Utils.obj
 0001:00020200       ?_Freeze@?$basic_string@DU?$char_traits@D@std@@V?$allocator@D@2@@std@@AAEXXZ 00421200 f i common:Utils.obj
 0001:00020280       ?_Init@?$basic_filebuf@DU?$char_traits@D@std@@@std@@IAEXPAU_iobuf@@W4_Initfl@12@@Z 00421280 f i common:Utils.obj
 0001:00020360       ??0locale@std@@QAE@XZ      00421360 f i common:Utils.obj
 0001:000203b0       ??Hstd@@YA?AV?$basic_string@DU?$char_traits@D@std@@V?$allocator@D@2@@0@ABV10@0@Z 004213b0 f i common:Utils.obj
 0001:00020510       ??0CLibrary@Win32@OnlineGameLib@@QAE@QBD@Z 00421510 f   common:Library.obj
 0001:00020570       ??_ECLibrary@Win32@OnlineGameLib@@UAEPAXI@Z 00421570 f i common:Library.obj
 0001:00020570       ??_GCLibrary@Win32@OnlineGameLib@@UAEPAXI@Z 00421570 f i common:Library.obj
 0001:00020590       ??0CLibrary@Win32@OnlineGameLib@@QAE@XZ 00421590 f   common:Library.obj
 0001:000205b0       ??1CLibrary@Win32@OnlineGameLib@@UAE@XZ 004215b0 f   common:Library.obj
 0001:00020620       ?Load@CLibrary@Win32@OnlineGameLib@@QAE_NQBD@Z 00421620 f   common:Library.obj
 0001:000206e0       ?Free@CLibrary@Win32@OnlineGameLib@@QAE_NXZ 004216e0 f   common:Library.obj
 0001:00020730       ??0CIniFile@Win32@OnlineGameLib@@QAE@XZ 00421730 f   common:IniFile.obj
 0001:00020750       ??0CIniFile@Win32@OnlineGameLib@@QAE@PBD@Z 00421750 f   common:IniFile.obj
 0001:00020780       ??1CIniFile@Win32@OnlineGameLib@@QAE@XZ 00421780 f   common:IniFile.obj
 0001:00020790       ?SetFile@CIniFile@Win32@OnlineGameLib@@QAEXPBD@Z 00421790 f   common:IniFile.obj
 0001:000207c0       ?ReadInteger@CIniFile@Win32@OnlineGameLib@@QAEHPBD0H@Z 004217c0 f   common:IniFile.obj
 0001:00020820       ?WriteInteger@CIniFile@Win32@OnlineGameLib@@QAEHPBD0H@Z 00421820 f   common:IniFile.obj
 0001:00020860       ?ReadHexNum@CIniFile@Win32@OnlineGameLib@@QAEKPBD0K@Z 00421860 f   common:IniFile.obj
 0001:000208c0       ?WriteHexNum@CIniFile@Win32@OnlineGameLib@@QAEHPBD0K@Z 004218c0 f   common:IniFile.obj
 0001:00020900       ?ReadString@CIniFile@Win32@OnlineGameLib@@QAEKPBD0PADK0@Z 00421900 f   common:IniFile.obj
 0001:00020930       ?WriteString@CIniFile@Win32@OnlineGameLib@@QAEHPBD00@Z 00421930 f   common:IniFile.obj
 0001:00020950       ?ReadSections@CIniFile@Win32@OnlineGameLib@@QAEHAAV?$vector@V?$basic_string@DU?$char_traits@D@std@@V?$allocator@D@2@@std@@V?$allocator@V?$basic_string@DU?$char_traits@D@std@@V?$allocator@D@2@@std@@@2@@std@@@Z 00421950 f   common:IniFile.obj
 0001:00020ae0       ?ReadSection@CIniFile@Win32@OnlineGameLib@@QAEHPBDAAV?$vector@V?$basic_string@DU?$char_traits@D@std@@V?$allocator@D@2@@std@@V?$allocator@V?$basic_string@DU?$char_traits@D@std@@V?$allocator@D@2@@std@@@2@@std@@@Z 00421ae0 f   common:IniFile.obj
 0001:00020ca0       ??0CNodeList@OnlineGameLib@@QAE@XZ 00421ca0 f   common:NodeList.obj
 0001:00020cb0       ?PushNode@CNodeList@OnlineGameLib@@QAEXPAVNode@12@@Z 00421cb0 f   common:NodeList.obj
 0001:00020ce0       ?PopNode@CNodeList@OnlineGameLib@@QAEPAVNode@12@XZ 00421ce0 f   common:NodeList.obj
 0001:00020d00       ?RemoveNode@CNodeList@OnlineGameLib@@AAEXPAVNode@12@@Z 00421d00 f   common:NodeList.obj
 0001:00020d20       ??0Node@CNodeList@OnlineGameLib@@IAE@XZ 00421d20 f   common:NodeList.obj
 0001:00020d30       ??1Node@CNodeList@OnlineGameLib@@IAE@XZ 00421d30 f   common:NodeList.obj
 0001:00020d90       ?AddToList@Node@CNodeList@OnlineGameLib@@QAEXPAV23@@Z 00421d90 f   common:NodeList.obj
 0001:00020da0       ?RemoveFromList@Node@CNodeList@OnlineGameLib@@QAEXXZ 00421da0 f   common:NodeList.obj
 0001:00020db0       ?Unlink@Node@CNodeList@OnlineGameLib@@AAEXXZ 00421db0 f   common:NodeList.obj
 0001:00020de0       ?KSG_StringToMD5String@@YAHQADQBD@Z 00421de0 f   engine:Engine.dll
 0001:00020de6       ??3@YAXPAX@Z               00421de6 f   libcpmt:delop.obj
 0001:00020df1       ?_Xlen@std@@YAXXZ          00421df1 f   libcpmt:string.obj
 0001:00020e4b       ??0logic_error@std@@QAE@ABV?$basic_string@DU?$char_traits@D@std@@V?$allocator@D@2@@1@@Z 00421e4b f i libcpmt:string.obj
 0001:00020eaf       ?what@logic_error@std@@UBEPBDXZ 00421eaf f i libcpmt:string.obj
 0001:00020ebc       ?_Doraise@logic_error@std@@MBEXXZ 00421ebc f i libcpmt:string.obj
 0001:00020ed9       ??1logic_error@std@@UAE@XZ 00421ed9 f i libcpmt:string.obj
 0001:00020f16       ??_Elogic_error@std@@UAEPAXI@Z 00421f16 f i libcpmt:string.obj
 0001:00020f16       ??_Glogic_error@std@@UAEPAXI@Z 00421f16 f i libcpmt:string.obj
 0001:00020f32       ??0logic_error@std@@QAE@ABV01@@Z 00421f32 f i libcpmt:string.obj
 0001:00020f8f       ??1length_error@std@@UAE@XZ 00421f8f f i libcpmt:string.obj
 0001:00020fcc       ?_Doraise@length_error@std@@MBEXXZ 00421fcc f i libcpmt:string.obj
 0001:00020fe9       ??_Elength_error@std@@UAEPAXI@Z 00421fe9 f i libcpmt:string.obj
 0001:00020fe9       ??_Glength_error@std@@UAEPAXI@Z 00421fe9 f i libcpmt:string.obj
 0001:00021005       ??0length_error@std@@QAE@ABV01@@Z 00422005 f i libcpmt:string.obj
 0001:0002101d       ?_Xran@std@@YAXXZ          0042201d f   libcpmt:string.obj
 0001:00021077       ??1out_of_range@std@@UAE@XZ 00422077 f i libcpmt:string.obj
 0001:000210b4       ?_Doraise@out_of_range@std@@MBEXXZ 004220b4 f i libcpmt:string.obj
 0001:000210d1       ??_Gout_of_range@std@@UAEPAXI@Z 004220d1 f i libcpmt:string.obj
 0001:000210d1       ??_Eout_of_range@std@@UAEPAXI@Z 004220d1 f i libcpmt:string.obj
 0001:000210ed       ??0out_of_range@std@@QAE@ABV01@@Z 004220ed f i libcpmt:string.obj
 0001:00021147       ?id@?$collate@D@std@@$E    00422147 f i libcpmt:string.obj
 0001:00021148       ??0_Lockit@std@@QAE@XZ     00422148 f   libcpmt:xlock.obj
 0001:000211e4       ??1_Lockit@std@@QAE@XZ     004221e4 f   libcpmt:xlock.obj
 0001:000211f9       ?clear@ios_base@std@@QAEXH_N@Z 004221f9 f   libcpmt:ios.obj
 0001:00021295       ??0runtime_error@std@@QAE@ABV?$basic_string@DU?$char_traits@D@std@@V?$allocator@D@2@@1@@Z 00422295 f i libcpmt:ios.obj
 0001:000212f9       ?what@runtime_error@std@@UBEPBDXZ 004222f9 f i libcpmt:ios.obj
 0001:00021306       ?_Doraise@runtime_error@std@@MBEXXZ 00422306 f i libcpmt:ios.obj
 0001:00021323       ??1runtime_error@std@@UAE@XZ 00422323 f i libcpmt:ios.obj
 0001:00021360       ??_Gruntime_error@std@@UAEPAXI@Z 00422360 f i libcpmt:ios.obj
 0001:00021360       ??_Eruntime_error@std@@UAEPAXI@Z 00422360 f i libcpmt:ios.obj
 0001:0002137c       ??0runtime_error@std@@QAE@ABV01@@Z 0042237c f i libcpmt:ios.obj
 0001:000213d9       ??1failure@ios_base@std@@UAE@XZ 004223d9 f i libcpmt:ios.obj
 0001:00021416       ?_Doraise@failure@ios_base@std@@MBEXXZ 00422416 f i libcpmt:ios.obj
 0001:00021433       ??_Efailure@ios_base@std@@UAEPAXI@Z 00422433 f i libcpmt:ios.obj
 0001:00021433       ??_Gfailure@ios_base@std@@UAEPAXI@Z 00422433 f i libcpmt:ios.obj
 0001:0002144f       ??0failure@ios_base@std@@QAE@ABV012@@Z 0042244f f i libcpmt:ios.obj
 0001:00021467       ?copyfmt@ios_base@std@@QAEAAV12@ABV12@@Z 00422467 f   libcpmt:ios.obj
 0001:000214f8       ??4locale@std@@QAEAAV01@ABV01@@Z 004224f8 f i libcpmt:ios.obj
 0001:00021527       ?imbue@ios_base@std@@QAE?AVlocale@2@ABV32@@Z 00422527 f   libcpmt:ios.obj
 0001:00021586       ?register_callback@ios_base@std@@QAEXP6AXW4event@12@AAV12@H@ZH@Z 00422586 f   libcpmt:ios.obj
 0001:000215bc       ??1ios_base@std@@UAE@XZ    004225bc f   libcpmt:ios.obj
 0001:0002160c       ?_Callfns@ios_base@std@@AAEXW4event@12@@Z 0042260c f   libcpmt:ios.obj
 0001:0002162e       ?_Findarr@ios_base@std@@AAEAAU_Iosarray@12@H@Z 0042262e f   libcpmt:ios.obj
 0001:000216ff       ?_Addstd@ios_base@std@@IAEXXZ 004226ff f   libcpmt:ios.obj
 0001:0002174d       ?_Init@ios_base@std@@IAEXXZ 0042274d f   libcpmt:ios.obj
 0001:00021785       ?_Tidy@ios_base@std@@AAEXXZ 00422785 f   libcpmt:ios.obj
 0001:000217c7       ??1istrstream@std@@UAE@XZ  004227c7 f   libcpmt:strstrea.obj
 0001:0002180d       ??_Eistrstream@std@@UAEPAXI@Z 0042280d f i libcpmt:strstrea.obj
 0001:0002180d       ??_Gistrstream@std@@UAEPAXI@Z 0042280d f i libcpmt:strstrea.obj
 0001:00021838       ??0ostrstream@std@@QAE@PADHH@Z 00422838 f   libcpmt:strstrea.obj
 0001:000218f7       ??_Gostrstream@std@@UAEPAXI@Z 004228f7 f i libcpmt:strstrea.obj
 0001:000218f7       ??_Eostrstream@std@@UAEPAXI@Z 004228f7 f i libcpmt:strstrea.obj
 0001:00021922       ??1ostrstream@std@@UAE@XZ  00422922 f   libcpmt:strstrea.obj
 0001:00021968       ??0strstream@std@@QAE@PADHH@Z 00422968 f   libcpmt:strstrea.obj
 0001:00021a2b       ??1strstream@std@@UAE@XZ   00422a2b f   libcpmt:strstrea.obj
 0001:00021a6e       ??1strstreambuf@std@@UAE@XZ 00422a6e f   libcpmt:strstrea.obj
 0001:00021aa9       ?freeze@strstreambuf@std@@QAEX_N@Z 00422aa9 f   libcpmt:strstrea.obj
 0001:00021af1       ?overflow@strstreambuf@std@@MAEHH@Z 00422af1 f   libcpmt:strstrea.obj
 0001:00021c5a       ?pbackfail@strstreambuf@std@@MAEHH@Z 00422c5a f   libcpmt:strstrea.obj
 0001:00021ca3       ?underflow@strstreambuf@std@@MAEHXZ 00422ca3 f   libcpmt:strstrea.obj
 0001:00021cee       ?seekoff@strstreambuf@std@@MAE?AV?$fpos@H@2@JW4seekdir@ios_base@2@H@Z 00422cee f   libcpmt:strstrea.obj
 0001:00021e2c       ?seekpos@strstreambuf@std@@MAE?AV?$fpos@H@2@V32@H@Z 00422e2c f   libcpmt:strstrea.obj
 0001:00021ef8       ?_Init@strstreambuf@std@@IAEXHPAD0H@Z 00422ef8 f   libcpmt:strstrea.obj
 0001:00021fa8       ?_Tidy@strstreambuf@std@@IAEXXZ 00422fa8 f   libcpmt:strstrea.obj
 0001:00021fda       ??1?$basic_ostream@DU?$char_traits@D@std@@@std@@UAE@XZ 00422fda f i libcpmt:strstrea.obj
 0001:00021fe9       ?_Pninc@?$basic_streambuf@DU?$char_traits@D@std@@@std@@IAEPADXZ 00422fe9 f i libcpmt:strstrea.obj
 0001:00021ff9       ??0?$basic_istream@DU?$char_traits@D@std@@@std@@QAE@PAV?$basic_streambuf@DU?$char_traits@D@std@@@1@_N@Z 00422ff9 f i libcpmt:strstrea.obj
 0001:00022061       ??_D?$basic_ostream@DU?$char_traits@D@std@@@std@@QAEXXZ 00423061 f i libcpmt:strstrea.obj
 0001:00022076       ??_D?$basic_istream@DU?$char_traits@D@std@@@std@@QAEXXZ 00423076 f i libcpmt:strstrea.obj
 0001:0002208b       ?_Gninc@?$basic_streambuf@DU?$char_traits@D@std@@@std@@IAEPADXZ 0042308b f i libcpmt:strstrea.obj
 0001:000220fe       ?classic@locale@std@@SAABV12@XZ 004230fe f   libcpmt:locale0.obj
 0001:0002211e       ?empty@locale@std@@SA?AV12@XZ 0042311e f   libcpmt:locale0.obj
 0001:00022165       ?_Getfacet@locale@std@@QBEPBVfacet@12@I_N@Z 00423165 f   libcpmt:locale0.obj
 0001:000221bb       ?_Iscloc@locale@std@@QBE_NXZ 004231bb f   libcpmt:locale0.obj
 0001:000221f6       ??8locale@std@@QBE_NABV01@@Z 004231f6 f   libcpmt:locale0.obj
 0001:000222c5       ?name@locale@std@@QBE?AV?$basic_string@DU?$char_traits@D@std@@V?$allocator@D@2@@2@XZ 004232c5 f i libcpmt:locale0.obj
 0001:000222fc       ?_Init@locale@std@@CAPAV_Locimp@12@XZ 004232fc f   libcpmt:locale0.obj
 0001:000223c6       ?_Tidy@locale@std@@CAXXZ   004233c6 f   libcpmt:locale0.obj
 0001:00022410       ??0_Locimp@locale@std@@AAE@_N@Z 00423410 f   libcpmt:locale0.obj
 0001:00022482       ??_G_Locimp@locale@std@@UAEPAXI@Z 00423482 f i libcpmt:locale0.obj
 0001:00022482       ??_E_Locimp@locale@std@@UAEPAXI@Z 00423482 f i libcpmt:locale0.obj
 0001:0002249e       ??1_Locimp@locale@std@@UAE@XZ 0042349e f   libcpmt:locale0.obj
 0001:00022568       ?uncaught_exception@std@@YA_NXZ 00423568 f   libcpmt:uncaught.obj
 0001:0002256b       ??0locale@std@@QAE@ABV01@0H@Z 0042356b f   libcpmt:locale.obj
 0001:00022613       ??0locale@std@@QAE@PBDH@Z  00423613 f   libcpmt:locale.obj
 0001:00022720       ?_Getname@_Locinfo@std@@QBE?AV?$basic_string@DU?$char_traits@D@std@@V?$allocator@D@2@@2@XZ 00423720 f i libcpmt:locale.obj
 0001:00022756       ??0locale@std@@QAE@ABV01@PBDH@Z 00423756 f   libcpmt:locale.obj
 0001:00022877       ?_Addfac@locale@std@@QAEAAV12@PAVfacet@12@II@Z 00423877 f   libcpmt:locale.obj
 0001:000228fa       ?global@locale@std@@SA?AV12@ABV12@@Z 004238fa f   libcpmt:locale.obj
 0001:000229f5       ?_Makeloc@_Locimp@locale@std@@CAPAV123@ABV_Locinfo@3@HPAV123@PBV23@@Z 004239f5 f   libcpmt:locale.obj
 0001:00022c69       ?do_always_noconv@codecvt_base@std@@MBE_NXZ 00423c69 f i libcpmt:locale.obj
 0001:00022c6c       ?do_max_length@codecvt_base@std@@MBEHXZ 00423c6c f i libcpmt:locale.obj
 0001:00022c70       ?do_encoding@codecvt_base@std@@MBEHXZ 00423c70 f i libcpmt:locale.obj
 0001:00022c74       ??1ctype_base@std@@UAE@XZ  00423c74 f i libcpmt:locale.obj
 0001:00022c7b       ?_Init@?$ctype@D@std@@IAEXABV_Locinfo@2@@Z 00423c7b f i libcpmt:locale.obj
 0001:00022cd0       ?_Term@?$ctype@D@std@@KAXXZ 00423cd0 f i libcpmt:locale.obj
 0001:00022cdd       ?do_tolower@?$ctype@D@std@@MBEDD@Z 00423cdd f i libcpmt:locale.obj
 0001:00022cf1       ?do_tolower@?$ctype@D@std@@MBEPBDPADPBD@Z 00423cf1 f i libcpmt:locale.obj
 0001:00022d1c       ?do_toupper@?$ctype@D@std@@MBEDD@Z 00423d1c f i libcpmt:locale.obj
 0001:00022d30       ?do_toupper@?$ctype@D@std@@MBEPBDPADPBD@Z 00423d30 f i libcpmt:locale.obj
 0001:00022d5b       ??_G?$ctype@D@std@@UAEPAXI@Z 00423d5b f i libcpmt:locale.obj
 0001:00022d5b       ??_E?$ctype@D@std@@UAEPAXI@Z 00423d5b f i libcpmt:locale.obj
 0001:00022d77       ??1?$ctype@D@std@@UAE@XZ   00423d77 f i libcpmt:locale.obj
 0001:00022d97       ??0_Locimp@locale@std@@AAE@ABV012@@Z 00423d97 f   libcpmt:locale.obj
 0001:00022eb7       ?_Addfac@_Locimp@locale@std@@AAEXPAVfacet@23@I@Z 00423eb7 f   libcpmt:locale.obj
 0001:00022f6a       ??0_Locinfo@std@@QAE@PBD@Z 00423f6a f   libcpmt:locale.obj
 0001:00023023       ??0_Locinfo@std@@QAE@HPBD@Z 00424023 f   libcpmt:locale.obj
 0001:0002309a       ??1_Locinfo@std@@QAE@XZ    0042409a f   libcpmt:locale.obj
 0001:0002310f       ?_Addcats@_Locinfo@std@@QAEAAV12@HPBD@Z 0042410f f   libcpmt:locale.obj
 0001:0002317e       ?do_in@?$codecvt@DDH@std@@MBEHAAHPBD1AAPBDPAD3AAPAD@Z 0042417e f i libcpmt:locale.obj
 0001:00023198       ?do_out@?$codecvt@DDH@std@@MBEHAAHPBD1AAPBDPAD3AAPAD@Z 00424198 f i libcpmt:locale.obj
 0001:000231b2       ?do_length@?$codecvt@DDH@std@@MBEHAAHPBD1I@Z 004241b2 f i libcpmt:locale.obj
 0001:000231c7       ?do_get@?$num_get@DV?$istreambuf_iterator@DU?$char_traits@D@std@@@std@@@std@@MBE?AV?$istreambuf_iterator@DU?$char_traits@D@std@@@2@V32@0AAVios_base@2@AAHAA_N@Z 004241c7 f i libcpmt:locale.obj
 0001:00023371       ?do_get@?$num_get@DV?$istreambuf_iterator@DU?$char_traits@D@std@@@std@@@std@@MBE?AV?$istreambuf_iterator@DU?$char_traits@D@std@@@2@V32@0AAVios_base@2@AAHAAG@Z 00424371 f i libcpmt:locale.obj
 0001:0002343d       ?do_get@?$num_get@DV?$istreambuf_iterator@DU?$char_traits@D@std@@@std@@@std@@MBE?AV?$istreambuf_iterator@DU?$char_traits@D@std@@@2@V32@0AAVios_base@2@AAHAAI@Z 0042443d f i libcpmt:locale.obj
 0001:00023505       ?do_get@?$num_get@DV?$istreambuf_iterator@DU?$char_traits@D@std@@@std@@@std@@MBE?AV?$istreambuf_iterator@DU?$char_traits@D@std@@@2@V32@0AAVios_base@2@AAHAAJ@Z 00424505 f i libcpmt:locale.obj
 0001:000235b3       ?do_get@?$num_get@DV?$istreambuf_iterator@DU?$char_traits@D@std@@@std@@@std@@MBE?AV?$istreambuf_iterator@DU?$char_traits@D@std@@@2@V32@0AAVios_base@2@AAHAAK@Z 004245b3 f i libcpmt:locale.obj
 0001:00023661       ?do_get@?$num_get@DV?$istreambuf_iterator@DU?$char_traits@D@std@@@std@@@std@@MBE?AV?$istreambuf_iterator@DU?$char_traits@D@std@@@2@V32@0AAVios_base@2@AAHAAM@Z 00424661 f i libcpmt:locale.obj
 0001:0002370b       ?do_get@?$num_get@DV?$istreambuf_iterator@DU?$char_traits@D@std@@@std@@@std@@MBE?AV?$istreambuf_iterator@DU?$char_traits@D@std@@@2@V32@0AAVios_base@2@AAHAAN@Z 0042470b f i libcpmt:locale.obj
 0001:000237b5       ?do_get@?$num_get@DV?$istreambuf_iterator@DU?$char_traits@D@std@@@std@@@std@@MBE?AV?$istreambuf_iterator@DU?$char_traits@D@std@@@2@V32@0AAVios_base@2@AAHAAO@Z 004247b5 f i libcpmt:locale.obj
 0001:0002385f       ?do_get@?$num_get@DV?$istreambuf_iterator@DU?$char_traits@D@std@@@std@@@std@@MBE?AV?$istreambuf_iterator@DU?$char_traits@D@std@@@2@V32@0AAVios_base@2@AAHAAPAX@Z 0042485f f i libcpmt:locale.obj
 0001:00023955       ??_G?$codecvt@DDH@std@@UAEPAXI@Z 00424955 f i libcpmt:locale.obj
 0001:00023955       ??_E?$codecvt@DDH@std@@UAEPAXI@Z 00424955 f i libcpmt:locale.obj
 0001:00023971       ??1?$codecvt@DDH@std@@UAE@XZ 00424971 f i libcpmt:locale.obj
 0001:00023978       ??_G?$num_get@DV?$istreambuf_iterator@DU?$char_traits@D@std@@@std@@@std@@UAEPAXI@Z 00424978 f i libcpmt:locale.obj
 0001:00023978       ??_E?$num_get@DV?$istreambuf_iterator@DU?$char_traits@D@std@@@std@@@std@@UAEPAXI@Z 00424978 f i libcpmt:locale.obj
 0001:00023994       ??1?$num_get@DV?$istreambuf_iterator@DU?$char_traits@D@std@@@std@@@std@@UAE@XZ 00424994 f i libcpmt:locale.obj
 0001:0002399b       ?_Getifld@?$num_get@DV?$istreambuf_iterator@DU?$char_traits@D@std@@@std@@@std@@CAHPADAAV?$istreambuf_iterator@DU?$char_traits@D@std@@@2@1HABVlocale@2@@Z 0042499b f i libcpmt:locale.obj
 0001:00023d30       ?_Getffld@?$num_get@DV?$istreambuf_iterator@DU?$char_traits@D@std@@@std@@@std@@CAHPADAAV?$istreambuf_iterator@DU?$char_traits@D@std@@@2@1ABVlocale@2@@Z 00424d30 f i libcpmt:locale.obj
 0001:0002401c       ?_Ffmt@?$num_put@DV?$ostreambuf_iterator@DU?$char_traits@D@std@@@std@@@std@@KAPADPADDH@Z 0042501c f i libcpmt:locale.obj
 0001:0002407a       ?_Ifmt@?$num_put@DV?$ostreambuf_iterator@DU?$char_traits@D@std@@@std@@@std@@KAPADPADDH@Z 0042507a f i libcpmt:locale.obj
 0001:000240d4       ?_Init@?$numpunct@D@std@@IAEXABV_Locinfo@2@@Z 004250d4 f i libcpmt:locale.obj
 0001:0002411d       ?assign@?$basic_string@DU?$char_traits@D@std@@V?$allocator@D@2@@std@@QAEAAV12@ID@Z 0042511d f i libcpmt:locale.obj
 0001:00024163       ?_Inc@?$istreambuf_iterator@DU?$char_traits@D@std@@@std@@AAEXXZ 00425163 f i libcpmt:locale.obj
 0001:00024185       ?sbumpc@?$basic_streambuf@DU?$char_traits@D@std@@@std@@QAEHXZ 00425185 f i libcpmt:locale.obj
 0001:000241a8       ?_Peek@?$istreambuf_iterator@DU?$char_traits@D@std@@@std@@AAEDXZ 004251a8 f i libcpmt:locale.obj
 0001:000241cc       ?sgetc@?$basic_streambuf@DU?$char_traits@D@std@@@std@@QAEHXZ 004251cc f i libcpmt:locale.obj
 0001:000241ea       ?use_facet@std@@YAABV?$ctype@D@1@ABVlocale@1@PBV21@_N@Z 004251ea f i libcpmt:locale.obj
 0001:000242b2       ??0?$ctype@D@std@@QAE@PBF_NI@Z 004252b2 f i libcpmt:locale.obj
 0001:00024351       ?use_facet@std@@YAABV?$num_get@DV?$istreambuf_iterator@DU?$char_traits@D@std@@@std@@@1@ABVlocale@1@PBV21@_N@Z 00425351 f i libcpmt:locale.obj
 0001:0002442d       ?use_facet@std@@YAABV?$num_put@DV?$ostreambuf_iterator@DU?$char_traits@D@std@@@std@@@1@ABVlocale@1@PBV21@_N@Z 0042542d f i libcpmt:locale.obj
 0001:00024509       ?use_facet@std@@YAABV?$numpunct@D@1@ABVlocale@1@PBV21@_N@Z 00425509 f i libcpmt:locale.obj
 0001:000245cd       ?use_facet@std@@YAABV?$codecvt@DDH@1@ABVlocale@1@PBV21@_N@Z 004255cd f i libcpmt:locale.obj
 0001:00024691       ?_Getloctxt@std@@YAHAAV?$istreambuf_iterator@DU?$char_traits@D@std@@@1@0IPBD@Z 00425691 f i libcpmt:locale.obj
 0001:0002484a       ?isdigit@std@@YA_NDABVlocale@1@@Z 0042584a f i libcpmt:locale.obj
 0001:0002486b       ?_Maklocstr@std@@YAPADPBDPAD@Z 0042586b f i libcpmt:locale.obj
 0001:00024894       ??0?$codecvt@DDH@std@@QAE@I@Z 00425894 f i libcpmt:locale.obj
 0001:000248e8       ??1codecvt_base@std@@UAE@XZ 004258e8 f i libcpmt:locale.obj
 0001:000248ef       ?equal@?$istreambuf_iterator@DU?$char_traits@D@std@@@std@@QBE_NABV12@@Z 004258ef f i libcpmt:locale.obj
 0001:0002492e       ?_Save@?$_Tidyfac@V?$ctype@D@std@@@std@@SAPAV?$ctype@D@2@PAV32@@Z 0042592e f i libcpmt:locale.obj
 0001:0002497c       ?_Save@?$_Tidyfac@V?$num_get@DV?$istreambuf_iterator@DU?$char_traits@D@std@@@std@@@std@@@std@@SAPAV?$num_get@DV?$istreambuf_iterator@DU?$char_traits@D@std@@@std@@@2@PAV32@@Z 0042597c f i libcpmt:locale.obj
 0001:000249ca       ?_Save@?$_Tidyfac@V?$codecvt@DDH@std@@@std@@SAPAV?$codecvt@DDH@2@PAV32@@Z 004259ca f i libcpmt:locale.obj
 0001:00024a18       ?_Tidy@?$_Tidyfac@V?$ctype@D@std@@@std@@SAXXZ 00425a18 f i libcpmt:locale.obj
 0001:00024a65       ?_Tidy@?$_Tidyfac@V?$num_get@DV?$istreambuf_iterator@DU?$char_traits@D@std@@@std@@@std@@@std@@SAXXZ 00425a65 f i libcpmt:locale.obj
 0001:00024ab2       ?_Tidy@?$_Tidyfac@V?$codecvt@DDH@std@@@std@@SAXXZ 00425ab2 f i libcpmt:locale.obj
 0001:00024c84       ??0Init@ios_base@std@@QAE@XZ 00425c84 f   libcpmt:iostream.obj
 0001:00024e03       ??1Init@ios_base@std@@QAE@XZ 00425e03 f   libcpmt:iostream.obj
 0001:00024e46       ??0?$basic_ostream@DU?$char_traits@D@std@@@std@@QAE@W4_Uninitialized@1@@Z 00425e46 f i libcpmt:iostream.obj
 0001:00024ea5       ?flush@?$basic_ostream@DU?$char_traits@D@std@@@std@@QAEAAV12@XZ 00425ea5 f i libcpmt:iostream.obj
 0001:00024eef       ??0?$basic_istream@DU?$char_traits@D@std@@@std@@QAE@W4_Uninitialized@1@@Z 00425eef f i libcpmt:iostream.obj
 0001:00024f4e       ??0?$basic_filebuf@DU?$char_traits@D@std@@@std@@QAE@PAU_iobuf@@@Z 00425f4e f i libcpmt:iostream.obj
 0001:00024fae       ??0?$basic_filebuf@DU?$char_traits@D@std@@@std@@QAE@W4_Uninitialized@1@@Z 00425fae f i libcpmt:iostream.obj
 0001:00024fb9       ?_Gndec@?$basic_streambuf@DU?$char_traits@D@std@@@std@@IAEPADXZ 00425fb9 f i libcpmt:iostream.obj
 0001:00024fc9       ?close@?$basic_filebuf@DU?$char_traits@D@std@@@std@@QAEPAV12@XZ 00425fc9 f i libcpmt:iostream.obj
 0001:00024ff0       ?_Ungetc@std@@YA_NABDPAU_iobuf@@I@Z 00425ff0 f i libcpmt:iostream.obj
 0001:00025189       ??_D?$basic_istream@GU?$char_traits@G@std@@@std@@QAEXXZ 00426189 f i libcpmt:wiostrea.obj
 0001:000251cd       ??_D?$basic_ostream@GU?$char_traits@G@std@@@std@@QAEXXZ 004261cd f i libcpmt:wiostrea.obj
 0001:00025240       ??0_Winit@std@@QAE@XZ      00426240 f   libcpmt:wiostrea.obj
 0001:000253c1       ??1_Winit@std@@QAE@XZ      004263c1 f   libcpmt:wiostrea.obj
 0001:00025404       ??0?$basic_ostream@GU?$char_traits@G@std@@@std@@QAE@PAV?$basic_streambuf@GU?$char_traits@G@std@@@1@_N1@Z 00426404 f i libcpmt:wiostrea.obj
 0001:0002546e       ??0?$basic_ostream@GU?$char_traits@G@std@@@std@@QAE@W4_Uninitialized@1@@Z 0042646e f i libcpmt:wiostrea.obj
 0001:000254cd       ?flush@?$basic_ostream@GU?$char_traits@G@std@@@std@@QAEAAV12@XZ 004264cd f i libcpmt:wiostrea.obj
 0001:00025517       ??1?$basic_ios@GU?$char_traits@G@std@@@std@@UAE@XZ 00426517 f i libcpmt:wiostrea.obj
 0001:00025522       ??0?$basic_istream@GU?$char_traits@G@std@@@std@@QAE@PAV?$basic_streambuf@GU?$char_traits@G@std@@@1@_N@Z 00426522 f i libcpmt:wiostrea.obj
 0001:0002558a       ??0?$basic_istream@GU?$char_traits@G@std@@@std@@QAE@W4_Uninitialized@1@@Z 0042658a f i libcpmt:wiostrea.obj
 0001:000255e9       ??0?$basic_filebuf@GU?$char_traits@G@std@@@std@@QAE@PAU_iobuf@@@Z 004265e9 f i libcpmt:wiostrea.obj
 0001:00025649       ??1?$basic_streambuf@GU?$char_traits@G@std@@@std@@UAE@XZ 00426649 f i libcpmt:wiostrea.obj
 0001:00025657       ?overflow@?$basic_streambuf@GU?$char_traits@G@std@@@std@@MAEGG@Z 00426657 f i libcpmt:wiostrea.obj
 0001:0002565e       ?pbackfail@?$basic_streambuf@GU?$char_traits@G@std@@@std@@MAEGG@Z 0042665e f i libcpmt:wiostrea.obj
 0001:00025665       ?showmanyc@?$basic_streambuf@GU?$char_traits@G@std@@@std@@MAEHXZ 00426665 f i libcpmt:wiostrea.obj
 0001:00025668       ?underflow@?$basic_streambuf@GU?$char_traits@G@std@@@std@@MAEGXZ 00426668 f i libcpmt:wiostrea.obj
 0001:0002566d       ?uflow@?$basic_streambuf@GU?$char_traits@G@std@@@std@@MAEGXZ 0042666d f i libcpmt:wiostrea.obj
 0001:0002568e       ?xsgetn@?$basic_streambuf@GU?$char_traits@G@std@@@std@@MAEHPAGH@Z 0042668e f i libcpmt:wiostrea.obj
 0001:00025715       ?xsputn@?$basic_streambuf@GU?$char_traits@G@std@@@std@@MAEHPBGH@Z 00426715 f i libcpmt:wiostrea.obj
 0001:0002579d       ?seekoff@?$basic_streambuf@GU?$char_traits@G@std@@@std@@MAE?AV?$fpos@H@2@JW4seekdir@ios_base@2@H@Z 0042679d f i libcpmt:wiostrea.obj
 0001:000257c1       ?seekpos@?$basic_streambuf@GU?$char_traits@G@std@@@std@@MAE?AV?$fpos@H@2@V32@H@Z 004267c1 f i libcpmt:wiostrea.obj
 0001:000257e5       ?setbuf@?$basic_streambuf@GU?$char_traits@G@std@@@std@@MAEPAV12@PAGH@Z 004267e5 f i libcpmt:wiostrea.obj
 0001:000257ea       ?sync@?$basic_streambuf@GU?$char_traits@G@std@@@std@@MAEHXZ 004267ea f i libcpmt:wiostrea.obj
 0001:000257ed       ?imbue@?$basic_streambuf@GU?$char_traits@G@std@@@std@@MAEXABVlocale@2@@Z 004267ed f i libcpmt:wiostrea.obj
 0001:000257f0       ??0?$basic_filebuf@GU?$char_traits@G@std@@@std@@QAE@W4_Uninitialized@1@@Z 004267f0 f i libcpmt:wiostrea.obj
 0001:000257fb       ??1?$basic_filebuf@GU?$char_traits@G@std@@@std@@UAE@XZ 004267fb f i libcpmt:wiostrea.obj
 0001:00025860       ?overflow@?$basic_filebuf@GU?$char_traits@G@std@@@std@@MAEGG@Z 00426860 f i libcpmt:wiostrea.obj
 0001:000259a8       ?pbackfail@?$basic_filebuf@GU?$char_traits@G@std@@@std@@MAEGG@Z 004269a8 f i libcpmt:wiostrea.obj
 0001:00025a5f       ?underflow@?$basic_filebuf@GU?$char_traits@G@std@@@std@@MAEGXZ 00426a5f f i libcpmt:wiostrea.obj
 0001:00025a8d       ?uflow@?$basic_filebuf@GU?$char_traits@G@std@@@std@@MAEGXZ 00426a8d f i libcpmt:wiostrea.obj
 0001:00025bab       ?seekoff@?$basic_filebuf@GU?$char_traits@G@std@@@std@@MAE?AV?$fpos@H@2@JW4seekdir@ios_base@2@H@Z 00426bab f i libcpmt:wiostrea.obj
 0001:00025c1a       ?seekpos@?$basic_filebuf@GU?$char_traits@G@std@@@std@@MAE?AV?$fpos@H@2@V32@H@Z 00426c1a f i libcpmt:wiostrea.obj
 0001:00025cc9       ?setbuf@?$basic_filebuf@GU?$char_traits@G@std@@@std@@MAEPAV?$basic_streambuf@GU?$char_traits@G@std@@@2@PAGH@Z 00426cc9 f i libcpmt:wiostrea.obj
 0001:00025cf7       ?sync@?$basic_filebuf@GU?$char_traits@G@std@@@std@@MAEHXZ 00426cf7 f i libcpmt:wiostrea.obj
 0001:00025d10       ??_G?$basic_ostream@GU?$char_traits@G@std@@@std@@UAEPAXI@Z 00426d10 f i libcpmt:wiostrea.obj
 0001:00025d10       ??_E?$basic_ostream@GU?$char_traits@G@std@@@std@@UAEPAXI@Z 00426d10 f i libcpmt:wiostrea.obj
 0001:00025d2f       ??_G?$basic_ios@GU?$char_traits@G@std@@@std@@UAEPAXI@Z 00426d2f f i libcpmt:wiostrea.obj
 0001:00025d2f       ??_E?$basic_ios@GU?$char_traits@G@std@@@std@@UAEPAXI@Z 00426d2f f i libcpmt:wiostrea.obj
 0001:00025d4b       ??_G?$basic_istream@GU?$char_traits@G@std@@@std@@UAEPAXI@Z 00426d4b f i libcpmt:wiostrea.obj
 0001:00025d4b       ??_E?$basic_istream@GU?$char_traits@G@std@@@std@@UAEPAXI@Z 00426d4b f i libcpmt:wiostrea.obj
 0001:00025d6a       ??_G?$basic_streambuf@GU?$char_traits@G@std@@@std@@UAEPAXI@Z 00426d6a f i libcpmt:wiostrea.obj
 0001:00025d6a       ??_E?$basic_streambuf@GU?$char_traits@G@std@@@std@@UAEPAXI@Z 00426d6a f i libcpmt:wiostrea.obj
 0001:00025d86       ??_G?$basic_filebuf@GU?$char_traits@G@std@@@std@@UAEPAXI@Z 00426d86 f i libcpmt:wiostrea.obj
 0001:00025d86       ??_E?$basic_filebuf@GU?$char_traits@G@std@@@std@@UAEPAXI@Z 00426d86 f i libcpmt:wiostrea.obj
 0001:00025da2       ?init@?$basic_ios@GU?$char_traits@G@std@@@std@@IAEXPAV?$basic_streambuf@GU?$char_traits@G@std@@@2@_N@Z 00426da2 f i libcpmt:wiostrea.obj
 0001:00025dec       ?gbump@?$basic_streambuf@GU?$char_traits@G@std@@@std@@IAEXH@Z 00426dec f i libcpmt:wiostrea.obj
 0001:00025e00       ?_Gndec@?$basic_streambuf@GU?$char_traits@G@std@@@std@@IAEPAGXZ 00426e00 f i libcpmt:wiostrea.obj
 0001:00025e11       ?_Gninc@?$basic_streambuf@GU?$char_traits@G@std@@@std@@IAEPAGXZ 00426e11 f i libcpmt:wiostrea.obj
 0001:00025e21       ?pbump@?$basic_streambuf@GU?$char_traits@G@std@@@std@@IAEXH@Z 00426e21 f i libcpmt:wiostrea.obj
 0001:00025e35       ?_Pninc@?$basic_streambuf@GU?$char_traits@G@std@@@std@@IAEPAGXZ 00426e35 f i libcpmt:wiostrea.obj
 0001:00025e45       ?close@?$basic_filebuf@GU?$char_traits@G@std@@@std@@QAEPAV12@XZ 00426e45 f i libcpmt:wiostrea.obj
 0001:00025e6c       ?_Init@?$basic_filebuf@GU?$char_traits@G@std@@@std@@IAEXPAU_iobuf@@W4_Initfl@12@@Z 00426e6c f i libcpmt:wiostrea.obj
 0001:00025ec2       ?_Init@?$basic_streambuf@GU?$char_traits@G@std@@@std@@IAEXXZ 00426ec2 f i libcpmt:wiostrea.obj
 0001:00025f46       ?_Nomemory@std@@YAXXZ      00426f46 f   libcpmt:nomemory.obj
 0001:00025f91       ??0bad_alloc@std@@QAE@PBD@Z 00426f91 f i libcpmt:nomemory.obj
 0001:00025faa       ??1bad_alloc@std@@UAE@XZ   00426faa f i libcpmt:nomemory.obj
 0001:00025fb5       ?_Doraise@bad_alloc@std@@MBEXXZ 00426fb5 f i libcpmt:nomemory.obj
 0001:00025fd2       ??_Ebad_alloc@std@@UAEPAXI@Z 00426fd2 f i libcpmt:nomemory.obj
 0001:00025fd2       ??_Gbad_alloc@std@@UAEPAXI@Z 00426fd2 f i libcpmt:nomemory.obj
 0001:00025fee       ??0bad_alloc@std@@QAE@ABV01@@Z 00426fee f i libcpmt:nomemory.obj
 0001:00026010       ?_Makewloc@_Locimp@locale@std@@CAXABV_Locinfo@3@HPAV123@PBV23@@Z 00427010 f   libcpmt:wlocale.obj
 0001:00026562       ??1_Timevec@std@@QAE@XZ    00427562 f i libcpmt:wlocale.obj
 0001:0002656b       ?do_in@?$codecvt@GDH@std@@MBEHAAHPBD1AAPBDPAG3AAPAG@Z 0042756b f i libcpmt:wlocale.obj
 0001:000265ed       ?do_out@?$codecvt@GDH@std@@MBEHAAHPBG1AAPBGPAD3AAPAD@Z 004275ed f i libcpmt:wlocale.obj
 0001:000266c0       ?do_length@?$codecvt@GDH@std@@MBEHAAHPBG1I@Z 004276c0 f i libcpmt:wlocale.obj
 0001:0002670f       ?do_always_noconv@?$codecvt@GDH@std@@MBE_NXZ 0042770f f i libcpmt:wlocale.obj
 0001:00026712       ?do_max_length@?$codecvt@GDH@std@@MBEHXZ 00427712 f i libcpmt:wlocale.obj
 0001:00026716       ?do_encoding@?$codecvt@GDH@std@@MBEHXZ 00427716 f i libcpmt:wlocale.obj
 0001:00026719       ??_G?$codecvt@GDH@std@@UAEPAXI@Z 00427719 f i libcpmt:wlocale.obj
 0001:00026719       ??_E?$codecvt@GDH@std@@UAEPAXI@Z 00427719 f i libcpmt:wlocale.obj
 0001:00026735       ??1?$codecvt@GDH@std@@UAE@XZ 00427735 f i libcpmt:wlocale.obj
 0001:0002673c       ??1time_base@std@@UAE@XZ   0042773c f i libcpmt:wlocale.obj
 0001:00026743       ??1messages_base@std@@UAE@XZ 00427743 f i libcpmt:wlocale.obj
 0001:0002674a       ?do_is@?$ctype@G@std@@MBE_NFG@Z 0042774a f i libcpmt:wlocale.obj
 0001:00026771       ?do_is@?$ctype@G@std@@MBEPBGPBG0PAF@Z 00427771 f i libcpmt:wlocale.obj
 0001:000267b0       ?do_scan_is@?$ctype@G@std@@MBEPBGFPBG0@Z 004277b0 f i libcpmt:wlocale.obj
 0001:000267dc       ?do_scan_not@?$ctype@G@std@@MBEPBGFPBG0@Z 004277dc f i libcpmt:wlocale.obj
 0001:00026808       ?do_tolower@?$ctype@G@std@@MBEGG@Z 00427808 f i libcpmt:wlocale.obj
 0001:00026839       ?do_tolower@?$ctype@G@std@@MBEPBGPAGPBG@Z 00427839 f i libcpmt:wlocale.obj
 0001:00026866       ?do_toupper@?$ctype@G@std@@MBEGG@Z 00427866 f i libcpmt:wlocale.obj
 0001:00026897       ?do_toupper@?$ctype@G@std@@MBEPBGPAGPBG@Z 00427897 f i libcpmt:wlocale.obj
 0001:000268c4       ?do_widen@?$ctype@G@std@@MBEGD@Z 004278c4 f i libcpmt:wlocale.obj
 0001:000268d3       ?do_widen@?$ctype@G@std@@MBEPBDPBD0PAG@Z 004278d3 f i libcpmt:wlocale.obj
 0001:00026900       ?do_narrow@?$ctype@G@std@@MBEDGD@Z 00427900 f i libcpmt:wlocale.obj
 0001:0002690d       ?do_narrow@?$ctype@G@std@@MBEPBGPBG0DPAD@Z 0042790d f i libcpmt:wlocale.obj
 0001:00026939       ?do_put@?$time_put@GV?$ostreambuf_iterator@GU?$char_traits@G@std@@@std@@@std@@MBE?AV?$ostreambuf_iterator@GU?$char_traits@G@std@@@2@V32@AAVios_base@2@PBUtm@@DD@Z 00427939 f i libcpmt:wlocale.obj
 0001:00026a15       ?do_get@?$num_get@GV?$istreambuf_iterator@GU?$char_traits@G@std@@@std@@@std@@MBE?AV?$istreambuf_iterator@GU?$char_traits@G@std@@@2@V32@0AAVios_base@2@AAHAA_N@Z 00427a15 f i libcpmt:wlocale.obj
 0001:00026bbf       ?do_get@?$num_get@GV?$istreambuf_iterator@GU?$char_traits@G@std@@@std@@@std@@MBE?AV?$istreambuf_iterator@GU?$char_traits@G@std@@@2@V32@0AAVios_base@2@AAHAAG@Z 00427bbf f i libcpmt:wlocale.obj
 0001:00026c8b       ?do_get@?$num_get@GV?$istreambuf_iterator@GU?$char_traits@G@std@@@std@@@std@@MBE?AV?$istreambuf_iterator@GU?$char_traits@G@std@@@2@V32@0AAVios_base@2@AAHAAI@Z 00427c8b f i libcpmt:wlocale.obj
 0001:00026d53       ?do_get@?$num_get@GV?$istreambuf_iterator@GU?$char_traits@G@std@@@std@@@std@@MBE?AV?$istreambuf_iterator@GU?$char_traits@G@std@@@2@V32@0AAVios_base@2@AAHAAJ@Z 00427d53 f i libcpmt:wlocale.obj
 0001:00026e01       ?do_get@?$num_get@GV?$istreambuf_iterator@GU?$char_traits@G@std@@@std@@@std@@MBE?AV?$istreambuf_iterator@GU?$char_traits@G@std@@@2@V32@0AAVios_base@2@AAHAAK@Z 00427e01 f i libcpmt:wlocale.obj
 0001:00026eaf       ?do_get@?$num_get@GV?$istreambuf_iterator@GU?$char_traits@G@std@@@std@@@std@@MBE?AV?$istreambuf_iterator@GU?$char_traits@G@std@@@2@V32@0AAVios_base@2@AAHAAM@Z 00427eaf f i libcpmt:wlocale.obj
 0001:00026f59       ?do_get@?$num_get@GV?$istreambuf_iterator@GU?$char_traits@G@std@@@std@@@std@@MBE?AV?$istreambuf_iterator@GU?$char_traits@G@std@@@2@V32@0AAVios_base@2@AAHAAN@Z 00427f59 f i libcpmt:wlocale.obj
 0001:00027003       ?do_get@?$num_get@GV?$istreambuf_iterator@GU?$char_traits@G@std@@@std@@@std@@MBE?AV?$istreambuf_iterator@GU?$char_traits@G@std@@@2@V32@0AAVios_base@2@AAHAAO@Z 00428003 f i libcpmt:wlocale.obj
 0001:000270ad       ?do_get@?$num_get@GV?$istreambuf_iterator@GU?$char_traits@G@std@@@std@@@std@@MBE?AV?$istreambuf_iterator@GU?$char_traits@G@std@@@2@V32@0AAVios_base@2@AAHAAPAX@Z 004280ad f i libcpmt:wlocale.obj
 0001:000271ab       ?do_put@?$num_put@GV?$ostreambuf_iterator@GU?$char_traits@G@std@@@std@@@std@@MBE?AV?$ostreambuf_iterator@GU?$char_traits@G@std@@@2@V32@AAVios_base@2@G_N@Z 004281ab f i libcpmt:wlocale.obj
 0001:0002735e       ?do_put@?$num_put@GV?$ostreambuf_iterator@GU?$char_traits@G@std@@@std@@@std@@MBE?AV?$ostreambuf_iterator@GU?$char_traits@G@std@@@2@V32@AAVios_base@2@GJ@Z 0042835e f i libcpmt:wlocale.obj
 0001:000273b6       ?do_put@?$num_put@GV?$ostreambuf_iterator@GU?$char_traits@G@std@@@std@@@std@@MBE?AV?$ostreambuf_iterator@GU?$char_traits@G@std@@@2@V32@AAVios_base@2@GK@Z 004283b6 f i libcpmt:wlocale.obj
 0001:0002740e       ?do_put@?$num_put@GV?$ostreambuf_iterator@GU?$char_traits@G@std@@@std@@@std@@MBE?AV?$ostreambuf_iterator@GU?$char_traits@G@std@@@2@V32@AAVios_base@2@GN@Z 0042840e f i libcpmt:wlocale.obj
 0001:0002748c       ?do_put@?$num_put@GV?$ostreambuf_iterator@GU?$char_traits@G@std@@@std@@@std@@MBE?AV?$ostreambuf_iterator@GU?$char_traits@G@std@@@2@V32@AAVios_base@2@GO@Z 0042848c f i libcpmt:wlocale.obj
 0001:0002750a       ?do_put@?$num_put@GV?$ostreambuf_iterator@GU?$char_traits@G@std@@@std@@@std@@MBE?AV?$ostreambuf_iterator@GU?$char_traits@G@std@@@2@V32@AAVios_base@2@GPBX@Z 0042850a f i libcpmt:wlocale.obj
 0001:000275dc       ?do_decimal_point@?$numpunct@G@std@@MBEGXZ 004285dc f i libcpmt:wlocale.obj
 0001:000275e1       ?do_thousands_sep@?$numpunct@G@std@@MBEGXZ 004285e1 f i libcpmt:wlocale.obj
 0001:000275e6       ?do_grouping@?$numpunct@G@std@@MBE?AV?$basic_string@DU?$char_traits@D@std@@V?$allocator@D@2@@2@XZ 004285e6 f i libcpmt:wlocale.obj
 0001:0002761c       ?do_falsename@?$numpunct@G@std@@MBE?AV?$basic_string@GU?$char_traits@G@std@@V?$allocator@G@2@@2@XZ 0042861c f i libcpmt:wlocale.obj
 0001:00027652       ?do_truename@?$numpunct@G@std@@MBE?AV?$basic_string@GU?$char_traits@G@std@@V?$allocator@G@2@@2@XZ 00428652 f i libcpmt:wlocale.obj
 0001:00027688       ?do_compare@?$collate@G@std@@MBEHPBG000@Z 00428688 f i libcpmt:wlocale.obj
 0001:000276cb       ?do_transform@?$collate@G@std@@MBE?AV?$basic_string@GU?$char_traits@G@std@@V?$allocator@G@2@@2@PBG0@Z 004286cb f i libcpmt:wlocale.obj
 0001:000277a2       ?do_hash@?$collate@G@std@@MBEJPBG0@Z 004287a2 f i libcpmt:wlocale.obj
 0001:000277c4       ?do_open@?$messages@G@std@@MBEHABV?$basic_string@DU?$char_traits@D@std@@V?$allocator@D@2@@2@ABVlocale@2@@Z 004287c4 f i libcpmt:wlocale.obj
 0001:000277c9       ?do_get@?$messages@G@std@@MBE?AV?$basic_string@GU?$char_traits@G@std@@V?$allocator@G@2@@2@HHHABV32@@Z 004287c9 f i libcpmt:wlocale.obj
 0001:0002783a       ?do_close@?$messages@G@std@@MBEXH@Z 0042883a f i libcpmt:wlocale.obj
 0001:0002783d       ?do_get@?$money_get@GV?$istreambuf_iterator@GU?$char_traits@G@std@@@std@@@std@@MBE?AV?$istreambuf_iterator@GU?$char_traits@G@std@@@2@V32@0_NAAVios_base@2@AAHAAO@Z 0042883d f i libcpmt:wlocale.obj
 0001:00027972       ?do_get@?$money_get@GV?$istreambuf_iterator@GU?$char_traits@G@std@@@std@@@std@@MBE?AV?$istreambuf_iterator@GU?$char_traits@G@std@@@2@V32@0_NAAVios_base@2@AAHAAV?$basic_string@GU?$char_traits@G@std@@V?$allocator@G@2@@2@@Z 00428972 f i libcpmt:wlocale.obj
 0001:000279fc       ?do_put@?$money_put@GV?$ostreambuf_iterator@GU?$char_traits@G@std@@@std@@@std@@MBE?AV?$ostreambuf_iterator@GU?$char_traits@G@std@@@2@V32@_NAAVios_base@2@GO@Z 004289fc f i libcpmt:wlocale.obj
 0001:00027b30       ?do_put@?$money_put@GV?$ostreambuf_iterator@GU?$char_traits@G@std@@@std@@@std@@MBE?AV?$ostreambuf_iterator@GU?$char_traits@G@std@@@2@V32@_NAAVios_base@2@GABV?$basic_string@GU?$char_traits@G@std@@V?$allocator@G@2@@2@@Z 00428b30 f i libcpmt:wlocale.obj
 0001:00027c6c       ?do_decimal_point@?$_Mpunct@G@std@@MBEGXZ 00428c6c f i libcpmt:wlocale.obj
 0001:00027c71       ?do_thousands_sep@?$_Mpunct@G@std@@MBEGXZ 00428c71 f i libcpmt:wlocale.obj
 0001:00027c76       ?do_grouping@?$_Mpunct@G@std@@MBE?AV?$basic_string@DU?$char_traits@D@std@@V?$allocator@D@2@@2@XZ 00428c76 f i libcpmt:wlocale.obj
 0001:00027cac       ?do_curr_symbol@?$_Mpunct@G@std@@MBE?AV?$basic_string@GU?$char_traits@G@std@@V?$allocator@G@2@@2@XZ 00428cac f i libcpmt:wlocale.obj
 0001:00027ce2       ?do_positive_sign@?$_Mpunct@G@std@@MBE?AV?$basic_string@GU?$char_traits@G@std@@V?$allocator@G@2@@2@XZ 00428ce2 f i libcpmt:wlocale.obj
 0001:00027d18       ?do_negative_sign@?$_Mpunct@G@std@@MBE?AV?$basic_string@GU?$char_traits@G@std@@V?$allocator@G@2@@2@XZ 00428d18 f i libcpmt:wlocale.obj
 0001:00027d4e       ?do_frac_digits@?$_Mpunct@G@std@@MBEHXZ 00428d4e f i libcpmt:wlocale.obj
 0001:00027d52       ?do_pos_format@?$_Mpunct@G@std@@MBE?AUpattern@money_base@2@XZ 00428d52 f i libcpmt:wlocale.obj
 0001:00027d5e       ?do_neg_format@?$_Mpunct@G@std@@MBE?AUpattern@money_base@2@XZ 00428d5e f i libcpmt:wlocale.obj
 0001:00027d6a       ?do_date_order@?$time_get@GV?$istreambuf_iterator@GU?$char_traits@G@std@@@std@@@std@@MBEHXZ 00428d6a f i libcpmt:wlocale.obj
 0001:00027d6e       ?do_get_time@?$time_get@GV?$istreambuf_iterator@GU?$char_traits@G@std@@@std@@@std@@MBE?AV?$istreambuf_iterator@GU?$char_traits@G@std@@@2@V32@0AAVios_base@2@AAHPAUtm@@@Z 00428d6e f i libcpmt:wlocale.obj
 0001:00027e32       ?do_get_date@?$time_get@GV?$istreambuf_iterator@GU?$char_traits@G@std@@@std@@@std@@MBE?AV?$istreambuf_iterator@GU?$char_traits@G@std@@@2@V32@0AAVios_base@2@AAHPAUtm@@@Z 00428e32 f i libcpmt:wlocale.obj
 0001:00027f63       ?do_get_weekday@?$time_get@GV?$istreambuf_iterator@GU?$char_traits@G@std@@@std@@@std@@MBE?AV?$istreambuf_iterator@GU?$char_traits@G@std@@@2@V32@0AAVios_base@2@AAHPAUtm@@@Z 00428f63 f i libcpmt:wlocale.obj
 0001:00027fa1       ?do_get_monthname@?$time_get@GV?$istreambuf_iterator@GU?$char_traits@G@std@@@std@@@std@@MBE?AV?$istreambuf_iterator@GU?$char_traits@G@std@@@2@V32@0AAVios_base@2@AAHPAUtm@@@Z 00428fa1 f i libcpmt:wlocale.obj
 0001:00027fdf       ?do_get_year@?$time_get@GV?$istreambuf_iterator@GU?$char_traits@G@std@@@std@@@std@@MBE?AV?$istreambuf_iterator@GU?$char_traits@G@std@@@2@V32@0AAVios_base@2@AAHPAUtm@@@Z 00428fdf f i libcpmt:wlocale.obj
 0001:00028045       ??_E?$ctype@G@std@@UAEPAXI@Z 00429045 f i libcpmt:wlocale.obj
 0001:00028045       ??_G?$ctype@G@std@@UAEPAXI@Z 00429045 f i libcpmt:wlocale.obj
 0001:00028061       ??1?$ctype@G@std@@UAE@XZ   00429061 f i libcpmt:wlocale.obj
 0001:00028081       ??_E?$time_put@GV?$ostreambuf_iterator@GU?$char_traits@G@std@@@std@@@std@@UAEPAXI@Z 00429081 f i libcpmt:wlocale.obj
 0001:00028081       ??_G?$time_put@GV?$ostreambuf_iterator@GU?$char_traits@G@std@@@std@@@std@@UAEPAXI@Z 00429081 f i libcpmt:wlocale.obj
 0001:0002809d       ??1?$time_put@GV?$ostreambuf_iterator@GU?$char_traits@G@std@@@std@@@std@@UAE@XZ 0042909d f i libcpmt:wlocale.obj
 0001:000280b7       ??_E?$num_get@GV?$istreambuf_iterator@GU?$char_traits@G@std@@@std@@@std@@UAEPAXI@Z 004290b7 f i libcpmt:wlocale.obj
 0001:000280b7       ??_G?$num_get@GV?$istreambuf_iterator@GU?$char_traits@G@std@@@std@@@std@@UAEPAXI@Z 004290b7 f i libcpmt:wlocale.obj
 0001:000280d3       ??1?$num_get@GV?$istreambuf_iterator@GU?$char_traits@G@std@@@std@@@std@@UAE@XZ 004290d3 f i libcpmt:wlocale.obj
 0001:000280da       ??_G?$num_put@GV?$ostreambuf_iterator@GU?$char_traits@G@std@@@std@@@std@@UAEPAXI@Z 004290da f i libcpmt:wlocale.obj
 0001:000280da       ??_E?$num_put@GV?$ostreambuf_iterator@GU?$char_traits@G@std@@@std@@@std@@UAEPAXI@Z 004290da f i libcpmt:wlocale.obj
 0001:000280f6       ??1?$num_put@GV?$ostreambuf_iterator@GU?$char_traits@G@std@@@std@@@std@@UAE@XZ 004290f6 f i libcpmt:wlocale.obj
 0001:000280fd       ??_G?$numpunct@G@std@@UAEPAXI@Z 004290fd f i libcpmt:wlocale.obj
 0001:000280fd       ??_E?$numpunct@G@std@@UAEPAXI@Z 004290fd f i libcpmt:wlocale.obj
 0001:00028119       ??1?$numpunct@G@std@@UAE@XZ 00429119 f i libcpmt:wlocale.obj
 0001:00028145       ??_E?$collate@G@std@@UAEPAXI@Z 00429145 f i libcpmt:wlocale.obj
 0001:00028145       ??_G?$collate@G@std@@UAEPAXI@Z 00429145 f i libcpmt:wlocale.obj
 0001:00028161       ??1?$collate@G@std@@UAE@XZ 00429161 f i libcpmt:wlocale.obj
 0001:00028168       ??_E?$messages@G@std@@UAEPAXI@Z 00429168 f i libcpmt:wlocale.obj
 0001:00028168       ??_G?$messages@G@std@@UAEPAXI@Z 00429168 f i libcpmt:wlocale.obj
 0001:00028184       ??1?$messages@G@std@@UAE@XZ 00429184 f i libcpmt:wlocale.obj
 0001:000281a7       ??_E?$money_get@GV?$istreambuf_iterator@GU?$char_traits@G@std@@@std@@@std@@UAEPAXI@Z 004291a7 f i libcpmt:wlocale.obj
 0001:000281a7       ??_G?$money_get@GV?$istreambuf_iterator@GU?$char_traits@G@std@@@std@@@std@@UAEPAXI@Z 004291a7 f i libcpmt:wlocale.obj
 0001:000281c3       ??1?$money_get@GV?$istreambuf_iterator@GU?$char_traits@G@std@@@std@@@std@@UAE@XZ 004291c3 f i libcpmt:wlocale.obj
 0001:000281ca       ??_E?$money_put@GV?$ostreambuf_iterator@GU?$char_traits@G@std@@@std@@@std@@UAEPAXI@Z 004291ca f i libcpmt:wlocale.obj
 0001:000281ca       ??_G?$money_put@GV?$ostreambuf_iterator@GU?$char_traits@G@std@@@std@@@std@@UAEPAXI@Z 004291ca f i libcpmt:wlocale.obj
 0001:000281e6       ??1?$money_put@GV?$ostreambuf_iterator@GU?$char_traits@G@std@@@std@@@std@@UAE@XZ 004291e6 f i libcpmt:wlocale.obj
 0001:000281ed       ??_G?$moneypunct@G$0A@@std@@UAEPAXI@Z 004291ed f i libcpmt:wlocale.obj
 0001:000281ed       ??_E?$moneypunct@G$0A@@std@@UAEPAXI@Z 004291ed f i libcpmt:wlocale.obj
 0001:00028209       ??_E?$moneypunct@G$00@std@@UAEPAXI@Z 00429209 f i libcpmt:wlocale.obj
 0001:00028209       ??_G?$moneypunct@G$00@std@@UAEPAXI@Z 00429209 f i libcpmt:wlocale.obj
 0001:00028225       ??_G?$time_get@GV?$istreambuf_iterator@GU?$char_traits@G@std@@@std@@@std@@UAEPAXI@Z 00429225 f i libcpmt:wlocale.obj
 0001:00028225       ??_E?$time_get@GV?$istreambuf_iterator@GU?$char_traits@G@std@@@std@@@std@@UAEPAXI@Z 00429225 f i libcpmt:wlocale.obj
 0001:00028241       ??1?$time_get@GV?$istreambuf_iterator@GU?$char_traits@G@std@@@std@@@std@@UAE@XZ 00429241 f i libcpmt:wlocale.obj
 0001:00028264       ??1?$moneypunct@G$0A@@std@@UAE@XZ 00429264 f i libcpmt:wlocale.obj
 0001:00028269       ??1?$_Mpunct@G@std@@UAE@XZ 00429269 f i libcpmt:wlocale.obj
 0001:0002829d       ??_G?$_Mpunct@G@std@@UAEPAXI@Z 0042929d f i libcpmt:wlocale.obj
 0001:0002829d       ??_E?$_Mpunct@G@std@@UAEPAXI@Z 0042929d f i libcpmt:wlocale.obj
 0001:000282b9       ??1?$moneypunct@G$00@std@@UAE@XZ 004292b9 f i libcpmt:wlocale.obj
 0001:000282be       ?_Init@?$time_put@GV?$ostreambuf_iterator@GU?$char_traits@G@std@@@std@@@std@@IAEXABV_Locinfo@2@@Z 004292be f i libcpmt:wlocale.obj
 0001:000282e6       ?_Gettnames@_Locinfo@std@@QBE?AV_Timevec@2@XZ 004292e6 f i libcpmt:wlocale.obj
 0001:000282fe       ??4?$ostreambuf_iterator@GU?$char_traits@G@std@@@std@@QAEAAV01@G@Z 004292fe f i libcpmt:wlocale.obj
 0001:00028320       ?sputc@?$basic_streambuf@GU?$char_traits@G@std@@@std@@QAEGG@Z 00429320 f i libcpmt:wlocale.obj
 0001:00028351       ?_Getifld@?$num_get@GV?$istreambuf_iterator@GU?$char_traits@G@std@@@std@@@std@@CAHPADAAV?$istreambuf_iterator@GU?$char_traits@G@std@@@2@1HABVlocale@2@@Z 00429351 f i libcpmt:wlocale.obj
 0001:00028720       ?_Getffld@?$num_get@GV?$istreambuf_iterator@GU?$char_traits@G@std@@@std@@@std@@CAHPADAAV?$istreambuf_iterator@GU?$char_traits@G@std@@@2@1ABVlocale@2@@Z 00429720 f i libcpmt:wlocale.obj
 0001:00028a6b       ?_Ffmt@?$num_put@GV?$ostreambuf_iterator@GU?$char_traits@G@std@@@std@@@std@@KAPADPADDH@Z 00429a6b f i libcpmt:wlocale.obj
 0001:00028ac9       ?_Fput@?$num_put@GV?$ostreambuf_iterator@GU?$char_traits@G@std@@@std@@@std@@KA?AV?$ostreambuf_iterator@GU?$char_traits@G@std@@@2@V32@AAVios_base@2@GPBDII@Z 00429ac9 f i libcpmt:wlocale.obj
 0001:00028dae       ?_Ifmt@?$num_put@GV?$ostreambuf_iterator@GU?$char_traits@G@std@@@std@@@std@@KAPADPADDH@Z 00429dae f i libcpmt:wlocale.obj
 0001:00028e08       ?_Iput@?$num_put@GV?$ostreambuf_iterator@GU?$char_traits@G@std@@@std@@@std@@KA?AV?$ostreambuf_iterator@GU?$char_traits@G@std@@@2@V32@AAVios_base@2@GPADI@Z 00429e08 f i libcpmt:wlocale.obj
 0001:000290b6       ?falsename@?$numpunct@G@std@@QBE?AV?$basic_string@GU?$char_traits@G@std@@V?$allocator@G@2@@2@XZ 0042a0b6 f i libcpmt:wlocale.obj
 0001:000290cd       ?truename@?$numpunct@G@std@@QBE?AV?$basic_string@GU?$char_traits@G@std@@V?$allocator@G@2@@2@XZ 0042a0cd f i libcpmt:wlocale.obj
 0001:000290e4       ?_Init@?$numpunct@G@std@@IAEXABV_Locinfo@2@@Z 0042a0e4 f i libcpmt:wlocale.obj
 0001:00029141       ?_Init@?$messages@G@std@@IAEXABV_Locinfo@2@@Z 0042a141 f i libcpmt:wlocale.obj
 0001:00029169       ?_Getmfld@?$money_get@GV?$istreambuf_iterator@GU?$char_traits@G@std@@@std@@@std@@ABE?AV?$basic_string@GU?$char_traits@G@std@@V?$allocator@G@2@@2@AAV?$istreambuf_iterator@GU?$char_traits@G@std@@@2@0_NAAVios_base@2@@Z 0042a169 f i libcpmt:wlocale.obj
 0001:00029a17       ?_Putmfld@?$money_put@GV?$ostreambuf_iterator@GU?$char_traits@G@std@@@std@@@std@@ABE?AV?$ostreambuf_iterator@GU?$char_traits@G@std@@@2@V32@_NAAVios_base@2@G1V?$basic_string@GU?$char_traits@G@std@@V?$allocator@G@2@@2@@Z 0042aa17 f i libcpmt:wlocale.obj
 0001:00029fe5       ??1?$basic_string@GU?$char_traits@G@std@@V?$allocator@G@2@@std@@QAE@XZ 0042afe5 f i libcpmt:wlocale.obj
 0001:00029fed       ?append@?$basic_string@GU?$char_traits@G@std@@V?$allocator@G@2@@std@@QAEAAV12@IG@Z 0042afed f i libcpmt:wlocale.obj
 0001:0002a056       ?resize@?$basic_string@GU?$char_traits@G@std@@V?$allocator@G@2@@std@@QAEXI@Z 0042b056 f i libcpmt:wlocale.obj
 0001:0002a07c       ??0?$_Mpunct@G@std@@QAE@ABV_Locinfo@1@I_N@Z 0042b07c f i libcpmt:wlocale.obj
 0001:0002a0bc       ??1money_base@std@@UAE@XZ  0042b0bc f i libcpmt:wlocale.obj
 0001:0002a0c3       ?_Init@?$time_get@GV?$istreambuf_iterator@GU?$char_traits@G@std@@@std@@@std@@IAEXABV_Locinfo@2@@Z 0042b0c3 f i libcpmt:wlocale.obj
 0001:0002a0f6       ?_Getdays@_Locinfo@std@@QBEPBDXZ 0042b0f6 f i libcpmt:wlocale.obj
 0001:0002a13c       ?_Getmonths@_Locinfo@std@@QBEPBDXZ 0042b13c f i libcpmt:wlocale.obj
 0001:0002a183       ?_Getint@?$time_get@GV?$istreambuf_iterator@GU?$char_traits@G@std@@@std@@@std@@CAHAAV?$istreambuf_iterator@GU?$char_traits@G@std@@@2@0HHAAH@Z 0042b183 f i libcpmt:wlocale.obj
 0001:0002a2da       ?_Inc@?$istreambuf_iterator@GU?$char_traits@G@std@@@std@@AAEXXZ 0042b2da f i libcpmt:wlocale.obj
 0001:0002a2fd       ?sbumpc@?$basic_streambuf@GU?$char_traits@G@std@@@std@@QAEGXZ 0042b2fd f i libcpmt:wlocale.obj
 0001:0002a321       ?_Peek@?$istreambuf_iterator@GU?$char_traits@G@std@@@std@@AAEGXZ 0042b321 f i libcpmt:wlocale.obj
 0001:0002a348       ?sgetc@?$basic_streambuf@GU?$char_traits@G@std@@@std@@QAEGXZ 0042b348 f i libcpmt:wlocale.obj
 0001:0002a367       ?grouping@?$numpunct@G@std@@QBE?AV?$basic_string@DU?$char_traits@D@std@@V?$allocator@D@2@@2@XZ 0042b367 f i libcpmt:wlocale.obj
 0001:0002a37e       ?assign@?$basic_string@GU?$char_traits@G@std@@V?$allocator@G@2@@std@@QAEAAV12@ABV12@II@Z 0042b37e f i libcpmt:wlocale.obj
 0001:0002a45c       ?assign@?$basic_string@GU?$char_traits@G@std@@V?$allocator@G@2@@std@@QAEAAV12@PBGI@Z 0042b45c f i libcpmt:wlocale.obj
 0001:0002a49e       ?assign@?$basic_string@GU?$char_traits@G@std@@V?$allocator@G@2@@std@@QAEAAV12@IG@Z 0042b49e f i libcpmt:wlocale.obj
 0001:0002a4f6       ?insert@?$basic_string@GU?$char_traits@G@std@@V?$allocator@G@2@@std@@QAEAAV12@IIG@Z 0042b4f6 f i libcpmt:wlocale.obj
 0001:0002a58b       _wmemmove                  0042b58b f i libcpmt:wlocale.obj
 0001:0002a5d0       ?erase@?$basic_string@GU?$char_traits@G@std@@V?$allocator@G@2@@std@@QAEAAV12@II@Z 0042b5d0 f i libcpmt:wlocale.obj
 0001:0002a63c       ?_Freeze@?$basic_string@GU?$char_traits@G@std@@V?$allocator@G@2@@std@@AAEXXZ 0042b63c f i libcpmt:wlocale.obj
 0001:0002a668       ?_Grow@?$basic_string@GU?$char_traits@G@std@@V?$allocator@G@2@@std@@AAE_NI_N@Z 0042b668 f i libcpmt:wlocale.obj
 0001:0002a6f1       ?_Tidy@?$basic_string@GU?$char_traits@G@std@@V?$allocator@G@2@@std@@AAEX_N@Z 0042b6f1 f i libcpmt:wlocale.obj
 0001:0002a72e       ?grouping@?$_Mpunct@G@std@@QBE?AV?$basic_string@DU?$char_traits@D@std@@V?$allocator@D@2@@2@XZ 0042b72e f i libcpmt:wlocale.obj
 0001:0002a745       ?curr_symbol@?$_Mpunct@G@std@@QBE?AV?$basic_string@GU?$char_traits@G@std@@V?$allocator@G@2@@2@XZ 0042b745 f i libcpmt:wlocale.obj
 0001:0002a75c       ?positive_sign@?$_Mpunct@G@std@@QBE?AV?$basic_string@GU?$char_traits@G@std@@V?$allocator@G@2@@2@XZ 0042b75c f i libcpmt:wlocale.obj
 0001:0002a773       ?negative_sign@?$_Mpunct@G@std@@QBE?AV?$basic_string@GU?$char_traits@G@std@@V?$allocator@G@2@@2@XZ 0042b773 f i libcpmt:wlocale.obj
 0001:0002a78a       ?_Init@?$_Mpunct@G@std@@IAEXABV_Locinfo@2@@Z 0042b78a f i libcpmt:wlocale.obj
 0001:0002a875       ?append@?$basic_string@GU?$char_traits@G@std@@V?$allocator@G@2@@std@@QAEAAV12@ABV12@II@Z 0042b875 f i libcpmt:wlocale.obj
 0001:0002a907       ?_Copy@?$basic_string@GU?$char_traits@G@std@@V?$allocator@G@2@@std@@AAEXI@Z 0042b907 f i libcpmt:wlocale.obj
 0001:0002a9d9       ?_Split@?$basic_string@GU?$char_traits@G@std@@V?$allocator@G@2@@std@@AAEXXZ 0042b9d9 f i libcpmt:wlocale.obj
 0001:0002aa09       ?_Makpat@?$_Mpunct@G@std@@AAEXAAUpattern@money_base@2@DDD@Z 0042ba09 f i libcpmt:wlocale.obj
 0001:0002aa6a       ?use_facet@std@@YAABV?$ctype@G@1@ABVlocale@1@PBV21@_N@Z 0042ba6a f i libcpmt:wlocale.obj
 0001:0002ab2e       ?use_facet@std@@YAABV?$num_get@GV?$istreambuf_iterator@GU?$char_traits@G@std@@@std@@@1@ABVlocale@1@PBV21@_N@Z 0042bb2e f i libcpmt:wlocale.obj
 0001:0002ac0a       ?use_facet@std@@YAABV?$num_put@GV?$ostreambuf_iterator@GU?$char_traits@G@std@@@std@@@1@ABVlocale@1@PBV21@_N@Z 0042bc0a f i libcpmt:wlocale.obj
 0001:0002ace6       ?use_facet@std@@YAABV?$numpunct@G@1@ABVlocale@1@PBV21@_N@Z 0042bce6 f i libcpmt:wlocale.obj
 0001:0002adaa       ?use_facet@std@@YAABV?$collate@G@1@ABVlocale@1@PBV21@_N@Z 0042bdaa f i libcpmt:wlocale.obj
 0001:0002ae6e       ?use_facet@std@@YAABV?$messages@G@1@ABVlocale@1@PBV21@_N@Z 0042be6e f i libcpmt:wlocale.obj
 0001:0002af32       ?use_facet@std@@YAABV?$money_get@GV?$istreambuf_iterator@GU?$char_traits@G@std@@@std@@@1@ABVlocale@1@PBV21@_N@Z 0042bf32 f i libcpmt:wlocale.obj
 0001:0002b00e       ?use_facet@std@@YAABV?$money_put@GV?$ostreambuf_iterator@GU?$char_traits@G@std@@@std@@@1@ABVlocale@1@PBV21@_N@Z 0042c00e f i libcpmt:wlocale.obj
 0001:0002b0ea       ?use_facet@std@@YAABV?$moneypunct@G$0A@@1@ABVlocale@1@PBV21@_N@Z 0042c0ea f i libcpmt:wlocale.obj
 0001:0002b1b9       ?use_facet@std@@YAABV?$moneypunct@G$00@1@ABVlocale@1@PBV21@_N@Z 0042c1b9 f i libcpmt:wlocale.obj
 0001:0002b288       ?use_facet@std@@YAABV?$time_get@GV?$istreambuf_iterator@GU?$char_traits@G@std@@@std@@@1@ABVlocale@1@PBV21@_N@Z 0042c288 f i libcpmt:wlocale.obj
 0001:0002b34c       ?use_facet@std@@YAABV?$time_put@GV?$ostreambuf_iterator@GU?$char_traits@G@std@@@std@@@1@ABVlocale@1@PBV21@_N@Z 0042c34c f i libcpmt:wlocale.obj
 0001:0002b410       ?use_facet@std@@YAABV?$codecvt@GDH@1@ABVlocale@1@PBV21@_N@Z 0042c410 f i libcpmt:wlocale.obj
 0001:0002b4d4       ??0?$codecvt@GDH@std@@QAE@I@Z 0042c4d4 f i libcpmt:wlocale.obj
 0001:0002b528       ?_Getloctxt@std@@YAHAAV?$istreambuf_iterator@GU?$char_traits@G@std@@@1@0IPBG@Z 0042c528 f i libcpmt:wlocale.obj
 0001:0002b6f4       ?_Maklocstr@std@@YAPAGPBDPAG@Z 0042c6f4 f i libcpmt:wlocale.obj
 0001:0002b732       ??0?$ctype@G@std@@QAE@I@Z  0042c732 f i libcpmt:wlocale.obj
 0001:0002b792       ??0?$time_put@GV?$ostreambuf_iterator@GU?$char_traits@G@std@@@std@@@std@@QAE@I@Z 0042c792 f i libcpmt:wlocale.obj
 0001:0002b7ff       ?equal@?$istreambuf_iterator@GU?$char_traits@G@std@@@std@@QBE_NABV12@@Z 0042c7ff f i libcpmt:wlocale.obj
 0001:0002b83e       ??0?$numpunct@G@std@@QAE@I@Z 0042c83e f i libcpmt:wlocale.obj
 0001:0002b897       ??0?$collate@G@std@@QAE@I@Z 0042c897 f i libcpmt:wlocale.obj
 0001:0002b8eb       ??0?$messages@G@std@@QAE@I@Z 0042c8eb f i libcpmt:wlocale.obj
 0001:0002b95d       ??0?$time_get@GV?$istreambuf_iterator@GU?$char_traits@G@std@@@std@@@std@@QAE@I@Z 0042c95d f i libcpmt:wlocale.obj
 0001:0002b9b6       ?_Save@?$_Tidyfac@V?$ctype@G@std@@@std@@SAPAV?$ctype@G@2@PAV32@@Z 0042c9b6 f i libcpmt:wlocale.obj
 0001:0002ba04       ?_Save@?$_Tidyfac@V?$num_get@GV?$istreambuf_iterator@GU?$char_traits@G@std@@@std@@@std@@@std@@SAPAV?$num_get@GV?$istreambuf_iterator@GU?$char_traits@G@std@@@std@@@2@PAV32@@Z 0042ca04 f i libcpmt:wlocale.obj
 0001:0002ba52       ?_Save@?$_Tidyfac@V?$num_put@GV?$ostreambuf_iterator@GU?$char_traits@G@std@@@std@@@std@@@std@@SAPAV?$num_put@GV?$ostreambuf_iterator@GU?$char_traits@G@std@@@std@@@2@PAV32@@Z 0042ca52 f i libcpmt:wlocale.obj
 0001:0002baa0       ?_Save@?$_Tidyfac@V?$numpunct@G@std@@@std@@SAPAV?$numpunct@G@2@PAV32@@Z 0042caa0 f i libcpmt:wlocale.obj
 0001:0002baee       ?_Save@?$_Tidyfac@V?$collate@G@std@@@std@@SAPAV?$collate@G@2@PAV32@@Z 0042caee f i libcpmt:wlocale.obj
 0001:0002bb3c       ?_Save@?$_Tidyfac@V?$messages@G@std@@@std@@SAPAV?$messages@G@2@PAV32@@Z 0042cb3c f i libcpmt:wlocale.obj
 0001:0002bb8a       ?_Save@?$_Tidyfac@V?$money_get@GV?$istreambuf_iterator@GU?$char_traits@G@std@@@std@@@std@@@std@@SAPAV?$money_get@GV?$istreambuf_iterator@GU?$char_traits@G@std@@@std@@@2@PAV32@@Z 0042cb8a f i libcpmt:wlocale.obj
 0001:0002bbd8       ?_Save@?$_Tidyfac@V?$money_put@GV?$ostreambuf_iterator@GU?$char_traits@G@std@@@std@@@std@@@std@@SAPAV?$money_put@GV?$ostreambuf_iterator@GU?$char_traits@G@std@@@std@@@2@PAV32@@Z 0042cbd8 f i libcpmt:wlocale.obj
 0001:0002bc26       ?_Save@?$_Tidyfac@V?$moneypunct@G$0A@@std@@@std@@SAPAV?$moneypunct@G$0A@@2@PAV32@@Z 0042cc26 f i libcpmt:wlocale.obj
 0001:0002bc74       ?_Save@?$_Tidyfac@V?$moneypunct@G$00@std@@@std@@SAPAV?$moneypunct@G$00@2@PAV32@@Z 0042cc74 f i libcpmt:wlocale.obj
 0001:0002bcc2       ?_Save@?$_Tidyfac@V?$time_get@GV?$istreambuf_iterator@GU?$char_traits@G@std@@@std@@@std@@@std@@SAPAV?$time_get@GV?$istreambuf_iterator@GU?$char_traits@G@std@@@std@@@2@PAV32@@Z 0042ccc2 f i libcpmt:wlocale.obj
 0001:0002bd10       ?_Save@?$_Tidyfac@V?$time_put@GV?$ostreambuf_iterator@GU?$char_traits@G@std@@@std@@@std@@@std@@SAPAV?$time_put@GV?$ostreambuf_iterator@GU?$char_traits@G@std@@@std@@@2@PAV32@@Z 0042cd10 f i libcpmt:wlocale.obj
 0001:0002bd5e       ?_Save@?$_Tidyfac@V?$codecvt@GDH@std@@@std@@SAPAV?$codecvt@GDH@2@PAV32@@Z 0042cd5e f i libcpmt:wlocale.obj
 0001:0002bdac       ??0?$_Mpunct@G@std@@QAE@I_N@Z 0042cdac f i libcpmt:wlocale.obj
 0001:0002be0b       ?_Tidy@?$_Tidyfac@V?$ctype@G@std@@@std@@SAXXZ 0042ce0b f i libcpmt:wlocale.obj
 0001:0002be58       ?_Tidy@?$_Tidyfac@V?$num_get@GV?$istreambuf_iterator@GU?$char_traits@G@std@@@std@@@std@@@std@@SAXXZ 0042ce58 f i libcpmt:wlocale.obj
 0001:0002bea5       ?_Tidy@?$_Tidyfac@V?$num_put@GV?$ostreambuf_iterator@GU?$char_traits@G@std@@@std@@@std@@@std@@SAXXZ 0042cea5 f i libcpmt:wlocale.obj
 0001:0002bef2       ?_Tidy@?$_Tidyfac@V?$numpunct@G@std@@@std@@SAXXZ 0042cef2 f i libcpmt:wlocale.obj
 0001:0002bf3f       ?_Tidy@?$_Tidyfac@V?$collate@G@std@@@std@@SAXXZ 0042cf3f f i libcpmt:wlocale.obj
 0001:0002bf8c       ?_Tidy@?$_Tidyfac@V?$messages@G@std@@@std@@SAXXZ 0042cf8c f i libcpmt:wlocale.obj
 0001:0002bfd9       ?_Tidy@?$_Tidyfac@V?$money_get@GV?$istreambuf_iterator@GU?$char_traits@G@std@@@std@@@std@@@std@@SAXXZ 0042cfd9 f i libcpmt:wlocale.obj
 0001:0002c026       ?_Tidy@?$_Tidyfac@V?$money_put@GV?$ostreambuf_iterator@GU?$char_traits@G@std@@@std@@@std@@@std@@SAXXZ 0042d026 f i libcpmt:wlocale.obj
 0001:0002c073       ?_Tidy@?$_Tidyfac@V?$moneypunct@G$0A@@std@@@std@@SAXXZ 0042d073 f i libcpmt:wlocale.obj
 0001:0002c0c0       ?_Tidy@?$_Tidyfac@V?$moneypunct@G$00@std@@@std@@SAXXZ 0042d0c0 f i libcpmt:wlocale.obj
 0001:0002c10d       ?_Tidy@?$_Tidyfac@V?$time_get@GV?$istreambuf_iterator@GU?$char_traits@G@std@@@std@@@std@@@std@@SAXXZ 0042d10d f i libcpmt:wlocale.obj
 0001:0002c15a       ?_Tidy@?$_Tidyfac@V?$time_put@GV?$ostreambuf_iterator@GU?$char_traits@G@std@@@std@@@std@@@std@@SAXXZ 0042d15a f i libcpmt:wlocale.obj
 0001:0002c1a7       ?_Tidy@?$_Tidyfac@V?$codecvt@GDH@std@@@std@@SAXXZ 0042d1a7 f i libcpmt:wlocale.obj
 0001:0002c215       ?_Makexloc@_Locimp@locale@std@@CAXABV_Locinfo@3@HPAV123@PBV23@@Z 0042d215 f   libcpmt:xlocale.obj
 0001:0002c56d       ?do_compare@?$collate@D@std@@MBEHPBD000@Z 0042d56d f i libcpmt:xlocale.obj
 0001:0002c5ab       ?do_transform@?$collate@D@std@@MBE?AV?$basic_string@DU?$char_traits@D@std@@V?$allocator@D@2@@2@PBD0@Z 0042d5ab f i libcpmt:xlocale.obj
 0001:0002c67a       ?do_hash@?$collate@D@std@@MBEJPBD0@Z 0042d67a f i libcpmt:xlocale.obj
 0001:0002c69b       ?do_open@?$messages@D@std@@MBEHABV?$basic_string@DU?$char_traits@D@std@@V?$allocator@D@2@@2@ABVlocale@2@@Z 0042d69b f i libcpmt:xlocale.obj
 0001:0002c6a0       ?do_get@?$messages@D@std@@MBE?AV?$basic_string@DU?$char_traits@D@std@@V?$allocator@D@2@@2@HHHABV32@@Z 0042d6a0 f i libcpmt:xlocale.obj
 0001:0002c711       ?do_close@?$messages@D@std@@MBEXH@Z 0042d711 f i libcpmt:xlocale.obj
 0001:0002c714       ?do_get@?$money_get@DV?$istreambuf_iterator@DU?$char_traits@D@std@@@std@@@std@@MBE?AV?$istreambuf_iterator@DU?$char_traits@D@std@@@2@V32@0_NAAVios_base@2@AAHAAO@Z 0042d714 f i libcpmt:xlocale.obj
 0001:0002c842       ?do_get@?$money_get@DV?$istreambuf_iterator@DU?$char_traits@D@std@@@std@@@std@@MBE?AV?$istreambuf_iterator@DU?$char_traits@D@std@@@2@V32@0_NAAVios_base@2@AAHAAV?$basic_string@DU?$char_traits@D@std@@V?$allocator@D@2@@2@@Z 0042d842 f i libcpmt:xlocale.obj
 0001:0002c8cc       ?do_put@?$money_put@DV?$ostreambuf_iterator@DU?$char_traits@D@std@@@std@@@std@@MBE?AV?$ostreambuf_iterator@DU?$char_traits@D@std@@@2@V32@_NAAVios_base@2@DO@Z 0042d8cc f i libcpmt:xlocale.obj
 0001:0002c9f6       ?do_put@?$money_put@DV?$ostreambuf_iterator@DU?$char_traits@D@std@@@std@@@std@@MBE?AV?$ostreambuf_iterator@DU?$char_traits@D@std@@@2@V32@_NAAVios_base@2@DABV?$basic_string@DU?$char_traits@D@std@@V?$allocator@D@2@@2@@Z 0042d9f6 f i libcpmt:xlocale.obj
 0001:0002cb0e       ?do_decimal_point@?$_Mpunct@D@std@@MBEDXZ 0042db0e f i libcpmt:xlocale.obj
 0001:0002cb12       ?do_thousands_sep@?$_Mpunct@D@std@@MBEDXZ 0042db12 f i libcpmt:xlocale.obj
 0001:0002cb16       ?do_grouping@?$_Mpunct@D@std@@MBE?AV?$basic_string@DU?$char_traits@D@std@@V?$allocator@D@2@@2@XZ 0042db16 f i libcpmt:xlocale.obj
 0001:0002cb4c       ?do_curr_symbol@?$_Mpunct@D@std@@MBE?AV?$basic_string@DU?$char_traits@D@std@@V?$allocator@D@2@@2@XZ 0042db4c f i libcpmt:xlocale.obj
 0001:0002cb82       ?do_positive_sign@?$_Mpunct@D@std@@MBE?AV?$basic_string@DU?$char_traits@D@std@@V?$allocator@D@2@@2@XZ 0042db82 f i libcpmt:xlocale.obj
 0001:0002cbb8       ?do_negative_sign@?$_Mpunct@D@std@@MBE?AV?$basic_string@DU?$char_traits@D@std@@V?$allocator@D@2@@2@XZ 0042dbb8 f i libcpmt:xlocale.obj
 0001:0002cbee       ?do_frac_digits@?$_Mpunct@D@std@@MBEHXZ 0042dbee f i libcpmt:xlocale.obj
 0001:0002cbf2       ?do_pos_format@?$_Mpunct@D@std@@MBE?AUpattern@money_base@2@XZ 0042dbf2 f i libcpmt:xlocale.obj
 0001:0002cbfe       ?do_neg_format@?$_Mpunct@D@std@@MBE?AUpattern@money_base@2@XZ 0042dbfe f i libcpmt:xlocale.obj
 0001:0002cc0a       ?do_date_order@?$time_get@DV?$istreambuf_iterator@DU?$char_traits@D@std@@@std@@@std@@MBEHXZ 0042dc0a f i libcpmt:xlocale.obj
 0001:0002cc0e       ?do_get_time@?$time_get@DV?$istreambuf_iterator@DU?$char_traits@D@std@@@std@@@std@@MBE?AV?$istreambuf_iterator@DU?$char_traits@D@std@@@2@V32@0AAVios_base@2@AAHPAUtm@@@Z 0042dc0e f i libcpmt:xlocale.obj
 0001:0002ccbf       ?do_get_date@?$time_get@DV?$istreambuf_iterator@DU?$char_traits@D@std@@@std@@@std@@MBE?AV?$istreambuf_iterator@DU?$char_traits@D@std@@@2@V32@0AAVios_base@2@AAHPAUtm@@@Z 0042dcbf f i libcpmt:xlocale.obj
 0001:0002cdd4       ?do_get_weekday@?$time_get@DV?$istreambuf_iterator@DU?$char_traits@D@std@@@std@@@std@@MBE?AV?$istreambuf_iterator@DU?$char_traits@D@std@@@2@V32@0AAVios_base@2@AAHPAUtm@@@Z 0042ddd4 f i libcpmt:xlocale.obj
 0001:0002ce12       ?do_get_monthname@?$time_get@DV?$istreambuf_iterator@DU?$char_traits@D@std@@@std@@@std@@MBE?AV?$istreambuf_iterator@DU?$char_traits@D@std@@@2@V32@0AAVios_base@2@AAHPAUtm@@@Z 0042de12 f i libcpmt:xlocale.obj
 0001:0002ce50       ?do_get_year@?$time_get@DV?$istreambuf_iterator@DU?$char_traits@D@std@@@std@@@std@@MBE?AV?$istreambuf_iterator@DU?$char_traits@D@std@@@2@V32@0AAVios_base@2@AAHPAUtm@@@Z 0042de50 f i libcpmt:xlocale.obj
 0001:0002ceb6       ?do_put@?$time_put@DV?$ostreambuf_iterator@DU?$char_traits@D@std@@@std@@@std@@MBE?AV?$ostreambuf_iterator@DU?$char_traits@D@std@@@2@V32@AAVios_base@2@PBUtm@@DD@Z 0042deb6 f i libcpmt:xlocale.obj
 0001:0002cf8f       ??_E?$collate@D@std@@UAEPAXI@Z 0042df8f f i libcpmt:xlocale.obj
 0001:0002cf8f       ??_G?$collate@D@std@@UAEPAXI@Z 0042df8f f i libcpmt:xlocale.obj
 0001:0002cfab       ??1?$collate@D@std@@UAE@XZ 0042dfab f i libcpmt:xlocale.obj
 0001:0002cfb2       ??_G?$messages@D@std@@UAEPAXI@Z 0042dfb2 f i libcpmt:xlocale.obj
 0001:0002cfb2       ??_E?$messages@D@std@@UAEPAXI@Z 0042dfb2 f i libcpmt:xlocale.obj
 0001:0002cfce       ??1?$messages@D@std@@UAE@XZ 0042dfce f i libcpmt:xlocale.obj
 0001:0002cff1       ??_G?$money_get@DV?$istreambuf_iterator@DU?$char_traits@D@std@@@std@@@std@@UAEPAXI@Z 0042dff1 f i libcpmt:xlocale.obj
 0001:0002cff1       ??_E?$money_get@DV?$istreambuf_iterator@DU?$char_traits@D@std@@@std@@@std@@UAEPAXI@Z 0042dff1 f i libcpmt:xlocale.obj
 0001:0002d00d       ??1?$money_get@DV?$istreambuf_iterator@DU?$char_traits@D@std@@@std@@@std@@UAE@XZ 0042e00d f i libcpmt:xlocale.obj
 0001:0002d014       ??_E?$money_put@DV?$ostreambuf_iterator@DU?$char_traits@D@std@@@std@@@std@@UAEPAXI@Z 0042e014 f i libcpmt:xlocale.obj
 0001:0002d014       ??_G?$money_put@DV?$ostreambuf_iterator@DU?$char_traits@D@std@@@std@@@std@@UAEPAXI@Z 0042e014 f i libcpmt:xlocale.obj
 0001:0002d030       ??1?$money_put@DV?$ostreambuf_iterator@DU?$char_traits@D@std@@@std@@@std@@UAE@XZ 0042e030 f i libcpmt:xlocale.obj
 0001:0002d037       ??_E?$moneypunct@D$0A@@std@@UAEPAXI@Z 0042e037 f i libcpmt:xlocale.obj
 0001:0002d037       ??_G?$moneypunct@D$0A@@std@@UAEPAXI@Z 0042e037 f i libcpmt:xlocale.obj
 0001:0002d053       ??_E?$moneypunct@D$00@std@@UAEPAXI@Z 0042e053 f i libcpmt:xlocale.obj
 0001:0002d053       ??_G?$moneypunct@D$00@std@@UAEPAXI@Z 0042e053 f i libcpmt:xlocale.obj
 0001:0002d06f       ??_G?$time_get@DV?$istreambuf_iterator@DU?$char_traits@D@std@@@std@@@std@@UAEPAXI@Z 0042e06f f i libcpmt:xlocale.obj
 0001:0002d06f       ??_E?$time_get@DV?$istreambuf_iterator@DU?$char_traits@D@std@@@std@@@std@@UAEPAXI@Z 0042e06f f i libcpmt:xlocale.obj
 0001:0002d08b       ??1?$time_get@DV?$istreambuf_iterator@DU?$char_traits@D@std@@@std@@@std@@UAE@XZ 0042e08b f i libcpmt:xlocale.obj
 0001:0002d0ae       ??_E?$time_put@DV?$ostreambuf_iterator@DU?$char_traits@D@std@@@std@@@std@@UAEPAXI@Z 0042e0ae f i libcpmt:xlocale.obj
 0001:0002d0ae       ??_G?$time_put@DV?$ostreambuf_iterator@DU?$char_traits@D@std@@@std@@@std@@UAEPAXI@Z 0042e0ae f i libcpmt:xlocale.obj
 0001:0002d0ca       ??1?$time_put@DV?$ostreambuf_iterator@DU?$char_traits@D@std@@@std@@@std@@UAE@XZ 0042e0ca f i libcpmt:xlocale.obj
 0001:0002d0e4       ??1?$moneypunct@D$0A@@std@@UAE@XZ 0042e0e4 f i libcpmt:xlocale.obj
 0001:0002d0e9       ??1?$_Mpunct@D@std@@UAE@XZ 0042e0e9 f i libcpmt:xlocale.obj
 0001:0002d11d       ??_E?$_Mpunct@D@std@@UAEPAXI@Z 0042e11d f i libcpmt:xlocale.obj
 0001:0002d11d       ??_G?$_Mpunct@D@std@@UAEPAXI@Z 0042e11d f i libcpmt:xlocale.obj
 0001:0002d139       ??1?$moneypunct@D$00@std@@UAE@XZ 0042e139 f i libcpmt:xlocale.obj
 0001:0002d13e       ?resize@?$basic_string@DU?$char_traits@D@std@@V?$allocator@D@2@@std@@QAEXI@Z 0042e13e f i libcpmt:xlocale.obj
 0001:0002d164       ?_Init@?$messages@D@std@@IAEXABV_Locinfo@2@@Z 0042e164 f i libcpmt:xlocale.obj
 0001:0002d18c       ?_Getmfld@?$money_get@DV?$istreambuf_iterator@DU?$char_traits@D@std@@@std@@@std@@ABE?AV?$basic_string@DU?$char_traits@D@std@@V?$allocator@D@2@@2@AAV?$istreambuf_iterator@DU?$char_traits@D@std@@@2@0_NAAVios_base@2@@Z 0042e18c f i libcpmt:xlocale.obj
 0001:0002da01       ?_Putmfld@?$money_put@DV?$ostreambuf_iterator@DU?$char_traits@D@std@@@std@@@std@@ABE?AV?$ostreambuf_iterator@DU?$char_traits@D@std@@@2@V32@_NAAVios_base@2@D1V?$basic_string@DU?$char_traits@D@std@@V?$allocator@D@2@@2@@Z 0042ea01 f i libcpmt:xlocale.obj
 0001:0002dfac       ??0?$_Mpunct@D@std@@QAE@ABV_Locinfo@1@I_N@Z 0042efac f i libcpmt:xlocale.obj
 0001:0002dfec       ?_Init@?$time_get@DV?$istreambuf_iterator@DU?$char_traits@D@std@@@std@@@std@@IAEXABV_Locinfo@2@@Z 0042efec f i libcpmt:xlocale.obj
 0001:0002e01f       ?_Getint@?$time_get@DV?$istreambuf_iterator@DU?$char_traits@D@std@@@std@@@std@@CAHAAV?$istreambuf_iterator@DU?$char_traits@D@std@@@2@0HHAAH@Z 0042f01f f i libcpmt:xlocale.obj
 0001:0002e156       ?_Init@?$time_put@DV?$ostreambuf_iterator@DU?$char_traits@D@std@@@std@@@std@@IAEXABV_Locinfo@2@@Z 0042f156 f i libcpmt:xlocale.obj
 0001:0002e17e       ?insert@?$basic_string@DU?$char_traits@D@std@@V?$allocator@D@2@@std@@QAEAAV12@IID@Z 0042f17e f i libcpmt:xlocale.obj
 0001:0002e1fd       ?grouping@?$_Mpunct@D@std@@QBE?AV?$basic_string@DU?$char_traits@D@std@@V?$allocator@D@2@@2@XZ 0042f1fd f i libcpmt:xlocale.obj
 0001:0002e214       ?curr_symbol@?$_Mpunct@D@std@@QBE?AV?$basic_string@DU?$char_traits@D@std@@V?$allocator@D@2@@2@XZ 0042f214 f i libcpmt:xlocale.obj
 0001:0002e22b       ?positive_sign@?$_Mpunct@D@std@@QBE?AV?$basic_string@DU?$char_traits@D@std@@V?$allocator@D@2@@2@XZ 0042f22b f i libcpmt:xlocale.obj
 0001:0002e242       ?negative_sign@?$_Mpunct@D@std@@QBE?AV?$basic_string@DU?$char_traits@D@std@@V?$allocator@D@2@@2@XZ 0042f242 f i libcpmt:xlocale.obj
 0001:0002e259       ?_Init@?$_Mpunct@D@std@@IAEXABV_Locinfo@2@@Z 0042f259 f i libcpmt:xlocale.obj
 0001:0002e333       ?_Makpat@?$_Mpunct@D@std@@AAEXAAUpattern@money_base@2@DDD@Z 0042f333 f i libcpmt:xlocale.obj
 0001:0002e394       ?use_facet@std@@YAABV?$collate@D@1@ABVlocale@1@PBV21@_N@Z 0042f394 f i libcpmt:xlocale.obj
 0001:0002e458       ?use_facet@std@@YAABV?$messages@D@1@ABVlocale@1@PBV21@_N@Z 0042f458 f i libcpmt:xlocale.obj
 0001:0002e51c       ?use_facet@std@@YAABV?$money_get@DV?$istreambuf_iterator@DU?$char_traits@D@std@@@std@@@1@ABVlocale@1@PBV21@_N@Z 0042f51c f i libcpmt:xlocale.obj
 0001:0002e5f8       ?use_facet@std@@YAABV?$money_put@DV?$ostreambuf_iterator@DU?$char_traits@D@std@@@std@@@1@ABVlocale@1@PBV21@_N@Z 0042f5f8 f i libcpmt:xlocale.obj
 0001:0002e6d4       ?use_facet@std@@YAABV?$moneypunct@D$0A@@1@ABVlocale@1@PBV21@_N@Z 0042f6d4 f i libcpmt:xlocale.obj
 0001:0002e7a3       ?use_facet@std@@YAABV?$moneypunct@D$00@1@ABVlocale@1@PBV21@_N@Z 0042f7a3 f i libcpmt:xlocale.obj
 0001:0002e872       ?use_facet@std@@YAABV?$time_get@DV?$istreambuf_iterator@DU?$char_traits@D@std@@@std@@@1@ABVlocale@1@PBV21@_N@Z 0042f872 f i libcpmt:xlocale.obj
 0001:0002e936       ?use_facet@std@@YAABV?$time_put@DV?$ostreambuf_iterator@DU?$char_traits@D@std@@@std@@@1@ABVlocale@1@PBV21@_N@Z 0042f936 f i libcpmt:xlocale.obj
 0001:0002e9fa       ??0?$collate@D@std@@QAE@I@Z 0042f9fa f i libcpmt:xlocale.obj
 0001:0002ea4e       ??0?$messages@D@std@@QAE@I@Z 0042fa4e f i libcpmt:xlocale.obj
 0001:0002eac0       ??0?$time_get@DV?$istreambuf_iterator@DU?$char_traits@D@std@@@std@@@std@@QAE@I@Z 0042fac0 f i libcpmt:xlocale.obj
 0001:0002eb19       ??0?$time_put@DV?$ostreambuf_iterator@DU?$char_traits@D@std@@@std@@@std@@QAE@I@Z 0042fb19 f i libcpmt:xlocale.obj
 0001:0002eb86       ?_Save@?$_Tidyfac@V?$collate@D@std@@@std@@SAPAV?$collate@D@2@PAV32@@Z 0042fb86 f i libcpmt:xlocale.obj
 0001:0002ebd4       ?_Save@?$_Tidyfac@V?$messages@D@std@@@std@@SAPAV?$messages@D@2@PAV32@@Z 0042fbd4 f i libcpmt:xlocale.obj
 0001:0002ec22       ?_Save@?$_Tidyfac@V?$money_get@DV?$istreambuf_iterator@DU?$char_traits@D@std@@@std@@@std@@@std@@SAPAV?$money_get@DV?$istreambuf_iterator@DU?$char_traits@D@std@@@std@@@2@PAV32@@Z 0042fc22 f i libcpmt:xlocale.obj
 0001:0002ec70       ?_Save@?$_Tidyfac@V?$money_put@DV?$ostreambuf_iterator@DU?$char_traits@D@std@@@std@@@std@@@std@@SAPAV?$money_put@DV?$ostreambuf_iterator@DU?$char_traits@D@std@@@std@@@2@PAV32@@Z 0042fc70 f i libcpmt:xlocale.obj
 0001:0002ecbe       ?_Save@?$_Tidyfac@V?$moneypunct@D$0A@@std@@@std@@SAPAV?$moneypunct@D$0A@@2@PAV32@@Z 0042fcbe f i libcpmt:xlocale.obj
 0001:0002ed0c       ?_Save@?$_Tidyfac@V?$moneypunct@D$00@std@@@std@@SAPAV?$moneypunct@D$00@2@PAV32@@Z 0042fd0c f i libcpmt:xlocale.obj
 0001:0002ed5a       ?_Save@?$_Tidyfac@V?$time_get@DV?$istreambuf_iterator@DU?$char_traits@D@std@@@std@@@std@@@std@@SAPAV?$time_get@DV?$istreambuf_iterator@DU?$char_traits@D@std@@@std@@@2@PAV32@@Z 0042fd5a f i libcpmt:xlocale.obj
 0001:0002eda8       ?_Save@?$_Tidyfac@V?$time_put@DV?$ostreambuf_iterator@DU?$char_traits@D@std@@@std@@@std@@@std@@SAPAV?$time_put@DV?$ostreambuf_iterator@DU?$char_traits@D@std@@@std@@@2@PAV32@@Z 0042fda8 f i libcpmt:xlocale.obj
 0001:0002edf6       ??0?$_Mpunct@D@std@@QAE@I_N@Z 0042fdf6 f i libcpmt:xlocale.obj
 0001:0002ee55       ?_Tidy@?$_Tidyfac@V?$collate@D@std@@@std@@SAXXZ 0042fe55 f i libcpmt:xlocale.obj
 0001:0002eea2       ?_Tidy@?$_Tidyfac@V?$messages@D@std@@@std@@SAXXZ 0042fea2 f i libcpmt:xlocale.obj
 0001:0002eeef       ?_Tidy@?$_Tidyfac@V?$money_get@DV?$istreambuf_iterator@DU?$char_traits@D@std@@@std@@@std@@@std@@SAXXZ 0042feef f i libcpmt:xlocale.obj
 0001:0002ef3c       ?_Tidy@?$_Tidyfac@V?$money_put@DV?$ostreambuf_iterator@DU?$char_traits@D@std@@@std@@@std@@@std@@SAXXZ 0042ff3c f i libcpmt:xlocale.obj
 0001:0002ef89       ?_Tidy@?$_Tidyfac@V?$moneypunct@D$0A@@std@@@std@@SAXXZ 0042ff89 f i libcpmt:xlocale.obj
 0001:0002efd6       ?_Tidy@?$_Tidyfac@V?$moneypunct@D$00@std@@@std@@SAXXZ 0042ffd6 f i libcpmt:xlocale.obj
 0001:0002f023       ?_Tidy@?$_Tidyfac@V?$time_get@DV?$istreambuf_iterator@DU?$char_traits@D@std@@@std@@@std@@@std@@SAXXZ 00430023 f i libcpmt:xlocale.obj
 0001:0002f070       ?_Tidy@?$_Tidyfac@V?$time_put@DV?$ostreambuf_iterator@DU?$char_traits@D@std@@@std@@@std@@@std@@SAXXZ 00430070 f i libcpmt:xlocale.obj
 0001:0002f0de       __Wcrtomb                  004300de f   libcpmt:xwctomb.obj
 0001:0002f13d       ___Wcrtomb_lk              0043013d f   libcpmt:xwctomb.obj
 0001:0002f1b0       __Getcvt                   004301b0 f   libcpmt:xwctomb.obj
 0001:0002f204       _wcrtomb                   00430204 f   libcpmt:xwctomb.obj
 0001:0002f223       _wcsrtombs                 00430223 f   libcpmt:xwctomb.obj
 0001:0002f38b       _wctob                     0043038b f   libcpmt:xwctomb.obj
 0001:0002f3b9       __Tolower                  004303b9 f   libcpmt:_tolower.obj
 0001:0002f438       __Tolower_lk               00430438 f   libcpmt:_tolower.obj
 0001:0002f520       __Getctype                 00430520 f   libcpmt:_tolower.obj
 0001:0002f5c8       __Toupper                  004305c8 f   libcpmt:_toupper.obj
 0001:0002f647       __Toupper_lk               00430647 f   libcpmt:_toupper.obj
 0001:0002f728       __Stod                     00430728 f   libcpmt:xstod.obj
 0001:0002f764       __Stof                     00430764 f   libcpmt:xstod.obj
 0001:0002f779       __Stold                    00430779 f   libcpmt:xstod.obj
 0001:0002f78e       __Mbrtowc                  0043078e f   libcpmt:xmbtowc.obj
 0001:0002f904       _btowc                     00430904 f   libcpmt:xmbtowc.obj
 0001:0002f945       _mbrlen                    00430945 f   libcpmt:xmbtowc.obj
 0001:0002f9b0       _mbrtowc                   004309b0 f   libcpmt:xmbtowc.obj
 0001:0002fa41       _mbsrtowcs                 00430a41 f   libcpmt:xmbtowc.obj
 0001:0002fb36       __Strcoll                  00430b36 f   libcpmt:xstrcoll.obj
 0001:0002fc2f       __Getcoll                  00430c2f f   libcpmt:xstrcoll.obj
 0001:0002fc84       _inet_ntoa@4               00430c84 f   ws2_32:WS2_32.dll
 0001:0002fc8a       _inet_addr@4               00430c8a f   ws2_32:WS2_32.dll
 0001:0002fc90       _gethostbyname@4           00430c90 f   ws2_32:WS2_32.dll
 0001:0002fc96       _gethostname@8             00430c96 f   ws2_32:WS2_32.dll
 0001:0002fc9c       __onexit                   00430c9c f   LIBCMT:onexit.obj
 0001:0002fd1a       _atexit                    00430d1a f   LIBCMT:onexit.obj
 0001:0002fd2c       ___onexitinit              00430d2c f   LIBCMT:onexit.obj
 0001:0002fd5b       ??2@YAPAXI@Z               00430d5b f   LIBCMT:new.obj
 0001:0002fd69       _srand                     00430d69 f   LIBCMT:rand.obj
 0001:0002fd76       _rand                      00430d76 f   LIBCMT:rand.obj
 0001:0002fd98       _time                      00430d98 f   LIBCMT:time.obj
 0001:0002fe74       ?_JumpToContinuation@@YGXPAXPAUEHRegistrationNode@@@Z 00430e74 f   LIBCMT:trnsctrl.obj
 0001:0002fea8       ?_CallMemberFunction0@@YGXPAX0@Z 00430ea8 f   LIBCMT:trnsctrl.obj
 0001:0002feaf       ?_CallMemberFunction1@@YGXPAX00@Z 00430eaf f   LIBCMT:trnsctrl.obj
 0001:0002feb6       ?_CallMemberFunction2@@YGXPAX00H@Z 00430eb6 f   LIBCMT:trnsctrl.obj
 0001:0002febd       ?_UnwindNestedFrames@@YGXPAUEHRegistrationNode@@PAUEHExceptionRecord@@@Z 00430ebd f   LIBCMT:trnsctrl.obj
 0001:0002ff0c       ___CxxFrameHandler         00430f0c f   LIBCMT:trnsctrl.obj
 0001:0002ff42       ___CxxLongjmpUnwind@4      00430f42 f   LIBCMT:trnsctrl.obj
 0001:0002ff5c       ?_CallCatchBlock2@@YAPAXPAUEHRegistrationNode@@PBU_s_FuncInfo@@PAXHK@Z 00430f5c f   LIBCMT:trnsctrl.obj
 0001:0002ffd5       ?_CallSETranslator@@YAHPAUEHExceptionRecord@@PAUEHRegistrationNode@@PAX2PBU_s_FuncInfo@@H1@Z 00430fd5 f   LIBCMT:trnsctrl.obj
 0001:00030100       ?_GetRangeOfTrysToCheck@@YAPBU_s_TryBlockMapEntry@@PBU_s_FuncInfo@@HHPAI1@Z 00431100 f   LIBCMT:trnsctrl.obj
 0001:0003017c       __global_unwind2           0043117c f   LIBCMT:exsup.obj
 0001:000301be       __local_unwind2            004311be f   LIBCMT:exsup.obj
 0001:00030216       __NLG_Return2              00431216 f   LIBCMT:exsup.obj
 0001:00030226       __abnormal_termination     00431226 f   LIBCMT:exsup.obj
 0001:00030249       __NLG_Notify1              00431249 f   LIBCMT:exsup.obj
 0001:00030252       __NLG_Notify               00431252 f   LIBCMT:exsup.obj
 0001:00030265       __NLG_Dispatch             00431265 f   LIBCMT:exsup.obj
 0001:0003026a       _sprintf                   0043126a f   LIBCMT:sprintf.obj
 0001:000302bc       ??1type_info@@UAE@XZ       004312bc f   LIBCMT:typinfo.obj
 0001:000302e5       ??_Etype_info@@UAEPAXI@Z   004312e5 f i LIBCMT:typinfo.obj
 0001:000302e5       ??_Gtype_info@@UAEPAXI@Z   004312e5 f i LIBCMT:typinfo.obj
 0001:00030301       ??8type_info@@QBEHABV0@@Z  00431301 f   LIBCMT:typinfo.obj
 0001:0003031c       ??9type_info@@QBEHABV0@@Z  0043131c f   LIBCMT:typinfo.obj
 0001:00030338       ?before@type_info@@QBEHABV1@@Z 00431338 f   LIBCMT:typinfo.obj
 0001:00030357       ?raw_name@type_info@@QBEPBDXZ 00431357 f   LIBCMT:typinfo.obj
 0001:0003035b       ??0type_info@@AAE@ABV0@@Z  0043135b f   LIBCMT:typinfo.obj
 0001:00030366       ??4type_info@@AAEAAV0@ABV0@@Z 00431366 f   LIBCMT:typinfo.obj
 0001:0003036b       __CxxThrowException@8      0043136b f   LIBCMT:throw.obj
 0001:000303b0       _memmove                   004313b0 f   LIBCMT:memmove.obj
 0001:000306e5       __purecall                 004316e5 f   LIBCMT:purevirt.obj
 0001:000306ee       ??_M@YGXPAXIHP6EX0@Z@Z     004316ee f   LIBCMT:ehvecdtr.obj
 0001:0003076e       ?__ArrayUnwind@@YGXPAXIHP6EX0@Z@Z 0043176e f   LIBCMT:ehvecdtr.obj
 0001:000307e2       ??_L@YGXPAXIHP6EX0@Z1@Z    004317e2 f   LIBCMT:ehvecctr.obj
 0001:00030864       _fclose                    00431864 f   LIBCMT:fclose.obj
 0001:00030895       __fclose_lk                00431895 f   LIBCMT:fclose.obj
 0001:000308e1       _fputc                     004318e1 f   LIBCMT:fputc.obj
 0001:0003091c       _putc                      0043191c f   LIBCMT:fputc.obj
 0001:0003092c       _vfprintf                  0043192c f   LIBCMT:vfprintf.obj
 0001:00030967       _fprintf                   00431967 f   LIBCMT:fprintf.obj
 0001:000309a3       __fsopen                   004319a3 f   LIBCMT:fopen.obj
 0001:000309d4       _fopen                     004319d4 f   LIBCMT:fopen.obj
 0001:000309e7       ??0exception@@QAE@XZ       004319e7 f   LIBCMT:stdexcpt.obj
 0001:000309f8       ??_Eexception@@UAEPAXI@Z   004319f8 f i LIBCMT:stdexcpt.obj
 0001:000309f8       ??_Gexception@@UAEPAXI@Z   004319f8 f i LIBCMT:stdexcpt.obj
 0001:00030a14       ??0exception@@QAE@ABQBD@Z  00431a14 f   LIBCMT:stdexcpt.obj
 0001:00030a51       ??0exception@@QAE@ABV0@@Z  00431a51 f   LIBCMT:stdexcpt.obj
 0001:00030a9b       ??4exception@@QAEAAV0@ABV0@@Z 00431a9b f   LIBCMT:stdexcpt.obj
 0001:00030aba       ??1exception@@UAE@XZ       00431aba f   LIBCMT:stdexcpt.obj
 0001:00030ad0       ?what@exception@@UBEPBDXZ  00431ad0 f   LIBCMT:stdexcpt.obj
 0001:00030add       __fpmath                   00431add f   LIBCMT:fpinit.obj
 0001:00030af4       __fpclear                  00431af4 f   LIBCMT:fpinit.obj
 0001:00030af5       __cfltcvt_init             00431af5 f   LIBCMT:fpinit.obj
 0001:00030b2d       ___setfflag                00431b2d f   LIBCMT:fpinit.obj
 0001:00030b40       _memchr                    00431b40 f   LIBCMT:memchr.obj
 0001:00030be5       _localeconv                00431be5 f   LIBCMT:lconv.obj
 0001:00030bf0       _strcspn                   00431bf0 f   LIBCMT:strcspn.obj
 0001:00030c2e       _printf                    00431c2e f   LIBCMT:printf.obj
 0001:00030c6f       _atol                      00431c6f f   LIBCMT:atox.obj
 0001:00030cfa       _atoi                      00431cfa f   LIBCMT:atox.obj
 0001:00030d05       __atoi64                   00431d05 f   LIBCMT:atox.obj
 0001:00030dc0       _strncpy                   00431dc0 f   LIBCMT:strncpy.obj
 0001:00030ec0       __chkstk                   00431ec0 f   LIBCMT:chkstk.obj
 0001:00030ec0       __alloca_probe             00431ec0 f   LIBCMT:chkstk.obj
 0001:00030eef       _WinMainCRTStartup         00431eef f   LIBCMT:wincrt0.obj
 0001:00030ff7       __amsg_exit                00431ff7 f   LIBCMT:wincrt0.obj
 0001:00031040       __toupper                  00432040 f   LIBCMT:toupper.obj
 0001:00031048       _toupper                   00432048 f   LIBCMT:toupper.obj
 0001:000310b7       __toupper_lk               004320b7 f   LIBCMT:toupper.obj
 0001:00031183       _isalpha                   00432183 f   LIBCMT:_ctype.obj
 0001:000311b1       _isupper                   004321b1 f   LIBCMT:_ctype.obj
 0001:000311d9       _islower                   004321d9 f   LIBCMT:_ctype.obj
 0001:00031201       _isdigit                   00432201 f   LIBCMT:_ctype.obj
 0001:00031229       _isxdigit                  00432229 f   LIBCMT:_ctype.obj
 0001:00031256       _isspace                   00432256 f   LIBCMT:_ctype.obj
 0001:0003127e       _ispunct                   0043227e f   LIBCMT:_ctype.obj
 0001:000312a6       _isalnum                   004322a6 f   LIBCMT:_ctype.obj
 0001:000312d4       _isprint                   004322d4 f   LIBCMT:_ctype.obj
 0001:00031302       _isgraph                   00432302 f   LIBCMT:_ctype.obj
 0001:00031330       _iscntrl                   00432330 f   LIBCMT:_ctype.obj
 0001:00031358       ___isascii                 00432358 f   LIBCMT:_ctype.obj
 0001:00031365       ___toascii                 00432365 f   LIBCMT:_ctype.obj
 0001:0003136d       ___iscsymf                 0043236d f   LIBCMT:_ctype.obj
 0001:000313aa       ___iscsym                  004323aa f   LIBCMT:_ctype.obj
 0001:000313e7       _strtok                    004323e7 f   LIBCMT:strtok.obj
 0001:0003148b       _fwrite                    0043248b f   LIBCMT:fwrite.obj
 0001:000314ba       __fwrite_lk                004324ba f   LIBCMT:fwrite.obj
 0001:000315c4       _fgetc                     004325c4 f   LIBCMT:fgetc.obj
 0001:000315f5       _getc                      004325f5 f   LIBCMT:fgetc.obj
 0001:00031600       _ungetc                    00432600 f   LIBCMT:ungetc.obj
 0001:00031629       __ungetc_lk                00432629 f   LIBCMT:ungetc.obj
 0001:00031697       _fgetpos                   00432697 f   LIBCMT:fgetpos.obj
 0001:000316b9       _fseek                     004326b9 f   LIBCMT:fseek.obj
 0001:000316e5       __fseek_lk                 004326e5 f   LIBCMT:fseek.obj
 0001:00031772       _fsetpos                   00432772 f   LIBCMT:fsetpos.obj
 0001:0003178a       _setvbuf                   0043278a f   LIBCMT:setvbuf.obj
 0001:00031839       _fflush                    00432839 f   LIBCMT:fflush.obj
 0001:00031868       __fflush_lk                00432868 f   LIBCMT:fflush.obj
 0001:00031896       __flush                    00432896 f   LIBCMT:fflush.obj
 0001:000318f2       __flushall                 004328f2 f   LIBCMT:fflush.obj
 0001:0003199f       _free                      0043299f f   LIBCMT:free.obj
 0001:000319f0       _strlen                    004329f0 f   LIBCMT:strlen.obj
 0001:00031a6c       __EH_prolog                00432a6c f   LIBCMT:ehprolog.obj
 0001:00031a90       _memcpy                    00432a90 f   LIBCMT:memcpy.obj
 0001:00031dd0       _memcmp                    00432dd0 f   LIBCMT:memcmp.obj
 0001:00031e7c       _setlocale                 00432e7c f   LIBCMT:setlocal.obj
 0001:00032296       __expandlocale             00433296 f   LIBCMT:setlocal.obj
 0001:000323ae       ___init_dummy              004333ae f   LIBCMT:setlocal.obj
 0001:000323b1       __strcats                  004333b1 f   LIBCMT:setlocal.obj
 0001:000323d6       ___lc_strtolc              004333d6 f   LIBCMT:setlocal.obj
 0001:000324a2       ___lc_lctostr              004334a2 f   LIBCMT:setlocal.obj
 0001:000324f5       _malloc                    004334f5 f   LIBCMT:malloc.obj
 0001:00032507       __nh_malloc                00433507 f   LIBCMT:malloc.obj
 0001:00032533       __heap_alloc               00433533 f   LIBCMT:malloc.obj
 0001:00032581       _realloc                   00433581 f   LIBCMT:realloc.obj
 0001:000326b9       _strtol                    004336b9 f   LIBCMT:strtol.obj
 0001:000328d5       _strtoul                   004338d5 f   LIBCMT:strtol.obj
 0001:000328ec       __dosmaperr                004338ec f   LIBCMT:dosmap.obj
 0001:0003295f       __errno                    0043395f f   LIBCMT:dosmap.obj
 0001:00032968       ___doserrno                00433968 f   LIBCMT:dosmap.obj
 0001:00032980       _memset                    00433980 f   LIBCMT:memset.obj
 0001:000329d8       ___initstdio               004339d8 f   LIBCMT:_file.obj
 0001:00032a80       ___endstdio                00433a80 f   LIBCMT:_file.obj
 0001:00032a94       __lock_file                00433a94 f   LIBCMT:_file.obj
 0001:00032ac3       __lock_file2               00433ac3 f   LIBCMT:_file.obj
 0001:00032ae6       __unlock_file              00433ae6 f   LIBCMT:_file.obj
 0001:00032b15       __unlock_file2             00433b15 f   LIBCMT:_file.obj
 0001:00032b38       _fputwc                    00433b38 f   LIBCMT:fputwc.obj
 0001:00032b62       __putwc_lk                 00433b62 f   LIBCMT:fputwc.obj
 0001:00032c5b       _putwc                     00433c5b f   LIBCMT:fputwc.obj
 0001:00032c6b       _ungetwc                   00433c6b f   LIBCMT:ungetwc.obj
 0001:00032c95       __ungetwc_lk               00433c95 f   LIBCMT:ungetwc.obj
 0001:00032d82       _fgetwc                    00433d82 f   LIBCMT:fgetwc.obj
 0001:00032da5       __getwc_lk                 00433da5 f   LIBCMT:fgetwc.obj
 0001:00032e96       _getwc                     00433e96 f   LIBCMT:fgetwc.obj
 0001:00032ea1       __Getdays                  00433ea1 f   LIBCMT:strftime.obj
 0001:00032f30       __Getmonths                00433f30 f   LIBCMT:strftime.obj
 0001:00032fc5       __Gettnames                00433fc5 f   LIBCMT:strftime.obj
 0001:000331f7       _strftime                  004341f7 f   LIBCMT:strftime.obj
 0001:00033212       __Strftime                 00434212 f   LIBCMT:strftime.obj
 0001:00033aa9       _wcslen                    00434aa9 f   LIBCMT:wcslen.obj
 0001:00033ac6       __mtinitlocks              00434ac6 f   LIBCMT:mlock.obj
 0001:00033aef       __mtdeletelocks            00434aef f   LIBCMT:mlock.obj
 0001:00033b5b       __lock                     00434b5b f   LIBCMT:mlock.obj
 0001:00033bbc       __unlock                   00434bbc f   LIBCMT:mlock.obj
 0001:00033bd1       __lockerr_exit             00434bd1 f   LIBCMT:mlock.obj
 0001:00033be9       ___crtLCMapStringA         00434be9 f   LIBCMT:a_map.obj
 0001:00033e38       __isctype                  00434e38 f   LIBCMT:isctype.obj
 0001:00033ead       _strtod                    00434ead f   LIBCMT:strtod.obj
 0001:00033f57       ___crtCompareStringA       00434f57 f   LIBCMT:a_cmp.obj
 0001:000341ff       __cinit                    004351ff f   LIBCMT:crt0dat.obj
 0001:0003422c       _exit                      0043522c f   LIBCMT:crt0dat.obj
 0001:0003423d       __exit                     0043523d f   LIBCMT:crt0dat.obj
 0001:0003424e       __cexit                    0043524e f   LIBCMT:crt0dat.obj
 0001:0003425d       __c_exit                   0043525d f   LIBCMT:crt0dat.obj
 0001:00034311       __lockexit                 00435311 f   LIBCMT:crt0dat.obj
 0001:0003431a       __unlockexit               0043531a f   LIBCMT:crt0dat.obj
 0001:0003433d       __msize                    0043533d f   LIBCMT:msize.obj
 0001:00034382       __mtinit                   00435382 f   LIBCMT:tidtable.obj
 0001:000343d6       __mtterm                   004353d6 f   LIBCMT:tidtable.obj
 0001:000343f4       __initptd                  004353f4 f   LIBCMT:tidtable.obj
 0001:00034407       __getptd                   00435407 f   LIBCMT:tidtable.obj
 0001:0003446e       __freeptd                  0043546e f   LIBCMT:tidtable.obj
 0001:0003450e       ___threadid                0043550e f   LIBCMT:tidtable.obj
 0001:00034514       ___threadhandle            00435514 f   LIBCMT:tidtable.obj
 0001:0003451a       ___loctotime_t             0043551a f   LIBCMT:dtoxtime.obj
 0001:000345dc       ___InternalCxxFrameHandler 004355dc f   LIBCMT:frame.obj
 0001:00034931       ___FrameUnwindToState      00435931 f   LIBCMT:frame.obj
 0001:00034d69       ?_DestructExceptionObject@@YAXPAUEHExceptionRecord@@E@Z 00435d69 f   LIBCMT:frame.obj
 0001:00034e00       __CallSettingFrame@12      00435e00 f   LIBCMT:lowhelpr.obj
 0001:00034e27       __NLG_Return               00435e27 f   LIBCMT:lowhelpr.obj
 0001:00034e4c       ?terminate@@YAXXZ          00435e4c f   LIBCMT:hooks.obj
 0001:00034ead       ?unexpected@@YAXXZ         00435ead f   LIBCMT:hooks.obj
 0001:00034ec5       ?_inconsistency@@YAXXZ     00435ec5 f   LIBCMT:hooks.obj
 0001:00034f1b       __flsbuf                   00435f1b f   LIBCMT:_flsbuf.obj
 0001:00035033       __output                   00436033 f   LIBCMT:output.obj
 0001:00035840       _strcmp                    00436840 f   LIBCMT:strcmp.obj
 0001:000358c4       ?__CxxUnhandledExceptionFilter@@YGJPAU_EXCEPTION_POINTERS@@@Z 004368c4 f   LIBCMT:unhandld.obj
 0001:0003590a       ?__CxxSetUnhandledExceptionFilter@@YAXXZ 0043690a f   LIBCMT:unhandld.obj
 0001:0003591b       ?__CxxRestoreUnhandledExceptionFilter@@YAXXZ 0043691b f   LIBCMT:unhandld.obj
 0001:00035930       __except_handler3          00436930 f   LIBCMT:exsup3.obj
 0001:000359ed       __seh_longjmp_unwind@4     004369ed f   LIBCMT:exsup3.obj
 0001:00035a08       __close                    00436a08 f   LIBCMT:close.obj
 0001:00035a65       __close_lk                 00436a65 f   LIBCMT:close.obj
 0001:00035ae8       __freebuf                  00436ae8 f   LIBCMT:_freebuf.obj
 0001:00035b13       __stbuf                    00436b13 f   LIBCMT:_sftbuf.obj
 0001:00035ba0       __ftbuf                    00436ba0 f   LIBCMT:_sftbuf.obj
 0001:00035bca       __openfile                 00436bca f   LIBCMT:_open.obj
 0001:00035d3a       __getstream                00436d3a f   LIBCMT:stream.obj
 0001:00035e10       _strcpy                    00436e10 f   LIBCMT:strcat.obj
 0001:00035e20       _strcat                    00436e20 f   LIBCMT:strcat.obj
 0001:00035f00       __setdefaultprecision      00436f00 f   LIBCMT:fp8.obj
 0001:00035f12       __ms_p5_test_fdiv          00436f12 f   LIBCMT:testfdiv.obj
 0001:00035f50       __ms_p5_mp_test_fdiv       00436f50 f   LIBCMT:testfdiv.obj
 0001:00035f79       __forcdecpt                00436f79 f   LIBCMT:cvt.obj
 0001:00035fd3       __cropzeros                00436fd3 f   LIBCMT:cvt.obj
 0001:00036021       __positive                 00437021 f   LIBCMT:cvt.obj
 0001:00036039       __fassign                  00437039 f   LIBCMT:cvt.obj
 0001:00036077       __cftoe                    00437077 f   LIBCMT:cvt.obj
 0001:0003619a       __cftof                    0043719a f   LIBCMT:cvt.obj
 0001:00036296       __cftog                    00437296 f   LIBCMT:cvt.obj
 0001:00036329       __cfltcvt                  00437329 f   LIBCMT:cvt.obj
 0001:000363a0       __allmul                   004373a0 f   LIBCMT:llmul.obj
 0001:000363d4       __XcptFilter               004373d4 f   LIBCMT:winxfltr.obj
 0001:0003654c       __wincmdln                 0043754c f   LIBCMT:wincmdln.obj
 0001:000365a4       __setenvp                  004375a4 f   LIBCMT:stdenvp.obj
 0001:0003665d       __setargv                  0043765d f   LIBCMT:stdargv.obj
 0001:000368aa       ___crtGetEnvironmentStringsA 004378aa f   LIBCMT:a_env.obj
 0001:000369dc       __ioinit                   004379dc f   LIBCMT:ioinit.obj
 0001:00036b98       __ioterm                   00437b98 f   LIBCMT:ioinit.obj
 0001:00036bec       __heap_init                00437bec f   LIBCMT:heapinit.obj
 0001:00036c28       __heap_term                00437c28 f   LIBCMT:heapinit.obj
 0001:00036c9d       __FF_MSGBANNER             00437c9d f   LIBCMT:crt0msg.obj
 0001:00036cd6       __NMSG_WRITE               00437cd6 f   LIBCMT:crt0msg.obj
 0001:00036e29       __GET_RTERRMSG             00437e29 f   LIBCMT:crt0msg.obj
 0001:00036e5a       __write                    00437e5a f   LIBCMT:write.obj
 0001:00036ebf       __write_lk                 00437ebf f   LIBCMT:write.obj
 0001:0003704a       __filbuf                   0043804a f   LIBCMT:_filbuf.obj
 0001:00037126       __getbuf                   00438126 f   LIBCMT:_getbuf.obj
 0001:0003716a       __ftelli64                 0043816a f   LIBCMT:ftelli64.obj
 0001:00037192       __ftelli64_lk              00438192 f   LIBCMT:ftelli64.obj
 0001:00037322       __lseek                    00438322 f   LIBCMT:lseek.obj
 0001:00037387       __lseek_lk                 00438387 f   LIBCMT:lseek.obj
 0001:000373fa       _ftell                     004383fa f   LIBCMT:ftell.obj
 0001:0003741c       __ftell_lk                 0043841c f   LIBCMT:ftell.obj
 0001:0003757d       __fseeki64                 0043857d f   LIBCMT:fseeki64.obj
 0001:000375ac       __fseeki64_lk              004385ac f   LIBCMT:fseeki64.obj
 0001:0003763d       __commit                   0043863d f   LIBCMT:commit.obj
 0001:000376d0       __get_sbh_threshold        004386d0 f   LIBCMT:sbheap.obj
 0001:000376d6       __set_sbh_threshold        004386d6 f   LIBCMT:sbheap.obj
 0001:000376ed       ___sbh_heap_init           004386ed f   LIBCMT:sbheap.obj
 0001:0003772b       ___sbh_find_block          0043872b f   LIBCMT:sbheap.obj
 0001:00037756       ___sbh_free_block          00438756 f   LIBCMT:sbheap.obj
 0001:00037a81       ___sbh_alloc_block         00438a81 f   LIBCMT:sbheap.obj
 0001:00037d8a       ___sbh_alloc_new_region    00438d8a f   LIBCMT:sbheap.obj
 0001:00037e3b       ___sbh_alloc_new_group     00438e3b f   LIBCMT:sbheap.obj
 0001:00037f36       ___sbh_resize_block        00438f36 f   LIBCMT:sbheap.obj
 0001:0003822c       ___sbh_heapmin             0043922c f   LIBCMT:sbheap.obj
 0001:000382fd       ___sbh_heap_check          004392fd f   LIBCMT:sbheap.obj
 0001:0003862c       ___init_time               0043962c f   LIBCMT:inittime.obj
 0001:00038b9b       ___init_numeric            00439b9b f   LIBCMT:initnum.obj
 0001:00038da7       ___init_monetary           00439da7 f   LIBCMT:initmon.obj
 0001:00039019       ___init_ctype              0043a019 f   LIBCMT:initctyp.obj
 0001:0003925e       ___init_collate            0043a25e f   LIBCMT:initcoll.obj
 0001:00039270       _strncmp                   0043a270 f   LIBCMT:strncmp.obj
 0001:000392b0       _strpbrk                   0043a2b0 f   LIBCMT:strpbrk.obj
 0001:000392ea       ___get_qualified_locale    0043a2ea f   LIBCMT:getqloc.obj
 0001:00039b91       ?_set_new_handler@@YAP6AHI@ZP6AHI@Z@Z 0043ab91 f   LIBCMT:handler.obj
 0001:00039bb5       ?_query_new_handler@@YAP6AHI@ZXZ 0043abb5 f   LIBCMT:handler.obj
 0001:00039bbb       __callnewh                 0043abbb f   LIBCMT:handler.obj
 0001:00039bd6       _calloc                    0043abd6 f   LIBCMT:calloc.obj
 0001:00039c63       __fcloseall                0043ac63 f   LIBCMT:closeall.obj
 0001:00039ce4       __flswbuf                  0043ace4 f   LIBCMT:_flswbuf.obj
 0001:00039e0b       _wctomb                    0043ae0b f   LIBCMT:wctomb.obj
 0001:00039e64       __wctomb_lk                0043ae64 f   LIBCMT:wctomb.obj
 0001:00039ecd       __filwbuf                  0043aecd f   LIBCMT:_filwbuf.obj
 0001:00039fb4       _mbtowc                    0043afb4 f   LIBCMT:mbtowc.obj
 0001:0003a011       __mbtowc_lk                0043b011 f   LIBCMT:mbtowc.obj
 0001:0003a0da       ___tzset                   0043b0da f   LIBCMT:tzset.obj
 0001:0003a108       __tzset                    0043b108 f   LIBCMT:tzset.obj
 0001:0003a3a5       __isindst                  0043b3a5 f   LIBCMT:tzset.obj
 0001:0003a6c0       __stricmp                  0043b6c0 f   LIBCMT:stricmp.obj
 0001:0003a6c0       __strcmpi                  0043b6c0 f   LIBCMT:stricmp.obj
 0001:0003a790       ___crtGetStringTypeA       0043b790 f   LIBCMT:a_str.obj
 0001:0003a8dc       __fltin2                   0043b8dc f   LIBCMT:cfin.obj
 0001:0003a95b       ?_ValidateRead@@YAHPBXI@Z  0043b95b f   LIBCMT:validate.obj
 0001:0003a977       ?_ValidateWrite@@YAHPAXI@Z 0043b977 f   LIBCMT:validate.obj
 0001:0003a993       ?_ValidateExecute@@YAHP6GHXZ@Z 0043b993 f   LIBCMT:validate.obj
 0001:0003a9ab       _abort                     0043b9ab f   LIBCMT:abort.obj
 0001:0003a9c2       __isatty                   0043b9c2 f   LIBCMT:isatty.obj
 0001:0003a9f0       __aulldiv                  0043b9f0 f   LIBCMT:ulldiv.obj
 0001:0003aa60       __aullrem                  0043ba60 f   LIBCMT:ullrem.obj
 0001:0003aad5       __alloc_osfhnd             0043bad5 f   LIBCMT:osfinfo.obj
 0001:0003abf8       __set_osfhnd               0043bbf8 f   LIBCMT:osfinfo.obj
 0001:0003ac74       __free_osfhnd              0043bc74 f   LIBCMT:osfinfo.obj
 0001:0003acf3       __get_osfhandle            0043bcf3 f   LIBCMT:osfinfo.obj
 0001:0003ad35       __open_osfhandle           0043bd35 f   LIBCMT:osfinfo.obj
 0001:0003addc       __lock_fhandle             0043bddc f   LIBCMT:osfinfo.obj
 0001:0003ae3b       __unlock_fhandle           0043be3b f   LIBCMT:osfinfo.obj
 0001:0003ae5d       __open                     0043be5d f   LIBCMT:open.obj
 0001:0003ae74       __sopen                    0043be74 f   LIBCMT:open.obj
 0001:0003b143       __statusfp                 0043c143 f   LIBCMT:ieee87.obj
 0001:0003b156       __clearfp                  0043c156 f   LIBCMT:ieee87.obj
 0001:0003b16a       __control87                0043c16a f   LIBCMT:ieee87.obj
 0001:0003b19f       __controlfp                0043c19f f   LIBCMT:ieee87.obj
 0001:0003b1b5       __fpreset                  0043c1b5 f   LIBCMT:ieee87.obj
 0001:0003b330       __tolower                  0043c330 f   LIBCMT:tolower.obj
 0001:0003b338       _tolower                   0043c338 f   LIBCMT:tolower.obj
 0001:0003b3a7       __tolower_lk               0043c3a7 f   LIBCMT:tolower.obj
 0001:0003b472       __ZeroTail                 0043c472 f   LIBCMT:intrncvt.obj
 0001:0003b4bb       __IncMan                   0043c4bb f   LIBCMT:intrncvt.obj
 0001:0003b511       __RoundMan                 0043c511 f   LIBCMT:intrncvt.obj
 0001:0003b59d       __CopyMan                  0043c59d f   LIBCMT:intrncvt.obj
 0001:0003b5b8       __FillZeroMan              0043c5b8 f   LIBCMT:intrncvt.obj
 0001:0003b5c4       __IsZeroMan                0043c5c4 f   LIBCMT:intrncvt.obj
 0001:0003b5df       __ShrMan                   0043c5df f   LIBCMT:intrncvt.obj
 0001:0003b66c       __ld12cvt                  0043c66c f   LIBCMT:intrncvt.obj
 0001:0003b7d8       __ld12tod                  0043c7d8 f   LIBCMT:intrncvt.obj
 0001:0003b7ee       __ld12tof                  0043c7ee f   LIBCMT:intrncvt.obj
 0001:0003b804       __ld12told                 0043c804 f   LIBCMT:intrncvt.obj
 0001:0003b87e       __atodbl                   0043c87e f   LIBCMT:intrncvt.obj
 0001:0003b8ab       __atoldbl                  0043c8ab f   LIBCMT:intrncvt.obj
 0001:0003b8d9       __atoflt                   0043c8d9 f   LIBCMT:intrncvt.obj
 0001:0003b906       __fptostr                  0043c906 f   LIBCMT:_fptostr.obj
 0001:0003b97d       __fltout2                  0043c97d f   LIBCMT:cfout.obj
 0001:0003b9d9       ___dtold                   0043c9d9 f   LIBCMT:cfout.obj
 0001:0003ba8f       __fptrap                   0043ca8f f   LIBCMT:crt0fp.obj
 0001:0003ba98       __ismbbkalnum              0043ca98 f   LIBCMT:ismbbyte.obj
 0001:0003baa9       __ismbbkprint              0043caa9 f   LIBCMT:ismbbyte.obj
 0001:0003baba       __ismbbkpunct              0043caba f   LIBCMT:ismbbyte.obj
 0001:0003bacb       __ismbbalnum               0043cacb f   LIBCMT:ismbbyte.obj
 0001:0003badf       __ismbbalpha               0043cadf f   LIBCMT:ismbbyte.obj
 0001:0003baf3       __ismbbgraph               0043caf3 f   LIBCMT:ismbbyte.obj
 0001:0003bb07       __ismbbprint               0043cb07 f   LIBCMT:ismbbyte.obj
 0001:0003bb1b       __ismbbpunct               0043cb1b f   LIBCMT:ismbbyte.obj
 0001:0003bb2c       __ismbblead                0043cb2c f   LIBCMT:ismbbyte.obj
 0001:0003bb3d       __ismbbtrail               0043cb3d f   LIBCMT:ismbbyte.obj
 0001:0003bb4e       __ismbbkana                0043cb4e f   LIBCMT:ismbbyte.obj
 0001:0003bba6       __setmbcp                  0043cba6 f   LIBCMT:mbctype.obj
 0001:0003bf7e       __getmbcp                  0043cf7e f   LIBCMT:mbctype.obj
 0001:0003bf8e       ___initmbctable            0043cf8e f   LIBCMT:mbctype.obj
 0001:0003bfaa       ___crtMessageBoxA          0043cfaa f   LIBCMT:crtmbox.obj
 0001:0003c033       __read                     0043d033 f   LIBCMT:read.obj
 0001:0003c098       __read_lk                  0043d098 f   LIBCMT:read.obj
 0001:0003c271       __lseeki64                 0043d271 f   LIBCMT:lseeki64.obj
 0001:0003c2e2       __lseeki64_lk              0043d2e2 f   LIBCMT:lseeki64.obj
 0001:0003c367       ___getlocaleinfo           0043d367 f   LIBCMT:inithelp.obj
 0001:0003c49f       ___crtGetStringTypeW       0043d49f f   LIBCMT:w_str.obj
 0001:0003c664       __itoa                     0043d664 f   LIBCMT:xtoa.obj
 0001:0003c6ed       __ltoa                     0043d6ed f   LIBCMT:xtoa.obj
 0001:0003c717       __ultoa                    0043d717 f   LIBCMT:xtoa.obj
 0001:0003c732       __i64toa                   0043d732 f   LIBCMT:xtoa.obj
 0001:0003c7e9       __ui64toa                  0043d7e9 f   LIBCMT:xtoa.obj
 0001:0003c810       __strnicmp                 0043d810 f   LIBCMT:strnicmp.obj
 0001:0003c911       _getenv                    0043d911 f   LIBCMT:getenv.obj
 0001:0003c932       __getenv_lk                0043d932 f   LIBCMT:getenv.obj
 0001:0003c9af       ___strgtold12              0043d9af f   LIBCMT:strgtold.obj
 0001:0003ce80       ___STRINGTOLD              0043de80 f   LIBCMT:strgtold.obj
 0001:0003cebc       _signal                    0043debc f   LIBCMT:winsig.obj
 0001:0003d0a0       _raise                     0043e0a0 f   LIBCMT:winsig.obj
 0001:0003d25f       ___fpecode                 0043e25f f   LIBCMT:winsig.obj
 0001:0003d268       ___pxcptinfoptrs           0043e268 f   LIBCMT:winsig.obj
 0001:0003d271       __chsize                   0043e271 f   LIBCMT:chsize.obj
 0001:0003d2ca       __chsize_lk                0043e2ca f   LIBCMT:chsize.obj
 0001:0003d3ef       ___addl                    0043e3ef f   LIBCMT:mantold.obj
 0001:0003d410       ___add_12                  0043e410 f   LIBCMT:mantold.obj
 0001:0003d46e       ___shl_12                  0043e46e f   LIBCMT:mantold.obj
 0001:0003d49c       ___shr_12                  0043e49c f   LIBCMT:mantold.obj
 0001:0003d4c9       ___mtold12                 0043e4c9 f   LIBCMT:mantold.obj
 0001:0003d590       _$I10_OUTPUT               0043e590 f   LIBCMT:x10fout.obj
 0001:0003d823       ___crtGetLocaleInfoW       0043e823 f   LIBCMT:w_loc.obj
 0001:0003d936       ___crtGetLocaleInfoA       0043e936 f   LIBCMT:a_loc.obj
 0001:0003da54       __mbsnbicoll               0043ea54 f   LIBCMT:mbsnbico.obj
 0001:0003da93       ___wtomb_environ           0043ea93 f   LIBCMT:wtombenv.obj
 0001:0003db01       ___ld12mul                 0043eb01 f   LIBCMT:tenpow.obj
 0001:0003dd21       ___multtenpow12            0043ed21 f   LIBCMT:tenpow.obj
 0001:0003dd9d       __setmode                  0043ed9d f   LIBCMT:setmode.obj
 0001:0003ddf6       __setmode_lk               0043edf6 f   LIBCMT:setmode.obj
 0001:0003de57       ___crtsetenv               0043ee57 f   LIBCMT:setenv.obj
 0001:0003e09d       __mbschr                   0043f09d f   LIBCMT:mbschr.obj
 0001:0003e134       __strdup                   0043f134 f   LIBCMT:strdup.obj
 0001:0003e170       _strchr                    0043f170 f   LIBCMT:strchr.obj
 0001:0003e176       ___from_strstr_to_strchr   0043f176 f   LIBCMT:strchr.obj
 0001:0003e22c       _VerQueryValueA@16         0043f22c f   Version:VERSION.dll
 0001:0003e232       _GetFileVersionInfoA@16    0043f232 f   Version:VERSION.dll
 0001:0003e238       _GetFileVersionInfoSizeA@8 0043f238 f   Version:VERSION.dll
 0001:0003e23e       _CreateMutexA@12           0043f23e f   kernel32:KERNEL32.dll
 0001:0003e244       _InterlockedDecrement@4    0043f244 f   kernel32:KERNEL32.dll
 0001:0003e24a       _FormatMessageA@28         0043f24a f   kernel32:KERNEL32.dll
 0001:0003e250       _GetCurrentDirectoryA@8    0043f250 f   kernel32:KERNEL32.dll
 0001:0003e256       _GetModuleFileNameA@12     0043f256 f   kernel32:KERNEL32.dll
 0001:0003e25c       _GetSystemTime@4           0043f25c f   kernel32:KERNEL32.dll
 0001:0003e262       _GetComputerNameA@8        0043f262 f   kernel32:KERNEL32.dll
 0001:0003e268       _SetLastError@4            0043f268 f   kernel32:KERNEL32.dll
 0001:0003e26e       _WritePrivateProfileStringA@16 0043f26e f   kernel32:KERNEL32.dll
 0001:0003e274       _GetPrivateProfileStringA@24 0043f274 f   kernel32:KERNEL32.dll
 0001:0003e27a       _GlobalFree@4              0043f27a f   kernel32:KERNEL32.dll
 0001:0003e280       _GlobalUnlock@4            0043f280 f   kernel32:KERNEL32.dll
 0001:0003e286       _GlobalLock@4              0043f286 f   kernel32:KERNEL32.dll
 0001:0003e28c       _GlobalAlloc@8             0043f28c f   kernel32:KERNEL32.dll
 0001:0003e292       _WideCharToMultiByte@32    0043f292 f   kernel32:KERNEL32.dll
 0001:0003e298       _MultiByteToWideChar@24    0043f298 f   kernel32:KERNEL32.dll
 0001:0003e29e       _GetTimeZoneInformation@4  0043f29e f   kernel32:KERNEL32.dll
 0001:0003e2a4       _RtlUnwind@16              0043f2a4 f   kernel32:KERNEL32.dll
 0001:0003e2aa       _RaiseException@16         0043f2aa f   kernel32:KERNEL32.dll
 0001:0003e2b0       _GetModuleHandleA@4        0043f2b0 f   kernel32:KERNEL32.dll
 0001:0003e2b6       _GetStartupInfoA@4         0043f2b6 f   kernel32:KERNEL32.dll
 0001:0003e2bc       _GetCommandLineA@0         0043f2bc f   kernel32:KERNEL32.dll
 0001:0003e2c2       _GetVersion@0              0043f2c2 f   kernel32:KERNEL32.dll
 0001:0003e2c8       _ExitProcess@4             0043f2c8 f   kernel32:KERNEL32.dll
 0001:0003e2ce       _HeapFree@12               0043f2ce f   kernel32:KERNEL32.dll
 0001:0003e2d4       _HeapAlloc@12              0043f2d4 f   kernel32:KERNEL32.dll
 0001:0003e2da       _HeapReAlloc@16            0043f2da f   kernel32:KERNEL32.dll
 0001:0003e2e0       _FatalAppExitA@8           0043f2e0 f   kernel32:KERNEL32.dll
 0001:0003e2e6       _LCMapStringA@24           0043f2e6 f   kernel32:KERNEL32.dll
 0001:0003e2ec       _LCMapStringW@24           0043f2ec f   kernel32:KERNEL32.dll
 0001:0003e2f2       _GetCPInfo@8               0043f2f2 f   kernel32:KERNEL32.dll
 0001:0003e2f8       _CompareStringA@24         0043f2f8 f   kernel32:KERNEL32.dll
 0001:0003e2fe       _CompareStringW@24         0043f2fe f   kernel32:KERNEL32.dll
 0001:0003e304       _TerminateProcess@8        0043f304 f   kernel32:KERNEL32.dll
 0001:0003e30a       _GetCurrentProcess@0       0043f30a f   kernel32:KERNEL32.dll
 0001:0003e310       _HeapSize@12               0043f310 f   kernel32:KERNEL32.dll
 0001:0003e316       _GetCurrentThreadId@0      0043f316 f   kernel32:KERNEL32.dll
 0001:0003e31c       _TlsSetValue@8             0043f31c f   kernel32:KERNEL32.dll
 0001:0003e322       _TlsAlloc@0                0043f322 f   kernel32:KERNEL32.dll
 0001:0003e328       _TlsFree@4                 0043f328 f   kernel32:KERNEL32.dll
 0001:0003e32e       _TlsGetValue@4             0043f32e f   kernel32:KERNEL32.dll
 0001:0003e334       _GetCurrentThread@0        0043f334 f   kernel32:KERNEL32.dll
 0001:0003e33a       _SetUnhandledExceptionFilter@4 0043f33a f   kernel32:KERNEL32.dll
 0001:0003e340       _UnhandledExceptionFilter@4 0043f340 f   kernel32:KERNEL32.dll
 0001:0003e346       _FreeEnvironmentStringsA@4 0043f346 f   kernel32:KERNEL32.dll
 0001:0003e34c       _FreeEnvironmentStringsW@4 0043f34c f   kernel32:KERNEL32.dll
 0001:0003e352       _GetEnvironmentStrings@0   0043f352 f   kernel32:KERNEL32.dll
 0001:0003e358       _GetEnvironmentStringsW@0  0043f358 f   kernel32:KERNEL32.dll
 0001:0003e35e       _SetHandleCount@4          0043f35e f   kernel32:KERNEL32.dll
 0001:0003e364       _GetStdHandle@4            0043f364 f   kernel32:KERNEL32.dll
 0001:0003e36a       _GetFileType@4             0043f36a f   kernel32:KERNEL32.dll
 0001:0003e370       _HeapDestroy@4             0043f370 f   kernel32:KERNEL32.dll
 0001:0003e376       _HeapCreate@12             0043f376 f   kernel32:KERNEL32.dll
 0001:0003e37c       _VirtualFree@12            0043f37c f   kernel32:KERNEL32.dll
 0001:0003e382       _WriteFile@20              0043f382 f   kernel32:KERNEL32.dll
 0001:0003e388       _SetFilePointer@16         0043f388 f   kernel32:KERNEL32.dll
 0001:0003e38e       _FlushFileBuffers@4        0043f38e f   kernel32:KERNEL32.dll
 0001:0003e394       _VirtualAlloc@16           0043f394 f   kernel32:KERNEL32.dll
 0001:0003e39a       _IsBadWritePtr@8           0043f39a f   kernel32:KERNEL32.dll
 0001:0003e3a0       _IsValidLocale@8           0043f3a0 f   kernel32:KERNEL32.dll
 0001:0003e3a6       _IsValidCodePage@4         0043f3a6 f   kernel32:KERNEL32.dll
 0001:0003e3ac       _GetLocaleInfoA@16         0043f3ac f   kernel32:KERNEL32.dll
 0001:0003e3b2       _EnumSystemLocalesA@8      0043f3b2 f   kernel32:KERNEL32.dll
 0001:0003e3b8       _GetUserDefaultLCID@0      0043f3b8 f   kernel32:KERNEL32.dll
 0001:0003e3be       _GetVersionExA@4           0043f3be f   kernel32:KERNEL32.dll
 0001:0003e3c4       _GetStringTypeA@20         0043f3c4 f   kernel32:KERNEL32.dll
 0001:0003e3ca       _GetStringTypeW@16         0043f3ca f   kernel32:KERNEL32.dll
 0001:0003e3d0       _IsBadReadPtr@8            0043f3d0 f   kernel32:KERNEL32.dll
 0001:0003e3d6       _IsBadCodePtr@4            0043f3d6 f   kernel32:KERNEL32.dll
 0001:0003e3dc       _SetStdHandle@8            0043f3dc f   kernel32:KERNEL32.dll
 0001:0003e3e2       _CreateFileA@28            0043f3e2 f   kernel32:KERNEL32.dll
 0001:0003e3e8       _GetACP@0                  0043f3e8 f   kernel32:KERNEL32.dll
 0001:0003e3ee       _GetOEMCP@0                0043f3ee f   kernel32:KERNEL32.dll
 0001:0003e3f4       _ReadFile@20               0043f3f4 f   kernel32:KERNEL32.dll
 0001:0003e3fa       _SetConsoleCtrlHandler@8   0043f3fa f   kernel32:KERNEL32.dll
 0001:0003e400       _SetEndOfFile@4            0043f400 f   kernel32:KERNEL32.dll
 0001:0003e406       _GetLocaleInfoW@16         0043f406 f   kernel32:KERNEL32.dll
 0001:0003e40c       _SetEnvironmentVariableA@8 0043f40c f   kernel32:KERNEL32.dll
 0001:0003e412       _MessageBeep@4             0043f412 f   user32:USER32.dll
 0001:0003e418       _wsprintfA                 0043f418 f   user32:USER32.dll
 0001:0003e41e       _GetUserNameA@8            0043f41e f   advapi32:ADVAPI32.dll
 0002:00000000       __imp__GetUserNameA@8      00443000     advapi32:ADVAPI32.dll
 0002:00000004       \177ADVAPI32_NULL_THUNK_DATA 00443004     advapi32:ADVAPI32.dll
 0002:00000008       __imp_?KSG_StringToMD5String@@YAHQADQBD@Z 00443008     engine:Engine.dll
 0002:0000000c       \177Engine_NULL_THUNK_DATA 0044300c     engine:Engine.dll
 0002:00000010       __imp__GetStockObject@4    00443010     gdi32:GDI32.dll
 0002:00000014       \177GDI32_NULL_THUNK_DATA  00443014     gdi32:GDI32.dll
 0002:00000018       __imp__SetEvent@4          00443018     kernel32:KERNEL32.dll
 0002:0000001c       __imp__PulseEvent@4        0044301c     kernel32:KERNEL32.dll
 0002:00000020       __imp__InitializeCriticalSection@4 00443020     kernel32:KERNEL32.dll
 0002:00000024       __imp__DeleteCriticalSection@4 00443024     kernel32:KERNEL32.dll
 0002:00000028       __imp__LeaveCriticalSection@4 00443028     kernel32:KERNEL32.dll
 0002:0000002c       __imp__EnterCriticalSection@4 0044302c     kernel32:KERNEL32.dll
 0002:00000030       __imp__InterlockedIncrement@4 00443030     kernel32:KERNEL32.dll
 0002:00000034       __imp__InterlockedExchangeAdd@8 00443034     kernel32:KERNEL32.dll
 0002:00000038       __imp__GetTickCount@0      00443038     kernel32:KERNEL32.dll
 0002:0000003c       __imp__GetLocalTime@4      0044303c     kernel32:KERNEL32.dll
 0002:00000040       __imp__CreateThread@24     00443040     kernel32:KERNEL32.dll
 0002:00000044       __imp__TerminateThread@8   00443044     kernel32:KERNEL32.dll
 0002:00000048       __imp__Sleep@4             00443048     kernel32:KERNEL32.dll
 0002:0000004c       __imp__GetProcAddress@8    0044304c     kernel32:KERNEL32.dll
 0002:00000050       __imp__FreeLibrary@4       00443050     kernel32:KERNEL32.dll
 0002:00000054       __imp__LoadLibraryA@4      00443054     kernel32:KERNEL32.dll
 0002:00000058       __imp__CloseHandle@4       00443058     kernel32:KERNEL32.dll
 0002:0000005c       __imp__SetEnvironmentVariableA@8 0044305c     kernel32:KERNEL32.dll
 0002:00000060       __imp__GetLocaleInfoW@16   00443060     kernel32:KERNEL32.dll
 0002:00000064       __imp__SetEndOfFile@4      00443064     kernel32:KERNEL32.dll
 0002:00000068       __imp__SetConsoleCtrlHandler@8 00443068     kernel32:KERNEL32.dll
 0002:0000006c       __imp__ReadFile@20         0044306c     kernel32:KERNEL32.dll
 0002:00000070       __imp__GetOEMCP@0          00443070     kernel32:KERNEL32.dll
 0002:00000074       __imp__GetACP@0            00443074     kernel32:KERNEL32.dll
 0002:00000078       __imp__ResetEvent@4        00443078     kernel32:KERNEL32.dll
 0002:0000007c       __imp__SetStdHandle@8      0044307c     kernel32:KERNEL32.dll
 0002:00000080       __imp__IsBadCodePtr@4      00443080     kernel32:KERNEL32.dll
 0002:00000084       __imp__IsBadReadPtr@8      00443084     kernel32:KERNEL32.dll
 0002:00000088       __imp__GetStringTypeW@16   00443088     kernel32:KERNEL32.dll
 0002:0000008c       __imp__GetStringTypeA@20   0044308c     kernel32:KERNEL32.dll
 0002:00000090       __imp__GetVersionExA@4     00443090     kernel32:KERNEL32.dll
 0002:00000094       __imp__GetUserDefaultLCID@0 00443094     kernel32:KERNEL32.dll
 0002:00000098       __imp__EnumSystemLocalesA@8 00443098     kernel32:KERNEL32.dll
 0002:0000009c       __imp__GetLocaleInfoA@16   0044309c     kernel32:KERNEL32.dll
 0002:000000a0       __imp__IsValidCodePage@4   004430a0     kernel32:KERNEL32.dll
 0002:000000a4       __imp__IsValidLocale@8     004430a4     kernel32:KERNEL32.dll
 0002:000000a8       __imp__IsBadWritePtr@8     004430a8     kernel32:KERNEL32.dll
 0002:000000ac       __imp__VirtualAlloc@16     004430ac     kernel32:KERNEL32.dll
 0002:000000b0       __imp__FlushFileBuffers@4  004430b0     kernel32:KERNEL32.dll
 0002:000000b4       __imp__SetFilePointer@16   004430b4     kernel32:KERNEL32.dll
 0002:000000b8       __imp__WriteFile@20        004430b8     kernel32:KERNEL32.dll
 0002:000000bc       __imp__VirtualFree@12      004430bc     kernel32:KERNEL32.dll
 0002:000000c0       __imp__HeapCreate@12       004430c0     kernel32:KERNEL32.dll
 0002:000000c4       __imp__HeapDestroy@4       004430c4     kernel32:KERNEL32.dll
 0002:000000c8       __imp__GetFileType@4       004430c8     kernel32:KERNEL32.dll
 0002:000000cc       __imp__GetStdHandle@4      004430cc     kernel32:KERNEL32.dll
 0002:000000d0       __imp__SetHandleCount@4    004430d0     kernel32:KERNEL32.dll
 0002:000000d4       __imp__GetEnvironmentStringsW@0 004430d4     kernel32:KERNEL32.dll
 0002:000000d8       __imp__GetEnvironmentStrings@0 004430d8     kernel32:KERNEL32.dll
 0002:000000dc       __imp__FreeEnvironmentStringsW@4 004430dc     kernel32:KERNEL32.dll
 0002:000000e0       __imp__CreateEventA@16     004430e0     kernel32:KERNEL32.dll
 0002:000000e4       __imp__WaitForSingleObject@8 004430e4     kernel32:KERNEL32.dll
 0002:000000e8       __imp__FreeEnvironmentStringsA@4 004430e8     kernel32:KERNEL32.dll
 0002:000000ec       __imp__UnhandledExceptionFilter@4 004430ec     kernel32:KERNEL32.dll
 0002:000000f0       __imp__GetLastError@0      004430f0     kernel32:KERNEL32.dll
 0002:000000f4       __imp__CreateFileA@28      004430f4     kernel32:KERNEL32.dll
 0002:000000f8       __imp__SetUnhandledExceptionFilter@4 004430f8     kernel32:KERNEL32.dll
 0002:000000fc       __imp__GetCurrentThread@0  004430fc     kernel32:KERNEL32.dll
 0002:00000100       __imp__TlsGetValue@4       00443100     kernel32:KERNEL32.dll
 0002:00000104       __imp__TlsFree@4           00443104     kernel32:KERNEL32.dll
 0002:00000108       __imp__TlsAlloc@0          00443108     kernel32:KERNEL32.dll
 0002:0000010c       __imp__TlsSetValue@8       0044310c     kernel32:KERNEL32.dll
 0002:00000110       __imp__GetCurrentThreadId@0 00443110     kernel32:KERNEL32.dll
 0002:00000114       __imp__HeapSize@12         00443114     kernel32:KERNEL32.dll
 0002:00000118       __imp__GetCurrentProcess@0 00443118     kernel32:KERNEL32.dll
 0002:0000011c       __imp__CreateMutexA@12     0044311c     kernel32:KERNEL32.dll
 0002:00000120       __imp__InterlockedDecrement@4 00443120     kernel32:KERNEL32.dll
 0002:00000124       __imp__FormatMessageA@28   00443124     kernel32:KERNEL32.dll
 0002:00000128       __imp__GetCurrentDirectoryA@8 00443128     kernel32:KERNEL32.dll
 0002:0000012c       __imp__GetModuleFileNameA@12 0044312c     kernel32:KERNEL32.dll
 0002:00000130       __imp__GetSystemTime@4     00443130     kernel32:KERNEL32.dll
 0002:00000134       __imp__GetComputerNameA@8  00443134     kernel32:KERNEL32.dll
 0002:00000138       __imp__SetLastError@4      00443138     kernel32:KERNEL32.dll
 0002:0000013c       __imp__WritePrivateProfileStringA@16 0044313c     kernel32:KERNEL32.dll
 0002:00000140       __imp__GetPrivateProfileStringA@24 00443140     kernel32:KERNEL32.dll
 0002:00000144       __imp__GlobalFree@4        00443144     kernel32:KERNEL32.dll
 0002:00000148       __imp__GlobalUnlock@4      00443148     kernel32:KERNEL32.dll
 0002:0000014c       __imp__GlobalLock@4        0044314c     kernel32:KERNEL32.dll
 0002:00000150       __imp__GlobalAlloc@8       00443150     kernel32:KERNEL32.dll
 0002:00000154       __imp__WideCharToMultiByte@32 00443154     kernel32:KERNEL32.dll
 0002:00000158       __imp__MultiByteToWideChar@24 00443158     kernel32:KERNEL32.dll
 0002:0000015c       __imp__GetTimeZoneInformation@4 0044315c     kernel32:KERNEL32.dll
 0002:00000160       __imp__RtlUnwind@16        00443160     kernel32:KERNEL32.dll
 0002:00000164       __imp__RaiseException@16   00443164     kernel32:KERNEL32.dll
 0002:00000168       __imp__GetModuleHandleA@4  00443168     kernel32:KERNEL32.dll
 0002:0000016c       __imp__GetStartupInfoA@4   0044316c     kernel32:KERNEL32.dll
 0002:00000170       __imp__GetCommandLineA@0   00443170     kernel32:KERNEL32.dll
 0002:00000174       __imp__GetVersion@0        00443174     kernel32:KERNEL32.dll
 0002:00000178       __imp__ExitProcess@4       00443178     kernel32:KERNEL32.dll
 0002:0000017c       __imp__HeapFree@12         0044317c     kernel32:KERNEL32.dll
 0002:00000180       __imp__HeapAlloc@12        00443180     kernel32:KERNEL32.dll
 0002:00000184       __imp__HeapReAlloc@16      00443184     kernel32:KERNEL32.dll
 0002:00000188       __imp__FatalAppExitA@8     00443188     kernel32:KERNEL32.dll
 0002:0000018c       __imp__LCMapStringA@24     0044318c     kernel32:KERNEL32.dll
 0002:00000190       __imp__LCMapStringW@24     00443190     kernel32:KERNEL32.dll
 0002:00000194       __imp__GetCPInfo@8         00443194     kernel32:KERNEL32.dll
 0002:00000198       __imp__CompareStringA@24   00443198     kernel32:KERNEL32.dll
 0002:0000019c       __imp__CompareStringW@24   0044319c     kernel32:KERNEL32.dll
 0002:000001a0       __imp__TerminateProcess@8  004431a0     kernel32:KERNEL32.dll
 0002:000001a4       __imp__InterlockedExchange@8 004431a4     kernel32:KERNEL32.dll
 0002:000001a8       \177KERNEL32_NULL_THUNK_DATA 004431a8     kernel32:KERNEL32.dll
 0002:000001ac       __imp__DialogBoxParamA@20  004431ac     user32:USER32.dll
 0002:000001b0       __imp__wsprintfA           004431b0     user32:USER32.dll
 0002:000001b4       __imp__MessageBeep@4       004431b4     user32:USER32.dll
 0002:000001b8       __imp__LoadStringA@16      004431b8     user32:USER32.dll
 0002:000001bc       __imp__MessageBoxA@16      004431bc     user32:USER32.dll
 0002:000001c0       __imp__SetDlgItemInt@16    004431c0     user32:USER32.dll
 0002:000001c4       __imp__SetDlgItemTextA@12  004431c4     user32:USER32.dll
 0002:000001c8       __imp__SetFocus@4          004431c8     user32:USER32.dll
 0002:000001cc       __imp__GetDlgItem@8        004431cc     user32:USER32.dll
 0002:000001d0       __imp__PostMessageA@16     004431d0     user32:USER32.dll
 0002:000001d4       __imp__CheckDlgButton@12   004431d4     user32:USER32.dll
 0002:000001d8       __imp__SetTimer@16         004431d8     user32:USER32.dll
 0002:000001dc       __imp__SetWindowTextA@8    004431dc     user32:USER32.dll
 0002:000001e0       __imp__SendMessageA@16     004431e0     user32:USER32.dll
 0002:000001e4       __imp__IsDlgButtonChecked@8 004431e4     user32:USER32.dll
 0002:000001e8       __imp__KillTimer@8         004431e8     user32:USER32.dll
 0002:000001ec       __imp__DestroyWindow@4     004431ec     user32:USER32.dll
 0002:000001f0       __imp__PostQuitMessage@4   004431f0     user32:USER32.dll
 0002:000001f4       __imp__CreateDialogParamA@20 004431f4     user32:USER32.dll
 0002:000001f8       __imp__ShowWindow@8        004431f8     user32:USER32.dll
 0002:000001fc       __imp__UpdateWindow@4      004431fc     user32:USER32.dll
 0002:00000200       __imp__GetMessageA@16      00443200     user32:USER32.dll
 0002:00000204       __imp__IsWindow@4          00443204     user32:USER32.dll
 0002:00000208       __imp__IsDialogMessageA@8  00443208     user32:USER32.dll
 0002:0000020c       __imp__TranslateMessage@4  0044320c     user32:USER32.dll
 0002:00000210       __imp__DispatchMessageA@4  00443210     user32:USER32.dll
 0002:00000214       __imp__LoadIconA@8         00443214     user32:USER32.dll
 0002:00000218       __imp__LoadCursorA@8       00443218     user32:USER32.dll
 0002:0000021c       __imp__GetSystemMetrics@4  0044321c     user32:USER32.dll
 0002:00000220       __imp__LoadImageA@24       00443220     user32:USER32.dll
 0002:00000224       __imp__RegisterClassExA@4  00443224     user32:USER32.dll
 0002:00000228       __imp__GetDlgItemTextA@16  00443228     user32:USER32.dll
 0002:0000022c       __imp__GetDlgItemInt@16    0044322c     user32:USER32.dll
 0002:00000230       __imp__EnableWindow@8      00443230     user32:USER32.dll
 0002:00000234       __imp__EndDialog@8         00443234     user32:USER32.dll
 0002:00000238       \177USER32_NULL_THUNK_DATA 00443238     user32:USER32.dll
 0002:0000023c       __imp__GetFileVersionInfoSizeA@8 0044323c     Version:VERSION.dll
 0002:00000240       __imp__VerQueryValueA@16   00443240     Version:VERSION.dll
 0002:00000244       __imp__GetFileVersionInfoA@16 00443244     Version:VERSION.dll
 0002:00000248       \177VERSION_NULL_THUNK_DATA 00443248     Version:VERSION.dll
 0002:0000024c       __imp__gethostname@8       0044324c     ws2_32:WS2_32.dll
 0002:00000250       __imp__inet_ntoa@4         00443250     ws2_32:WS2_32.dll
 0002:00000254       __imp__gethostbyname@4     00443254     ws2_32:WS2_32.dll
 0002:00000258       __imp__inet_addr@4         00443258     ws2_32:WS2_32.dll
 0002:0000025c       \177WS2_32_NULL_THUNK_DATA 0044325c     ws2_32:WS2_32.dll
 0002:00000260       __imp__CoCreateGuid@4      00443260     ole32:ole32.dll
 0002:00000264       \177ole32_NULL_THUNK_DATA  00443264     ole32:ole32.dll
 0002:00000298       _IID_IDocHostUIHandlerDispatch 00443298     Application.obj
 0002:000002a8       _IID_IInternalConnection   004432a8     Application.obj
 0002:000002b8       _IID_IAxWinAmbientDispatch 004432b8     Application.obj
 0002:000002c8       _IID_IAxWinHostWindow      004432c8     Application.obj
 0002:000002d8       _IID_IRegistrar            004432d8     Application.obj
 0002:000002e8       _CLSID_Registrar           004432e8     Application.obj
 0002:000002f8       _LIBID_ATLLib              004432f8     Application.obj
 0002:00000308       ??_7CBishopApp@@6B@        00443308     Application.obj
 0002:0000030c       ?_C@?1??_Nullstr@?$basic_string@DU?$char_traits@D@std@@V?$allocator@D@2@@std@@CAPBDXZ@4DB 0044330c     Application.obj
 0002:00000310       ??_7CEvent@Win32@OnlineGameLib@@6B@ 00443310     Event.obj
 0002:00000314       ??_7CException@Win32@OnlineGameLib@@6B@ 00443314     Event.obj
 0002:00000320       ??_7CWin32Exception@Win32@OnlineGameLib@@6B@ 00443320     Event.obj
 0002:0000032c       ?npos@?$basic_string@DU?$char_traits@D@std@@V?$allocator@D@2@@std@@2IB 0044332c     Event.obj
 0002:00000330       ?s_nRoleListCount@CGamePlayer@@0HB 00443330     GamePlayer.obj
 0002:00000334       ?s_nLoginTimeoutTimer@CGamePlayer@@0HB 00443334     GamePlayer.obj
 0002:00000338       ?s_nProcessTimeoutTimer@CGamePlayer@@0HB 00443338     GamePlayer.obj
 0002:0000033c       ??_7?$CTaskCommand@VCGamePlayer@@@@6B@ 0044333c     GamePlayer.obj
 0002:00000344       ??_7CGamePlayer@@6B@       00443344     GamePlayer.obj
 0002:00000368       ??_7IPlayer@@6B@           00443368     GamePlayer.obj
 0002:0000038c       ??_8strstream@std@@7B?$basic_ostream@DU?$char_traits@D@std@@@1@@ 0044338c     GamePlayer.obj
 0002:00000394       ??_8strstream@std@@7B?$basic_istream@DU?$char_traits@D@std@@@1@@ 00443394     GamePlayer.obj
 0002:0000039c       ??_8?$basic_iostream@DU?$char_traits@D@std@@@std@@7B?$basic_ostream@DU?$char_traits@D@std@@@1@@ 0044339c     GamePlayer.obj
 0002:000003a4       ??_8?$basic_iostream@DU?$char_traits@D@std@@@std@@7B?$basic_istream@DU?$char_traits@D@std@@@1@@ 004433a4     GamePlayer.obj
 0002:000003ac       ??_7ICommand@@6B@          004433ac     GamePlayer.obj
 0002:000003b4       ??_7CGameServer@@6B@       004433b4     GameServer.obj
 0002:000003e4       ??_7IGServer@@6B@          004433e4     GameServer.obj
 0002:00000414       ??_7CIntercessor@@6B@      00443414     Intercessor.obj
 0002:00000418       _IID_IESClient             00443418     Network.obj
 0002:00000428       _IID_IClientFactory        00443428     Network.obj
 0002:00000438       _IID_IIOCPServer           00443438     Network.obj
 0002:00000448       _IID_IServerFactory        00443448     Network.obj
 0002:00000458       _IID_IPropertyFrame        00443458     Network.obj
 0002:00000468       _CLSID_CFontPropPage       00443468     Network.obj
 0002:00000478       _CLSID_CColorPropPage      00443478     Network.obj
 0002:00000488       _CLSID_CPicturePropPage    00443488     Network.obj
 0002:00000498       _CLSID_PersistPropset      00443498     Network.obj
 0002:000004a8       _CLSID_ConvertVBX          004434a8     Network.obj
 0002:000004b8       _CLSID_StdFont             004434b8     Network.obj
 0002:000004c8       _CLSID_StdPicture          004434c8     Network.obj
 0002:000004d8       _GUID_HIMETRIC             004434d8     Network.obj
 0002:000004e8       _GUID_COLOR                004434e8     Network.obj
 0002:000004f8       _GUID_XPOSPIXEL            004434f8     Network.obj
 0002:00000508       _GUID_YPOSPIXEL            00443508     Network.obj
 0002:00000518       _GUID_XSIZEPIXEL           00443518     Network.obj
 0002:00000528       _GUID_YSIZEPIXEL           00443528     Network.obj
 0002:00000538       _GUID_XPOS                 00443538     Network.obj
 0002:00000548       _GUID_YPOS                 00443548     Network.obj
 0002:00000558       _GUID_XSIZE                00443558     Network.obj
 0002:00000568       _GUID_YSIZE                00443568     Network.obj
 0002:00000578       _GUID_OPTIONVALUEEXCLUSIVE 00443578     Network.obj
 0002:00000588       _GUID_CHECKVALUEEXCLUSIVE  00443588     Network.obj
 0002:00000598       _GUID_FONTNAME             00443598     Network.obj
 0002:000005a8       _GUID_FONTSIZE             004435a8     Network.obj
 0002:000005b8       _GUID_FONTBOLD             004435b8     Network.obj
 0002:000005c8       _GUID_FONTITALIC           004435c8     Network.obj
 0002:000005d8       _GUID_FONTUNDERSCORE       004435d8     Network.obj
 0002:000005e8       _GUID_FONTSTRIKETHROUGH    004435e8     Network.obj
 0002:000005f8       _GUID_HANDLE               004435f8     Network.obj
 0002:00000608       ??_7CNetwork@@6B@          00443608     Network.obj
 0002:0000060c       ??_7CSmartClient@@6B@      0044360c     SmartClient.obj
 0002:00000610       ??_7CMutex@Win32@OnlineGameLib@@6B@ 00443610     common:Mutex.obj
 0002:00000614       ??_7Allocator@CBuffer@Win32@OnlineGameLib@@6B@ 00443614     common:Buffer.obj
 0002:00000624       ??_7CPackager@Win32@OnlineGameLib@@6B@ 00443624     common:Buffer.obj
 0002:00000628       ??_7?$basic_fstream@DU?$char_traits@D@std@@@std@@6B@ 00443628     common:Utils.obj
 0002:0000062c       ??_8?$basic_fstream@DU?$char_traits@D@std@@@std@@7B?$basic_ostream@DU?$char_traits@D@std@@@1@@ 0044362c     common:Utils.obj
 0002:00000634       ??_8?$basic_fstream@DU?$char_traits@D@std@@@std@@7B?$basic_istream@DU?$char_traits@D@std@@@1@@ 00443634     common:Utils.obj
 0002:0000063c       ??_8?$basic_ostream@DU?$char_traits@D@std@@@std@@7B@ 0044363c     common:Utils.obj
 0002:00000644       ??_7CLibrary@Win32@OnlineGameLib@@6B@ 00443644     common:Library.obj
 0002:0000064c       ??_7length_error@std@@6B@  0044364c     libcpmt:string.obj
 0002:00000658       ??_C@_0BA@HHMB@string?5too?5long?$AA@ 00443658     libcpmt:string.obj
 0002:0000066c       ??_7logic_error@std@@6B@   0044366c     libcpmt:string.obj
 0002:0000067c       ??_7out_of_range@std@@6B@  0044367c     libcpmt:string.obj
 0002:00000688       ??_C@_0BI@EEBE@invalid?5string?5position?$AA@ 00443688     libcpmt:string.obj
 0002:000006a0       ?_Fpz@std@@3_JB            004436a0     libcpmt:ios.obj
 0002:000006ac       ??_7failure@ios_base@std@@6B@ 004436ac     libcpmt:ios.obj
 0002:000006b8       ??_C@_0BA@NGIA@ios?3?3eofbit?5set?$AA@ 004436b8     libcpmt:ios.obj
 0002:000006c8       ??_C@_0BB@KPBH@ios?3?3failbit?5set?$AA@ 004436c8     libcpmt:ios.obj
 0002:000006dc       ??_C@_0BA@HGGD@ios?3?3badbit?5set?$AA@ 004436dc     libcpmt:ios.obj
 0002:000006f0       ??_7runtime_error@std@@6B@ 004436f0     libcpmt:ios.obj
 0002:00000700       ??_7ios_base@std@@6B@      00443700     libcpmt:ios.obj
 0002:00000704       ??_C@_0BP@INPK@invalid?5ios?3?3iword?1pword?5index?$AA@ 00443704     libcpmt:ios.obj
 0002:00000728       ??_7?$basic_istream@DU?$char_traits@D@std@@@std@@6B@ 00443728     libcpmt:strstrea.obj
 0002:00000730       ??_7istrstream@std@@6B@    00443730     libcpmt:strstrea.obj
 0002:00000738       ??_7ostrstream@std@@6B@    00443738     libcpmt:strstrea.obj
 0002:00000740       ??_7strstreambuf@std@@6B@  00443740     libcpmt:strstrea.obj
 0002:00000778       ??_7?$basic_streambuf@DU?$char_traits@D@std@@@std@@6B@ 00443778     libcpmt:strstrea.obj
 0002:000007b0       ??_7?$basic_ios@DU?$char_traits@D@std@@@std@@6B@ 004437b0     libcpmt:strstrea.obj
 0002:000007b4       ??_8ostrstream@std@@7B@    004437b4     libcpmt:strstrea.obj
 0002:000007c0       ??_7?$basic_ostream@DU?$char_traits@D@std@@@std@@6B@ 004437c0     libcpmt:strstrea.obj
 0002:000007c8       ??_7strstream@std@@6B@     004437c8     libcpmt:strstrea.obj
 0002:000007d0       ??_7?$basic_iostream@DU?$char_traits@D@std@@@std@@6B@ 004437d0     libcpmt:strstrea.obj
 0002:000007d4       ??_8?$basic_istream@DU?$char_traits@D@std@@@std@@7B@ 004437d4     libcpmt:strstrea.obj
 0002:000007dc       ?table_size@?$ctype@D@std@@2IB 004437dc     libcpmt:locale0.obj
 0002:000007e0       ??_C@_01FDHG@?$CK?$AA@     004437e0     libcpmt:locale0.obj
 0002:000007e8       ??_7_Locimp@locale@std@@6B@ 004437e8     libcpmt:locale0.obj
 0002:000007f0       ??_7facet@locale@std@@6B@  004437f0     libcpmt:locale0.obj
 0002:000007f4       ??_C@_0BA@KCC@bad?5locale?5name?$AA@ 004437f4     libcpmt:locale.obj
 0002:00000808       ??_7?$codecvt@DDH@std@@6B@ 00443808     libcpmt:locale.obj
 0002:00000828       ??_7?$numpunct@D@std@@6B@  00443828     libcpmt:locale.obj
 0002:00000844       ??_7?$num_put@DV?$ostreambuf_iterator@DU?$char_traits@D@std@@@std@@@std@@6B@ 00443844     libcpmt:locale.obj
 0002:00000864       ??_7?$num_get@DV?$istreambuf_iterator@DU?$char_traits@D@std@@@std@@@std@@6B@ 00443864     libcpmt:locale.obj
 0002:00000890       ??_7?$ctype@D@std@@6B@     00443890     libcpmt:locale.obj
 0002:000008a4       ??_C@_0BH@CFAI@0123456789abcdefABCDEF?$AA@ 004438a4     libcpmt:locale.obj
 0002:000008c0       ??_7bad_cast@std@@6B@      004438c0     libcpmt:locale.obj
 0002:000008d0       ??_7?$basic_filebuf@DU?$char_traits@D@std@@@std@@6B@ 004438d0     libcpmt:iostream.obj
 0002:00000908       ??_7?$basic_istream@GU?$char_traits@G@std@@@std@@6B@ 00443908     libcpmt:wiostrea.obj
 0002:00000910       ??_7?$basic_ostream@GU?$char_traits@G@std@@@std@@6B@ 00443910     libcpmt:wiostrea.obj
 0002:00000918       ??_7?$basic_ios@GU?$char_traits@G@std@@@std@@6B@ 00443918     libcpmt:wiostrea.obj
 0002:0000091c       ??_8?$basic_ostream@GU?$char_traits@G@std@@@std@@7B@ 0044391c     libcpmt:wiostrea.obj
 0002:00000924       ??_8?$basic_istream@GU?$char_traits@G@std@@@std@@7B@ 00443924     libcpmt:wiostrea.obj
 0002:00000930       ??_7?$basic_filebuf@GU?$char_traits@G@std@@@std@@6B@ 00443930     libcpmt:wiostrea.obj
 0002:00000968       ??_7?$basic_streambuf@GU?$char_traits@G@std@@@std@@6B@ 00443968     libcpmt:wiostrea.obj
 0002:0000099c       ?nothrow@std@@3Unothrow_t@1@B 0044399c     libcpmt:nomemory.obj
 0002:000009a0       ??_C@_0P@LJNA@bad?5allocation?$AA@ 004439a0     libcpmt:nomemory.obj
 0002:000009b4       ??_7bad_alloc@std@@6B@     004439b4     libcpmt:nomemory.obj
 0002:000009c4       ??_7?$codecvt@GDH@std@@6B@ 004439c4     libcpmt:wlocale.obj
 0002:000009e4       ??_7?$time_put@GV?$ostreambuf_iterator@GU?$char_traits@G@std@@@std@@@std@@6B@ 004439e4     libcpmt:wlocale.obj
 0002:000009f0       ??_7?$time_get@GV?$istreambuf_iterator@GU?$char_traits@G@std@@@std@@@std@@6B@ 004439f0     libcpmt:wlocale.obj
 0002:00000a10       ??_7?$moneypunct@G$00@std@@6B@ 00443a10     libcpmt:wlocale.obj
 0002:00000a3c       ??_7?$moneypunct@G$0A@@std@@6B@ 00443a3c     libcpmt:wlocale.obj
 0002:00000a68       ??_7?$money_put@GV?$ostreambuf_iterator@GU?$char_traits@G@std@@@std@@@std@@6B@ 00443a68     libcpmt:wlocale.obj
 0002:00000a78       ??_7?$money_get@GV?$istreambuf_iterator@GU?$char_traits@G@std@@@std@@@std@@6B@ 00443a78     libcpmt:wlocale.obj
 0002:00000a88       ??_7?$messages@G@std@@6B@  00443a88     libcpmt:wlocale.obj
 0002:00000a9c       ??_7?$collate@G@std@@6B@   00443a9c     libcpmt:wlocale.obj
 0002:00000ab0       ??_7?$numpunct@G@std@@6B@  00443ab0     libcpmt:wlocale.obj
 0002:00000acc       ??_7?$num_put@GV?$ostreambuf_iterator@GU?$char_traits@G@std@@@std@@@std@@6B@ 00443acc     libcpmt:wlocale.obj
 0002:00000aec       ??_7?$num_get@GV?$istreambuf_iterator@GU?$char_traits@G@std@@@std@@@std@@6B@ 00443aec     libcpmt:wlocale.obj
 0002:00000b18       ??_7?$ctype@G@std@@6B@     00443b18     libcpmt:wlocale.obj
 0002:00000b4c       ??_C@_04HHID@?$CB?$CFx?$AA?$AA@ 00443b4c     libcpmt:wlocale.obj
 0002:00000b54       ?_C@?1??_Nullstr@?$basic_string@GU?$char_traits@G@std@@V?$allocator@G@2@@std@@CAPBGXZ@4GB 00443b54     libcpmt:wlocale.obj
 0002:00000b58       ?npos@?$basic_string@GU?$char_traits@G@std@@V?$allocator@G@2@@std@@2IB 00443b58     libcpmt:wlocale.obj
 0002:00000b5c       ??_C@_05FFJC@?$CF?40Lf?$AA@ 00443b5c     libcpmt:wlocale.obj
 0002:00000b68       __real@8@3fdddbe6fecebdedd800 00443b68     libcpmt:wlocale.obj
 0002:00000b70       __real@8@40739a130b963a6c1000 00443b70     libcpmt:wlocale.obj
 0002:00000b78       __real@8@00000000000000000000 00443b78     libcpmt:wlocale.obj
 0002:00000b84       ??_7?$_Mpunct@G@std@@6B@   00443b84     libcpmt:wlocale.obj
 0002:00000bac       ??_C@_03LGKI@yes?$AA@      00443bac     libcpmt:wlocale.obj
 0002:00000bb0       ??_C@_02ELCB@no?$AA@       00443bb0     libcpmt:wlocale.obj
 0002:00000bb4       ??_C@_0FG@ILEN@?3Sun?3Sunday?3Mon?3Monday?3Tue?3Tuesd@ 00443bb4     libcpmt:wlocale.obj
 0002:00000c0c       ??_C@_0IH@JLLA@?3Jan?3January?3Feb?3February?3Mar?3Ma@ 00443c0c     libcpmt:wlocale.obj
 0002:00000c94       ??_C@_01GJD@?9?$AA@        00443c94     libcpmt:wlocale.obj
 0002:00000c98       ??_C@_04HDBI@$?$CLvx?$AA@  00443c98     libcpmt:wlocale.obj
 0002:00000ca0       ??_C@_0FB@PNAB@?$CLv$x?$CLv$xv$?$CLxv?$CL$xv$?$CLx?$CL$vx?$CL$vx$v?$CLx@ 00443ca0     libcpmt:wlocale.obj
 0002:00000cf8       ??_7?$time_put@DV?$ostreambuf_iterator@DU?$char_traits@D@std@@@std@@@std@@6B@ 00443cf8     libcpmt:xlocale.obj
 0002:00000d04       ??_7?$time_get@DV?$istreambuf_iterator@DU?$char_traits@D@std@@@std@@@std@@6B@ 00443d04     libcpmt:xlocale.obj
 0002:00000d24       ??_7?$moneypunct@D$00@std@@6B@ 00443d24     libcpmt:xlocale.obj
 0002:00000d50       ??_7?$moneypunct@D$0A@@std@@6B@ 00443d50     libcpmt:xlocale.obj
 0002:00000d7c       ??_7?$money_put@DV?$ostreambuf_iterator@DU?$char_traits@D@std@@@std@@@std@@6B@ 00443d7c     libcpmt:xlocale.obj
 0002:00000d8c       ??_7?$money_get@DV?$istreambuf_iterator@DU?$char_traits@D@std@@@std@@@std@@6B@ 00443d8c     libcpmt:xlocale.obj
 0002:00000d9c       ??_7?$messages@D@std@@6B@  00443d9c     libcpmt:xlocale.obj
 0002:00000db0       ??_7?$collate@D@std@@6B@   00443db0     libcpmt:xlocale.obj
 0002:00000dc4       ??_7?$_Mpunct@D@std@@6B@   00443dc4     libcpmt:xlocale.obj
 0002:00000df0       __real@8@3ffbccccccccccccd000 00443df0     libcpmt:xstod.obj
 0002:00000df8       __real@8@4002a000000000000000 00443df8     libcpmt:xstod.obj
 0002:00000e04       ??_7type_info@@6B@         00443e04     LIBCMT:typinfo.obj
 0002:00000e58       ??_7exception@@6B@         00443e58     LIBCMT:stdexcpt.obj
 0002:00000e60       ??_C@_0BC@OIDF@Unknown?5exception?$AA@ 00443e60     LIBCMT:stdexcpt.obj
 0002:00000e84       ??_C@_07PCLE@LC_TIME?$AA@  00443e84     LIBCMT:setlocal.obj
 0002:00000e8c       ??_C@_0L@NKG@LC_NUMERIC?$AA@ 00443e8c     LIBCMT:setlocal.obj
 0002:00000e98       ??_C@_0M@CBIH@LC_MONETARY?$AA@ 00443e98     LIBCMT:setlocal.obj
 0002:00000ea4       ??_C@_08LFGE@LC_CTYPE?$AA@ 00443ea4     LIBCMT:setlocal.obj
 0002:00000eb0       ??_C@_0L@CFLC@LC_COLLATE?$AA@ 00443eb0     LIBCMT:setlocal.obj
 0002:00000ebc       ??_C@_06GCPK@LC_ALL?$AA@   00443ebc     LIBCMT:setlocal.obj
 0002:00000ec4       ??_C@_01FAJB@?$DL?$AA@     00443ec4     LIBCMT:setlocal.obj
 0002:00000ec8       ??_C@_02BGDO@?$DN?$DL?$AA@ 00443ec8     LIBCMT:setlocal.obj
 0002:00000ecc       ??_C@_01KPOD@?$DN?$AA@     00443ecc     LIBCMT:setlocal.obj
 0002:00000ed0       ??_C@_03DBOJ@_?4?0?$AA@    00443ed0     LIBCMT:setlocal.obj
 0002:00000ed4       ??_C@_01PJCK@?4?$AA@       00443ed4     LIBCMT:setlocal.obj
 0002:00000ed8       ??_C@_01NON@_?$AA@         00443ed8     LIBCMT:setlocal.obj
 0002:00000edc       ??_C@_07CJME@H?3mm?3ss?$AA@ 00443edc     LIBCMT:strftime.obj
 0002:00000ee4       ??_C@_0BE@MHI@dddd?0?5MMMM?5dd?0?5yyyy?$AA@ 00443ee4     LIBCMT:strftime.obj
 0002:00000ef8       ??_C@_06HCAD@M?1d?1yy?$AA@ 00443ef8     LIBCMT:strftime.obj
 0002:00000f00       ??_C@_02DBLP@PM?$AA@       00443f00     LIBCMT:strftime.obj
 0002:00000f04       ??_C@_02ENLM@AM?$AA@       00443f04     LIBCMT:strftime.obj
 0002:00000f08       ??_C@_08LIDF@December?$AA@ 00443f08     LIBCMT:strftime.obj
 0002:00000f14       ??_C@_08NJLI@November?$AA@ 00443f14     LIBCMT:strftime.obj
 0002:00000f20       ??_C@_07IAMM@October?$AA@  00443f20     LIBCMT:strftime.obj
 0002:00000f28       ??_C@_09MKGD@September?$AA@ 00443f28     LIBCMT:strftime.obj
 0002:00000f34       ??_C@_06PADP@August?$AA@   00443f34     LIBCMT:strftime.obj
 0002:00000f3c       ??_C@_04PIJO@July?$AA@     00443f3c     LIBCMT:strftime.obj
 0002:00000f44       ??_C@_04ICFP@June?$AA@     00443f44     LIBCMT:strftime.obj
 0002:00000f4c       ??_C@_05JFGC@April?$AA@    00443f4c     LIBCMT:strftime.obj
 0002:00000f54       ??_C@_05FGPD@March?$AA@    00443f54     LIBCMT:strftime.obj
 0002:00000f5c       ??_C@_08PGBA@February?$AA@ 00443f5c     LIBCMT:strftime.obj
 0002:00000f68       ??_C@_07BPKJ@January?$AA@  00443f68     LIBCMT:strftime.obj
 0002:00000f70       ??_C@_03PGJO@Dec?$AA@      00443f70     LIBCMT:strftime.obj
 0002:00000f74       ??_C@_03PDLM@Nov?$AA@      00443f74     LIBCMT:strftime.obj
 0002:00000f78       ??_C@_03BLHK@Oct?$AA@      00443f78     LIBCMT:strftime.obj
 0002:00000f7c       ??_C@_03DPFM@Sep?$AA@      00443f7c     LIBCMT:strftime.obj
 0002:00000f80       ??_C@_03CMCH@Aug?$AA@      00443f80     LIBCMT:strftime.obj
 0002:00000f84       ??_C@_03OBKI@Jul?$AA@      00443f84     LIBCMT:strftime.obj
 0002:00000f88       ??_C@_03LEIG@Jun?$AA@      00443f88     LIBCMT:strftime.obj
 0002:00000f8c       ??_C@_03MGHB@May?$AA@      00443f8c     LIBCMT:strftime.obj
 0002:00000f90       ??_C@_03MJJM@Apr?$AA@      00443f90     LIBCMT:strftime.obj
 0002:00000f94       ??_C@_03GNHA@Mar?$AA@      00443f94     LIBCMT:strftime.obj
 0002:00000f98       ??_C@_03PICE@Feb?$AA@      00443f98     LIBCMT:strftime.obj
 0002:00000f9c       ??_C@_03IEIF@Jan?$AA@      00443f9c     LIBCMT:strftime.obj
 0002:00000fa0       ??_C@_08FAKH@Saturday?$AA@ 00443fa0     LIBCMT:strftime.obj
 0002:00000fac       ??_C@_06ONCK@Friday?$AA@   00443fac     LIBCMT:strftime.obj
 0002:00000fb4       ??_C@_08CCFO@Thursday?$AA@ 00443fb4     LIBCMT:strftime.obj
 0002:00000fc0       ??_C@_09PBIN@Wednesday?$AA@ 00443fc0     LIBCMT:strftime.obj
 0002:00000fcc       ??_C@_07BMBC@Tuesday?$AA@  00443fcc     LIBCMT:strftime.obj
 0002:00000fd4       ??_C@_06CHLK@Monday?$AA@   00443fd4     LIBCMT:strftime.obj
 0002:00000fdc       ??_C@_06OOEM@Sunday?$AA@   00443fdc     LIBCMT:strftime.obj
 0002:00000fe4       ??_C@_03MPKK@Sat?$AA@      00443fe4     LIBCMT:strftime.obj
 0002:00000fe8       ??_C@_03FINJ@Fri?$AA@      00443fe8     LIBCMT:strftime.obj
 0002:00000fec       ??_C@_03HIKC@Thu?$AA@      00443fec     LIBCMT:strftime.obj
 0002:00000ff0       ??_C@_03HECK@Wed?$AA@      00443ff0     LIBCMT:strftime.obj
 0002:00000ff4       ??_C@_03ECCP@Tue?$AA@      00443ff4     LIBCMT:strftime.obj
 0002:00000ff8       ??_C@_03PIEP@Mon?$AA@      00443ff8     LIBCMT:strftime.obj
 0002:00000ffc       ??_C@_03FHEP@Sun?$AA@      00443ffc     LIBCMT:strftime.obj
 0002:00001000       ??_C@_03MKGK@a?1p?$AA@     00444000     LIBCMT:strftime.obj
 0002:00001004       ??_C@_05BDJK@am?1pm?$AA@   00444004     LIBCMT:strftime.obj
 0002:0000100c       ??_C@_01A@?$AA?$AA@        0044400c     LIBCMT:a_map.obj
 0002:00001010       ??_C@_13A@?$AA?$AA?$AA?$AA@ 00444010     LIBCMT:a_map.obj
 0002:000010c0       ___lookuptable             004440c0     LIBCMT:output.obj
 0002:0000111c       ??_C@_1O@POHA@?$AA?$CI?$AAn?$AAu?$AAl?$AAl?$AA?$CJ?$AA?$AA@ 0044411c     LIBCMT:output.obj
 0002:0000112c       ??_C@_06ONKE@?$CInull?$CJ?$AA@ 0044412c     LIBCMT:output.obj
 0002:00001138       __real@8@3fff8000000000000000 00444138     LIBCMT:testfdiv.obj
 0002:00001140       __real@8@4015800bf60000000000 00444140     LIBCMT:testfdiv.obj
 0002:00001148       __real@8@4014bffffc0000000000 00444148     LIBCMT:testfdiv.obj
 0002:00001150       ??_C@_0BK@JEGK@IsProcessorFeaturePresent?$AA@ 00444150     LIBCMT:testfdiv.obj
 0002:0000116c       ??_C@_08OBID@KERNEL32?$AA@ 0044416c     LIBCMT:testfdiv.obj
 0002:00001178       ??_C@_05OFLO@e?$CL000?$AA@ 00444178     LIBCMT:cvt.obj
 0002:00001180       ??_C@_0P@GGKG@runtime?5error?5?$AA@ 00444180     LIBCMT:crt0msg.obj
 0002:00001190       ??_C@_02PIMC@?$AN?6?$AA@   00444190     LIBCMT:crt0msg.obj
 0002:00001194       ??_C@_0O@DELO@TLOSS?5error?$AN?6?$AA@ 00444194     LIBCMT:crt0msg.obj
 0002:000011a4       ??_C@_0N@OMLL@SING?5error?$AN?6?$AA@ 004441a4     LIBCMT:crt0msg.obj
 0002:000011b4       ??_C@_0P@OJAK@DOMAIN?5error?$AN?6?$AA@ 004441b4     LIBCMT:crt0msg.obj
 0002:000011c4       ??_C@_0CF@EANP@R6028?$AN?6?9?5unable?5to?5initialize?5he@ 004441c4     LIBCMT:crt0msg.obj
 0002:000011ec       ??_C@_0DF@ECGN@R6027?$AN?6?9?5not?5enough?5space?5for?5lo@ 004441ec     LIBCMT:crt0msg.obj
 0002:00001224       ??_C@_0DF@FKAC@R6026?$AN?6?9?5not?5enough?5space?5for?5st@ 00444224     LIBCMT:crt0msg.obj
 0002:0000125c       ??_C@_0CG@DPMN@R6025?$AN?6?9?5pure?5virtual?5function?5c@ 0044425c     LIBCMT:crt0msg.obj
 0002:00001284       ??_C@_0DF@CKIP@R6024?$AN?6?9?5not?5enough?5space?5for?5_o@ 00444284     LIBCMT:crt0msg.obj
 0002:000012bc       ??_C@_0CJ@GGOE@R6019?$AN?6?9?5unable?5to?5open?5console?5@ 004442bc     LIBCMT:crt0msg.obj
 0002:000012e8       ??_C@_0CB@LBOB@R6018?$AN?6?9?5unexpected?5heap?5error?$AN?6@ 004442e8     LIBCMT:crt0msg.obj
 0002:0000130c       ??_C@_0CN@FPEG@R6017?$AN?6?9?5unexpected?5multithread?5@ 0044430c     LIBCMT:crt0msg.obj
 0002:0000133c       ??_C@_0CM@OBIC@R6016?$AN?6?9?5not?5enough?5space?5for?5th@ 0044433c     LIBCMT:crt0msg.obj
 0002:00001368       ??_C@_0CB@HPAL@?$AN?6abnormal?5program?5termination?$AN?6@ 00444368     LIBCMT:crt0msg.obj
 0002:0000138c       ??_C@_0CM@JOOB@R6009?$AN?6?9?5not?5enough?5space?5for?5en@ 0044438c     LIBCMT:crt0msg.obj
 0002:000013b8       ??_C@_0CK@OIBL@R6008?$AN?6?9?5not?5enough?5space?5for?5ar@ 004443b8     LIBCMT:crt0msg.obj
 0002:000013e4       ??_C@_0CF@LKPB@R6002?$AN?6?9?5floating?5point?5not?5load@ 004443e4     LIBCMT:crt0msg.obj
 0002:0000140c       ??_C@_0CF@JPDF@Microsoft?5Visual?5C?$CL?$CL?5Runtime?5Lib@ 0044440c     LIBCMT:crt0msg.obj
 0002:00001434       ??_C@_02JJJH@?6?6?$AA@     00444434     LIBCMT:crt0msg.obj
 0002:00001438       ??_C@_0BK@DEOK@Runtime?5Error?$CB?6?6Program?3?5?$AA@ 00444438     LIBCMT:crt0msg.obj
 0002:00001454       ??_C@_03NAME@?4?4?4?$AA@   00444454     LIBCMT:crt0msg.obj
 0002:00001458       ??_C@_0BH@NNCD@?$DMprogram?5name?5unknown?$DO?$AA@ 00444458     LIBCMT:crt0msg.obj
 0002:00001470       ??_C@_08OBJD@Paraguay?$AA@ 00444470     LIBCMT:getqloc.obj
 0002:0000147c       ??_C@_07GLKH@Uruguay?$AA@  0044447c     LIBCMT:getqloc.obj
 0002:00001484       ??_C@_05FPFC@Chile?$AA@    00444484     LIBCMT:getqloc.obj
 0002:0000148c       ??_C@_07IIGF@Ecuador?$AA@  0044448c     LIBCMT:getqloc.obj
 0002:00001494       ??_C@_09PKAL@Argentina?$AA@ 00444494     LIBCMT:getqloc.obj
 0002:000014a0       ??_C@_04LKAH@Peru?$AA@     004444a0     LIBCMT:getqloc.obj
 0002:000014a8       ??_C@_08NEEM@Colombia?$AA@ 004444a8     LIBCMT:getqloc.obj
 0002:000014b4       ??_C@_09ODEB@Venezuela?$AA@ 004444b4     LIBCMT:getqloc.obj
 0002:000014c0       ??_C@_0BD@CLEL@Dominican?5Republic?$AA@ 004444c0     LIBCMT:getqloc.obj
 0002:000014d4       ??_C@_0N@MDGL@South?5Africa?$AA@ 004444d4     LIBCMT:getqloc.obj
 0002:000014e4       ??_C@_06NKBG@Panama?$AA@   004444e4     LIBCMT:getqloc.obj
 0002:000014ec       ??_C@_0L@BMHO@Luxembourg?$AA@ 004444ec     LIBCMT:getqloc.obj
 0002:000014f8       ??_C@_0L@IMDK@Costa?5Rica?$AA@ 004444f8     LIBCMT:getqloc.obj
 0002:00001504       ??_C@_0M@BLJF@Switzerland?$AA@ 00444504     LIBCMT:getqloc.obj
 0002:00001510       ??_C@_09KBOL@Guatemala?$AA@ 00444510     LIBCMT:getqloc.obj
 0002:0000151c       ??_C@_06JNAK@Canada?$AA@   0044451c     LIBCMT:getqloc.obj
 0002:00001524       ??_C@_0BG@OLLP@Spanish?5?9?5Modern?5Sort?$AA@ 00444524     LIBCMT:getqloc.obj
 0002:0000153c       ??_C@_09IDKE@Australia?$AA@ 0044453c     LIBCMT:getqloc.obj
 0002:00001548       ??_C@_07JJJJ@English?$AA@  00444548     LIBCMT:getqloc.obj
 0002:00001550       ??_C@_07NMDO@Austria?$AA@  00444550     LIBCMT:getqloc.obj
 0002:00001558       ??_C@_06DEFE@German?$AA@   00444558     LIBCMT:getqloc.obj
 0002:00001560       ??_C@_07JAIH@Belgium?$AA@  00444560     LIBCMT:getqloc.obj
 0002:00001568       ??_C@_06BNLJ@Mexico?$AA@   00444568     LIBCMT:getqloc.obj
 0002:00001570       ??_C@_07JHAG@Spanish?$AA@  00444570     LIBCMT:getqloc.obj
 0002:00001578       ??_C@_06DADE@Basque?$AA@   00444578     LIBCMT:getqloc.obj
 0002:00001580       ??_C@_06ENFP@Sweden?$AA@   00444580     LIBCMT:getqloc.obj
 0002:00001588       ??_C@_07JPMH@Swedish?$AA@  00444588     LIBCMT:getqloc.obj
 0002:00001590       ??_C@_07IEKF@Iceland?$AA@  00444590     LIBCMT:getqloc.obj
 0002:00001598       ??_C@_09KNEA@Icelandic?$AA@ 00444598     LIBCMT:getqloc.obj
 0002:000015a4       ??_C@_06IJOD@France?$AA@   004445a4     LIBCMT:getqloc.obj
 0002:000015ac       ??_C@_06EINI@French?$AA@   004445ac     LIBCMT:getqloc.obj
 0002:000015b4       ??_C@_07FOOE@Finland?$AA@  004445b4     LIBCMT:getqloc.obj
 0002:000015bc       ??_C@_07OJOM@Finnish?$AA@  004445bc     LIBCMT:getqloc.obj
 0002:000015c4       ??_C@_05FFAC@Spain?$AA@    004445c4     LIBCMT:getqloc.obj
 0002:000015cc       ??_C@_0BL@BIHM@Spanish?5?9?5Traditional?5Sort?$AA@ 004445cc     LIBCMT:getqloc.obj
 0002:000015e8       ??_C@_0O@GLHB@united?9states?$AA@ 004445e8     LIBCMT:getqloc.obj
 0002:000015f8       ??_C@_0P@IIKK@united?9kingdom?$AA@ 004445f8     LIBCMT:getqloc.obj
 0002:00001608       ??_C@_0BC@FHBO@trinidad?5?$CG?5tobago?$AA@ 00444608     LIBCMT:getqloc.obj
 0002:0000161c       ??_C@_0M@BDFM@south?9korea?$AA@ 0044461c     LIBCMT:getqloc.obj
 0002:00001628       ??_C@_0N@CKFA@south?9africa?$AA@ 00444628     LIBCMT:getqloc.obj
 0002:00001638       ??_C@_0M@HNHN@south?5korea?$AA@ 00444638     LIBCMT:getqloc.obj
 0002:00001644       ??_C@_0N@MKDO@south?5africa?$AA@ 00444644     LIBCMT:getqloc.obj
 0002:00001654       ??_C@_06KFFJ@slovak?$AA@   00444654     LIBCMT:getqloc.obj
 0002:0000165c       ??_C@_0M@NMAC@puerto?9rico?$AA@ 0044465c     LIBCMT:getqloc.obj
 0002:00001668       ??_C@_08EJOH@pr?9china?$AA@ 00444668     LIBCMT:getqloc.obj
 0002:00001674       ??_C@_08CHMG@pr?5china?$AA@ 00444674     LIBCMT:getqloc.obj
 0002:00001680       ??_C@_02OCJK@nz?$AA@       00444680     LIBCMT:getqloc.obj
 0002:00001684       ??_C@_0M@MMKA@new?9zealand?$AA@ 00444684     LIBCMT:getqloc.obj
 0002:00001690       ??_C@_09MGEH@hong?9kong?$AA@ 00444690     LIBCMT:getqloc.obj
 0002:0000169c       ??_C@_07CCAK@holland?$AA@  0044469c     LIBCMT:getqloc.obj
 0002:000016a4       ??_C@_0O@MEPL@great?5britain?$AA@ 004446a4     LIBCMT:getqloc.obj
 0002:000016b4       ??_C@_07LGIB@england?$AA@  004446b4     LIBCMT:getqloc.obj
 0002:000016bc       ??_C@_05BMOA@czech?$AA@    004446bc     LIBCMT:getqloc.obj
 0002:000016c4       ??_C@_05NMPB@china?$AA@    004446c4     LIBCMT:getqloc.obj
 0002:000016cc       ??_C@_07GN@britain?$AA@    004446cc     LIBCMT:getqloc.obj
 0002:000016d4       ??_C@_07DLAK@america?$AA@  004446d4     LIBCMT:getqloc.obj
 0002:000016dc       ??_C@_03IPEP@usa?$AA@      004446dc     LIBCMT:getqloc.obj
 0002:000016e0       ??_C@_02PILH@us?$AA@       004446e0     LIBCMT:getqloc.obj
 0002:000016e4       ??_C@_02FHP@uk?$AA@        004446e4     LIBCMT:getqloc.obj
 0002:000016e8       ??_C@_05DEAI@swiss?$AA@    004446e8     LIBCMT:getqloc.obj
 0002:000016f0       ??_C@_0BA@LIAF@swedish?9finland?$AA@ 004446f0     LIBCMT:getqloc.obj
 0002:00001700       ??_C@_0BC@FMEG@spanish?9venezuela?$AA@ 00444700     LIBCMT:getqloc.obj
 0002:00001714       ??_C@_0BA@BNMG@spanish?9uruguay?$AA@ 00444714     LIBCMT:getqloc.obj
 0002:00001724       ??_C@_0BE@BKDJ@spanish?9puerto?5rico?$AA@ 00444724     LIBCMT:getqloc.obj
 0002:00001738       ??_C@_0N@JIBL@spanish?9peru?$AA@ 00444738     LIBCMT:getqloc.obj
 0002:00001748       ??_C@_0BB@OGOF@spanish?9paraguay?$AA@ 00444748     LIBCMT:getqloc.obj
 0002:0000175c       ??_C@_0P@LLFA@spanish?9panama?$AA@ 0044475c     LIBCMT:getqloc.obj
 0002:0000176c       ??_C@_0BC@BBJM@spanish?9nicaragua?$AA@ 0044476c     LIBCMT:getqloc.obj
 0002:00001780       ??_C@_0P@NJBN@spanish?9modern?$AA@ 00444780     LIBCMT:getqloc.obj
 0002:00001790       ??_C@_0BA@NHDN@spanish?9mexican?$AA@ 00444790     LIBCMT:getqloc.obj
 0002:000017a0       ??_C@_0BB@JHOJ@spanish?9honduras?$AA@ 004447a0     LIBCMT:getqloc.obj
 0002:000017b4       ??_C@_0BC@BOOM@spanish?9guatemala?$AA@ 004447b4     LIBCMT:getqloc.obj
 0002:000017c8       ??_C@_0BE@EELI@spanish?9el?5salvador?$AA@ 004447c8     LIBCMT:getqloc.obj
 0002:000017dc       ??_C@_0BA@POAE@spanish?9ecuador?$AA@ 004447dc     LIBCMT:getqloc.obj
 0002:000017ec       ??_C@_0BL@LDKN@spanish?9dominican?5republic?$AA@ 004447ec     LIBCMT:getqloc.obj
 0002:00001808       ??_C@_0BD@HPMH@spanish?9costa?5rica?$AA@ 00444808     LIBCMT:getqloc.obj
 0002:0000181c       ??_C@_0BB@NDDK@spanish?9colombia?$AA@ 0044481c     LIBCMT:getqloc.obj
 0002:00001830       ??_C@_0O@BJHA@spanish?9chile?$AA@ 00444830     LIBCMT:getqloc.obj
 0002:00001840       ??_C@_0BA@OBNG@spanish?9bolivia?$AA@ 00444840     LIBCMT:getqloc.obj
 0002:00001850       ??_C@_0BC@EFAM@spanish?9argentina?$AA@ 00444850     LIBCMT:getqloc.obj
 0002:00001864       ??_C@_0BF@KMMM@portuguese?9brazilian?$AA@ 00444864     LIBCMT:getqloc.obj
 0002:0000187c       ??_C@_0BC@BAAE@norwegian?9nynorsk?$AA@ 0044487c     LIBCMT:getqloc.obj
 0002:00001890       ??_C@_0BB@PBHK@norwegian?9bokmal?$AA@ 00444890     LIBCMT:getqloc.obj
 0002:000018a4       ??_C@_09EHKL@norwegian?$AA@ 004448a4     LIBCMT:getqloc.obj
 0002:000018b0       ??_C@_0O@BEAN@italian?9swiss?$AA@ 004448b0     LIBCMT:getqloc.obj
 0002:000018c0       ??_C@_0O@OIFK@irish?9english?$AA@ 004448c0     LIBCMT:getqloc.obj
 0002:000018d0       ??_C@_0N@NBPL@german?9swiss?$AA@ 004448d0     LIBCMT:getqloc.obj
 0002:000018e0       ??_C@_0BC@ICFJ@german?9luxembourg?$AA@ 004448e0     LIBCMT:getqloc.obj
 0002:000018f4       ??_C@_0BE@GGPC@german?9lichtenstein?$AA@ 004448f4     LIBCMT:getqloc.obj
 0002:00001908       ??_C@_0BA@MKDC@german?9austrian?$AA@ 00444908     LIBCMT:getqloc.obj
 0002:00001918       ??_C@_0N@ODNB@french?9swiss?$AA@ 00444918     LIBCMT:getqloc.obj
 0002:00001928       ??_C@_0BC@MGCM@french?9luxembourg?$AA@ 00444928     LIBCMT:getqloc.obj
 0002:0000193c       ??_C@_0BA@NABK@french?9canadian?$AA@ 0044493c     LIBCMT:getqloc.obj
 0002:0000194c       ??_C@_0P@CJNO@french?9belgian?$AA@ 0044494c     LIBCMT:getqloc.obj
 0002:0000195c       ??_C@_0M@LJOL@english?9usa?$AA@ 0044495c     LIBCMT:getqloc.obj
 0002:00001968       ??_C@_0L@FMNC@english?9us?$AA@ 00444968     LIBCMT:getqloc.obj
 0002:00001974       ??_C@_0L@KBBK@english?9uk?$AA@ 00444974     LIBCMT:getqloc.obj
 0002:00001980       ??_C@_0BK@NDDE@english?9trinidad?5y?5tobago?$AA@ 00444980     LIBCMT:getqloc.obj
 0002:0000199c       ??_C@_0BF@LKML@english?9south?5africa?$AA@ 0044499c     LIBCMT:getqloc.obj
 0002:000019b4       ??_C@_0L@EGPP@english?9nz?$AA@ 004449b4     LIBCMT:getqloc.obj
 0002:000019c0       ??_C@_0BA@HLH@english?9jamaica?$AA@ 004449c0     LIBCMT:getqloc.obj
 0002:000019d0       ??_C@_0M@PMJI@english?9ire?$AA@ 004449d0     LIBCMT:getqloc.obj
 0002:000019dc       ??_C@_0BC@HINE@english?9caribbean?$AA@ 004449dc     LIBCMT:getqloc.obj
 0002:000019f0       ??_C@_0M@DCFH@english?9can?$AA@ 004449f0     LIBCMT:getqloc.obj
 0002:000019fc       ??_C@_0P@DGHK@english?9belize?$AA@ 004449fc     LIBCMT:getqloc.obj
 0002:00001a0c       ??_C@_0M@FLHK@english?9aus?$AA@ 00444a0c     LIBCMT:getqloc.obj
 0002:00001a18       ??_C@_0BB@HNCK@english?9american?$AA@ 00444a18     LIBCMT:getqloc.obj
 0002:00001a2c       ??_C@_0O@PAMI@dutch?9belgian?$AA@ 00444a2c     LIBCMT:getqloc.obj
 0002:00001a3c       ??_C@_0BE@FPEJ@chinese?9traditional?$AA@ 00444a3c     LIBCMT:getqloc.obj
 0002:00001a50       ??_C@_0BC@CHFL@chinese?9singapore?$AA@ 00444a50     LIBCMT:getqloc.obj
 0002:00001a64       ??_C@_0BD@DCMH@chinese?9simplified?$AA@ 00444a64     LIBCMT:getqloc.obj
 0002:00001a78       ??_C@_0BB@JMOE@chinese?9hongkong?$AA@ 00444a78     LIBCMT:getqloc.obj
 0002:00001a8c       ??_C@_07NGFN@chinese?$AA@  00444a8c     LIBCMT:getqloc.obj
 0002:00001a94       ??_C@_03PCOI@chi?$AA@      00444a94     LIBCMT:getqloc.obj
 0002:00001a98       ??_C@_03FIHP@chh?$AA@      00444a98     LIBCMT:getqloc.obj
 0002:00001a9c       ??_C@_08HFLO@canadian?$AA@ 00444a9c     LIBCMT:getqloc.obj
 0002:00001aa8       ??_C@_07INIJ@belgian?$AA@  00444aa8     LIBCMT:getqloc.obj
 0002:00001ab0       ??_C@_0L@LCCA@australian?$AA@ 00444ab0     LIBCMT:getqloc.obj
 0002:00001abc       ??_C@_0BB@BJIO@american?9english?$AA@ 00444abc     LIBCMT:getqloc.obj
 0002:00001ad0       ??_C@_0BB@DAGO@american?5english?$AA@ 00444ad0     LIBCMT:getqloc.obj
 0002:00001ae4       ??_C@_08HENB@american?$AA@ 00444ae4     LIBCMT:getqloc.obj
 0002:00001af0       ??_C@_03DGJE@OCP?$AA@      00444af0     LIBCMT:getqloc.obj
 0002:00001af4       ??_C@_03EKFG@ACP?$AA@      00444af4     LIBCMT:getqloc.obj
 0002:00001af8       ___dnames                  00444af8     LIBCMT:timeset.obj
 0002:00001b10       ___mnames                  00444b10     LIBCMT:timeset.obj
 0002:00001b38       ??_C@_02JHIA@TZ?$AA@       00444b38     LIBCMT:tzset.obj
 0002:00001b4c       ??_C@_0BD@NJFP@GetLastActivePopup?$AA@ 00444b4c     LIBCMT:crtmbox.obj
 0002:00001b60       ??_C@_0BA@GILI@GetActiveWindow?$AA@ 00444b60     LIBCMT:crtmbox.obj
 0002:00001b70       ??_C@_0M@PKCK@MessageBoxA?$AA@ 00444b70     LIBCMT:crtmbox.obj
 0002:00001b7c       ??_C@_0L@HKL@user32?4dll?$AA@ 00444b7c     LIBCMT:crtmbox.obj
 0002:00001ba0       ??_C@_06PAPI@1?$CDQNAN?$AA@ 00444ba0     LIBCMT:x10fout.obj
 0002:00001ba8       ??_C@_05BGNL@1?$CDINF?$AA@ 00444ba8     LIBCMT:x10fout.obj
 0002:00001bb0       ??_C@_05EDPF@1?$CDIND?$AA@ 00444bb0     LIBCMT:x10fout.obj
 0002:00001bb8       ??_C@_06LKFM@1?$CDSNAN?$AA@ 00444bb8     LIBCMT:x10fout.obj
 0002:00001be0       ??_R1A@?0A@A@exception@@8  00444be0     libcpmt:string.obj
 0002:00001bf8       ??_R1A@?0A@A@logic_error@std@@8 00444bf8     libcpmt:string.obj
 0002:00001c10       ??_R1A@?0A@A@length_error@std@@8 00444c10     libcpmt:string.obj
 0002:00001c28       ??_R2length_error@std@@8   00444c28     libcpmt:string.obj
 0002:00001c38       ??_R3length_error@std@@8   00444c38     libcpmt:string.obj
 0002:00001c48       ??_R4length_error@std@@6B@ 00444c48     libcpmt:string.obj
 0002:00001c60       ??_R2logic_error@std@@8    00444c60     libcpmt:string.obj
 0002:00001c70       ??_R3logic_error@std@@8    00444c70     libcpmt:string.obj
 0002:00001c80       ??_R4logic_error@std@@6B@  00444c80     libcpmt:string.obj
 0002:00001c98       ??_R1A@?0A@A@out_of_range@std@@8 00444c98     libcpmt:string.obj
 0002:00001cb0       ??_R2out_of_range@std@@8   00444cb0     libcpmt:string.obj
 0002:00001cc0       ??_R3out_of_range@std@@8   00444cc0     libcpmt:string.obj
 0002:00001cd0       ??_R4out_of_range@std@@6B@ 00444cd0     libcpmt:string.obj
 0002:00001ce8       ??_R1A@?0A@A@runtime_error@std@@8 00444ce8     libcpmt:ios.obj
 0002:00001d00       ??_R1A@?0A@A@failure@ios_base@std@@8 00444d00     libcpmt:ios.obj
 0002:00001d18       ??_R2failure@ios_base@std@@8 00444d18     libcpmt:ios.obj
 0002:00001d28       ??_R3failure@ios_base@std@@8 00444d28     libcpmt:ios.obj
 0002:00001d38       ??_R4failure@ios_base@std@@6B@ 00444d38     libcpmt:ios.obj
 0002:00001d50       ??_R2runtime_error@std@@8  00444d50     libcpmt:ios.obj
 0002:00001d60       ??_R3runtime_error@std@@8  00444d60     libcpmt:ios.obj
 0002:00001d70       ??_R4runtime_error@std@@6B@ 00444d70     libcpmt:ios.obj
 0002:00001d88       ??_R1A@?0A@A@ios_base@std@@8 00444d88     libcpmt:ios.obj
 0002:00001da0       ??_R2ios_base@std@@8       00444da0     libcpmt:ios.obj
 0002:00001da8       ??_R3ios_base@std@@8       00444da8     libcpmt:ios.obj
 0002:00001db8       ??_R4ios_base@std@@6B@     00444db8     libcpmt:ios.obj
 0002:00001dd0       ??_R2?$basic_istream@DU?$char_traits@D@std@@@std@@8 00444dd0     libcpmt:strstrea.obj
 0002:00001de0       ??_R3?$basic_istream@DU?$char_traits@D@std@@@std@@8 00444de0     libcpmt:strstrea.obj
 0002:00001df0       ??_R4?$basic_istream@DU?$char_traits@D@std@@@std@@6B@ 00444df0     libcpmt:strstrea.obj
 0002:00001e08       ??_R1A@A@3A@ios_base@std@@8 00444e08     libcpmt:strstrea.obj
 0002:00001e20       ??_R1A@A@3BA@?$basic_ios@DU?$char_traits@D@std@@@std@@8 00444e20     libcpmt:strstrea.obj
 0002:00001e38       ??_R1A@?0A@A@?$basic_istream@DU?$char_traits@D@std@@@std@@8 00444e38     libcpmt:strstrea.obj
 0002:00001e50       ??_R1A@?0A@A@istrstream@std@@8 00444e50     libcpmt:strstrea.obj
 0002:00001e68       ??_R2istrstream@std@@8     00444e68     libcpmt:strstrea.obj
 0002:00001e80       ??_R3istrstream@std@@8     00444e80     libcpmt:strstrea.obj
 0002:00001e90       ??_R4istrstream@std@@6B@   00444e90     libcpmt:strstrea.obj
 0002:00001ea8       ??_R1A@?0A@A@?$basic_ostream@DU?$char_traits@D@std@@@std@@8 00444ea8     libcpmt:strstrea.obj
 0002:00001ec0       ??_R1A@?0A@A@ostrstream@std@@8 00444ec0     libcpmt:strstrea.obj
 0002:00001ed8       ??_R2ostrstream@std@@8     00444ed8     libcpmt:strstrea.obj
 0002:00001ef0       ??_R3ostrstream@std@@8     00444ef0     libcpmt:strstrea.obj
 0002:00001f00       ??_R4ostrstream@std@@6B@   00444f00     libcpmt:strstrea.obj
 0002:00001f14       ??_R2?$basic_streambuf@DU?$char_traits@D@std@@@std@@8 00444f14     libcpmt:strstrea.obj
 0002:00001f20       ??_R3?$basic_streambuf@DU?$char_traits@D@std@@@std@@8 00444f20     libcpmt:strstrea.obj
 0002:00001f30       ??_R4?$basic_streambuf@DU?$char_traits@D@std@@@std@@6B@ 00444f30     libcpmt:strstrea.obj
 0002:00001f48       ??_R1A@?0A@A@?$basic_ios@DU?$char_traits@D@std@@@std@@8 00444f48     libcpmt:strstrea.obj
 0002:00001f60       ??_R2?$basic_ios@DU?$char_traits@D@std@@@std@@8 00444f60     libcpmt:strstrea.obj
 0002:00001f70       ??_R3?$basic_ios@DU?$char_traits@D@std@@@std@@8 00444f70     libcpmt:strstrea.obj
 0002:00001f80       ??_R4?$basic_ios@DU?$char_traits@D@std@@@std@@6B@ 00444f80     libcpmt:strstrea.obj
 0002:00001f98       ??_R1A@?0A@A@?$basic_streambuf@DU?$char_traits@D@std@@@std@@8 00444f98     libcpmt:strstrea.obj
 0002:00001fb0       ??_R1A@?0A@A@strstreambuf@std@@8 00444fb0     libcpmt:strstrea.obj
 0002:00001fc8       ??_R2strstreambuf@std@@8   00444fc8     libcpmt:strstrea.obj
 0002:00001fd8       ??_R3strstreambuf@std@@8   00444fd8     libcpmt:strstrea.obj
 0002:00001fe8       ??_R4strstreambuf@std@@6B@ 00444fe8     libcpmt:strstrea.obj
 0002:00002000       ??_R2?$basic_ostream@DU?$char_traits@D@std@@@std@@8 00445000     libcpmt:strstrea.obj
 0002:00002010       ??_R3?$basic_ostream@DU?$char_traits@D@std@@@std@@8 00445010     libcpmt:strstrea.obj
 0002:00002020       ??_R4?$basic_ostream@DU?$char_traits@D@std@@@std@@6B@ 00445020     libcpmt:strstrea.obj
 0002:00002038       ??_R17?0A@A@?$basic_ostream@DU?$char_traits@D@std@@@std@@8 00445038     libcpmt:strstrea.obj
 0002:00002050       ??_R1A@?0A@A@?$basic_iostream@DU?$char_traits@D@std@@@std@@8 00445050     libcpmt:strstrea.obj
 0002:00002068       ??_R1A@?0A@A@strstream@std@@8 00445068     libcpmt:strstrea.obj
 0002:00002080       ??_R2strstream@std@@8      00445080     libcpmt:strstrea.obj
 0002:000020a8       ??_R3strstream@std@@8      004450a8     libcpmt:strstrea.obj
 0002:000020b8       ??_R4strstream@std@@6B@    004450b8     libcpmt:strstrea.obj
 0002:000020d0       ??_R2?$basic_iostream@DU?$char_traits@D@std@@@std@@8 004450d0     libcpmt:strstrea.obj
 0002:000020f0       ??_R3?$basic_iostream@DU?$char_traits@D@std@@@std@@8 004450f0     libcpmt:strstrea.obj
 0002:00002100       ??_R4?$basic_iostream@DU?$char_traits@D@std@@@std@@6B@ 00445100     libcpmt:strstrea.obj
 0002:00002114       ??_R2facet@locale@std@@8   00445114     libcpmt:locale0.obj
 0002:00002120       ??_R3facet@locale@std@@8   00445120     libcpmt:locale0.obj
 0002:00002130       ??_R4facet@locale@std@@6B@ 00445130     libcpmt:locale0.obj
 0002:00002148       ??_R1A@?0A@A@facet@locale@std@@8 00445148     libcpmt:locale0.obj
 0002:00002160       ??_R1A@?0A@A@_Locimp@locale@std@@8 00445160     libcpmt:locale0.obj
 0002:00002178       ??_R2_Locimp@locale@std@@8 00445178     libcpmt:locale0.obj
 0002:00002188       ??_R3_Locimp@locale@std@@8 00445188     libcpmt:locale0.obj
 0002:00002198       ??_R4_Locimp@locale@std@@6B@ 00445198     libcpmt:locale0.obj
 0002:000021b0       ??_R1A@?0A@A@?$numpunct@D@std@@8 004451b0     libcpmt:locale.obj
 0002:000021c8       ??_R2?$numpunct@D@std@@8   004451c8     libcpmt:locale.obj
 0002:000021d8       ??_R3?$numpunct@D@std@@8   004451d8     libcpmt:locale.obj
 0002:000021e8       ??_R4?$numpunct@D@std@@6B@ 004451e8     libcpmt:locale.obj
 0002:00002200       ??_R1A@?0A@A@codecvt_base@std@@8 00445200     libcpmt:locale.obj
 0002:00002218       ??_R1A@?0A@A@?$codecvt@DDH@std@@8 00445218     libcpmt:locale.obj
 0002:00002230       ??_R2?$codecvt@DDH@std@@8  00445230     libcpmt:locale.obj
 0002:00002240       ??_R3?$codecvt@DDH@std@@8  00445240     libcpmt:locale.obj
 0002:00002250       ??_R4?$codecvt@DDH@std@@6B@ 00445250     libcpmt:locale.obj
 0002:00002268       ??_R1A@?0A@A@?$num_get@DV?$istreambuf_iterator@DU?$char_traits@D@std@@@std@@@std@@8 00445268     libcpmt:locale.obj
 0002:00002280       ??_R2?$num_get@DV?$istreambuf_iterator@DU?$char_traits@D@std@@@std@@@std@@8 00445280     libcpmt:locale.obj
 0002:00002290       ??_R3?$num_get@DV?$istreambuf_iterator@DU?$char_traits@D@std@@@std@@@std@@8 00445290     libcpmt:locale.obj
 0002:000022a0       ??_R4?$num_get@DV?$istreambuf_iterator@DU?$char_traits@D@std@@@std@@@std@@6B@ 004452a0     libcpmt:locale.obj
 0002:000022b8       ??_R1A@?0A@A@?$num_put@DV?$ostreambuf_iterator@DU?$char_traits@D@std@@@std@@@std@@8 004452b8     libcpmt:locale.obj
 0002:000022d0       ??_R2?$num_put@DV?$ostreambuf_iterator@DU?$char_traits@D@std@@@std@@@std@@8 004452d0     libcpmt:locale.obj
 0002:000022e0       ??_R3?$num_put@DV?$ostreambuf_iterator@DU?$char_traits@D@std@@@std@@@std@@8 004452e0     libcpmt:locale.obj
 0002:000022f0       ??_R4?$num_put@DV?$ostreambuf_iterator@DU?$char_traits@D@std@@@std@@@std@@6B@ 004452f0     libcpmt:locale.obj
 0002:00002308       ??_R1A@?0A@A@ctype_base@std@@8 00445308     libcpmt:locale.obj
 0002:00002320       ??_R1A@?0A@A@?$ctype@D@std@@8 00445320     libcpmt:locale.obj
 0002:00002338       ??_R2?$ctype@D@std@@8      00445338     libcpmt:locale.obj
 0002:00002348       ??_R3?$ctype@D@std@@8      00445348     libcpmt:locale.obj
 0002:00002358       ??_R4?$ctype@D@std@@6B@    00445358     libcpmt:locale.obj
 0002:00002370       ??_R1A@?0A@A@bad_cast@std@@8 00445370     libcpmt:locale.obj
 0002:00002388       ??_R2bad_cast@std@@8       00445388     libcpmt:locale.obj
 0002:00002398       ??_R3bad_cast@std@@8       00445398     libcpmt:locale.obj
 0002:000023a8       ??_R4bad_cast@std@@6B@     004453a8     libcpmt:locale.obj
 0002:000023c0       ??_R1A@?0A@A@?$basic_filebuf@DU?$char_traits@D@std@@@std@@8 004453c0     libcpmt:iostream.obj
 0002:000023d8       ??_R2?$basic_filebuf@DU?$char_traits@D@std@@@std@@8 004453d8     libcpmt:iostream.obj
 0002:000023e8       ??_R3?$basic_filebuf@DU?$char_traits@D@std@@@std@@8 004453e8     libcpmt:iostream.obj
 0002:000023f8       ??_R4?$basic_filebuf@DU?$char_traits@D@std@@@std@@6B@ 004453f8     libcpmt:iostream.obj
 0002:00002410       ??_R1A@A@3BA@?$basic_ios@GU?$char_traits@G@std@@@std@@8 00445410     libcpmt:wiostrea.obj
 0002:00002428       ??_R1A@?0A@A@?$basic_istream@GU?$char_traits@G@std@@@std@@8 00445428     libcpmt:wiostrea.obj
 0002:00002440       ??_R2?$basic_istream@GU?$char_traits@G@std@@@std@@8 00445440     libcpmt:wiostrea.obj
 0002:00002450       ??_R3?$basic_istream@GU?$char_traits@G@std@@@std@@8 00445450     libcpmt:wiostrea.obj
 0002:00002460       ??_R4?$basic_istream@GU?$char_traits@G@std@@@std@@6B@ 00445460     libcpmt:wiostrea.obj
 0002:00002478       ??_R1A@?0A@A@?$basic_ostream@GU?$char_traits@G@std@@@std@@8 00445478     libcpmt:wiostrea.obj
 0002:00002490       ??_R2?$basic_ostream@GU?$char_traits@G@std@@@std@@8 00445490     libcpmt:wiostrea.obj
 0002:000024a0       ??_R3?$basic_ostream@GU?$char_traits@G@std@@@std@@8 004454a0     libcpmt:wiostrea.obj
 0002:000024b0       ??_R4?$basic_ostream@GU?$char_traits@G@std@@@std@@6B@ 004454b0     libcpmt:wiostrea.obj
 0002:000024c8       ??_R1A@?0A@A@?$basic_ios@GU?$char_traits@G@std@@@std@@8 004454c8     libcpmt:wiostrea.obj
 0002:000024e0       ??_R2?$basic_ios@GU?$char_traits@G@std@@@std@@8 004454e0     libcpmt:wiostrea.obj
 0002:000024f0       ??_R3?$basic_ios@GU?$char_traits@G@std@@@std@@8 004454f0     libcpmt:wiostrea.obj
 0002:00002500       ??_R4?$basic_ios@GU?$char_traits@G@std@@@std@@6B@ 00445500     libcpmt:wiostrea.obj
 0002:00002518       ??_R1A@?0A@A@?$basic_filebuf@GU?$char_traits@G@std@@@std@@8 00445518     libcpmt:wiostrea.obj
 0002:00002530       ??_R2?$basic_filebuf@GU?$char_traits@G@std@@@std@@8 00445530     libcpmt:wiostrea.obj
 0002:00002540       ??_R3?$basic_filebuf@GU?$char_traits@G@std@@@std@@8 00445540     libcpmt:wiostrea.obj
 0002:00002550       ??_R4?$basic_filebuf@GU?$char_traits@G@std@@@std@@6B@ 00445550     libcpmt:wiostrea.obj
 0002:00002568       ??_R1A@?0A@A@?$basic_streambuf@GU?$char_traits@G@std@@@std@@8 00445568     libcpmt:wiostrea.obj
 0002:00002580       ??_R2?$basic_streambuf@GU?$char_traits@G@std@@@std@@8 00445580     libcpmt:wiostrea.obj
 0002:00002588       ??_R3?$basic_streambuf@GU?$char_traits@G@std@@@std@@8 00445588     libcpmt:wiostrea.obj
 0002:00002598       ??_R4?$basic_streambuf@GU?$char_traits@G@std@@@std@@6B@ 00445598     libcpmt:wiostrea.obj
 0002:000025b0       ??_R1A@?0A@A@bad_alloc@std@@8 004455b0     libcpmt:nomemory.obj
 0002:000025c8       ??_R2bad_alloc@std@@8      004455c8     libcpmt:nomemory.obj
 0002:000025d8       ??_R3bad_alloc@std@@8      004455d8     libcpmt:nomemory.obj
 0002:000025e8       ??_R4bad_alloc@std@@6B@    004455e8     libcpmt:nomemory.obj
 0002:00002600       ??_R1A@?0A@A@?$num_put@GV?$ostreambuf_iterator@GU?$char_traits@G@std@@@std@@@std@@8 00445600     libcpmt:wlocale.obj
 0002:00002618       ??_R2?$num_put@GV?$ostreambuf_iterator@GU?$char_traits@G@std@@@std@@@std@@8 00445618     libcpmt:wlocale.obj
 0002:00002628       ??_R3?$num_put@GV?$ostreambuf_iterator@GU?$char_traits@G@std@@@std@@@std@@8 00445628     libcpmt:wlocale.obj
 0002:00002638       ??_R4?$num_put@GV?$ostreambuf_iterator@GU?$char_traits@G@std@@@std@@@std@@6B@ 00445638     libcpmt:wlocale.obj
 0002:00002650       ??_R1A@?0A@A@?$num_get@GV?$istreambuf_iterator@GU?$char_traits@G@std@@@std@@@std@@8 00445650     libcpmt:wlocale.obj
 0002:00002668       ??_R2?$num_get@GV?$istreambuf_iterator@GU?$char_traits@G@std@@@std@@@std@@8 00445668     libcpmt:wlocale.obj
 0002:00002678       ??_R3?$num_get@GV?$istreambuf_iterator@GU?$char_traits@G@std@@@std@@@std@@8 00445678     libcpmt:wlocale.obj
 0002:00002688       ??_R4?$num_get@GV?$istreambuf_iterator@GU?$char_traits@G@std@@@std@@@std@@6B@ 00445688     libcpmt:wlocale.obj
 0002:000026a0       ??_R1A@?0A@A@?$numpunct@G@std@@8 004456a0     libcpmt:wlocale.obj
 0002:000026b8       ??_R2?$numpunct@G@std@@8   004456b8     libcpmt:wlocale.obj
 0002:000026c8       ??_R3?$numpunct@G@std@@8   004456c8     libcpmt:wlocale.obj
 0002:000026d8       ??_R4?$numpunct@G@std@@6B@ 004456d8     libcpmt:wlocale.obj
 0002:000026f0       ??_R1A@?0A@A@?$ctype@G@std@@8 004456f0     libcpmt:wlocale.obj
 0002:00002708       ??_R2?$ctype@G@std@@8      00445708     libcpmt:wlocale.obj
 0002:00002718       ??_R3?$ctype@G@std@@8      00445718     libcpmt:wlocale.obj
 0002:00002728       ??_R4?$ctype@G@std@@6B@    00445728     libcpmt:wlocale.obj
 0002:00002740       ??_R1A@?0A@A@?$time_put@GV?$ostreambuf_iterator@GU?$char_traits@G@std@@@std@@@std@@8 00445740     libcpmt:wlocale.obj
 0002:00002758       ??_R2?$time_put@GV?$ostreambuf_iterator@GU?$char_traits@G@std@@@std@@@std@@8 00445758     libcpmt:wlocale.obj
 0002:00002768       ??_R3?$time_put@GV?$ostreambuf_iterator@GU?$char_traits@G@std@@@std@@@std@@8 00445768     libcpmt:wlocale.obj
 0002:00002778       ??_R4?$time_put@GV?$ostreambuf_iterator@GU?$char_traits@G@std@@@std@@@std@@6B@ 00445778     libcpmt:wlocale.obj
 0002:00002790       ??_R1A@?0A@A@time_base@std@@8 00445790     libcpmt:wlocale.obj
 0002:000027a8       ??_R1A@?0A@A@?$time_get@GV?$istreambuf_iterator@GU?$char_traits@G@std@@@std@@@std@@8 004457a8     libcpmt:wlocale.obj
 0002:000027c0       ??_R2?$time_get@GV?$istreambuf_iterator@GU?$char_traits@G@std@@@std@@@std@@8 004457c0     libcpmt:wlocale.obj
 0002:000027d0       ??_R3?$time_get@GV?$istreambuf_iterator@GU?$char_traits@G@std@@@std@@@std@@8 004457d0     libcpmt:wlocale.obj
 0002:000027e0       ??_R4?$time_get@GV?$istreambuf_iterator@GU?$char_traits@G@std@@@std@@@std@@6B@ 004457e0     libcpmt:wlocale.obj
 0002:000027f8       ??_R1A@?0A@A@?$moneypunct@G$00@std@@8 004457f8     libcpmt:wlocale.obj
 0002:00002810       ??_R2?$moneypunct@G$00@std@@8 00445810     libcpmt:wlocale.obj
 0002:00002828       ??_R3?$moneypunct@G$00@std@@8 00445828     libcpmt:wlocale.obj
 0002:00002838       ??_R4?$moneypunct@G$00@std@@6B@ 00445838     libcpmt:wlocale.obj
 0002:00002850       ??_R1A@?0A@A@money_base@std@@8 00445850     libcpmt:wlocale.obj
 0002:00002868       ??_R1A@?0A@A@?$_Mpunct@G@std@@8 00445868     libcpmt:wlocale.obj
 0002:00002880       ??_R1A@?0A@A@?$moneypunct@G$0A@@std@@8 00445880     libcpmt:wlocale.obj
 0002:00002898       ??_R2?$moneypunct@G$0A@@std@@8 00445898     libcpmt:wlocale.obj
 0002:000028b0       ??_R3?$moneypunct@G$0A@@std@@8 004458b0     libcpmt:wlocale.obj
 0002:000028c0       ??_R4?$moneypunct@G$0A@@std@@6B@ 004458c0     libcpmt:wlocale.obj
 0002:000028d8       ??_R1A@?0A@A@?$money_put@GV?$ostreambuf_iterator@GU?$char_traits@G@std@@@std@@@std@@8 004458d8     libcpmt:wlocale.obj
 0002:000028f0       ??_R2?$money_put@GV?$ostreambuf_iterator@GU?$char_traits@G@std@@@std@@@std@@8 004458f0     libcpmt:wlocale.obj
 0002:00002900       ??_R3?$money_put@GV?$ostreambuf_iterator@GU?$char_traits@G@std@@@std@@@std@@8 00445900     libcpmt:wlocale.obj
 0002:00002910       ??_R4?$money_put@GV?$ostreambuf_iterator@GU?$char_traits@G@std@@@std@@@std@@6B@ 00445910     libcpmt:wlocale.obj
 0002:00002928       ??_R1A@?0A@A@?$money_get@GV?$istreambuf_iterator@GU?$char_traits@G@std@@@std@@@std@@8 00445928     libcpmt:wlocale.obj
 0002:00002940       ??_R2?$money_get@GV?$istreambuf_iterator@GU?$char_traits@G@std@@@std@@@std@@8 00445940     libcpmt:wlocale.obj
 0002:00002950       ??_R3?$money_get@GV?$istreambuf_iterator@GU?$char_traits@G@std@@@std@@@std@@8 00445950     libcpmt:wlocale.obj
 0002:00002960       ??_R4?$money_get@GV?$istreambuf_iterator@GU?$char_traits@G@std@@@std@@@std@@6B@ 00445960     libcpmt:wlocale.obj
 0002:00002978       ??_R1A@?0A@A@messages_base@std@@8 00445978     libcpmt:wlocale.obj
 0002:00002990       ??_R1A@?0A@A@?$messages@G@std@@8 00445990     libcpmt:wlocale.obj
 0002:000029a8       ??_R2?$messages@G@std@@8   004459a8     libcpmt:wlocale.obj
 0002:000029b8       ??_R3?$messages@G@std@@8   004459b8     libcpmt:wlocale.obj
 0002:000029c8       ??_R4?$messages@G@std@@6B@ 004459c8     libcpmt:wlocale.obj
 0002:000029e0       ??_R1A@?0A@A@?$collate@G@std@@8 004459e0     libcpmt:wlocale.obj
 0002:000029f8       ??_R2?$collate@G@std@@8    004459f8     libcpmt:wlocale.obj
 0002:00002a08       ??_R3?$collate@G@std@@8    00445a08     libcpmt:wlocale.obj
 0002:00002a18       ??_R4?$collate@G@std@@6B@  00445a18     libcpmt:wlocale.obj
 0002:00002a30       ??_R1A@?0A@A@?$codecvt@GDH@std@@8 00445a30     libcpmt:wlocale.obj
 0002:00002a48       ??_R2?$codecvt@GDH@std@@8  00445a48     libcpmt:wlocale.obj
 0002:00002a58       ??_R3?$codecvt@GDH@std@@8  00445a58     libcpmt:wlocale.obj
 0002:00002a68       ??_R4?$codecvt@GDH@std@@6B@ 00445a68     libcpmt:wlocale.obj
 0002:00002a80       ??_R2?$_Mpunct@G@std@@8    00445a80     libcpmt:wlocale.obj
 0002:00002a90       ??_R3?$_Mpunct@G@std@@8    00445a90     libcpmt:wlocale.obj
 0002:00002aa0       ??_R4?$_Mpunct@G@std@@6B@  00445aa0     libcpmt:wlocale.obj
 0002:00002ab8       ??_R1A@?0A@A@?$time_put@DV?$ostreambuf_iterator@DU?$char_traits@D@std@@@std@@@std@@8 00445ab8     libcpmt:xlocale.obj
 0002:00002ad0       ??_R2?$time_put@DV?$ostreambuf_iterator@DU?$char_traits@D@std@@@std@@@std@@8 00445ad0     libcpmt:xlocale.obj
 0002:00002ae0       ??_R3?$time_put@DV?$ostreambuf_iterator@DU?$char_traits@D@std@@@std@@@std@@8 00445ae0     libcpmt:xlocale.obj
 0002:00002af0       ??_R4?$time_put@DV?$ostreambuf_iterator@DU?$char_traits@D@std@@@std@@@std@@6B@ 00445af0     libcpmt:xlocale.obj
 0002:00002b08       ??_R1A@?0A@A@?$time_get@DV?$istreambuf_iterator@DU?$char_traits@D@std@@@std@@@std@@8 00445b08     libcpmt:xlocale.obj
 0002:00002b20       ??_R2?$time_get@DV?$istreambuf_iterator@DU?$char_traits@D@std@@@std@@@std@@8 00445b20     libcpmt:xlocale.obj
 0002:00002b30       ??_R3?$time_get@DV?$istreambuf_iterator@DU?$char_traits@D@std@@@std@@@std@@8 00445b30     libcpmt:xlocale.obj
 0002:00002b40       ??_R4?$time_get@DV?$istreambuf_iterator@DU?$char_traits@D@std@@@std@@@std@@6B@ 00445b40     libcpmt:xlocale.obj
 0002:00002b58       ??_R1A@?0A@A@?$moneypunct@D$00@std@@8 00445b58     libcpmt:xlocale.obj
 0002:00002b70       ??_R2?$moneypunct@D$00@std@@8 00445b70     libcpmt:xlocale.obj
 0002:00002b88       ??_R3?$moneypunct@D$00@std@@8 00445b88     libcpmt:xlocale.obj
 0002:00002b98       ??_R4?$moneypunct@D$00@std@@6B@ 00445b98     libcpmt:xlocale.obj
 0002:00002bb0       ??_R1A@?0A@A@?$_Mpunct@D@std@@8 00445bb0     libcpmt:xlocale.obj
 0002:00002bc8       ??_R1A@?0A@A@?$moneypunct@D$0A@@std@@8 00445bc8     libcpmt:xlocale.obj
 0002:00002be0       ??_R2?$moneypunct@D$0A@@std@@8 00445be0     libcpmt:xlocale.obj
 0002:00002bf8       ??_R3?$moneypunct@D$0A@@std@@8 00445bf8     libcpmt:xlocale.obj
 0002:00002c08       ??_R4?$moneypunct@D$0A@@std@@6B@ 00445c08     libcpmt:xlocale.obj
 0002:00002c20       ??_R1A@?0A@A@?$money_put@DV?$ostreambuf_iterator@DU?$char_traits@D@std@@@std@@@std@@8 00445c20     libcpmt:xlocale.obj
 0002:00002c38       ??_R2?$money_put@DV?$ostreambuf_iterator@DU?$char_traits@D@std@@@std@@@std@@8 00445c38     libcpmt:xlocale.obj
 0002:00002c48       ??_R3?$money_put@DV?$ostreambuf_iterator@DU?$char_traits@D@std@@@std@@@std@@8 00445c48     libcpmt:xlocale.obj
 0002:00002c58       ??_R4?$money_put@DV?$ostreambuf_iterator@DU?$char_traits@D@std@@@std@@@std@@6B@ 00445c58     libcpmt:xlocale.obj
 0002:00002c70       ??_R1A@?0A@A@?$money_get@DV?$istreambuf_iterator@DU?$char_traits@D@std@@@std@@@std@@8 00445c70     libcpmt:xlocale.obj
 0002:00002c88       ??_R2?$money_get@DV?$istreambuf_iterator@DU?$char_traits@D@std@@@std@@@std@@8 00445c88     libcpmt:xlocale.obj
 0002:00002c98       ??_R3?$money_get@DV?$istreambuf_iterator@DU?$char_traits@D@std@@@std@@@std@@8 00445c98     libcpmt:xlocale.obj
 0002:00002ca8       ??_R4?$money_get@DV?$istreambuf_iterator@DU?$char_traits@D@std@@@std@@@std@@6B@ 00445ca8     libcpmt:xlocale.obj
 0002:00002cc0       ??_R1A@?0A@A@?$messages@D@std@@8 00445cc0     libcpmt:xlocale.obj
 0002:00002cd8       ??_R2?$messages@D@std@@8   00445cd8     libcpmt:xlocale.obj
 0002:00002ce8       ??_R3?$messages@D@std@@8   00445ce8     libcpmt:xlocale.obj
 0002:00002cf8       ??_R4?$messages@D@std@@6B@ 00445cf8     libcpmt:xlocale.obj
 0002:00002d10       ??_R1A@?0A@A@?$collate@D@std@@8 00445d10     libcpmt:xlocale.obj
 0002:00002d28       ??_R2?$collate@D@std@@8    00445d28     libcpmt:xlocale.obj
 0002:00002d38       ??_R3?$collate@D@std@@8    00445d38     libcpmt:xlocale.obj
 0002:00002d48       ??_R4?$collate@D@std@@6B@  00445d48     libcpmt:xlocale.obj
 0002:00002d60       ??_R2?$_Mpunct@D@std@@8    00445d60     libcpmt:xlocale.obj
 0002:00002d70       ??_R3?$_Mpunct@D@std@@8    00445d70     libcpmt:xlocale.obj
 0002:00002d80       ??_R4?$_Mpunct@D@std@@6B@  00445d80     libcpmt:xlocale.obj
 0002:00002d98       ??_R1A@?0A@A@type_info@@8  00445d98     LIBCMT:typinfo.obj
 0002:00002db0       ??_R2type_info@@8          00445db0     LIBCMT:typinfo.obj
 0002:00002db8       ??_R3type_info@@8          00445db8     LIBCMT:typinfo.obj
 0002:00002dc8       ??_R4type_info@@6B@        00445dc8     LIBCMT:typinfo.obj
 0002:00002ddc       ??_R2exception@@8          00445ddc     LIBCMT:stdexcpt.obj
 0002:00002de8       ??_R3exception@@8          00445de8     LIBCMT:stdexcpt.obj
 0002:00002df8       ??_R4exception@@6B@        00445df8     LIBCMT:stdexcpt.obj
 0002:00002e90       __CT??_R0?AVCException@Win32@OnlineGameLib@@@8??0CException@Win32@OnlineGameLib@@QAE@ABV012@@Z36 00445e90     Event.obj
 0002:00002eb0       __CT??_R0?AVCWin32Exception@Win32@OnlineGameLib@@@8??0CWin32Exception@Win32@OnlineGameLib@@QAE@ABV012@@Z40 00445eb0     Event.obj
 0002:00002ed0       __CTA2?AVCWin32Exception@Win32@OnlineGameLib@@ 00445ed0     Event.obj
 0002:00002ee0       __TI2?AVCWin32Exception@Win32@OnlineGameLib@@ 00445ee0     Event.obj
 0002:00002f68       __CTA1?AVCException@Win32@OnlineGameLib@@ 00445f68     Event.obj
 0002:00002f70       __TI1?AVCException@Win32@OnlineGameLib@@ 00445f70     Event.obj
 0002:00004300       __CT??_R0?AVexception@@@8??0exception@@QAE@ABV0@@Z12 00447300     GamePlayer.obj
 0002:00004320       __CT??_R0?AVbad_cast@std@@@8??0bad_cast@std@@QAE@ABV01@@Z12 00447320     GamePlayer.obj
 0002:00004340       __CTA2?AVbad_cast@std@@    00447340     GamePlayer.obj
 0002:00004350       __TI2?AVbad_cast@std@@     00447350     GamePlayer.obj
 0002:000064d0       __CT??_R0?AVlogic_error@std@@@8??0logic_error@std@@QAE@ABV01@@Z28 004494d0     libcpmt:string.obj
 0002:000064f0       __CT??_R0?AVlength_error@std@@@8??0length_error@std@@QAE@ABV01@@Z28 004494f0     libcpmt:string.obj
 0002:00006510       __CTA3?AVlength_error@std@@ 00449510     libcpmt:string.obj
 0002:00006520       __TI3?AVlength_error@std@@ 00449520     libcpmt:string.obj
 0002:00006580       __CTA2?AVlogic_error@std@@ 00449580     libcpmt:string.obj
 0002:00006590       __TI2?AVlogic_error@std@@  00449590     libcpmt:string.obj
 0002:00006618       __CT??_R0?AVout_of_range@std@@@8??0out_of_range@std@@QAE@ABV01@@Z28 00449618     libcpmt:string.obj
 0002:00006638       __CTA3?AVout_of_range@std@@ 00449638     libcpmt:string.obj
 0002:00006648       __TI3?AVout_of_range@std@@ 00449648     libcpmt:string.obj
 0002:000066a8       __CT??_R0?AVruntime_error@std@@@8??0runtime_error@std@@QAE@ABV01@@Z28 004496a8     libcpmt:ios.obj
 0002:000066c8       __CT??_R0?AVfailure@ios_base@std@@@8??0failure@ios_base@std@@QAE@ABV012@@Z28 004496c8     libcpmt:ios.obj
 0002:000066e8       __CTA3?AVfailure@ios_base@std@@ 004496e8     libcpmt:ios.obj
 0002:000066f8       __TI3?AVfailure@ios_base@std@@ 004496f8     libcpmt:ios.obj
 0002:00006758       __CTA2?AVruntime_error@std@@ 00449758     libcpmt:ios.obj
 0002:00006768       __TI2?AVruntime_error@std@@ 00449768     libcpmt:ios.obj
 0002:000073c8       __CT??_R0?AVbad_alloc@std@@@8??0bad_alloc@std@@QAE@ABV01@@Z12 0044a3c8     libcpmt:nomemory.obj
 0002:000073e8       __CTA2?AVbad_alloc@std@@   0044a3e8     libcpmt:nomemory.obj
 0002:000073f8       __TI2?AVbad_alloc@std@@    0044a3f8     libcpmt:nomemory.obj
 0002:00008920       __IMPORT_DESCRIPTOR_KERNEL32 0044b920     kernel32:KERNEL32.dll
 0002:00008934       __IMPORT_DESCRIPTOR_USER32 0044b934     user32:USER32.dll
 0002:00008948       __IMPORT_DESCRIPTOR_GDI32  0044b948     gdi32:GDI32.dll
 0002:0000895c       __IMPORT_DESCRIPTOR_ole32  0044b95c     ole32:ole32.dll
 0002:00008970       __IMPORT_DESCRIPTOR_Engine 0044b970     engine:Engine.dll
 0002:00008984       __IMPORT_DESCRIPTOR_WS2_32 0044b984     ws2_32:WS2_32.dll
 0002:00008998       __IMPORT_DESCRIPTOR_VERSION 0044b998     Version:VERSION.dll
 0002:000089ac       __IMPORT_DESCRIPTOR_ADVAPI32 0044b9ac     advapi32:ADVAPI32.dll
 0002:000089c0       __NULL_IMPORT_DESCRIPTOR   0044b9c0     kernel32:KERNEL32.dll
 0003:00000000       ___xc_a                    0044d000     LIBCMT:crt0init.obj
 0003:00000130       ___xc_z                    0044d130     LIBCMT:crt0init.obj
 0003:00000134       ___xi_a                    0044d134     LIBCMT:crt0init.obj
 0003:00000148       ___xi_z                    0044d148     LIBCMT:crt0init.obj
 0003:0000014c       ___xp_a                    0044d14c     LIBCMT:crt0init.obj
 0003:00000154       ___xp_z                    0044d154     LIBCMT:crt0init.obj
 0003:00000158       ___xt_a                    0044d158     LIBCMT:crt0init.obj
 0003:00000160       ___xt_z                    0044d160     LIBCMT:crt0init.obj
 0003:00000178       ?GUID_ATLVer30@ATL@@3U_GUID@@A 0044d178     Application.obj
 0003:00000188       ??_C@_0L@MMDL@Exception?$CB?$AA@ 0044d188     Application.obj
 0003:00000194       ??_C@_0BL@EOII@Please?5input?5a?5valid?5port?$CB?$AA@ 0044d194     Application.obj
 0003:000001b0       ??_C@_0BJ@DOMC@Please?5input?5a?5valid?5IP?$CB?$AA@ 0044d1b0     Application.obj
 0003:000001cc       ??_C@_0BP@IIIG@Please?5input?5a?5valid?5username?$CB?$AA@ 0044d1cc     Application.obj
 0003:000001ec       ??_C@_07JCGI@Warning?$AA@  0044d1ec     Application.obj
 0003:000001f4       ??_C@_0BB@EOPH@IntercessorClass?$AA@ 0044d1f4     Application.obj
 0003:00000208       ??_C@_07DEMH@?$CFd?5?1?5?$CFd?$AA@ 0044d208     Application.obj
 0003:00000210       ??_C@_0BD@ILDG@Are?5you?5sure?5quit?$DP?$AA@ 0044d210     Application.obj
 0003:00000224       ??_C@_04BOIP@Info?$AA@     0044d224     Application.obj
 0003:0000022c       ??_C@_07HJJI@Invalid?$AA@  0044d22c     Application.obj
 0003:00000234       ??_C@_0BC@DGLA@Bishop?5?9?5?$FLEnable?$FN?$AA@ 0044d234     Application.obj
 0003:00000248       ??_C@_0BO@DNCF@Please?5input?5a?5valid?5message?$CB?$AA@ 0044d248     Application.obj
 0003:00000268       ??_R0?AVCException@Win32@OnlineGameLib@@@8 0044d268     Event.obj
 0003:00000298       ??_R0?AVCWin32Exception@Win32@OnlineGameLib@@@8 0044d298     Event.obj
 0003:000002cc       ??_C@_0BB@ONCG@CEvent?3?3Create?$CI?$CJ?$AA@ 0044d2cc     Event.obj
 0003:000002e0       ??_C@_0P@HMDE@CEvent?3?3Wait?$CI?$CJ?$AA@ 0044d2e0     Event.obj
 0003:000002f0       ??_C@_0CE@BDGB@Unexpected?5timeout?5on?5infinite?5w@ 0044d2f0     Event.obj
 0003:00000314       ??_C@_0CF@DJMK@CEvent?3?3Wait?$CI?$CJ?5?9?5WaitForSingleOb@ 0044d314     Event.obj
 0003:0000033c       ??_C@_0BA@DCDD@CEvent?3?3Reset?$CI?$CJ?$AA@ 0044d33c     Event.obj
 0003:0000034c       ??_C@_0O@MACK@CEvent?3?3Set?$CI?$CJ?$AA@ 0044d34c     Event.obj
 0003:0000035c       ??_C@_0BA@KPCO@CEvent?3?3Pulse?$CI?$CJ?$AA@ 0044d35c     Event.obj
 0003:0000036c       ??_C@_0CO@PMBB@?$FLInactive?$FN?$FLID?$DN?$CFld?$FN?5Completed?5cle@ 0044d36c     GamePlayer.obj
 0003:0000039c       ??_C@_0DL@EBHE@?$FLInactive?$FN?$FLID?$DN?$CFld?$FN?5Skip?5ACTIVE?5u@ 0044d39c     GamePlayer.obj
 0003:000003d8       ??_C@_0DI@FKBK@?$FLInactive?$FN?$FLID?$DN?$CFld?$FN?5ACTIVE?5lock?5R@ 0044d3d8     GamePlayer.obj
 0003:00000410       ??_C@_0CP@PFMG@?$FLInactive?$FN?$FLID?$DN?$CFld?$FN?5Sent?5AccountL@ 0044d410     GamePlayer.obj
 0003:00000440       ??_C@_0EO@BKJJ@?$FLInactive?$FN?$FLID?$DN?$CFld?$FN?5Total?5detache@ 0044d440     GamePlayer.obj
 0003:00000490       ??_C@_0CO@FLFA@?$FLInactive?$FN?$FLID?$DN?$CFld?$FN?5Logic?5logout?5@ 0044d490     GamePlayer.obj
 0003:000004c0       ??_C@_0EB@IGKO@?$FLInactive?$FN?$FLID?$DN?$CFld?$FN?5Completed?5cle@ 0044d4c0     GamePlayer.obj
 0003:00000504       ??_C@_0CO@IIOK@?$FLInactive?$FN?$FLID?$DN?$CFld?$FN?5TEMP?5lock?5REM@ 0044d504     GamePlayer.obj
 0003:00000534       ??_C@_0DP@MOHG@?$FLInactive?$FN?$FLID?$DN?$CFld?$FN?5ACTIVE?5lock?5R@ 0044d534     GamePlayer.obj
 0003:00000574       ??_C@_0DN@ECMI@?$FLInactive?$FN?$FLID?$DN?$CFld?$FN?5Total?5detache@ 0044d574     GamePlayer.obj
 0003:000005b4       ??_C@_0ED@1?$FLInactive?$FN?$FLID?$DN?$CFld?$FN?5Detached?5?$CC?$CFs?$CC@ 0044d5b4     GamePlayer.obj
 0003:000005f8       ??_C@_0DF@CFCK@?$FLInactive?$FN?$FLID?$DN?$CFld?$FN?5Detached?5?$CC?$CFs?$CC@ 0044d5f8     GamePlayer.obj
 0003:00000630       ??_C@_0DM@CKH@?$FLInactive?$FN?$FLID?$DN?$CFld?$FN?5Sending?5logic@ 0044d630     GamePlayer.obj
 0003:0000066c       ??_C@_0DO@GCIE@?$FLInactive?$FN?$FLID?$DN?$CFld?$FN?5Player?5?$CC?$CFs?$CC?5o@ 0044d66c     GamePlayer.obj
 0003:000006ac       ??_C@_0CG@JDN@?$FL?$CF04d?9?$CF02d?9?$CF02d?5?$CF02d?3?$CF02d?3?$CF02d?4?$CF@ 0044d6ac     GamePlayer.obj
 0003:000006d4       ??_C@_0BM@OMDF@Bishop_Log?2Bishop_Login?4log?$AA@ 0044d6d4     GamePlayer.obj
 0003:000006f0       ??_C@_02JALM@a?$CL?$AA@    0044d6f0     GamePlayer.obj
 0003:000006f4       ??_C@_0DB@HNEA@?$FLRun?9Timeout?$FN?$FLID?$DN?$CFld?$FN?5TEMP?5lock?5@ 0044d6f4     GamePlayer.obj
 0003:00000728       ??_C@_0DO@CHAC@?$FLRun?9Timeout?$FN?$FLID?$DN?$CFld?$FN?5Skip?5ACTIV@ 0044d728     GamePlayer.obj
 0003:00000768       ??_C@_0DL@PNEE@?$FLRun?9Timeout?$FN?$FLID?$DN?$CFld?$FN?5ACTIVE?5loc@ 0044d768     GamePlayer.obj
 0003:000007a4       ??_C@_0DA@EDPP@?$FLRun?9Timeout?$FN?$FLID?$DN?$CFld?$FN?5Task?5timeo@ 0044d7a4     GamePlayer.obj
 0003:000007d4       ??_C@_0CK@DCIB@?$FLSafeUnlock?$FN?5ACTIVE?5lock?5REMOVED@ 0044d7d4     GamePlayer.obj
 0003:00000800       ??_C@_0BL@DEAK@CGamePlayer?3?3TaskCompleted?$AA@ 0044d800     GamePlayer.obj
 0003:0000081c       ??_C@_0EG@DNLF@?$FLWaitForAccPwd?$FN?$FLID?$DN?$CFld?$FN?5Client?5s@ 0044d81c     GamePlayer.obj
 0003:00000864       ??_C@_0DC@NCG@?$FLWaitForAccPwd?$FN?$FLID?$DN?$CFld?$FN?5Invalid?5@ 0044d864     GamePlayer.obj
 0003:00000898       ??_C@_0CL@LNGB@?$FLWaitForAccPwd?$FN?$FLID?$DN?$CFld?$FN?5Empty?5ac@ 0044d898     GamePlayer.obj
 0003:000008c4       ??_C@_0DG@CPIH@?$FLWaitForAccPwd?$FN?$FLID?$DN?$CFld?$FN?5Ready?5to@ 0044d8c4     GamePlayer.obj
 0003:000008fc       ??_C@_0CO@KPMB@?$FLWaitForAccPwd?$FN?$FLID?$DN?$CFld?$FN?5TEMP?9LOC@ 0044d8fc     GamePlayer.obj
 0003:0000092c       ??_C@_0EC@FPMI@?$FLWaitForAccPwd?$FN?$FLID?$DN?$CFld?$FN?5Client?5s@ 0044d92c     GamePlayer.obj
 0003:00000970       ??_C@_0EH@BAOC@?$FLWaitForAccPwd?$FN?$FLID?$DN?$CFld?$FN?5TEMP?9LOC@ 0044d970     GamePlayer.obj
 0003:000009b8       ??_C@_0DF@PKEJ@?$FLWaitForAccPwd?$FN?$FLID?$DN?$CFld?$FN?5Received@ 0044d9b8     GamePlayer.obj
 0003:000009f0       ??_C@_0DJ@KIFN@?$FLWaitForAccPwd?$FN?$FLID?$DN?$CFld?$FN?5Client?5s@ 0044d9f0     GamePlayer.obj
 0003:00000a2c       ??_C@_0DJ@IEKJ@?$FLWaitForAccPwd?$FN?$FLID?$DN?$CFld?$FN?5Invalid?5@ 0044da2c     GamePlayer.obj
 0003:00000a68       ??_C@_0GC@KJCC@?$FLQueryAccPwd?$FN?$FLID?$DN?$CFld?$FN?5Send?5to?5Ac@ 0044da68     GamePlayer.obj
 0003:00000acc       ??_C@_0EF@FCBC@?$FLVerifyAccount?$FN?$FLID?$DN?$CFld?$FN?5Skip?5shu@ 0044dacc     GamePlayer.obj
 0003:00000b14       ??_C@_0EE@HHEG@?$FLVerifyAccount?$FN?$FLID?$DN?$CFld?$FN?5Client?5s@ 0044db14     GamePlayer.obj
 0003:00000b58       ??_C@_0DB@LHGH@?$FLVerifyAccount?$FN?$FLID?$DN?$CFld?$FN?5Failed?3?5@ 0044db58     GamePlayer.obj
 0003:00000b8c       ??_C@_0CM@JDBI@?$FLVerifyAccount?$FN?$FLID?$DN?$CFld?$FN?5Failed?3?5@ 0044db8c     GamePlayer.obj
 0003:00000bb8       ??_C@_0DE@IFJ@?$FLVerifyAccount?$FN?$FLID?$DN?$CFld?$FN?5Failed?3?5@ 0044dbb8     GamePlayer.obj
 0003:00000bec       ??_C@_0DE@KPPD@?$FLVerifyAccount?$FN?$FLID?$DN?$CFld?$FN?5Failed?3?5@ 0044dbec     GamePlayer.obj
 0003:00000c20       ??_C@_0DC@KGAD@?$FLVerifyAccount?$FN?$FLID?$DN?$CFld?$FN?5Failed?3?5@ 0044dc20     GamePlayer.obj
 0003:00000c54       ??_C@_0DD@HHJF@?$FLVerifyAccount?$FN?$FLID?$DN?$CFld?$FN?5Failed?3?5@ 0044dc54     GamePlayer.obj
 0003:00000c88       ??_C@_0CP@CFHD@?$FLVerifyAccount?$FN?$FLID?$DN?$CFld?$FN?5Failed?3?5@ 0044dc88     GamePlayer.obj
 0003:00000cb8       ??_C@_0ED@EIEL@?$FLVerifyAccount?$FN?$FLID?$DN?$CFld?$FN?5Failed?3?5@ 0044dcb8     GamePlayer.obj
 0003:00000cfc       ??_C@_0DN@GFOB@?$FLVerifyAccount?$FN?$FLID?$DN?$CFld?$FN?5Failed?3?5@ 0044dcfc     GamePlayer.obj
 0003:00000d3c       ??_C@_0DF@KPEJ@?$FLVerifyAccount?$FN?$FLID?$DN?$CFld?$FN?5?$CC?$CFs?$CC?5LOC@ 0044dd3c     GamePlayer.obj
 0003:00000d74       ??_C@_0EG@NLAO@?$FLVerifyAccount?$FN?$FLID?$DN?$CFld?$FN?5Client?5s@ 0044dd74     GamePlayer.obj
 0003:00000dbc       ??_C@_0GG@FAFN@?$FLVerifyAccount?$FN?$FLID?$DN?$CFld?$FN?5ACTION_S@ 0044ddbc     GamePlayer.obj
 0003:00000e24       ??_C@_0CL@KJKI@?$FLVerifyAccount?$FN?$FLID?$DN?$CFld?$FN?5Acc?$DN?$CC?$CFs?$CC@ 0044de24     GamePlayer.obj
 0003:00000e50       ??_C@_0FG@FPIP@?$FLVerifyAccount_ToPlayer?$FN?$FLID?$DN?$CFld?$FN@ 0044de50     GamePlayer.obj
 0003:00000ea8       ??_C@_0DD@BIHF@?$FLQueryRoleList?$FN?$FLID?$DN?$CFld?$FN?5Request?5@ 0044dea8     GamePlayer.obj
 0003:00000edc       ??_C@_0DL@MCLP@?$FLQueryRoleList?$FN?$FLID?$DN?$CFld?$FN?5Requesti@ 0044dedc     GamePlayer.obj
 0003:00000f18       ??_C@_0DM@KPCB@?$FLProcessRoleList?$FN?$FLID?$DN?$CFld?$FN?5ERROR?3@ 0044df18     GamePlayer.obj
 0003:00000f54       ??_C@_0DI@EAI@?$FLProcessRoleList?$FN?$FLID?$DN?$CFld?$FN?5Charac@ 0044df54     GamePlayer.obj
 0003:00000f8c       ??_C@_0EK@IJOD@?$FLProcessRoleList?$FN?$FLID?$DN?$CFld?$FN?5Receiv@ 0044df8c     GamePlayer.obj
 0003:00000fd8       ??_C@_0EC@CHGE@?$FLSelAddDelRole?$FN?$FLID?$DN?$CFld?$FN?5ERROR?3?5F@ 0044dfd8     GamePlayer.obj
 0003:0000101c       ??_C@_0EG@IMOD@?$FLSelAddDelRole?$FN?$FLID?$DN?$CFld?$FN?5Requesti@ 0044e01c     GamePlayer.obj
 0003:00001064       ??_C@_0DI@CDDC@?$FLSelAddDelRole?$FN?$FLID?$DN?$CFld?$FN?5Client?5s@ 0044e064     GamePlayer.obj
 0003:0000109c       ??_C@_0ED@CEKE@?$FLProcessRoleInfo?$FN?$FLID?$DN?$CFld?$FN?5ERROR?3@ 0044e09c     GamePlayer.obj
 0003:000010e0       ??_C@_0EM@NJFD@?$FLProcessRoleInfo?$FN?$FLID?$DN?$CFld?$FN?5ERROR?3@ 0044e0e0     GamePlayer.obj
 0003:0000112c       ??_C@_0EB@NKPA@?$FLProcessRoleInfo?$FN?$FLID?$DN?$CFld?$FN?5Succes@ 0044e12c     GamePlayer.obj
 0003:00001170       ??_C@_0FF@IHHP@?$FLProcessRoleInfo?$FN?$FLID?$DN?$CFld?$FN?5Receiv@ 0044e170     GamePlayer.obj
 0003:000011c8       ??_C@_0DK@COOO@?$FLSyncRoleInfo?$FN?$FLID?$DN?$CFld?$FN?5Successfu@ 0044e1c8     GamePlayer.obj
 0003:00001204       ??_C@_0EJ@GOLE@?$FLSyncRoleInfo?$FN?$FLID?$DN?$CFld?$FN?5WARNING?3?5@ 0044e204     GamePlayer.obj
 0003:00001250       ??_C@_0EH@DIIG@?$FL_SyncRoleInfo?$FN?$FLID?$DN?$CFld?$FN?5Dispatch@ 0044e250     GamePlayer.obj
 0003:00001298       ??_C@_0FD@NLH@?$FL_SyncRoleInfo?$FN?$FLID?$DN?$CFld?$FN?5ERROR?3?5D@ 0044e298     GamePlayer.obj
 0003:000012ec       ??_C@_0EC@LLOD@?$FL_SyncRoleInfo?$FN?$FLID?$DN?$CFld?$FN?5Sending?5@ 0044e2ec     GamePlayer.obj
 0003:00001330       ??_C@_0EG@NNIB@?$FL_SyncRoleInfo?$FN?$FLID?$DN?$CFld?$FN?5Attach?5c@ 0044e330     GamePlayer.obj
 0003:00001378       ??_C@_0GE@MKMA@?$FL_SyncRoleInfo?$FN?$FLID?$DN?$CFld?$FN?5ERROR?3?5A@ 0044e378     GamePlayer.obj
 0003:000013dc       ??_C@_0DP@FKIO@?$FL_SyncRoleInfo?$FN?$FLID?$DN?$CFld?$FN?5Checking@ 0044e3dc     GamePlayer.obj
 0003:0000141c       ??_C@_0FB@GLKF@?$FL_SyncRoleInfo?$FN?$FLID?$DN?$CFld?$FN?5ERROR?3?5D@ 0044e41c     GamePlayer.obj
 0003:00001470       ??_C@_0FO@BGAA@?$FL_SyncRoleInfo?$FN?$FLID?$DN?$CFld?$FN?5Checking@ 0044e470     GamePlayer.obj
 0003:000014d0       ??_C@_0CP@PGJM@?$FLTransfer?$FN?$FLID?$DN?$CFld?$FN?5Detached?5?$CC?$CFs?$CC@ 0044e4d0     GamePlayer.obj
 0003:00001500       ??_C@_0EK@GGOL@?$FL_SyncRoleInfo?$FN?$FLID?$DN?$CFld?$FN?5ERROR?3?5A@ 0044e500     GamePlayer.obj
 0003:0000154c       ??_C@_0DG@JFGO@?$FL_SyncRoleInfo?$FN?$FLID?$DN?$CFld?$FN?5Target?5G@ 0044e54c     GamePlayer.obj
 0003:00001584       ??_C@_0EK@CFJB@?$FL_SyncRoleInfo?$FN?$FLID?$DN?$CFld?$FN?5ERROR?3?5G@ 0044e584     GamePlayer.obj
 0003:000015d0       ??_C@_0FI@HAF@?$FL_SyncRoleInfo?$FN?$FLID?$DN?$CFld?$FN?5Starting@ 0044e5d0     GamePlayer.obj
 0003:00001628       ??_C@_0DN@HKFC@?$FLPermitLogin?$FN?$FLID?$DN?$CFld?$FN?5Sent?5Accou@ 0044e628     GamePlayer.obj
 0003:00001668       ??_C@_0DM@GLPB@?$FLPermitLogin?$FN?$FLID?$DN?$CFld?$FN?5TEMP?5lock?5@ 0044e668     GamePlayer.obj
 0003:000016a4       ??_C@_0DO@IHEE@?$FLPermitLogin?$FN?$FLID?$DN?$CFld?$FN?5ACTIVE?5loc@ 0044e6a4     GamePlayer.obj
 0003:000016e4       ??_C@_0FD@NMOD@?$FLWaitForGameSvrPermit?$FN?$FLID?$DN?$CFld?$FN?5G@ 0044e6e4     GamePlayer.obj
 0003:00001738       ??_C@_0EC@NEEO@?$FLWaitForGameSvrPermit?$FN?$FLID?$DN?$CFld?$FN?5G@ 0044e738     GamePlayer.obj
 0003:0000177c       ??_C@_0FJ@KANA@?$FLWaitForGameSvrPermit?$FN?$FLID?$DN?$CFld?$FN?5R@ 0044e77c     GamePlayer.obj
 0003:000017d8       ??_R0?AVexception@@@8      0044e7d8     GamePlayer.obj
 0003:000017f0       ??_R0?AVbad_cast@std@@@8   0044e7f0     GamePlayer.obj
 0003:0000180c       ??_C@_0BF@MMAA@missing?5locale?5facet?$AA@ 0044e80c     GamePlayer.obj
 0003:00001824       ??_C@_01FKHJ@C?$AA@        0044e824     GamePlayer.obj
 0003:00001828       ??_C@_02MHAC@?$CFp?$AA@    0044e828     GamePlayer.obj
 0003:0000182c       ??_C@_01PHOL@e?$AA@        0044e82c     GamePlayer.obj
 0003:00001830       ??_C@_01KFAL@E?$AA@        0044e830     GamePlayer.obj
 0003:00001834       ??_C@_01KMAE@?0?$AA@       0044e834     GamePlayer.obj
 0003:00001838       ??_C@_04NCCD@true?$AA@     0044e838     GamePlayer.obj
 0003:00001840       ??_C@_05NAGO@false?$AA@    0044e840     GamePlayer.obj
 0003:00001848       ??_C@_0CN@GCIC@?$FLBISHOP?$FN?5BeginTransfer?3?5?$CFs?5at?5GS@ 0044e848     GameServer.obj
 0003:00001878       ??_C@_0BK@EAAF@?$FLBISHOP?$FN?5EndTransfer?3?5?$CFs?6?$AA@ 0044e878     GameServer.obj
 0003:00001894       ??_C@_0DM@PFND@?$FLBISHOP?$FN?5?$FLWARNING?$FN?5Transfer?5time@ 0044e894     GameServer.obj
 0003:000018d0       ??_C@_0DK@KDME@?$FLBISHOP?$FN?5?$FLWARNING?$FN?5Unexpected?5mo@ 0044e8d0     GameServer.obj
 0003:0000190c       ??_C@_0DD@JJAK@?$FLBISHOP?$FN?5Transfer?5confirmed?3?5?$CFs?5@ 0044e90c     GameServer.obj
 0003:00001940       ??_C@_0DH@KHBK@?$FLBISHOP?$FN?5?$FLWARNING?$FN?5Duplicate?5Ent@ 0044e940     GameServer.obj
 0003:00001978       ??_C@_0DK@GONA@?$FLBISHOP?$FN?5EnterGame?3?5?$CFs?0?5OldGS?$DN?$CFd@ 0044e978     GameServer.obj
 0003:000019b4       ??_C@_0EB@GLPM@?$FLBISHOP?$FN?5LeaveGame?5?$CInormal?5logou@ 0044e9b4     GameServer.obj
 0003:000019f8       ??_C@_0EL@BILP@?$FLBISHOP?$FN?5LeaveGame?5?$CIhold?5for?5tra@ 0044e9f8     GameServer.obj
 0003:00001a44       ??_C@_0DL@JFMF@?$FLBISHOP?$FN?5LeaveGame?5?$CIalready?5tran@ 0044ea44     GameServer.obj
 0003:00001a80       ??_C@_0EA@DOPD@?$FLBISHOP?$FN?5?$FLWARNING?$FN?5LeaveGame?5for@ 0044ea80     GameServer.obj
 0003:00001ac0       ??_C@_0DO@CKFI@?$FLBISHOP?$FN?5LeaveGame?3?5?$CFs?0?5GS?$DN?$CFd?0?5I@ 0044eac0     GameServer.obj
 0003:00001b00       ??_C@_0EB@JPJB@?$FLBISHOP?$FN?5Attach?3?5Detached?5?$CC?$CFs?$CC?5f@ 0044eb00     GameServer.obj
 0003:00001b44       ??_C@_0DE@LFLA@?$FLBISHOP?$FN?5Attach?3?5?$CFs?5from?5GS?$CFd?5to@ 0044eb44     GameServer.obj
 0003:00001b78       ??_C@_0CP@FAPH@?$FLBISHOP?$FN?5?$FLWARNING?$FN?5Account?5?$CFs?5al@ 0044eb78     GameServer.obj
 0003:00001ba8       ??_C@_0DA@PLLA@?$FLBISHOP?$FN?5AttatchAccount?3?5?$CC?$CFs?$CC?5at@ 0044eba8     GameServer.obj
 0003:00001bd8       ??_C@_04FBFD@?$CFd?$CFd?$AA@ 0044ebd8     GameServer.obj
 0003:00001be0       ??_C@_0L@MDPN@heaven?4dll?$AA@ 0044ebe0     Intercessor.obj
 0003:00001bec       ??_C@_0M@GJAN@rainbow?4dll?$AA@ 0044ebec     Intercessor.obj
 0003:00001bf8       ??_C@_0BA@PKLD@CreateInterface?$AA@ 0044ebf8     Intercessor.obj
 0003:00001c08       ??_C@_0CA@LIJP@Run?5a?5working?5thread?5is?5failed?$CB?$AA@ 0044ec08     Intercessor.obj
 0003:00001c28       ??_C@_0BD@NFED@CIntercessor?5class?$AA@ 0044ec28     Intercessor.obj
 0003:00001c3c       ??_C@_0CD@LNPJ@Startup?5a?5helper?5thread?5is?5faile@ 0044ec3c     Intercessor.obj
 0003:00001c60       ??_C@_0BO@BAMC@?$FLBISHOP?$FN?5Pong?5received?5at?5?$CFu?6?$AA@ 0044ec60     Intercessor.obj
 0003:00001c80       ??_C@_0DD@PBNH@?$FLBISHOP?$FN?5?$FLERROR?$FN?5Connection?5lost@ 0044ec80     Intercessor.obj
 0003:00001cb4       ??_C@_0FA@OACG@?$FLBISHOP?$FN?5?$FLWARNING?$FN?5Ping?5timeout?$CB@ 0044ecb4     Intercessor.obj
 0003:00001d04       ??_C@_0BK@FEBL@?$FLBISHOP?$FN?5Ping?5sent?5at?5?$CFu?6?$AA@ 0044ed04     Intercessor.obj
 0003:00001d20       ??_C@_0BA@OPNA@GameSvrOpenPort?$AA@ 0044ed20     Network.obj
 0003:00001d30       ??_C@_0P@EABL@ClientOpenPort?$AA@ 0044ed30     Network.obj
 0003:00001d40       ??_C@_0L@JLCI@AccSvrPort?$AA@ 0044ed40     Network.obj
 0003:00001d4c       ??_C@_08PNLD@AccSvrIP?$AA@ 0044ed4c     Network.obj
 0003:00001d58       ??_C@_0M@OLD@RoleSvrPort?$AA@ 0044ed58     Network.obj
 0003:00001d64       ??_C@_07HKHC@Network?$AA@  0044ed64     Network.obj
 0003:00001d6c       ??_C@_09PLGO@RoleSvrIP?$AA@ 0044ed6c     Network.obj
 0003:00001d78       ??_C@_0L@OBPN@Bishop?4cfg?$AA@ 0044ed78     Network.obj
 0003:00001d84       ??_C@_0P@LNGG@RevivalId?$CF2?42d?$AA@ 0044ed84     PlayerCreator.obj
 0003:00001d94       ??_C@_05HCNL@Count?$AA@    0044ed94     PlayerCreator.obj
 0003:00001d9c       ??_C@_0BO@FOEJ@settings?2player?2revivalid?4ini?$AA@ 0044ed9c     PlayerCreator.obj
 0003:00001dbc       ??_C@_0CF@KODE@settings?2player?2newplayerini?$CF02d@ 0044edbc     PlayerCreator.obj
 0003:00001de4       ??_C@_07LAAI@irecord?$AA@  0044ede4     PlayerCreator.obj
 0003:00001dec       ??_C@_0M@PKLB@idurability?$AA@ 0044edec     PlayerCreator.obj
 0003:00001df8       ??_C@_06BDHG@ilucky?$AA@   0044edf8     PlayerCreator.obj
 0003:00001e00       ??_C@_09LIIC@irandseed?$AA@ 0044ee00     PlayerCreator.obj
 0003:00001e0c       ??_C@_0O@NNEG@iequipversion?$AA@ 0044ee0c     PlayerCreator.obj
 0003:00001e1c       ??_C@_07PAFK@iparam6?$AA@  0044ee1c     PlayerCreator.obj
 0003:00001e24       ??_C@_07POD@iparam5?$AA@   0044ee24     PlayerCreator.obj
 0003:00001e2c       ??_C@_07KFHE@iparam4?$AA@  0044ee2c     PlayerCreator.obj
 0003:00001e34       ??_C@_07PAJB@iparam3?$AA@  0044ee34     PlayerCreator.obj
 0003:00001e3c       ??_C@_07FKAG@iparam2?$AA@  0044ee3c     PlayerCreator.obj
 0003:00001e44       ??_C@_07KFLP@iparam1?$AA@  0044ee44     PlayerCreator.obj
 0003:00001e4c       ??_C@_06BHNJ@ilocal?$AA@   0044ee4c     PlayerCreator.obj
 0003:00001e54       ??_C@_02HMHG@iy?$AA@       0044ee54     PlayerCreator.obj
 0003:00001e58       ??_C@_02NGOB@ix?$AA@       0044ee58     PlayerCreator.obj
 0003:00001e5c       ??_C@_07EOMF@iseries?$AA@  0044ee5c     PlayerCreator.obj
 0003:00001e64       ??_C@_06BGGB@ilevel?$AA@   0044ee64     PlayerCreator.obj
 0003:00001e6c       ??_C@_0M@OGA@idetailtype?$AA@ 0044ee6c     PlayerCreator.obj
 0003:00001e78       ??_C@_0BA@IIJH@iequipclasscode?$AA@ 0044ee78     PlayerCreator.obj
 0003:00001e88       ??_C@_04KAML@ITEM?$AA@     0044ee88     PlayerCreator.obj
 0003:00001e90       ??_C@_05DKJ@ITEMS?$AA@     0044ee90     PlayerCreator.obj
 0003:00001e98       ??_C@_07LPDJ@LSKILLS?$AA@  0044ee98     PlayerCreator.obj
 0003:00001ea0       ??_C@_01FLCE@L?$AA@        0044eea0     PlayerCreator.obj
 0003:00001ea4       ??_C@_04MOFI@?$CFs?$CFd?$AA@ 0044eea4     PlayerCreator.obj
 0003:00001eac       ??_C@_01PDAJ@S?$AA@        0044eeac     PlayerCreator.obj
 0003:00001eb0       ??_C@_07JGLP@FSKILLS?$AA@  0044eeb0     PlayerCreator.obj
 0003:00001eb8       ??_C@_05BNPO@COUNT?$AA@    0044eeb8     PlayerCreator.obj
 0003:00001ec0       ??_C@_09HCPA@irevivaly?$AA@ 0044eec0     PlayerCreator.obj
 0003:00001ecc       ??_C@_09NIGH@irevivalx?$AA@ 0044eecc     PlayerCreator.obj
 0003:00001ed8       ??_C@_0L@PDKH@irevivalid?$AA@ 0044eed8     PlayerCreator.obj
 0003:00001ee4       ??_C@_09HKKJ@imaxinner?$AA@ 0044eee4     PlayerCreator.obj
 0003:00001ef0       ??_C@_0M@EPEB@imaxstamina?$AA@ 0044eef0     PlayerCreator.obj
 0003:00001efc       ??_C@_08GMJD@imaxlife?$AA@ 0044eefc     PlayerCreator.obj
 0003:00001f08       ??_C@_04JNFC@bsex?$AA@     0044ef08     PlayerCreator.obj
 0003:00001f10       ??_C@_05IFGC@iteam?$AA@    0044ef10     PlayerCreator.obj
 0003:00001f18       ??_C@_09FCIK@ifiveprop?$AA@ 0044ef18     PlayerCreator.obj
 0003:00001f24       ??_C@_0L@EKGI@isavemoney?$AA@ 0044ef24     PlayerCreator.obj
 0003:00001f30       ??_C@_06MOBE@imoney?$AA@   0044ef30     PlayerCreator.obj
 0003:00001f38       ??_C@_0L@FEEH@ijoincount?$AA@ 0044ef38     PlayerCreator.obj
 0003:00001f44       ??_C@_0L@HFMD@ifirstsect?$AA@ 0044ef44     PlayerCreator.obj
 0003:00001f50       ??_C@_05FNG@isect?$AA@     0044ef50     PlayerCreator.obj
 0003:00001f58       ??_C@_08EEBK@ileadexp?$AA@ 0044ef58     PlayerCreator.obj
 0003:00001f64       ??_C@_0L@HOIO@ileadlevel?$AA@ 0044ef64     PlayerCreator.obj
 0003:00001f70       ??_C@_0M@LICF@ifightlevel?$AA@ 0044ef70     PlayerCreator.obj
 0003:00001f7c       ??_C@_09LNAN@ifightexp?$AA@ 0044ef7c     PlayerCreator.obj
 0003:00001f88       ??_C@_05JJO@iluck?$AA@     0044ef88     PlayerCreator.obj
 0003:00001f90       ??_C@_07BGDJ@iinside?$AA@  0044ef90     PlayerCreator.obj
 0003:00001f98       ??_C@_06FLI@iouter?$AA@    0044ef98     PlayerCreator.obj
 0003:00001fa0       ??_C@_08GNLA@iagility?$AA@ 0044efa0     PlayerCreator.obj
 0003:00001fac       ??_C@_06KFBD@ipower?$AA@   0044efac     PlayerCreator.obj
 0003:00001fb4       ??_C@_0L@GEDM@ileftfight?$AA@ 0044efb4     PlayerCreator.obj
 0003:00001fc0       ??_C@_04CO@ROLE?$AA@       0044efc0     PlayerCreator.obj
 0003:00001fc8       ??_C@_09LFCK@ileftprop?$AA@ 0044efc8     PlayerCreator.obj
 0003:00001fd4       ??_C@_0BD@EFMO@CSmartClient?5class?$AA@ 0044efd4     SmartClient.obj
 0003:00001fe8       ??_C@_0BA@NLGN@GetAdaptersInfo?$AA@ 0044efe8     SmartClient.obj
 0003:00001ff8       ??_C@_0N@JPOB@iphlpapi?4dll?$AA@ 0044eff8     SmartClient.obj
 0003:00002008       ??_C@_0BB@CMEI@hMutex?3?3Create?$CI?$CJ?$AA@ 0044f008     common:Mutex.obj
 0003:0000201c       ??_C@_0P@PGCC@CMutex?3?3Wait?$CI?$CJ?$AA@ 0044f01c     common:Mutex.obj
 0003:0000202c       ??_C@_0CF@KJPD@CMutex?3?3Wait?$CI?$CJ?5?9?5WaitForSingleOb@ 0044f02c     common:Mutex.obj
 0003:00002054       ??_C@_0BB@BJC@CBuffer?3?3AddData?$AA@ 0044f054     common:Buffer.obj
 0003:00002068       ??_C@_0BL@HPMM@Not?5enough?5space?5in?5buffer?$AA@ 0044f068     common:Buffer.obj
 0003:00002084       ??_C@_0BD@MKLK@CBuffer?3?3Release?$CI?$CJ?$AA@ 0044f084     common:Buffer.obj
 0003:00002098       ??_C@_0BG@EBOE@m_ref?5is?5already?5zero?$AA@ 0044f098     common:Buffer.obj
 0003:000020b0       ??_C@_0BP@ONCE@CBuffer?3?3Allocator?3?3Allocate?$CI?$CJ?$AA@ 0044f0b0     common:Buffer.obj
 0003:000020d0       ??_C@_0O@MNOP@Out?5of?5memory?$AA@ 0044f0d0     common:Buffer.obj
 0003:000020e0       ??_C@_0BO@NDNG@CBuffer?3?3Allocator?3?3Release?$CI?$CJ?$AA@ 0044f0e0     common:Buffer.obj
 0003:00002100       ??_C@_0BA@GJNE@pBuffer?5is?5null?$AA@ 0044f100     common:Buffer.obj
 0003:00002114       ??_C@_0M@EHLI@?2common?4log?$AA@ 0044f114     common:Utils.obj
 0003:00002120       ??_C@_0M@EGHG@?$CFu?4?$CFu?4?$CFu?4?$CFu?$AA@ 0044f120     common:Utils.obj
 0003:0000212c       ??_C@_0BG@EJMD@GetCurrentDirectory?$CI?$CJ?$AA@ 0044f12c     common:Utils.obj
 0003:00002144       ??_C@_0CA@OFN@Failed?5to?5get?5current?5directory?$AA@ 0044f144     common:Utils.obj
 0003:00002164       ??_C@_0N@PPGC@?$CF02d?$CF02d?$CF02d?$AA@ 0044f164     common:Utils.obj
 0003:00002174       ??_C@_0P@INAO@?$CF02d?3?$CF02d?3?$CF02d?$AA@ 0044f174     common:Utils.obj
 0003:00002184       ??_C@_04LDEB@?$CF02X?$AA@  0044f184     common:Utils.obj
 0003:0000218c       ??_C@_01BJG@?6?$AA@        0044f18c     common:Utils.obj
 0003:00002190       ??_C@_03DMDD@?5?9?5?$AA@   0044f190     common:Utils.obj
 0003:00002194       ??_C@_03MFGH@?5?5?5?$AA@   0044f194     common:Utils.obj
 0003:00002198       ??_C@_01FCOA@?5?$AA@       0044f198     common:Utils.obj
 0003:0000219c       ??_C@_0M@GPOH@UNAVAILABLE?$AA@ 0044f19c     common:Utils.obj
 0003:000021a8       ??_C@_0CF@HLGK@?2StringFileInfo?2?$CF04x?$CF04x?2FileVer@ 0044f1a8     common:Utils.obj
 0003:000021d0       ??_C@_0BJ@KCFH@?2VarFileInfo?2Translation?$AA@ 0044f1d0     common:Utils.obj
 0003:000021ec       ??_C@_02MECO@?$CFd?$AA@    0044f1ec     common:IniFile.obj
 0003:000021f0       ??_C@_05JNFJ@?$CF8?48X?$AA@ 0044f1f0     common:IniFile.obj
 0003:000021f8       ??_R0?AVlogic_error@std@@@8 0044f1f8     libcpmt:string.obj
 0003:00002218       ??_R0?AVlength_error@std@@@8 0044f218     libcpmt:string.obj
 0003:00002238       ??_R0?AVout_of_range@std@@@8 0044f238     libcpmt:string.obj
 0003:00002258       ?_Sync@ios_base@std@@0_NA  0044f258     libcpmt:ios.obj
 0003:00002260       ??_R0?AVruntime_error@std@@@8 0044f260     libcpmt:ios.obj
 0003:00002280       ??_R0?AVfailure@ios_base@std@@@8 0044f280     libcpmt:ios.obj
 0003:000022a8       ??_R0?AVios_base@std@@@8   0044f2a8     libcpmt:ios.obj
 0003:000022c8       ??_R0?AV?$basic_ios@DU?$char_traits@D@std@@@std@@@8 0044f2c8     libcpmt:strstrea.obj
 0003:00002300       ??_R0?AV?$basic_istream@DU?$char_traits@D@std@@@std@@@8 0044f300     libcpmt:strstrea.obj
 0003:00002340       ??_R0?AVistrstream@std@@@8 0044f340     libcpmt:strstrea.obj
 0003:00002360       ??_R0?AV?$basic_ostream@DU?$char_traits@D@std@@@std@@@8 0044f360     libcpmt:strstrea.obj
 0003:000023a0       ??_R0?AVostrstream@std@@@8 0044f3a0     libcpmt:strstrea.obj
 0003:000023c0       ??_R0?AV?$basic_streambuf@DU?$char_traits@D@std@@@std@@@8 0044f3c0     libcpmt:strstrea.obj
 0003:00002400       ??_R0?AVstrstreambuf@std@@@8 0044f400     libcpmt:strstrea.obj
 0003:00002420       ??_R0?AV?$basic_iostream@DU?$char_traits@D@std@@@std@@@8 0044f420     libcpmt:strstrea.obj
 0003:00002460       ??_R0?AVstrstream@std@@@8  0044f460     libcpmt:strstrea.obj
 0003:00002480       ??_R0?AVfacet@locale@std@@@8 0044f480     libcpmt:locale0.obj
 0003:000024a0       ??_R0?AV_Locimp@locale@std@@@8 0044f4a0     libcpmt:locale0.obj
 0003:000024c8       ??_R0?AV?$numpunct@D@std@@@8 0044f4c8     libcpmt:locale.obj
 0003:000024e8       ??_R0?AVcodecvt_base@std@@@8 0044f4e8     libcpmt:locale.obj
 0003:00002508       ??_R0?AV?$codecvt@DDH@std@@@8 0044f508     libcpmt:locale.obj
 0003:00002528       ??_R0?AV?$num_get@DV?$istreambuf_iterator@DU?$char_traits@D@std@@@std@@@std@@@8 0044f528     libcpmt:locale.obj
 0003:00002580       ??_R0?AV?$num_put@DV?$ostreambuf_iterator@DU?$char_traits@D@std@@@std@@@std@@@8 0044f580     libcpmt:locale.obj
 0003:000025d8       ??_R0?AUctype_base@std@@@8 0044f5d8     libcpmt:locale.obj
 0003:000025f8       ??_R0?AV?$ctype@D@std@@@8  0044f5f8     libcpmt:locale.obj
 0003:00002614       ?_Init_cnt@Init@ios_base@std@@0HA 0044f614     libcpmt:iostream.obj
 0003:00002618       ??_R0?AV?$basic_filebuf@DU?$char_traits@D@std@@@std@@@8 0044f618     libcpmt:iostream.obj
 0003:00002654       ?_Init_cnt@_Winit@std@@0HA 0044f654     libcpmt:wiostrea.obj
 0003:00002658       ??_R0?AV?$basic_ios@GU?$char_traits@G@std@@@std@@@8 0044f658     libcpmt:wiostrea.obj
 0003:00002690       ??_R0?AV?$basic_istream@GU?$char_traits@G@std@@@std@@@8 0044f690     libcpmt:wiostrea.obj
 0003:000026d0       ??_R0?AV?$basic_ostream@GU?$char_traits@G@std@@@std@@@8 0044f6d0     libcpmt:wiostrea.obj
 0003:00002710       ??_R0?AV?$basic_filebuf@GU?$char_traits@G@std@@@std@@@8 0044f710     libcpmt:wiostrea.obj
 0003:00002750       ??_R0?AV?$basic_streambuf@GU?$char_traits@G@std@@@std@@@8 0044f750     libcpmt:wiostrea.obj
 0003:00002790       ??_R0?AVbad_alloc@std@@@8  0044f790     libcpmt:nomemory.obj
 0003:000027b0       ??_R0?AV?$num_put@GV?$ostreambuf_iterator@GU?$char_traits@G@std@@@std@@@std@@@8 0044f7b0     libcpmt:wlocale.obj
 0003:00002808       ??_R0?AV?$num_get@GV?$istreambuf_iterator@GU?$char_traits@G@std@@@std@@@std@@@8 0044f808     libcpmt:wlocale.obj
 0003:00002860       ??_R0?AV?$numpunct@G@std@@@8 0044f860     libcpmt:wlocale.obj
 0003:00002880       ??_R0?AV?$ctype@G@std@@@8  0044f880     libcpmt:wlocale.obj
 0003:000028a0       ??_R0?AV?$time_put@GV?$ostreambuf_iterator@GU?$char_traits@G@std@@@std@@@std@@@8 0044f8a0     libcpmt:wlocale.obj
 0003:000028f8       ??_R0?AUtime_base@std@@@8  0044f8f8     libcpmt:wlocale.obj
 0003:00002918       ??_R0?AV?$time_get@GV?$istreambuf_iterator@GU?$char_traits@G@std@@@std@@@std@@@8 0044f918     libcpmt:wlocale.obj
 0003:00002970       ??_R0?AV?$moneypunct@G$00@std@@@8 0044f970     libcpmt:wlocale.obj
 0003:00002998       ??_R0?AUmoney_base@std@@@8 0044f998     libcpmt:wlocale.obj
 0003:000029b8       ??_R0?AV?$_Mpunct@G@std@@@8 0044f9b8     libcpmt:wlocale.obj
 0003:000029d8       ??_R0?AV?$moneypunct@G$0A@@std@@@8 0044f9d8     libcpmt:wlocale.obj
 0003:00002a00       ??_R0?AV?$money_put@GV?$ostreambuf_iterator@GU?$char_traits@G@std@@@std@@@std@@@8 0044fa00     libcpmt:wlocale.obj
 0003:00002a58       ??_R0?AV?$money_get@GV?$istreambuf_iterator@GU?$char_traits@G@std@@@std@@@std@@@8 0044fa58     libcpmt:wlocale.obj
 0003:00002ab0       ??_R0?AUmessages_base@std@@@8 0044fab0     libcpmt:wlocale.obj
 0003:00002ad0       ??_R0?AV?$messages@G@std@@@8 0044fad0     libcpmt:wlocale.obj
 0003:00002af0       ??_R0?AV?$collate@G@std@@@8 0044faf0     libcpmt:wlocale.obj
 0003:00002b10       ??_R0?AV?$codecvt@GDH@std@@@8 0044fb10     libcpmt:wlocale.obj
 0003:00002b30       ??_R0?AV?$time_put@DV?$ostreambuf_iterator@DU?$char_traits@D@std@@@std@@@std@@@8 0044fb30     libcpmt:xlocale.obj
 0003:00002b88       ??_R0?AV?$time_get@DV?$istreambuf_iterator@DU?$char_traits@D@std@@@std@@@std@@@8 0044fb88     libcpmt:xlocale.obj
 0003:00002be0       ??_R0?AV?$moneypunct@D$00@std@@@8 0044fbe0     libcpmt:xlocale.obj
 0003:00002c08       ??_R0?AV?$_Mpunct@D@std@@@8 0044fc08     libcpmt:xlocale.obj
 0003:00002c28       ??_R0?AV?$moneypunct@D$0A@@std@@@8 0044fc28     libcpmt:xlocale.obj
 0003:00002c50       ??_R0?AV?$money_put@DV?$ostreambuf_iterator@DU?$char_traits@D@std@@@std@@@std@@@8 0044fc50     libcpmt:xlocale.obj
 0003:00002ca8       ??_R0?AV?$money_get@DV?$istreambuf_iterator@DU?$char_traits@D@std@@@std@@@std@@@8 0044fca8     libcpmt:xlocale.obj
 0003:00002d00       ??_R0?AV?$messages@D@std@@@8 0044fd00     libcpmt:xlocale.obj
 0003:00002d20       ??_R0?AV?$collate@D@std@@@8 0044fd20     libcpmt:xlocale.obj
 0003:00002d40       __NLG_Destination          0044fd40     LIBCMT:exsup.obj
 0003:00002d50       ??_R0?AVtype_info@@@8      0044fd50     LIBCMT:typinfo.obj
 0003:00002d68       ?__pMyUnhandledExceptionFilter@@3PAXA 0044fd68     LIBCMT:throw.obj
 0003:00002d70       __fltused                  0044fd70     LIBCMT:fpinit.obj
 0003:00002d74       __ldused                   0044fd74     LIBCMT:fpinit.obj
 0003:00002d78       __FPinit                   0044fd78     LIBCMT:fpinit.obj
 0003:00002d7c       __FPmtinit                 0044fd7c     LIBCMT:fpinit.obj
 0003:00002d80       __FPmtterm                 0044fd80     LIBCMT:fpinit.obj
 0003:00002d90       ___lconv_static_decimal    0044fd90     LIBCMT:lconv.obj
 0003:00002d98       ___lconv_c                 0044fd98     LIBCMT:lconv.obj
 0003:00002dc8       ___lconv                   0044fdc8     LIBCMT:lconv.obj
 0003:00002dd0       __aexit_rtn                0044fdd0     LIBCMT:wincrt0.obj
 0003:00002dd4       ___app_type                0044fdd4     LIBCMT:wincrt0.obj
 0003:00002ef0       ___lc_category             0044fef0     LIBCMT:setlocal.obj
 0003:000030a0       __iob                      004500a0     LIBCMT:_file.obj
 0003:00003320       ___mb_cur_max              00450320     LIBCMT:nlsdata1.obj
 0003:00003324       ___decimal_point           00450324     LIBCMT:nlsdata1.obj
 0003:00003328       ___decimal_point_length    00450328     LIBCMT:nlsdata1.obj
 0003:0000332c       ___lc_time_curr            0045032c     LIBCMT:strftime.obj
 0003:00003330       ___lc_time_c               00450330     LIBCMT:strftime.obj
 0003:000033dc       __locktable                004503dc     LIBCMT:mlock.obj
 0003:0000349c       __pctype                   0045049c     LIBCMT:ctype.obj
 0003:000034a0       __pwctype                  004504a0     LIBCMT:ctype.obj
 0003:000034a4       __ctype                    004504a4     LIBCMT:ctype.obj
 0003:000036a8       ___tlsindex                004506a8     LIBCMT:tidtable.obj
 0003:000036b0       ?__pInconsistency@@3P6AXXZA 004506b0     LIBCMT:hooks.obj
 0003:000036b4       ___nullstring              004506b4     LIBCMT:output.obj
 0003:000036b8       ___wnullstring             004506b8     LIBCMT:output.obj
 0003:000036c0       __cfltcvt_tab              004506c0     LIBCMT:cmiscdat.obj
 0003:000036e0       __XcptActTab               004506e0     LIBCMT:winxfltr.obj
 0003:00003758       __First_FPE_Indx           00450758     LIBCMT:winxfltr.obj
 0003:0000375c       __Num_FPE                  0045075c     LIBCMT:winxfltr.obj
 0003:00003760       __XcptActTabSize           00450760     LIBCMT:winxfltr.obj
 0003:00003764       __XcptActTabCount          00450764     LIBCMT:winxfltr.obj
 0003:00003768       ___badioinfo               00450768     LIBCMT:ioinit.obj
 0003:0000378c       __amblksiz                 0045078c     LIBCMT:heapinit.obj
 0003:00003820       ___sbh_threshold           00450820     LIBCMT:sbheap.obj
 0003:00003830       ___rgLocInfo               00450830     LIBCMT:getqloc.obj
 0003:00003cd4       ___rglangidNotDefault      00450cd4     LIBCMT:getqloc.obj
 0003:00003ce8       ___rg_country              00450ce8     LIBCMT:getqloc.obj
 0003:00003da0       ___rg_language             00450da0     LIBCMT:getqloc.obj
 0003:00003fa8       __timezone                 00450fa8     LIBCMT:timeset.obj
 0003:00003fac       __daylight                 00450fac     LIBCMT:timeset.obj
 0003:00003fb0       __dstbias                  00450fb0     LIBCMT:timeset.obj
 0003:00004034       __tzname                   00451034     LIBCMT:timeset.obj
 0003:00004060       __HUGE                     00451060     LIBCMT:huge.obj
 0003:00004068       __lpdays                   00451068     LIBCMT:days.obj
 0003:0000409c       __days                     0045109c     LIBCMT:days.obj
 0003:00004200       __pow10pos                 00451200     LIBCMT:constpow.obj
 0003:00004360       __pow10neg                 00451360     LIBCMT:constpow.obj
 0003:00004508       ?m_theNetwork@CBishopApp@@0VCNetwork@@A 00451508     Application.obj
 0003:00004538       ?m_hInst@CBishopApp@@0PAUHINSTANCE__@@A 00451538     Application.obj
 0003:0000453c       ?m_pIntercessor@CBishopApp@@0PAVCIntercessor@@A 0045153c     Application.obj
 0003:00004548       ?ATL_CREATE_OBJECT@CComApartment@ATL@@2IA 00451548     Application.obj
 0003:00004550       ?m_libid@CComModule@ATL@@2U_GUID@@A 00451550     Application.obj
 0003:00004560       ?_pModule@ATL@@3PAVCComModule@1@A 00451560     Application.obj
 0003:000045b0       ?m_thePlayerCreator@CGamePlayer@@0VCPlayerCreator@@A 004515b0     GamePlayer.obj
 0003:000045e8       ?m_sthePlayerTable@CGamePlayer@@0V?$map@V?$basic_string@DU?$char_traits@D@std@@V?$allocator@D@2@@std@@PAVIPlayer@@U?$less@V?$basic_string@DU?$char_traits@D@std@@V?$allocator@D@2@@std@@@2@V?$allocator@PAVIPlayer@@@2@@std@@A 004515e8     GamePlayer.obj
 0003:000045f8       ?m_csMapSP@CGamePlayer@@0VCCriticalSection@Win32@OnlineGameLib@@A 004515f8     GamePlayer.obj
 0003:00004618       ?m_theGlobalAllocator@CGamePlayer@@0VAllocator@CBuffer@Win32@OnlineGameLib@@A 00451618     GamePlayer.obj
 0003:00004678       ?m_slnIdentityCounts@CGamePlayer@@0JA 00451678     GamePlayer.obj
 0003:0000467c       ?m_lnWorkingCounts@CGamePlayer@@0JA 0045167c     GamePlayer.obj
 0003:00004680       ?m_pPlayerServer@CGamePlayer@@0PAUIServer@@A 00451680     GamePlayer.obj
 0003:00004684       ?m_pDBRoleClient@CGamePlayer@@0PAUIClient@@A 00451684     GamePlayer.obj
 0003:00004688       ?_Nil@?$_Tree@V?$basic_string@DU?$char_traits@D@std@@V?$allocator@D@2@@std@@V12@U_Kfn@?$set@V?$basic_string@DU?$char_traits@D@std@@V?$allocator@D@2@@std@@U?$less@V?$basic_string@DU?$char_traits@D@std@@V?$allocator@D@2@@std@@@2@V?$allocator@V?$basic_string@DU?$char_traits@D@std@@V?$allocator@D@2@@std@@@2@@2@U?$less@V?$basic_string@DU?$char_traits@D@std@@V?$allocator@D@2@@std@@@2@V?$allocator@V?$basic_string@DU?$char_traits@D@std@@V?$allocator@D@2@@std@@@2@@std@@1PAU_Node@12@A 00451688     GamePlayer.obj
 0003:0000468c       ?_Nilrefs@?$_Tree@V?$basic_string@DU?$char_traits@D@std@@V?$allocator@D@2@@std@@V12@U_Kfn@?$set@V?$basic_string@DU?$char_traits@D@std@@V?$allocator@D@2@@std@@U?$less@V?$basic_string@DU?$char_traits@D@std@@V?$allocator@D@2@@std@@@2@V?$allocator@V?$basic_string@DU?$char_traits@D@std@@V?$allocator@D@2@@std@@@2@@2@U?$less@V?$basic_string@DU?$char_traits@D@std@@V?$allocator@D@2@@std@@@2@V?$allocator@V?$basic_string@DU?$char_traits@D@std@@V?$allocator@D@2@@std@@@2@@std@@1IA 0045168c     GamePlayer.obj
 0003:00004690       ?_Nil@?$_Tree@V?$basic_string@DU?$char_traits@D@std@@V?$allocator@D@2@@std@@U?$pair@$$CBV?$basic_string@DU?$char_traits@D@std@@V?$allocator@D@2@@std@@PAVIPlayer@@@2@U_Kfn@?$map@V?$basic_string@DU?$char_traits@D@std@@V?$allocator@D@2@@std@@PAVIPlayer@@U?$less@V?$basic_string@DU?$char_traits@D@std@@V?$allocator@D@2@@std@@@2@V?$allocator@PAVIPlayer@@@2@@2@U?$less@V?$basic_string@DU?$char_traits@D@std@@V?$allocator@D@2@@std@@@2@V?$allocator@PAVIPlayer@@@2@@std@@1PAU_Node@12@A 00451690     GamePlayer.obj
 0003:00004694       ?_Nilrefs@?$_Tree@V?$basic_string@DU?$char_traits@D@std@@V?$allocator@D@2@@std@@U?$pair@$$CBV?$basic_string@DU?$char_traits@D@std@@V?$allocator@D@2@@std@@PAVIPlayer@@@2@U_Kfn@?$map@V?$basic_string@DU?$char_traits@D@std@@V?$allocator@D@2@@std@@PAVIPlayer@@U?$less@V?$basic_string@DU?$char_traits@D@std@@V?$allocator@D@2@@std@@@2@V?$allocator@PAVIPlayer@@@2@@2@U?$less@V?$basic_string@DU?$char_traits@D@std@@V?$allocator@D@2@@std@@@2@V?$allocator@PAVIPlayer@@@2@@std@@1IA 00451694     GamePlayer.obj
 0003:00004698       ?_Nilrefs@?$_Tree@JU?$pair@$$CBJPAVCBuffer@Win32@OnlineGameLib@@@std@@U_Kfn@?$map@JPAVCBuffer@Win32@OnlineGameLib@@U?$less@J@std@@V?$allocator@PAVCBuffer@Win32@OnlineGameLib@@@5@@2@U?$less@J@2@V?$allocator@PAVCBuffer@Win32@OnlineGameLib@@@2@@std@@1IA 00451698     GamePlayer.obj
 0003:0000469c       ?_Nil@?$_Tree@JU?$pair@$$CBJPAVCBuffer@Win32@OnlineGameLib@@@std@@U_Kfn@?$map@JPAVCBuffer@Win32@OnlineGameLib@@U?$less@J@std@@V?$allocator@PAVCBuffer@Win32@OnlineGameLib@@@5@@2@U?$less@J@2@V?$allocator@PAVCBuffer@Win32@OnlineGameLib@@@2@@std@@1PAU_Node@12@A 0045169c     GamePlayer.obj
 0003:000046a0       ??_C@_00A@?$AA@            004516a0     GamePlayer.obj
 0003:000046a4       ?_Psave@?1??use_facet@std@@YAABV?$num_put@DV?$ostreambuf_iterator@DU?$char_traits@D@std@@@std@@@2@ABVlocale@2@PBV32@_N@Z@4PBVfacet@42@B 004516a4     GamePlayer.obj
 0003:000046a8       ?_Psave@?1??use_facet@std@@YAABV?$numpunct@D@2@ABVlocale@2@PBV32@_N@Z@4PBVfacet@42@B 004516a8     GamePlayer.obj
 0003:000046ac       ?_Facsav@?$_Tidyfac@V?$num_put@DV?$ostreambuf_iterator@DU?$char_traits@D@std@@@std@@@std@@@std@@0PAV?$num_put@DV?$ostreambuf_iterator@DU?$char_traits@D@std@@@std@@@2@A 004516ac     GamePlayer.obj
 0003:000046b0       ?_Facsav@?$_Tidyfac@V?$numpunct@D@std@@@std@@0PAV?$numpunct@D@2@A 004516b0     GamePlayer.obj
 0003:000046e0       ?m_transferAccs@CGameServer@@0V?$set@V?$basic_string@DU?$char_traits@D@std@@V?$allocator@D@2@@std@@U?$less@V?$basic_string@DU?$char_traits@D@std@@V?$allocator@D@2@@std@@@2@V?$allocator@V?$basic_string@DU?$char_traits@D@std@@V?$allocator@D@2@@std@@@2@@std@@A 004516e0     GameServer.obj
 0003:000046f0       ?m_csTransfer@CGameServer@@0VCCriticalSection@Win32@OnlineGameLib@@A 004516f0     GameServer.obj
 0003:00004710       ?m_csGameSvrAction@CGameServer@@0VCCriticalSection@Win32@OnlineGameLib@@A 00451710     GameServer.obj
 0003:00004728       ?m_theGameServers@CGameServer@@0V?$map@IPAVIGServer@@U?$less@I@std@@V?$allocator@PAVIGServer@@@3@@std@@A 00451728     GameServer.obj
 0003:00004738       ?m_shStartupManagerThreadEvent@CGameServer@@0VCEvent@Win32@OnlineGameLib@@A 00451738     GameServer.obj
 0003:00004748       ?m_shQuitEvent@CGameServer@@0VCEvent@Win32@OnlineGameLib@@A 00451748     GameServer.obj
 0003:00004750       ?m_theMapIDConvert@CGameServer@@0V?$map@IV?$list@PAVIGServer@@V?$allocator@PAVIGServer@@@std@@@std@@U?$less@I@2@V?$allocator@V?$list@PAVIGServer@@V?$allocator@PAVIGServer@@@std@@@std@@@2@@std@@A 00451750     GameServer.obj
 0003:00004760       ?m_csMapIDAction@CGameServer@@0VCCriticalSection@Win32@OnlineGameLib@@A 00451760     GameServer.obj
 0003:00004780       ?m_theGlobalAllocator@CGameServer@@0VAllocator@CBuffer@Win32@OnlineGameLib@@A 00451780     GameServer.obj
 0003:000047b4       ?m_shManagerThread@CGameServer@@0PAXA 004517b4     GameServer.obj
 0003:000047b8       ?m_slnIdentityCounts@CGameServer@@0JA 004517b8     GameServer.obj
 0003:000047cc       ?_Nil@?$_Tree@IU?$pair@$$CBIV?$list@PAVIGServer@@V?$allocator@PAVIGServer@@@std@@@std@@@std@@U_Kfn@?$map@IV?$list@PAVIGServer@@V?$allocator@PAVIGServer@@@std@@@std@@U?$less@I@2@V?$allocator@V?$list@PAVIGServer@@V?$allocator@PAVIGServer@@@std@@@std@@@2@@2@U?$less@I@2@V?$allocator@V?$list@PAVIGServer@@V?$allocator@PAVIGServer@@@std@@@std@@@2@@std@@1PAU_Node@12@A 004517cc     GameServer.obj
 0003:000047d0       ?_Nilrefs@?$_Tree@IU?$pair@$$CBIV?$list@PAVIGServer@@V?$allocator@PAVIGServer@@@std@@@std@@@std@@U_Kfn@?$map@IV?$list@PAVIGServer@@V?$allocator@PAVIGServer@@@std@@@std@@U?$less@I@2@V?$allocator@V?$list@PAVIGServer@@V?$allocator@PAVIGServer@@@std@@@std@@@2@@2@U?$less@I@2@V?$allocator@V?$list@PAVIGServer@@V?$allocator@PAVIGServer@@@std@@@std@@@2@@std@@1IA 004517d0     GameServer.obj
 0003:000047d4       ?_Nil@?$_Tree@IU?$pair@$$CBIPAVIGServer@@@std@@U_Kfn@?$map@IPAVIGServer@@U?$less@I@std@@V?$allocator@PAVIGServer@@@3@@2@U?$less@I@2@V?$allocator@PAVIGServer@@@2@@std@@1PAU_Node@12@A 004517d4     GameServer.obj
 0003:000047d8       ?_Nilrefs@?$_Tree@IU?$pair@$$CBIPAVIGServer@@@std@@U_Kfn@?$map@IPAVIGServer@@U?$less@I@std@@V?$allocator@PAVIGServer@@@3@@2@U?$less@I@2@V?$allocator@PAVIGServer@@@2@@std@@1IA 004517d8     GameServer.obj
 0003:000047dc       ?_Nil@?$_Tree@V?$basic_string@DU?$char_traits@D@std@@V?$allocator@D@2@@std@@U?$pair@$$CBV?$basic_string@DU?$char_traits@D@std@@V?$allocator@D@2@@std@@UTransferInfo@@@2@U_Kfn@?$map@V?$basic_string@DU?$char_traits@D@std@@V?$allocator@D@2@@std@@UTransferInfo@@U?$less@V?$basic_string@DU?$char_traits@D@std@@V?$allocator@D@2@@std@@@2@V?$allocator@UTransferInfo@@@2@@2@U?$less@V?$basic_string@DU?$char_traits@D@std@@V?$allocator@D@2@@std@@@2@V?$allocator@UTransferInfo@@@2@@std@@1PAU_Node@12@A 004517dc     GameServer.obj
 0003:000047e0       ?_Nilrefs@?$_Tree@V?$basic_string@DU?$char_traits@D@std@@V?$allocator@D@2@@std@@U?$pair@$$CBV?$basic_string@DU?$char_traits@D@std@@V?$allocator@D@2@@std@@UTransferInfo@@@2@U_Kfn@?$map@V?$basic_string@DU?$char_traits@D@std@@V?$allocator@D@2@@std@@UTransferInfo@@U?$less@V?$basic_string@DU?$char_traits@D@std@@V?$allocator@D@2@@std@@@2@V?$allocator@UTransferInfo@@@2@@2@U?$less@V?$basic_string@DU?$char_traits@D@std@@V?$allocator@D@2@@std@@@2@V?$allocator@UTransferInfo@@@2@@std@@1IA 004517e0     GameServer.obj
 0003:000047e4       ?_Nilrefs@?$_Tree@V?$basic_string@DU?$char_traits@D@std@@V?$allocator@D@2@@std@@U?$pair@$$CBV?$basic_string@DU?$char_traits@D@std@@V?$allocator@D@2@@std@@PAX@2@U_Kfn@?$map@V?$basic_string@DU?$char_traits@D@std@@V?$allocator@D@2@@std@@PAXU?$less@V?$basic_string@DU?$char_traits@D@std@@V?$allocator@D@2@@std@@@2@V?$allocator@PAX@2@@2@U?$less@V?$basic_string@DU?$char_traits@D@std@@V?$allocator@D@2@@std@@@2@V?$allocator@PAX@2@@std@@1IA 004517e4     GameServer.obj
 0003:000047e8       ?_Nil@?$_Tree@V?$basic_string@DU?$char_traits@D@std@@V?$allocator@D@2@@std@@U?$pair@$$CBV?$basic_string@DU?$char_traits@D@std@@V?$allocator@D@2@@std@@PAX@2@U_Kfn@?$map@V?$basic_string@DU?$char_traits@D@std@@V?$allocator@D@2@@std@@PAXU?$less@V?$basic_string@DU?$char_traits@D@std@@V?$allocator@D@2@@std@@@2@V?$allocator@PAX@2@@2@U?$less@V?$basic_string@DU?$char_traits@D@std@@V?$allocator@D@2@@std@@@2@V?$allocator@PAX@2@@std@@1PAU_Node@12@A 004517e8     GameServer.obj
 0003:00004818       ?m_theRainbowLib@CIntercessor@@1VCLibrary@Win32@OnlineGameLib@@A 00451818     Intercessor.obj
 0003:00004838       ?m_theHeavenLib@CIntercessor@@1VCLibrary@Win32@OnlineGameLib@@A 00451838     Intercessor.obj
 0003:00004860       ?_Nilrefs@?$_Tree@IU?$pair@$$CBIPAVIPlayer@@@std@@U_Kfn@?$map@IPAVIPlayer@@U?$less@I@std@@V?$allocator@PAVIPlayer@@@3@@2@U?$less@I@2@V?$allocator@PAVIPlayer@@@2@@std@@1IA 00451860     Intercessor.obj
 0003:00004864       ?_Nil@?$_Tree@IU?$pair@$$CBIPAVIPlayer@@@std@@U_Kfn@?$map@IPAVIPlayer@@U?$less@I@std@@V?$allocator@PAVIPlayer@@@3@@2@U?$less@I@2@V?$allocator@PAVIPlayer@@@2@@std@@1PAU_Node@12@A 00451864     Intercessor.obj
 0003:00004868       ?m_theRainbowLib@CNetwork@@1VCLibrary@Win32@OnlineGameLib@@A 00451868     Network.obj
 0003:00004888       ?m_theHeavenLib@CNetwork@@1VCLibrary@Win32@OnlineGameLib@@A 00451888     Network.obj
 0003:000048a0       ?_Nilrefs@?$_Tree@IU?$pair@$$CBIV?$vector@IV?$allocator@I@std@@@std@@@std@@U_Kfn@?$map@IV?$vector@IV?$allocator@I@std@@@std@@U?$less@I@2@V?$allocator@V?$vector@IV?$allocator@I@std@@@std@@@2@@2@U?$less@I@2@V?$allocator@V?$vector@IV?$allocator@I@std@@@std@@@2@@std@@1IA 004518a0     PlayerCreator.obj
 0003:000048a4       ?_Nil@?$_Tree@IU?$pair@$$CBIV?$vector@IV?$allocator@I@std@@@std@@@std@@U_Kfn@?$map@IV?$vector@IV?$allocator@I@std@@@std@@U?$less@I@2@V?$allocator@V?$vector@IV?$allocator@I@std@@@std@@@2@@2@U?$less@I@2@V?$allocator@V?$vector@IV?$allocator@I@std@@@std@@@2@@std@@1PAU_Node@12@A 004518a4     PlayerCreator.obj
 0003:000048a8       ?g_theSmartClient@@3VCSmartClient@@A 004518a8     SmartClient.obj
 0003:00004968       ?m_theRainbowLib@CSmartClient@@0VCLibrary@Win32@OnlineGameLib@@A 00451968     SmartClient.obj
 0003:00004980       ?_Nilrefs@?$_Tree@EU?$pair@$$CBEPAVCBuffer@Win32@OnlineGameLib@@@std@@U_Kfn@?$map@EPAVCBuffer@Win32@OnlineGameLib@@U?$less@E@std@@V?$allocator@PAVCBuffer@Win32@OnlineGameLib@@@5@@2@U?$less@E@2@V?$allocator@PAVCBuffer@Win32@OnlineGameLib@@@2@@std@@1IA 00451980     common:Buffer.obj
 0003:00004984       ?_Nil@?$_Tree@EU?$pair@$$CBEPAVCBuffer@Win32@OnlineGameLib@@@std@@U_Kfn@?$map@EPAVCBuffer@Win32@OnlineGameLib@@U?$less@E@std@@V?$allocator@PAVCBuffer@Win32@OnlineGameLib@@@5@@2@U?$less@E@2@V?$allocator@PAVCBuffer@Win32@OnlineGameLib@@@2@@std@@1PAU_Node@12@A 00451984     common:Buffer.obj
 0003:00004ad8       ?s_criticalSection@Win32@OnlineGameLib@@3VCCriticalSection@12@A 00451ad8     common:Utils.obj
 0003:00004b14       ?_Index@ios_base@std@@0HA  00451b14     libcpmt:ios.obj
 0003:00004b4c       ?_Clocptr@_Locimp@locale@std@@0PAV123@A 00451b4c     libcpmt:locale0.obj
 0003:00004b50       ?_Global@_Locimp@locale@std@@0PAV123@A 00451b50     libcpmt:locale0.obj
 0003:00004b54       ?_Id_cnt@id@locale@std@@0HA 00451b54     libcpmt:locale0.obj
 0003:00004b58       ?_Cltab@?$ctype@D@std@@0PBFB 00451b58     libcpmt:locale0.obj
 0003:00004b5c       ?id@?$codecvt@DDH@std@@2V0locale@2@A 00451b5c     libcpmt:locale.obj
 0003:00004b60       ?id@?$num_get@DV?$istreambuf_iterator@DU?$char_traits@D@std@@@std@@@std@@2V0locale@2@A 00451b60     libcpmt:locale.obj
 0003:00004b64       ?id@?$ctype@D@std@@2V0locale@2@A 00451b64     libcpmt:locale.obj
 0003:00004b68       ?id@?$numpunct@D@std@@2V0locale@2@A 00451b68     libcpmt:locale.obj
 0003:00004b6c       ?id@?$num_put@DV?$ostreambuf_iterator@DU?$char_traits@D@std@@@std@@@std@@2V0locale@2@A 00451b6c     libcpmt:locale.obj
 0003:00004b70       ?_Psave@?1??use_facet@std@@YAABV?$ctype@D@2@ABVlocale@2@PBV32@_N@Z@4PBVfacet@42@B 00451b70     libcpmt:locale.obj
 0003:00004b74       ?_Psave@?1??use_facet@std@@YAABV?$num_get@DV?$istreambuf_iterator@DU?$char_traits@D@std@@@std@@@2@ABVlocale@2@PBV32@_N@Z@4PBVfacet@42@B 00451b74     libcpmt:locale.obj
 0003:00004b78       ?_Psave@?1??use_facet@std@@YAABV?$codecvt@DDH@2@ABVlocale@2@PBV32@_N@Z@4PBVfacet@42@B 00451b78     libcpmt:locale.obj
 0003:00004b7c       ?_Facsav@?$_Tidyfac@V?$ctype@D@std@@@std@@0PAV?$ctype@D@2@A 00451b7c     libcpmt:locale.obj
 0003:00004b80       ?_Facsav@?$_Tidyfac@V?$num_get@DV?$istreambuf_iterator@DU?$char_traits@D@std@@@std@@@std@@@std@@0PAV?$num_get@DV?$istreambuf_iterator@DU?$char_traits@D@std@@@std@@@2@A 00451b80     libcpmt:locale.obj
 0003:00004b84       ?_Facsav@?$_Tidyfac@V?$codecvt@DDH@std@@@std@@0PAV?$codecvt@DDH@2@A 00451b84     libcpmt:locale.obj
 0003:00004b88       ?clog@std@@3V?$basic_ostream@DU?$char_traits@D@std@@@1@A 00451b88     libcpmt:iostream.obj
 0003:00004c18       ?cout@std@@3V?$basic_ostream@DU?$char_traits@D@std@@@1@A 00451c18     libcpmt:iostream.obj
 0003:00004ca8       ?cin@std@@3V?$basic_istream@DU?$char_traits@D@std@@@1@A 00451ca8     libcpmt:iostream.obj
 0003:00004d40       ?cerr@std@@3V?$basic_ostream@DU?$char_traits@D@std@@@1@A 00451d40     libcpmt:iostream.obj
 0003:00004d78       ?wcerr@std@@3V?$basic_ostream@GU?$char_traits@G@std@@@1@A 00451d78     libcpmt:wiostrea.obj
 0003:00004db8       ?wclog@std@@3V?$basic_ostream@GU?$char_traits@G@std@@@1@A 00451db8     libcpmt:wiostrea.obj
 0003:00004df0       ?wcin@std@@3V?$basic_istream@GU?$char_traits@G@std@@@1@A 00451df0     libcpmt:wiostrea.obj
 0003:00004ee0       ?wcout@std@@3V?$basic_ostream@GU?$char_traits@G@std@@@1@A 00451ee0     libcpmt:wiostrea.obj
 0003:00004f84       ?id@?$numpunct@G@std@@2V0locale@2@A 00451f84     libcpmt:wlocale.obj
 0003:00004f88       ?id@?$money_get@GV?$istreambuf_iterator@GU?$char_traits@G@std@@@std@@@std@@2V0locale@2@A 00451f88     libcpmt:wlocale.obj
 0003:00004f8c       ?id@?$messages@G@std@@2V0locale@2@A 00451f8c     libcpmt:wlocale.obj
 0003:00004f90       ?id@?$moneypunct@G$00@std@@2V0locale@2@A 00451f90     libcpmt:wlocale.obj
 0003:00004f94       ?id@?$num_put@GV?$ostreambuf_iterator@GU?$char_traits@G@std@@@std@@@std@@2V0locale@2@A 00451f94     libcpmt:wlocale.obj
 0003:00004f98       ?id@?$collate@G@std@@2V0locale@2@A 00451f98     libcpmt:wlocale.obj
 0003:00004f9c       ?id@?$time_get@GV?$istreambuf_iterator@GU?$char_traits@G@std@@@std@@@std@@2V0locale@2@A 00451f9c     libcpmt:wlocale.obj
 0003:00004fa0       ?id@?$ctype@G@std@@2V0locale@2@A 00451fa0     libcpmt:wlocale.obj
 0003:00004fa4       ?id@?$num_get@GV?$istreambuf_iterator@GU?$char_traits@G@std@@@std@@@std@@2V0locale@2@A 00451fa4     libcpmt:wlocale.obj
 0003:00004fa8       ?id@?$codecvt@GDH@std@@2V0locale@2@A 00451fa8     libcpmt:wlocale.obj
 0003:00004fac       ?id@?$time_put@GV?$ostreambuf_iterator@GU?$char_traits@G@std@@@std@@@std@@2V0locale@2@A 00451fac     libcpmt:wlocale.obj
 0003:00004fb0       ?id@?$moneypunct@G$0A@@std@@2V0locale@2@A 00451fb0     libcpmt:wlocale.obj
 0003:00004fb4       ?id@?$money_put@GV?$ostreambuf_iterator@GU?$char_traits@G@std@@@std@@@std@@2V0locale@2@A 00451fb4     libcpmt:wlocale.obj
 0003:00004fb8       ?_Psave@?1??use_facet@std@@YAABV?$ctype@G@2@ABVlocale@2@PBV32@_N@Z@4PBVfacet@42@B 00451fb8     libcpmt:wlocale.obj
 0003:00004fbc       ?_Psave@?1??use_facet@std@@YAABV?$num_get@GV?$istreambuf_iterator@GU?$char_traits@G@std@@@std@@@2@ABVlocale@2@PBV32@_N@Z@4PBVfacet@42@B 00451fbc     libcpmt:wlocale.obj
 0003:00004fc0       ?_Psave@?1??use_facet@std@@YAABV?$num_put@GV?$ostreambuf_iterator@GU?$char_traits@G@std@@@std@@@2@ABVlocale@2@PBV32@_N@Z@4PBVfacet@42@B 00451fc0     libcpmt:wlocale.obj
 0003:00004fc4       ?_Psave@?1??use_facet@std@@YAABV?$numpunct@G@2@ABVlocale@2@PBV32@_N@Z@4PBVfacet@42@B 00451fc4     libcpmt:wlocale.obj
 0003:00004fc8       ?_Psave@?1??use_facet@std@@YAABV?$collate@G@2@ABVlocale@2@PBV32@_N@Z@4PBVfacet@42@B 00451fc8     libcpmt:wlocale.obj
 0003:00004fcc       ?_Psave@?1??use_facet@std@@YAABV?$messages@G@2@ABVlocale@2@PBV32@_N@Z@4PBVfacet@42@B 00451fcc     libcpmt:wlocale.obj
 0003:00004fd0       ?_Psave@?1??use_facet@std@@YAABV?$money_get@GV?$istreambuf_iterator@GU?$char_traits@G@std@@@std@@@2@ABVlocale@2@PBV32@_N@Z@4PBVfacet@42@B 00451fd0     libcpmt:wlocale.obj
 0003:00004fd4       ?_Psave@?1??use_facet@std@@YAABV?$money_put@GV?$ostreambuf_iterator@GU?$char_traits@G@std@@@std@@@2@ABVlocale@2@PBV32@_N@Z@4PBVfacet@42@B 00451fd4     libcpmt:wlocale.obj
 0003:00004fd8       ?_Psave@?1??use_facet@std@@YAABV?$moneypunct@G$0A@@2@ABVlocale@2@PBV32@_N@Z@4PBVfacet@42@B 00451fd8     libcpmt:wlocale.obj
 0003:00004fdc       ?_Psave@?1??use_facet@std@@YAABV?$moneypunct@G$00@2@ABVlocale@2@PBV32@_N@Z@4PBVfacet@42@B 00451fdc     libcpmt:wlocale.obj
 0003:00004fe0       ?_Psave@?1??use_facet@std@@YAABV?$time_get@GV?$istreambuf_iterator@GU?$char_traits@G@std@@@std@@@2@ABVlocale@2@PBV32@_N@Z@4PBVfacet@42@B 00451fe0     libcpmt:wlocale.obj
 0003:00004fe4       ?_Psave@?1??use_facet@std@@YAABV?$time_put@GV?$ostreambuf_iterator@GU?$char_traits@G@std@@@std@@@2@ABVlocale@2@PBV32@_N@Z@4PBVfacet@42@B 00451fe4     libcpmt:wlocale.obj
 0003:00004fe8       ?_Psave@?1??use_facet@std@@YAABV?$codecvt@GDH@2@ABVlocale@2@PBV32@_N@Z@4PBVfacet@42@B 00451fe8     libcpmt:wlocale.obj
 0003:00004fec       ?_Facsav@?$_Tidyfac@V?$ctype@G@std@@@std@@0PAV?$ctype@G@2@A 00451fec     libcpmt:wlocale.obj
 0003:00004ff0       ?_Facsav@?$_Tidyfac@V?$num_get@GV?$istreambuf_iterator@GU?$char_traits@G@std@@@std@@@std@@@std@@0PAV?$num_get@GV?$istreambuf_iterator@GU?$char_traits@G@std@@@std@@@2@A 00451ff0     libcpmt:wlocale.obj
 0003:00004ff4       ?_Facsav@?$_Tidyfac@V?$num_put@GV?$ostreambuf_iterator@GU?$char_traits@G@std@@@std@@@std@@@std@@0PAV?$num_put@GV?$ostreambuf_iterator@GU?$char_traits@G@std@@@std@@@2@A 00451ff4     libcpmt:wlocale.obj
 0003:00004ff8       ?_Facsav@?$_Tidyfac@V?$numpunct@G@std@@@std@@0PAV?$numpunct@G@2@A 00451ff8     libcpmt:wlocale.obj
 0003:00004ffc       ?_Facsav@?$_Tidyfac@V?$collate@G@std@@@std@@0PAV?$collate@G@2@A 00451ffc     libcpmt:wlocale.obj
 0003:00005000       ?_Facsav@?$_Tidyfac@V?$messages@G@std@@@std@@0PAV?$messages@G@2@A 00452000     libcpmt:wlocale.obj
 0003:00005004       ?_Facsav@?$_Tidyfac@V?$money_get@GV?$istreambuf_iterator@GU?$char_traits@G@std@@@std@@@std@@@std@@0PAV?$money_get@GV?$istreambuf_iterator@GU?$char_traits@G@std@@@std@@@2@A 00452004     libcpmt:wlocale.obj
 0003:00005008       ?_Facsav@?$_Tidyfac@V?$money_put@GV?$ostreambuf_iterator@GU?$char_traits@G@std@@@std@@@std@@@std@@0PAV?$money_put@GV?$ostreambuf_iterator@GU?$char_traits@G@std@@@std@@@2@A 00452008     libcpmt:wlocale.obj
 0003:0000500c       ?_Facsav@?$_Tidyfac@V?$moneypunct@G$0A@@std@@@std@@0PAV?$moneypunct@G$0A@@2@A 0045200c     libcpmt:wlocale.obj
 0003:00005010       ?_Facsav@?$_Tidyfac@V?$moneypunct@G$00@std@@@std@@0PAV?$moneypunct@G$00@2@A 00452010     libcpmt:wlocale.obj
 0003:00005014       ?_Facsav@?$_Tidyfac@V?$time_get@GV?$istreambuf_iterator@GU?$char_traits@G@std@@@std@@@std@@@std@@0PAV?$time_get@GV?$istreambuf_iterator@GU?$char_traits@G@std@@@std@@@2@A 00452014     libcpmt:wlocale.obj
 0003:00005018       ?_Facsav@?$_Tidyfac@V?$time_put@GV?$ostreambuf_iterator@GU?$char_traits@G@std@@@std@@@std@@@std@@0PAV?$time_put@GV?$ostreambuf_iterator@GU?$char_traits@G@std@@@std@@@2@A 00452018     libcpmt:wlocale.obj
 0003:0000501c       ?_Facsav@?$_Tidyfac@V?$codecvt@GDH@std@@@std@@0PAV?$codecvt@GDH@2@A 0045201c     libcpmt:wlocale.obj
 0003:00005020       ?id@?$money_put@DV?$ostreambuf_iterator@DU?$char_traits@D@std@@@std@@@std@@2V0locale@2@A 00452020     libcpmt:xlocale.obj
 0003:00005024       ?id@?$moneypunct@D$00@std@@2V0locale@2@A 00452024     libcpmt:xlocale.obj
 0003:00005028       ?id@?$time_get@DV?$istreambuf_iterator@DU?$char_traits@D@std@@@std@@@std@@2V0locale@2@A 00452028     libcpmt:xlocale.obj
 0003:0000502c       ?id@?$time_put@DV?$ostreambuf_iterator@DU?$char_traits@D@std@@@std@@@std@@2V0locale@2@A 0045202c     libcpmt:xlocale.obj
 0003:00005030       ?id@?$messages@D@std@@2V0locale@2@A 00452030     libcpmt:xlocale.obj
 0003:00005034       ?id@?$moneypunct@D$0A@@std@@2V0locale@2@A 00452034     libcpmt:xlocale.obj
 0003:00005038       ?id@?$money_get@DV?$istreambuf_iterator@DU?$char_traits@D@std@@@std@@@std@@2V0locale@2@A 00452038     libcpmt:xlocale.obj
 0003:0000503c       ?id@?$collate@D@std@@2V0locale@2@A 0045203c     libcpmt:xlocale.obj
 0003:00005040       ?_Psave@?1??use_facet@std@@YAABV?$collate@D@2@ABVlocale@2@PBV32@_N@Z@4PBVfacet@42@B 00452040     libcpmt:xlocale.obj
 0003:00005044       ?_Psave@?1??use_facet@std@@YAABV?$messages@D@2@ABVlocale@2@PBV32@_N@Z@4PBVfacet@42@B 00452044     libcpmt:xlocale.obj
 0003:00005048       ?_Psave@?1??use_facet@std@@YAABV?$money_get@DV?$istreambuf_iterator@DU?$char_traits@D@std@@@std@@@2@ABVlocale@2@PBV32@_N@Z@4PBVfacet@42@B 00452048     libcpmt:xlocale.obj
 0003:0000504c       ?_Psave@?1??use_facet@std@@YAABV?$money_put@DV?$ostreambuf_iterator@DU?$char_traits@D@std@@@std@@@2@ABVlocale@2@PBV32@_N@Z@4PBVfacet@42@B 0045204c     libcpmt:xlocale.obj
 0003:00005050       ?_Psave@?1??use_facet@std@@YAABV?$moneypunct@D$0A@@2@ABVlocale@2@PBV32@_N@Z@4PBVfacet@42@B 00452050     libcpmt:xlocale.obj
 0003:00005054       ?_Psave@?1??use_facet@std@@YAABV?$moneypunct@D$00@2@ABVlocale@2@PBV32@_N@Z@4PBVfacet@42@B 00452054     libcpmt:xlocale.obj
 0003:00005058       ?_Psave@?1??use_facet@std@@YAABV?$time_get@DV?$istreambuf_iterator@DU?$char_traits@D@std@@@std@@@2@ABVlocale@2@PBV32@_N@Z@4PBVfacet@42@B 00452058     libcpmt:xlocale.obj
 0003:0000505c       ?_Psave@?1??use_facet@std@@YAABV?$time_put@DV?$ostreambuf_iterator@DU?$char_traits@D@std@@@std@@@2@ABVlocale@2@PBV32@_N@Z@4PBVfacet@42@B 0045205c     libcpmt:xlocale.obj
 0003:00005060       ?_Facsav@?$_Tidyfac@V?$collate@D@std@@@std@@0PAV?$collate@D@2@A 00452060     libcpmt:xlocale.obj
 0003:00005064       ?_Facsav@?$_Tidyfac@V?$messages@D@std@@@std@@0PAV?$messages@D@2@A 00452064     libcpmt:xlocale.obj
 0003:00005068       ?_Facsav@?$_Tidyfac@V?$money_get@DV?$istreambuf_iterator@DU?$char_traits@D@std@@@std@@@std@@@std@@0PAV?$money_get@DV?$istreambuf_iterator@DU?$char_traits@D@std@@@std@@@2@A 00452068     libcpmt:xlocale.obj
 0003:0000506c       ?_Facsav@?$_Tidyfac@V?$money_put@DV?$ostreambuf_iterator@DU?$char_traits@D@std@@@std@@@std@@@std@@0PAV?$money_put@DV?$ostreambuf_iterator@DU?$char_traits@D@std@@@std@@@2@A 0045206c     libcpmt:xlocale.obj
 0003:00005070       ?_Facsav@?$_Tidyfac@V?$moneypunct@D$0A@@std@@@std@@0PAV?$moneypunct@D$0A@@2@A 00452070     libcpmt:xlocale.obj
 0003:00005074       ?_Facsav@?$_Tidyfac@V?$moneypunct@D$00@std@@@std@@0PAV?$moneypunct@D$00@2@A 00452074     libcpmt:xlocale.obj
 0003:00005078       ?_Facsav@?$_Tidyfac@V?$time_get@DV?$istreambuf_iterator@DU?$char_traits@D@std@@@std@@@std@@@std@@0PAV?$time_get@DV?$istreambuf_iterator@DU?$char_traits@D@std@@@std@@@2@A 00452078     libcpmt:xlocale.obj
 0003:0000507c       ?_Facsav@?$_Tidyfac@V?$time_put@DV?$ostreambuf_iterator@DU?$char_traits@D@std@@@std@@@std@@@std@@0PAV?$time_put@DV?$ostreambuf_iterator@DU?$char_traits@D@std@@@std@@@2@A 0045207c     libcpmt:xlocale.obj
 0003:000050a8       ___fastflag                004520a8     LIBCMT:fpinit.obj
 0003:000050ac       __adjust_fdiv              004520ac     LIBCMT:fpinit.obj
 0003:000050b0       ___lconv_static_null       004520b0     LIBCMT:lconv.obj
 0003:000050b4       __aenvptr                  004520b4     LIBCMT:wincrt0.obj
 0003:000050b8       __wenvptr                  004520b8     LIBCMT:wincrt0.obj
 0003:000050bc       ___error_mode              004520bc     LIBCMT:wincrt0.obj
 0003:000050cc       __cflush                   004520cc     LIBCMT:_file.obj
 0003:00005130       ___lc_handle               00452130     LIBCMT:nlsdata2.obj
 0003:00005148       ___lc_codepage             00452148     LIBCMT:nlsdata2.obj
 0003:0000514c       ___lc_collate_cp           0045214c     LIBCMT:nlsdata2.obj
 0003:00005158       __umaskval                 00452158     LIBCMT:crt0dat.obj
 0003:0000515c       __osver                    0045215c     LIBCMT:crt0dat.obj
 0003:00005160       __winver                   00452160     LIBCMT:crt0dat.obj
 0003:00005164       __winmajor                 00452164     LIBCMT:crt0dat.obj
 0003:00005168       __winminor                 00452168     LIBCMT:crt0dat.obj
 0003:0000516c       ___argc                    0045216c     LIBCMT:crt0dat.obj
 0003:00005170       ___argv                    00452170     LIBCMT:crt0dat.obj
 0003:00005174       ___wargv                   00452174     LIBCMT:crt0dat.obj
 0003:00005178       __environ                  00452178     LIBCMT:crt0dat.obj
 0003:0000517c       ___initenv                 0045217c     LIBCMT:crt0dat.obj
 0003:00005180       __wenviron                 00452180     LIBCMT:crt0dat.obj
 0003:00005184       ___winitenv                00452184     LIBCMT:crt0dat.obj
 0003:00005188       __pgmptr                   00452188     LIBCMT:crt0dat.obj
 0003:0000518c       __wpgmptr                  0045218c     LIBCMT:crt0dat.obj
 0003:00005190       __exitflag                 00452190     LIBCMT:crt0dat.obj
 0003:00005194       __C_Termination_Done       00452194     LIBCMT:crt0dat.obj
 0003:00005198       __C_Exit_Done              00452198     LIBCMT:crt0dat.obj
 0003:000051a0       __stdbuf                   004521a0     LIBCMT:_sftbuf.obj
 0003:000052b0       __adbgmsg                  004522b0     LIBCMT:crt0msg.obj
 0003:000052b4       ___lc_time_intl            004522b4     LIBCMT:inittime.obj
 0003:000052d0       ___lc_id                   004522d0     LIBCMT:nlsdata3.obj
 0003:00005318       __newmode                  00452318     LIBCMT:_newmode.obj
 0003:0000531c       ?_pnhHeap@@3P6AHI@ZA       0045231c     LIBCMT:handler.obj
 0003:000053e0       __commode                  004523e0     LIBCMT:ncommode.obj
 0003:00005414       __fmode                    00452414     LIBCMT:txtmode.obj
 0003:00005420       ??_B?1???id@?$num_put@DV?$ostreambuf_iterator@DU?$char_traits@D@std@@@$D@@9@51 00452420     <common>
 0003:00005421       ??_B?1???id@?$numpunct@D@std@@$D@@9@51 00452421     <common>
 0003:00005424       ?_Stz@?$fpos@H@std@@0HA    00452424     <common>
 0003:00005428       ??_B?1???id@?$ctype@G@std@@$D@@9@51 00452428     <common>
 0003:0000542c       ?_Stinit@?1??_Init@?$basic_filebuf@DU?$char_traits@D@std@@@std@@IAEXPAU_iobuf@@W4_Initfl@23@@Z@4HA 0045242c     <common>
 0003:00005430       ?_Stinit@?1??_Init@?$basic_filebuf@GU?$char_traits@G@std@@@std@@IAEXPAU_iobuf@@W4_Initfl@23@@Z@4HA 00452430     <common>
 0003:00005434       ??_B?1???id@?$collate@D@std@@$D@@9@51 00452434     <common>
 0003:00005438       ___mbcodepage              00452438     <common>
 0003:00005440       ___mbulinfo                00452440     <common>
 0003:0000544c       ___ismbcodepage            0045244c     <common>
 0003:00005460       __mbcasemap                00452460     <common>
 0003:00005560       __mbctype                  00452560     <common>
 0003:00005664       ___mblcid                  00452664     <common>
 0003:00005668       ___sbh_sizeHeaderList      00452668     <common>
 0003:0000566c       ___sbh_indGroupDefer       0045266c     <common>
 0003:00005670       ___sbh_pHeaderScan         00452670     <common>
 0003:00005674       ___sbh_pHeaderDefer        00452674     <common>
 0003:00005678       ___sbh_cntHeaderList       00452678     <common>
 0003:0000567c       ___sbh_pHeaderList         0045267c     <common>
 0003:00005680       __crtheap                  00452680     <common>
 0003:000056a0       ___pioinfo                 004526a0     <common>
 0003:000057a0       __nhandle                  004527a0     <common>
 0003:000057a4       ___env_initialized         004527a4     <common>
 0003:000057a8       ___mbctype_initialized     004527a8     <common>
 0003:000057ac       ___onexitend               004527ac     <common>
 0003:000057b0       ___onexitbegin             004527b0     <common>
 0003:000057b4       ___alternate_form          004527b4     <common>
 0003:000057b8       ___no_lead_zeros           004527b8     <common>
 0003:000057bc       ___piob                    004527bc     <common>
 0003:000057c0       __bufin                    004527c0     <common>
 0003:000067c0       __nstream                  004537c0     <common>
 0003:000067c4       ___setlc_active            004537c4     <common>
 0003:000067c8       ___unguarded_readlc_active 004537c8     <common>
 0003:000067cc       __acmdln                   004537cc     <common>

 entry point at        0001:00030eef

 Static symbols

 0001:00019090       _$E23                      0041a090 f   SmartClient.obj
 0001:000190a0       _$E19                      0041a0a0 f   SmartClient.obj
 0001:000190b0       _$E22                      0041a0b0 f   SmartClient.obj
 0001:000190c0       _$E20                      0041a0c0 f   SmartClient.obj
 0001:000190e0       _$E28                      0041a0e0 f   SmartClient.obj
 0001:000190f0       _$E25                      0041a0f0 f   SmartClient.obj
 0001:00019100       _$E27                      0041a100 f   SmartClient.obj
 0001:00019110       _$E26                      0041a110 f   SmartClient.obj
 0001:0001a180       _$E35                      0041b180 f   SmartClient.obj
 0001:0001a1a0       _$E34                      0041b1a0 f   SmartClient.obj
 0001:00019060       _$E23                      0041a060 f   PlayerCreator.obj
 0001:00019080       _$E22                      0041a080 f   PlayerCreator.obj
 0001:00016770       _$E24                      00417770 f   Network.obj
 0001:00016780       _$E20                      00417780 f   Network.obj
 0001:00016790       _$E23                      00417790 f   Network.obj
 0001:000167a0       _$E21                      004177a0 f   Network.obj
 0001:000167c0       _$E29                      004177c0 f   Network.obj
 0001:000167d0       _$E26                      004177d0 f   Network.obj
 0001:000167e0       _$E28                      004177e0 f   Network.obj
 0001:000167f0       _$E27                      004177f0 f   Network.obj
 0001:00017050       _$E36                      00418050 f   Network.obj
 0001:00017070       _$E35                      00418070 f   Network.obj
 0001:000147e0       _$E65                      004157e0 f   Intercessor.obj
 0001:000147f0       _$E61                      004157f0 f   Intercessor.obj
 0001:00014800       _$E64                      00415800 f   Intercessor.obj
 0001:00014810       _$E62                      00415810 f   Intercessor.obj
 0001:00014830       _$E70                      00415830 f   Intercessor.obj
 0001:00014840       _$E67                      00415840 f   Intercessor.obj
 0001:00014850       _$E69                      00415850 f   Intercessor.obj
 0001:00014860       _$E68                      00415860 f   Intercessor.obj
 0001:00014880       _$E75                      00415880 f   Intercessor.obj
 0001:00014890       _$E72                      00415890 f   Intercessor.obj
 0001:000148a0       _$E74                      004158a0 f   Intercessor.obj
 0001:000148b0       _$E73                      004158b0 f   Intercessor.obj
 0001:00016740       _$E82                      00417740 f   Intercessor.obj
 0001:00016760       _$E81                      00417760 f   Intercessor.obj
 0001:0000d050       _$E59                      0040e050 f   GameServer.obj
 0001:0000d060       _$E55                      0040e060 f   GameServer.obj
 0001:0000d080       _$E58                      0040e080 f   GameServer.obj
 0001:0000d090       _$E56                      0040e090 f   GameServer.obj
 0001:0000d0b0       _$E64                      0040e0b0 f   GameServer.obj
 0001:0000d0c0       _$E61                      0040e0c0 f   GameServer.obj
 0001:0000d0d0       _$E63                      0040e0d0 f   GameServer.obj
 0001:0000d0e0       _$E62                      0040e0e0 f   GameServer.obj
 0001:0000d100       _$E69                      0040e100 f   GameServer.obj
 0001:0000d110       _$E66                      0040e110 f   GameServer.obj
 0001:0000d130       _$E68                      0040e130 f   GameServer.obj
 0001:0000d140       _$E67                      0040e140 f   GameServer.obj
 0001:0000d1d0       _$E75                      0040e1d0 f   GameServer.obj
 0001:0000d1e0       _$E71                      0040e1e0 f   GameServer.obj
 0001:0000d200       _$E74                      0040e200 f   GameServer.obj
 0001:0000d210       _$E72                      0040e210 f   GameServer.obj
 0001:0000d230       _$E80                      0040e230 f   GameServer.obj
 0001:0000d240       _$E77                      0040e240 f   GameServer.obj
 0001:0000d260       _$E79                      0040e260 f   GameServer.obj
 0001:0000d270       _$E78                      0040e270 f   GameServer.obj
 0001:0000d290       _$E85                      0040e290 f   GameServer.obj
 0001:0000d2a0       _$E82                      0040e2a0 f   GameServer.obj
 0001:0000d2c0       _$E84                      0040e2c0 f   GameServer.obj
 0001:0000d2d0       _$E83                      0040e2d0 f   GameServer.obj
 0001:0000d360       _$E91                      0040e360 f   GameServer.obj
 0001:0000d370       _$E87                      0040e370 f   GameServer.obj
 0001:0000d380       _$E90                      0040e380 f   GameServer.obj
 0001:0000d390       _$E88                      0040e390 f   GameServer.obj
 0001:0000d3b0       _$E96                      0040e3b0 f   GameServer.obj
 0001:0000d3c0       _$E93                      0040e3c0 f   GameServer.obj
 0001:0000d3d0       _$E95                      0040e3d0 f   GameServer.obj
 0001:0000d3e0       _$E94                      0040e3e0 f   GameServer.obj
 0001:0000d400       _$E101                     0040e400 f   GameServer.obj
 0001:0000d410       _$E98                      0040e410 f   GameServer.obj
 0001:0000d430       _$E100                     0040e430 f   GameServer.obj
 0001:0000d440       _$E99                      0040e440 f   GameServer.obj
 0001:0000d460       _$E108                     0040e460 f   GameServer.obj
 0001:0000d470       _$E105                     0040e470 f   GameServer.obj
 0001:0000d490       _$E107                     0040e490 f   GameServer.obj
 0001:0000d4a0       _$E106                     0040e4a0 f   GameServer.obj
 0001:0000d520       _$E113                     0040e520 f   GameServer.obj
 0001:0000d530       _$E110                     0040e530 f   GameServer.obj
 0001:0000d540       _$E112                     0040e540 f   GameServer.obj
 0001:0000d550       _$E111                     0040e550 f   GameServer.obj
 0001:0000fa30       ?GenGuid@@YAXPAU_GUID@@@Z  00410a30 f   GameServer.obj
 0001:000147b0       _$E120                     004157b0 f   GameServer.obj
 0001:000147d0       _$E119                     004157d0 f   GameServer.obj
 0001:000022c0       _$E58                      004032c0 f   GamePlayer.obj
 0001:000022d0       _$E55                      004032d0 f   GamePlayer.obj
 0001:000022e0       _$E57                      004032e0 f   GamePlayer.obj
 0001:000022f0       _$E56                      004032f0 f   GamePlayer.obj
 0001:00002300       _$E63                      00403300 f   GamePlayer.obj
 0001:00002310       _$E60                      00403310 f   GamePlayer.obj
 0001:00002330       _$E62                      00403330 f   GamePlayer.obj
 0001:00002340       _$E61                      00403340 f   GamePlayer.obj
 0001:000023c0       _$E69                      004033c0 f   GamePlayer.obj
 0001:000023d0       _$E65                      004033d0 f   GamePlayer.obj
 0001:000023f0       _$E68                      004033f0 f   GamePlayer.obj
 0001:00002400       _$E66                      00403400 f   GamePlayer.obj
 0001:00002420       _$E74                      00403420 f   GamePlayer.obj
 0001:00002430       _$E71                      00403430 f   GamePlayer.obj
 0001:00002440       _$E73                      00403440 f   GamePlayer.obj
 0001:00002450       _$E72                      00403450 f   GamePlayer.obj
 0001:00002470       _$E79                      00403470 f   GamePlayer.obj
 0001:00002480       _$E76                      00403480 f   GamePlayer.obj
 0001:000024a0       _$E78                      004034a0 f   GamePlayer.obj
 0001:000024b0       _$E77                      004034b0 f   GamePlayer.obj
 0001:00002540       _$E85                      00403540 f   GamePlayer.obj
 0001:00002550       _$E81                      00403550 f   GamePlayer.obj
 0001:00002560       _$E84                      00403560 f   GamePlayer.obj
 0001:00002570       _$E82                      00403570 f   GamePlayer.obj
 0001:00002590       _$E90                      00403590 f   GamePlayer.obj
 0001:000025a0       _$E87                      004035a0 f   GamePlayer.obj
 0001:000025b0       _$E89                      004035b0 f   GamePlayer.obj
 0001:000025c0       _$E88                      004035c0 f   GamePlayer.obj
 0001:000025d0       _$E95                      004035d0 f   GamePlayer.obj
 0001:000025e0       _$E92                      004035e0 f   GamePlayer.obj
 0001:00002600       _$E94                      00403600 f   GamePlayer.obj
 0001:00002610       _$E93                      00403610 f   GamePlayer.obj
 0001:00002620       _$E100                     00403620 f   GamePlayer.obj
 0001:00002630       _$E97                      00403630 f   GamePlayer.obj
 0001:00002640       _$E99                      00403640 f   GamePlayer.obj
 0001:00002650       _$E98                      00403650 f   GamePlayer.obj
 0001:00003b70       ?ReleaseTempLock@@YAXABV?$basic_string@DU?$char_traits@D@std@@V?$allocator@D@2@@std@@@Z 00404b70 f   GamePlayer.obj
 0001:00003c30       ?LoginLog@@YAXPBDZZ        00404c30 f   GamePlayer.obj
 0001:00004140       ?ReleaseLoginLockSafe@@YAXABV?$basic_string@DU?$char_traits@D@std@@V?$allocator@D@2@@std@@@Z 00405140 f   GamePlayer.obj
 0001:00004ca0       ?AcquireTempLock@@YA_NABV?$basic_string@DU?$char_traits@D@std@@V?$allocator@D@2@@std@@@Z 00405ca0 f   GamePlayer.obj
 0001:000056f0       ?SendDataToPlayer@@YA_NPAUIServer@@IPBXI@Z 004066f0 f   GamePlayer.obj
 0001:0000b6d0       _$E111                     0040c6d0 f   GamePlayer.obj
 0001:0000b6f0       _$E108                     0040c6f0 f   GamePlayer.obj
 0001:0000cfe0       _$E119                     0040dfe0 f   GamePlayer.obj
 0001:0000d010       _$E115                     0040e010 f   GamePlayer.obj
 0001:0000d020       _$E118                     0040e020 f   GamePlayer.obj
 0001:000013d0       ?Create@Win32@OnlineGameLib@@YAPAXPAU_SECURITY_ATTRIBUTES@@_N1PBD@Z 004023d0 f   Event.obj
 0001:00002290       _$E19                      00403290 f   Event.obj
 0001:000022b0       _$E18                      004032b0 f   Event.obj
 0001:00001370       _$E68                      00402370 f   Bishop.obj
 0001:00001390       _$E67                      00402390 f   Bishop.obj
 0001:00000000       _$E68                      00401000 f   Application.obj
 0001:00000010       _$E64                      00401010 f   Application.obj
 0001:00000020       _$E67                      00401020 f   Application.obj
 0001:00000030       _$E65                      00401030 f   Application.obj
 0001:00001300       _$E75                      00402300 f   Application.obj
 0001:00001320       _$E74                      00402320 f   Application.obj
 0001:00020c70       _$E21                      00421c70 f   common:IniFile.obj
 0001:00020c90       _$E20                      00421c90 f   common:IniFile.obj
 0001:00020700       _$E19                      00421700 f   common:Library.obj
 0001:00020720       _$E18                      00421720 f   common:Library.obj
 0001:0001d030       _$E19                      0041e030 f   common:Utils.obj
 0001:0001d040       _$E16                      0041e040 f   common:Utils.obj
 0001:0001d050       _$E18                      0041e050 f   common:Utils.obj
 0001:0001d060       _$E17                      0041e060 f   common:Utils.obj
 0001:0001d070       _$E25                      0041e070 f   common:Utils.obj
 0001:0001d080       _$E22                      0041e080 f   common:Utils.obj
 0001:0001d090       _$E24                      0041e090 f   common:Utils.obj
 0001:0001d0a0       _$E23                      0041e0a0 f   common:Utils.obj
 0001:0001d0b0       _$E30                      0041e0b0 f   common:Utils.obj
 0001:0001d0c0       _$E27                      0041e0c0 f   common:Utils.obj
 0001:0001d0d0       _$E29                      0041e0d0 f   common:Utils.obj
 0001:0001d0e0       _$E28                      0041e0e0 f   common:Utils.obj
 0001:0001d0f0       _$E35                      0041e0f0 f   common:Utils.obj
 0001:0001d100       _$E32                      0041e100 f   common:Utils.obj
 0001:0001d110       _$E34                      0041e110 f   common:Utils.obj
 0001:0001d120       _$E33                      0041e120 f   common:Utils.obj
 0001:0001d140       _$E40                      0041e140 f   common:Utils.obj
 0001:0001d150       _$E37                      0041e150 f   common:Utils.obj
 0001:0001d230       _$E39                      0041e230 f   common:Utils.obj
 0001:0001d240       _$E38                      0041e240 f   common:Utils.obj
 0001:0001dc70       _$E43                      0041ec70 f   common:Utils.obj
 0001:0001e570       _$E45                      0041f570 f   common:Utils.obj
 0001:0001e7d0       _$E47                      0041f7d0 f   common:Utils.obj
 0001:0001ea30       _$E49                      0041fa30 f   common:Utils.obj
 0001:0001ee40       _$E51                      0041fe40 f   common:Utils.obj
 0001:000204e0       _$E58                      004214e0 f   common:Utils.obj
 0001:00020500       _$E57                      00421500 f   common:Utils.obj
 0001:0001d000       _$E23                      0041e000 f   common:Buffer.obj
 0001:0001d020       _$E22                      0041e020 f   common:Buffer.obj
 0001:0001ad80       _$E19                      0041bd80 f   common:Exception.obj
 0001:0001ada0       _$E18                      0041bda0 f   common:Exception.obj
 0001:0001a8e0       _$E21                      0041b8e0 f   common:Win32Exception.obj
 0001:0001a900       _$E20                      0041b900 f   common:Win32Exception.obj
 0001:0001a420       ?Create@Win32@OnlineGameLib@@YAPAXPAU_SECURITY_ATTRIBUTES@@HHPBD@Z 0041b420 f   common:Mutex.obj
 0001:0001a820       _$E19                      0041b820 f   common:Mutex.obj
 0001:0001a840       _$E18                      0041b840 f   common:Mutex.obj
 0001:0002f7f1       __Mbrtowc_lk               004307f1 f   libcpmt:xmbtowc.obj
 0001:0002f0bd       _$E37                      004300bd f   libcpmt:xlocale.obj
 0001:0002f0d2       _$E36                      004300d2 f   libcpmt:xlocale.obj
 0001:0002c1f4       _$E47                      0042d1f4 f   libcpmt:wlocale.obj
 0001:0002c209       _$E46                      0042d209 f   libcpmt:wlocale.obj
 0001:00026006       _$E2                       00427006 f   libcpmt:nomemory.obj
 0001:0002507f       _$E18                      0042607f f   libcpmt:wiostrea.obj
 0001:00025089       _$E15                      00426089 f   libcpmt:wiostrea.obj
 0001:00025093       _$E17                      00426093 f   libcpmt:wiostrea.obj
 0001:0002509f       _$E16                      0042609f f   libcpmt:wiostrea.obj
 0001:000250a9       _$E24                      004260a9 f   libcpmt:wiostrea.obj
 0001:000250b3       _$E21                      004260b3 f   libcpmt:wiostrea.obj
 0001:000250bd       _$E23                      004260bd f   libcpmt:wiostrea.obj
 0001:000250c9       _$E22                      004260c9 f   libcpmt:wiostrea.obj
 0001:000250d3       _$E29                      004260d3 f   libcpmt:wiostrea.obj
 0001:000250dd       _$E26                      004260dd f   libcpmt:wiostrea.obj
 0001:000250ea       _$E28                      004260ea f   libcpmt:wiostrea.obj
 0001:000250f6       _$E27                      004260f6 f   libcpmt:wiostrea.obj
 0001:00025100       _$E34                      00426100 f   libcpmt:wiostrea.obj
 0001:0002510a       _$E31                      0042610a f   libcpmt:wiostrea.obj
 0001:00025117       _$E33                      00426117 f   libcpmt:wiostrea.obj
 0001:00025123       _$E32                      00426123 f   libcpmt:wiostrea.obj
 0001:0002512d       _$E39                      0042612d f   libcpmt:wiostrea.obj
 0001:00025137       _$E36                      00426137 f   libcpmt:wiostrea.obj
 0001:00025144       _$E38                      00426144 f   libcpmt:wiostrea.obj
 0001:00025150       _$E37                      00426150 f   libcpmt:wiostrea.obj
 0001:0002515a       _$E44                      0042615a f   libcpmt:wiostrea.obj
 0001:00025164       _$E41                      00426164 f   libcpmt:wiostrea.obj
 0001:00025173       _$E43                      00426173 f   libcpmt:wiostrea.obj
 0001:0002517f       _$E42                      0042617f f   libcpmt:wiostrea.obj
 0001:0002519e       _$E49                      0042619e f   libcpmt:wiostrea.obj
 0001:000251a8       _$E46                      004261a8 f   libcpmt:wiostrea.obj
 0001:000251b7       _$E48                      004261b7 f   libcpmt:wiostrea.obj
 0001:000251c3       _$E47                      004261c3 f   libcpmt:wiostrea.obj
 0001:000251e2       _$E54                      004261e2 f   libcpmt:wiostrea.obj
 0001:000251ec       _$E51                      004261ec f   libcpmt:wiostrea.obj
 0001:000251fb       _$E53                      004261fb f   libcpmt:wiostrea.obj
 0001:00025207       _$E52                      00426207 f   libcpmt:wiostrea.obj
 0001:00025211       _$E59                      00426211 f   libcpmt:wiostrea.obj
 0001:0002521b       _$E56                      0042621b f   libcpmt:wiostrea.obj
 0001:0002522a       _$E58                      0042622a f   libcpmt:wiostrea.obj
 0001:00025236       _$E57                      00426236 f   libcpmt:wiostrea.obj
 0001:00025f04       _$E70                      00426f04 f   libcpmt:wiostrea.obj
 0001:00025f2e       _$E66                      00426f2e f   libcpmt:wiostrea.obj
 0001:00025f3a       _$E69                      00426f3a f   libcpmt:wiostrea.obj
 0001:00024b41       _$E18                      00425b41 f   libcpmt:iostream.obj
 0001:00024b4b       _$E15                      00425b4b f   libcpmt:iostream.obj
 0001:00024b58       _$E17                      00425b58 f   libcpmt:iostream.obj
 0001:00024b64       _$E16                      00425b64 f   libcpmt:iostream.obj
 0001:00024b6e       _$E23                      00425b6e f   libcpmt:iostream.obj
 0001:00024b78       _$E20                      00425b78 f   libcpmt:iostream.obj
 0001:00024b85       _$E22                      00425b85 f   libcpmt:iostream.obj
 0001:00024b91       _$E21                      00425b91 f   libcpmt:iostream.obj
 0001:00024b9b       _$E28                      00425b9b f   libcpmt:iostream.obj
 0001:00024ba5       _$E25                      00425ba5 f   libcpmt:iostream.obj
 0001:00024bb4       _$E27                      00425bb4 f   libcpmt:iostream.obj
 0001:00024bc0       _$E26                      00425bc0 f   libcpmt:iostream.obj
 0001:00024bca       _$E33                      00425bca f   libcpmt:iostream.obj
 0001:00024bd4       _$E30                      00425bd4 f   libcpmt:iostream.obj
 0001:00024be3       _$E32                      00425be3 f   libcpmt:iostream.obj
 0001:00024bef       _$E31                      00425bef f   libcpmt:iostream.obj
 0001:00024bf9       _$E38                      00425bf9 f   libcpmt:iostream.obj
 0001:00024c03       _$E35                      00425c03 f   libcpmt:iostream.obj
 0001:00024c10       _$E37                      00425c10 f   libcpmt:iostream.obj
 0001:00024c1c       _$E36                      00425c1c f   libcpmt:iostream.obj
 0001:00024c26       _$E43                      00425c26 f   libcpmt:iostream.obj
 0001:00024c30       _$E40                      00425c30 f   libcpmt:iostream.obj
 0001:00024c3f       _$E42                      00425c3f f   libcpmt:iostream.obj
 0001:00024c4b       _$E41                      00425c4b f   libcpmt:iostream.obj
 0001:00024c55       _$E48                      00425c55 f   libcpmt:iostream.obj
 0001:00024c5f       _$E45                      00425c5f f   libcpmt:iostream.obj
 0001:00024c6e       _$E47                      00425c6e f   libcpmt:iostream.obj
 0001:00024c7a       _$E46                      00425c7a f   libcpmt:iostream.obj
 0001:0002503d       _$E60                      0042603d f   libcpmt:iostream.obj
 0001:00025067       _$E56                      00426067 f   libcpmt:iostream.obj
 0001:00025073       _$E59                      00426073 f   libcpmt:iostream.obj
 0001:00024aff       _$E32                      00425aff f   libcpmt:locale.obj
 0001:00024b29       _$E28                      00425b29 f   libcpmt:locale.obj
 0001:00024b35       _$E31                      00425b35 f   libcpmt:locale.obj
 0001:000220dd       _$E18                      004230dd f   libcpmt:locale0.obj
 0001:000220e7       _$E15                      004230e7 f   libcpmt:locale0.obj
 0001:000220e8       _$E17                      004230e8 f   libcpmt:locale0.obj
 0001:000220f4       _$E16                      004230f4 f   libcpmt:locale0.obj
 0001:00022526       _$E29                      00423526 f   libcpmt:locale0.obj
 0001:00022550       _$E25                      00423550 f   libcpmt:locale0.obj
 0001:0002255c       _$E28                      0042355c f   libcpmt:locale0.obj
 0001:0002209b       _$E24                      0042309b f   libcpmt:strstrea.obj
 0001:000220c5       _$E20                      004230c5 f   libcpmt:strstrea.obj
 0001:000220d1       _$E23                      004230d1 f   libcpmt:strstrea.obj
 0001:000211c6       ?_CleanUp@std@@YAXXZ       004221c6 f   libcpmt:xlock.obj
 0001:00021105       _$E24                      00422105 f   libcpmt:string.obj
 0001:0002112f       _$E20                      0042212f f   libcpmt:string.obj
 0001:0002113b       _$E23                      0042213b f   libcpmt:string.obj
 0001:0003dfde       _findenv                   0043efde f   LIBCMT:setenv.obj
 0001:0003e036       _copy_environ              0043f036 f   LIBCMT:setenv.obj
 0001:0003d03e       _ctrlevent_capture@4       0043e03e f   LIBCMT:winsig.obj
 0001:0003d222       _siglookup                 0043e222 f   LIBCMT:winsig.obj
 0001:0003c691       _xtoa                      0043d691 f   LIBCMT:xtoa.obj
 0001:0003c763       _x64toa@20                 0043d763 f   LIBCMT:xtoa.obj
 0001:0003bd53       _getSystemCP               0043cd53 f   LIBCMT:mbctype.obj
 0001:0003bd9d       _CPtoLCID                  0043cd9d f   LIBCMT:mbctype.obj
 0001:0003bdd0       _setSBCS                   0043cdd0 f   LIBCMT:mbctype.obj
 0001:0003bdf9       _setSBUpLow                0043cdf9 f   LIBCMT:mbctype.obj
 0001:0003bb75       _x_ismbbtype               0043cb75 f   LIBCMT:ismbbyte.obj
 0001:0003b1e0       __abstract_cw              0043c1e0 f   LIBCMT:ieee87.obj
 0001:0003b272       __hw_cw                    0043c272 f   LIBCMT:ieee87.obj
 0001:0003b2fb       __abstract_sw              0043c2fb f   LIBCMT:ieee87.obj
 0001:0003a11e       __tzset_lk                 0043b11e f   LIBCMT:tzset.obj
 0001:0003a3c6       __isindst_lk               0043b3c6 f   LIBCMT:tzset.obj
 0001:0003a572       _cvtdate                   0043b572 f   LIBCMT:tzset.obj
 0001:00039467       _TranslateName             0043a467 f   LIBCMT:getqloc.obj
 0001:000394bf       _GetLcidFromLangCountry    0043a4bf f   LIBCMT:getqloc.obj
 0001:00039546       _LangCountryEnumProc@4     0043a546 f   LIBCMT:getqloc.obj
 0001:0003974a       _GetLcidFromLanguage       0043a74a f   LIBCMT:getqloc.obj
 0001:000397a0       _LanguageEnumProc@4        0043a7a0 f   LIBCMT:getqloc.obj
 0001:0003985d       _GetLcidFromCountry        0043a85d f   LIBCMT:getqloc.obj
 0001:00039894       _CountryEnumProc@4         0043a894 f   LIBCMT:getqloc.obj
 0001:0003991a       _GetLcidFromDefault        0043a91a f   LIBCMT:getqloc.obj
 0001:00039934       _ProcessCodePage           0043a934 f   LIBCMT:getqloc.obj
 0001:0003999a       _TestDefaultCountry        0043a99a f   LIBCMT:getqloc.obj
 0001:000399b9       _TestDefaultLanguage       0043a9b9 f   LIBCMT:getqloc.obj
 0001:00039a1b       _IsThisWindowsNT           0043aa1b f   LIBCMT:getqloc.obj
 0001:00039a51       _crtGetLocaleInfoA@16      0043aa51 f   LIBCMT:getqloc.obj
 0001:00039b37       _LcidFromHexString         0043ab37 f   LIBCMT:getqloc.obj
 0001:00039b70       _GetPrimaryLen             0043ab70 f   LIBCMT:getqloc.obj
 0001:00038e72       __get_lc_lconv             00439e72 f   LIBCMT:initmon.obj
 0001:00038f94       _fix_grouping              00439f94 f   LIBCMT:initmon.obj
 0001:00038fcb       __free_lc_lconv            00439fcb f   LIBCMT:initmon.obj
 0001:00038d70       _fix_grouping              00439d70 f   LIBCMT:initnum.obj
 0001:000386bd       __get_lc_time              004396bd f   LIBCMT:inittime.obj
 0001:00038a0b       __free_lc_time             00439a0b f   LIBCMT:inittime.obj
 0001:000366f6       _parse_cmdline             004376f6 f   LIBCMT:stdargv.obj
 0001:00036512       _xcptlookup                00437512 f   LIBCMT:winxfltr.obj
 0001:000360d8       __cftoe2                   004370d8 f   LIBCMT:cvt.obj
 0001:000361ef       __cftof2                   004371ef f   LIBCMT:cvt.obj
 0001:0003637a       __shift                    0043737a f   LIBCMT:cvt.obj
 0001:00035774       _write_char                00436774 f   LIBCMT:output.obj
 0001:000357a9       _write_multi_char          004367a9 f   LIBCMT:output.obj
 0001:000357da       _write_string              004367da f   LIBCMT:output.obj
 0001:00035812       _get_int_arg               00436812 f   LIBCMT:output.obj
 0001:0003581f       _get_int64_arg             0043681f f   LIBCMT:output.obj
 0001:0003582f       _get_short_arg             0043682f f   LIBCMT:output.obj
 0001:00034677       ?FindHandler@@YAXPAUEHExceptionRecord@@PAUEHRegistrationNode@@PAU_CONTEXT@@PAXPBU_s_FuncInfo@@EH1@Z 00435677 f   LIBCMT:frame.obj
 0001:0003482a       ?FindHandlerForForeignException@@YAXPAUEHExceptionRecord@@PAUEHRegistrationNode@@PAU_CONTEXT@@PAXPBU_s_FuncInfo@@HH1@Z 0043582a f   LIBCMT:frame.obj
 0001:000348d4       ?TypeMatch@@YAHPBU_s_HandlerType@@PBU_s_CatchableType@@PBU_s_ThrowInfo@@@Z 004358d4 f   LIBCMT:frame.obj
 0001:000349cf       ?FrameUnwindFilter@@YAHPAU_EXCEPTION_POINTERS@@@Z 004359cf f   LIBCMT:frame.obj
 0001:000349e5       ?CatchIt@@YAXPAUEHExceptionRecord@@PAUEHRegistrationNode@@PAU_CONTEXT@@PAXPBU_s_FuncInfo@@PBU_s_HandlerType@@PBU_s_CatchableType@@PBU_s_TryBlockMapEntry@@H1E@Z 004359e5 f   LIBCMT:frame.obj
 0001:00034a60       ?CallCatchBlock@@YAPAXPAUEHExceptionRecord@@PAUEHRegistrationNode@@PAU_CONTEXT@@PBU_s_FuncInfo@@PAXHK@Z 00435a60 f   LIBCMT:frame.obj
 0001:00034b7b       ?ExFilterRethrow@@YAHPAU_EXCEPTION_POINTERS@@@Z 00435b7b f   LIBCMT:frame.obj
 0001:00034ba5       ?BuildCatchObject@@YAXPAUEHExceptionRecord@@PAUEHRegistrationNode@@PBU_s_HandlerType@@PBU_s_CatchableType@@@Z 00435ba5 f   LIBCMT:frame.obj
 0001:00034dd0       ?AdjustPointer@@YAPAXPAXABUPMD@@@Z 00435dd0 f   LIBCMT:frame.obj
 0001:0003426c       _doexit                    0043526c f   LIBCMT:crt0dat.obj
 0001:00034323       __initterm                 00435323 f   LIBCMT:crt0dat.obj
 0001:000341d4       _strncnt                   004351d4 f   LIBCMT:a_cmp.obj
 0001:00033e0d       _strncnt                   00434e0d f   LIBCMT:a_map.obj
 0001:0003330c       __expandtime               0043430c f   LIBCMT:strftime.obj
 0001:000336fb       __store_str                004346fb f   LIBCMT:strftime.obj
 0001:00033722       __store_num                00434722 f   LIBCMT:strftime.obj
 0001:00033791       __store_number             00434791 f   LIBCMT:strftime.obj
 0001:000337da       __store_winword            004347da f   LIBCMT:strftime.obj
 0001:000326d0       _strtoxl                   004336d0 f   LIBCMT:strtol.obj
 0001:000320c2       __setlocale_set_cat        004330c2 f   LIBCMT:setlocal.obj
 0001:000321dd       __setlocale_get_all        004331dd f   LIBCMT:setlocal.obj
 0001:00031b00       LeadUp1                    00432b00 f   LIBCMT:memcpy.obj
 0001:00031b2c       LeadUp2                    00432b2c f   LIBCMT:memcpy.obj
 0001:00031b50       LeadUp3                    00432b50 f   LIBCMT:memcpy.obj
 0001:00031bcf       UnwindUp0                  00432bcf f   LIBCMT:memcpy.obj
 0001:00031bbc       UnwindUp1                  00432bbc f   LIBCMT:memcpy.obj
 0001:00031bb4       UnwindUp2                  00432bb4 f   LIBCMT:memcpy.obj
 0001:00031bac       UnwindUp3                  00432bac f   LIBCMT:memcpy.obj
 0001:00031ba4       UnwindUp4                  00432ba4 f   LIBCMT:memcpy.obj
 0001:00031b9c       UnwindUp5                  00432b9c f   LIBCMT:memcpy.obj
 0001:00031b94       UnwindUp6                  00432b94 f   LIBCMT:memcpy.obj
 0001:00031b8c       UnwindUp7                  00432b8c f   LIBCMT:memcpy.obj
 0001:00031be8       TrailUp0                   00432be8 f   LIBCMT:memcpy.obj
 0001:00031bf0       TrailUp1                   00432bf0 f   LIBCMT:memcpy.obj
 0001:00031bfc       TrailUp2                   00432bfc f   LIBCMT:memcpy.obj
 0001:00031c10       TrailUp3                   00432c10 f   LIBCMT:memcpy.obj
 0001:00031c88       LeadDown1                  00432c88 f   LIBCMT:memcpy.obj
 0001:00031ca8       LeadDown2                  00432ca8 f   LIBCMT:memcpy.obj
 0001:00031cd0       LeadDown3                  00432cd0 f   LIBCMT:memcpy.obj
 0001:00031d24       UnwindDown7                00432d24 f   LIBCMT:memcpy.obj
 0001:00031d2c       UnwindDown6                00432d2c f   LIBCMT:memcpy.obj
 0001:00031d34       UnwindDown5                00432d34 f   LIBCMT:memcpy.obj
 0001:00031d3c       UnwindDown4                00432d3c f   LIBCMT:memcpy.obj
 0001:00031d44       UnwindDown3                00432d44 f   LIBCMT:memcpy.obj
 0001:00031d4c       UnwindDown2                00432d4c f   LIBCMT:memcpy.obj
 0001:00031d54       UnwindDown1                00432d54 f   LIBCMT:memcpy.obj
 0001:00031d67       UnwindDown0                00432d67 f   LIBCMT:memcpy.obj
 0001:00031d80       TrailDown0                 00432d80 f   LIBCMT:memcpy.obj
 0001:00031d88       TrailDown1                 00432d88 f   LIBCMT:memcpy.obj
 0001:00031d98       TrailDown2                 00432d98 f   LIBCMT:memcpy.obj
 0001:00031dac       TrailDown3                 00432dac f   LIBCMT:memcpy.obj
 0001:000318fb       _flsall                    004328fb f   LIBCMT:fflush.obj
 0001:0003101c       _fast_error_exit           0043201c f   LIBCMT:wincrt0.obj
 0001:000307cc       ?ArrayUnwindFilter@@YAHPAU_EXCEPTION_POINTERS@@@Z 004317cc f   LIBCMT:ehvecdtr.obj
 0001:00030420       LeadUp1                    00431420 f   LIBCMT:memmove.obj
 0001:0003044c       LeadUp2                    0043144c f   LIBCMT:memmove.obj
 0001:00030470       LeadUp3                    00431470 f   LIBCMT:memmove.obj
 0001:000304ef       UnwindUp0                  004314ef f   LIBCMT:memmove.obj
 0001:000304dc       UnwindUp1                  004314dc f   LIBCMT:memmove.obj
 0001:000304d4       UnwindUp2                  004314d4 f   LIBCMT:memmove.obj
 0001:000304cc       UnwindUp3                  004314cc f   LIBCMT:memmove.obj
 0001:000304c4       UnwindUp4                  004314c4 f   LIBCMT:memmove.obj
 0001:000304bc       UnwindUp5                  004314bc f   LIBCMT:memmove.obj
 0001:000304b4       UnwindUp6                  004314b4 f   LIBCMT:memmove.obj
 0001:000304ac       UnwindUp7                  004314ac f   LIBCMT:memmove.obj
 0001:00030508       TrailUp0                   00431508 f   LIBCMT:memmove.obj
 0001:00030510       TrailUp1                   00431510 f   LIBCMT:memmove.obj
 0001:0003051c       TrailUp2                   0043151c f   LIBCMT:memmove.obj
 0001:00030530       TrailUp3                   00431530 f   LIBCMT:memmove.obj
 0001:000305a8       LeadDown1                  004315a8 f   LIBCMT:memmove.obj
 0001:000305c8       LeadDown2                  004315c8 f   LIBCMT:memmove.obj
 0001:000305f0       LeadDown3                  004315f0 f   LIBCMT:memmove.obj
 0001:00030644       UnwindDown7                00431644 f   LIBCMT:memmove.obj
 0001:0003064c       UnwindDown6                0043164c f   LIBCMT:memmove.obj
 0001:00030654       UnwindDown5                00431654 f   LIBCMT:memmove.obj
 0001:0003065c       UnwindDown4                0043165c f   LIBCMT:memmove.obj
 0001:00030664       UnwindDown3                00431664 f   LIBCMT:memmove.obj
 0001:0003066c       UnwindDown2                0043166c f   LIBCMT:memmove.obj
 0001:00030674       UnwindDown1                00431674 f   LIBCMT:memmove.obj
 0001:00030687       UnwindDown0                00431687 f   LIBCMT:memmove.obj
 0001:000306a0       TrailDown0                 004316a0 f   LIBCMT:memmove.obj
 0001:000306a8       TrailDown1                 004316a8 f   LIBCMT:memmove.obj
 0001:000306b8       TrailDown2                 004316b8 f   LIBCMT:memmove.obj
 0001:000306cc       TrailDown3                 004316cc f   LIBCMT:memmove.obj
 0001:00030194       _gu_return                 00431194 f   LIBCMT:exsup.obj
 0001:0003019c       __unwind_handler           0043119c f   LIBCMT:exsup.obj
 0001:0002ffb0       ?CatchGuardHandler@@YA?AW4_EXCEPTION_DISPOSITION@@PAUEHExceptionRecord@@PAUCatchGuardRN@@PAX2@Z 00430fb0 f   LIBCMT:trnsctrl.obj
 0001:0003008b       ?TranslatorGuardHandler@@YA?AW4_EXCEPTION_DISPOSITION@@PAUEHExceptionRecord@@PAUTranslatorGuardRN@@PAX2@Z 0043108b f   LIBCMT:trnsctrl.obj
